
kernel:     формат файла elf32-i386


Дизассемблирование раздела .text:

00100000 <_start-0xc>:
  100000:	02 b0 ad 1b 01 00    	add    0x11bad(%eax),%dh
  100006:	00 00                	add    %al,(%eax)
  100008:	fd                   	std    
  100009:	4f                   	dec    %edi
  10000a:	52                   	push   %edx
  10000b:	e4 31                	in     $0x31,%al

0010000c <_start>:
  10000c:	31 ed                	xor    %ebp,%ebp
  10000e:	5e                   	pop    %esi
  10000f:	89 e1                	mov    %esp,%ecx
  100011:	83 e4 f0             	and    $0xfffffff0,%esp
  100014:	50                   	push   %eax
  100015:	54                   	push   %esp
  100016:	52                   	push   %edx
  100017:	68 e0 44 10 00       	push   $0x1044e0
  10001c:	68 70 44 10 00       	push   $0x104470
  100021:	51                   	push   %ecx
  100022:	56                   	push   %esi
  100023:	68 c0 01 10 00       	push   $0x1001c0
  100028:	e8 a3 51 00 00       	call   1051d0 <__fini_array_end+0x3c>
  10002d:	f4                   	hlt    
  10002e:	66 90                	xchg   %ax,%ax

00100030 <__x86.get_pc_thunk.bx>:
  100030:	8b 1c 24             	mov    (%esp),%ebx
  100033:	c3                   	ret    
  100034:	66 90                	xchg   %ax,%ax
  100036:	66 90                	xchg   %ax,%ax
  100038:	66 90                	xchg   %ax,%ax
  10003a:	66 90                	xchg   %ax,%ax
  10003c:	66 90                	xchg   %ax,%ax
  10003e:	66 90                	xchg   %ax,%ax

00100040 <deregister_tm_clones>:
  100040:	b8 8f 6f 10 00       	mov    $0x106f8f,%eax
  100045:	2d 8c 6f 10 00       	sub    $0x106f8c,%eax
  10004a:	83 f8 06             	cmp    $0x6,%eax
  10004d:	77 01                	ja     100050 <deregister_tm_clones+0x10>
  10004f:	c3                   	ret    
  100050:	b8 00 00 00 00       	mov    $0x0,%eax
  100055:	85 c0                	test   %eax,%eax
  100057:	74 f6                	je     10004f <deregister_tm_clones+0xf>
  100059:	55                   	push   %ebp
  10005a:	89 e5                	mov    %esp,%ebp
  10005c:	83 ec 18             	sub    $0x18,%esp
  10005f:	c7 04 24 8c 6f 10 00 	movl   $0x106f8c,(%esp)
  100066:	ff d0                	call   *%eax
  100068:	c9                   	leave  
  100069:	c3                   	ret    
  10006a:	8d b6 00 00 00 00    	lea    0x0(%esi),%esi

00100070 <register_tm_clones>:
  100070:	b8 8c 6f 10 00       	mov    $0x106f8c,%eax
  100075:	2d 8c 6f 10 00       	sub    $0x106f8c,%eax
  10007a:	c1 f8 02             	sar    $0x2,%eax
  10007d:	89 c2                	mov    %eax,%edx
  10007f:	c1 ea 1f             	shr    $0x1f,%edx
  100082:	01 d0                	add    %edx,%eax
  100084:	d1 f8                	sar    %eax
  100086:	75 01                	jne    100089 <register_tm_clones+0x19>
  100088:	c3                   	ret    
  100089:	ba 00 00 00 00       	mov    $0x0,%edx
  10008e:	85 d2                	test   %edx,%edx
  100090:	74 f6                	je     100088 <register_tm_clones+0x18>
  100092:	55                   	push   %ebp
  100093:	89 e5                	mov    %esp,%ebp
  100095:	83 ec 18             	sub    $0x18,%esp
  100098:	89 44 24 04          	mov    %eax,0x4(%esp)
  10009c:	c7 04 24 8c 6f 10 00 	movl   $0x106f8c,(%esp)
  1000a3:	ff d2                	call   *%edx
  1000a5:	c9                   	leave  
  1000a6:	c3                   	ret    
  1000a7:	89 f6                	mov    %esi,%esi
  1000a9:	8d bc 27 00 00 00 00 	lea    0x0(%edi,%eiz,1),%edi

001000b0 <__do_global_dtors_aux>:
  1000b0:	80 3d a0 6f 10 00 00 	cmpb   $0x0,0x106fa0
  1000b7:	75 13                	jne    1000cc <__do_global_dtors_aux+0x1c>
  1000b9:	55                   	push   %ebp
  1000ba:	89 e5                	mov    %esp,%ebp
  1000bc:	83 ec 08             	sub    $0x8,%esp
  1000bf:	e8 7c ff ff ff       	call   100040 <deregister_tm_clones>
  1000c4:	c6 05 a0 6f 10 00 01 	movb   $0x1,0x106fa0
  1000cb:	c9                   	leave  
  1000cc:	f3 c3                	repz ret 
  1000ce:	66 90                	xchg   %ax,%ax

001000d0 <frame_dummy>:
  1000d0:	a1 88 6f 10 00       	mov    0x106f88,%eax
  1000d5:	85 c0                	test   %eax,%eax
  1000d7:	74 1f                	je     1000f8 <frame_dummy+0x28>
  1000d9:	b8 00 00 00 00       	mov    $0x0,%eax
  1000de:	85 c0                	test   %eax,%eax
  1000e0:	74 16                	je     1000f8 <frame_dummy+0x28>
  1000e2:	55                   	push   %ebp
  1000e3:	89 e5                	mov    %esp,%ebp
  1000e5:	83 ec 18             	sub    $0x18,%esp
  1000e8:	c7 04 24 88 6f 10 00 	movl   $0x106f88,(%esp)
  1000ef:	ff d0                	call   *%eax
  1000f1:	c9                   	leave  
  1000f2:	e9 79 ff ff ff       	jmp    100070 <register_tm_clones>
  1000f7:	90                   	nop
  1000f8:	e9 73 ff ff ff       	jmp    100070 <register_tm_clones>
  1000fd:	66 90                	xchg   %ax,%ax
  1000ff:	90                   	nop

00100100 <_Z9DoNothingv>:
  100100:	f3 c3                	repz ret 
  100102:	8d b4 26 00 00 00 00 	lea    0x0(%esi,%eiz,1),%esi
  100109:	8d bc 27 00 00 00 00 	lea    0x0(%edi,%eiz,1),%edi

00100110 <_Z15KeyboardHandlerv>:
  100110:	83 ec 1c             	sub    $0x1c,%esp
  100113:	e4 60                	in     $0x60,%al
  100115:	0f be c0             	movsbl %al,%eax
  100118:	89 44 24 04          	mov    %eax,0x4(%esp)
  10011c:	c7 04 24 00 7b 10 00 	movl   $0x107b00,(%esp)
  100123:	e8 38 2b 00 00       	call   102c60 <_ZN7Keyscan10scan2asciiEc>
  100128:	83 c4 1c             	add    $0x1c,%esp
  10012b:	c3                   	ret    
  10012c:	8d 74 26 00          	lea    0x0(%esi,%eiz,1),%esi

00100130 <_Z23KeyboardHandler_keyscanv>:
  100130:	83 ec 1c             	sub    $0x1c,%esp
  100133:	e4 60                	in     $0x60,%al
  100135:	0f b6 c0             	movzbl %al,%eax
  100138:	89 04 24             	mov    %eax,(%esp)
  10013b:	e8 40 03 00 00       	call   100480 <debug_printhex_int32>
  100140:	c7 44 24 04 02 00 00 	movl   $0x2,0x4(%esp)
  100147:	00 
  100148:	c7 04 24 69 46 10 00 	movl   $0x104669,(%esp)
  10014f:	e8 0c 02 00 00       	call   100360 <debug_write>
  100154:	83 c4 1c             	add    $0x1c,%esp
  100157:	c3                   	ret    
  100158:	90                   	nop
  100159:	8d b4 26 00 00 00 00 	lea    0x0(%esi,%eiz,1),%esi

00100160 <_Z4sendc>:
  100160:	83 ec 1c             	sub    $0x1c,%esp
  100163:	0f be 44 24 20       	movsbl 0x20(%esp),%eax
  100168:	89 04 24             	mov    %eax,(%esp)
  10016b:	e8 60 2e 00 00       	call   102fd0 <debug_putchar>
  100170:	b8 01 00 00 00       	mov    $0x1,%eax
  100175:	83 c4 1c             	add    $0x1c,%esp
  100178:	c3                   	ret    
  100179:	8d b4 26 00 00 00 00 	lea    0x0(%esi,%eiz,1),%esi

00100180 <_Z12keyscan_initv>:
  100180:	83 ec 1c             	sub    $0x1c,%esp
  100183:	c7 44 24 04 30 01 10 	movl   $0x100130,0x4(%esp)
  10018a:	00 
  10018b:	c7 04 24 21 00 00 00 	movl   $0x21,(%esp)
  100192:	e8 99 0d 00 00       	call   100f30 <_Z19abstract_irq_attachjPFvvE>
  100197:	83 c4 1c             	add    $0x1c,%esp
  10019a:	c3                   	ret    
  10019b:	90                   	nop
  10019c:	8d 74 26 00          	lea    0x0(%esi,%eiz,1),%esi

001001a0 <_Z4testv>:
  1001a0:	83 ec 1c             	sub    $0x1c,%esp
  1001a3:	c7 44 24 04 47 00 00 	movl   $0x47,0x4(%esp)
  1001aa:	00 
  1001ab:	c7 04 24 c0 6f 10 00 	movl   $0x106fc0,(%esp)
  1001b2:	e8 a9 2d 00 00       	call   102f60 <_ZN18video_page_command7putcharEi>
  1001b7:	83 c4 1c             	add    $0x1c,%esp
  1001ba:	c3                   	ret    
  1001bb:	66 90                	xchg   %ax,%ax
  1001bd:	66 90                	xchg   %ax,%ax
  1001bf:	90                   	nop

001001c0 <main>:
  1001c0:	55                   	push   %ebp
  1001c1:	89 e5                	mov    %esp,%ebp
  1001c3:	83 e4 f0             	and    $0xfffffff0,%esp
  1001c6:	83 ec 10             	sub    $0x10,%esp
  1001c9:	c7 04 24 ec 44 10 00 	movl   $0x1044ec,(%esp)
  1001d0:	e8 7b 03 00 00       	call   100550 <debug_print>
  1001d5:	e8 96 12 00 00       	call   101470 <initenv_sections_info>
  1001da:	e8 81 11 00 00       	call   101360 <initenv_bss_test>
  1001df:	90                   	nop
  1001e0:	e8 3b 11 00 00       	call   101320 <initenv_bss_clean>
  1001e5:	e8 c6 10 00 00       	call   1012b0 <initenv_cpp_global_constructors>
  1001ea:	e8 a1 2e 00 00       	call   103090 <_Z13platform_initv>
  1001ef:	c7 44 24 04 00 01 00 	movl   $0x100,0x4(%esp)
  1001f6:	00 
  1001f7:	c7 04 24 e0 6f 10 00 	movl   $0x106fe0,(%esp)
  1001fe:	e8 2d 0c 00 00       	call   100e30 <_Z17abstract_irq_initPvj>
  100203:	c7 44 24 04 00 01 10 	movl   $0x100100,0x4(%esp)
  10020a:	00 
  10020b:	c7 04 24 20 00 00 00 	movl   $0x20,(%esp)
  100212:	e8 19 0d 00 00       	call   100f30 <_Z19abstract_irq_attachjPFvvE>
  100217:	c7 44 24 04 10 01 10 	movl   $0x100110,0x4(%esp)
  10021e:	00 
  10021f:	c7 04 24 21 00 00 00 	movl   $0x21,(%esp)
  100226:	e8 05 0d 00 00       	call   100f30 <_Z19abstract_irq_attachjPFvvE>
  10022b:	c7 44 24 08 e8 03 00 	movl   $0x3e8,0x8(%esp)
  100232:	00 
  100233:	c7 44 24 04 20 7b 10 	movl   $0x107b20,0x4(%esp)
  10023a:	00 
  10023b:	c7 04 24 0c 7b 10 00 	movl   $0x107b0c,(%esp)
  100242:	c7 05 58 7a 10 00 60 	movl   $0x100160,0x107a58
  100249:	01 10 00 
  10024c:	e8 af 28 00 00       	call   102b00 <_ZN12Object_cache6engageEPvj>
  100251:	c7 05 08 7b 10 00 40 	movl   $0x107a40,0x107b08
  100258:	7a 10 00 
  10025b:	fb                   	sti    
  10025c:	e8 7f 27 00 00       	call   1029e0 <_Z25registry_standart_utilityv>
  100261:	e8 da 27 00 00       	call   102a40 <_Z22registry_alloc_utilityv>
  100266:	c7 44 24 04 e0 40 10 	movl   $0x1040e0,0x4(%esp)
  10026d:	00 
  10026e:	c7 04 24 f7 44 10 00 	movl   $0x1044f7,(%esp)
  100275:	e8 d6 24 00 00       	call   102750 <_Z11command_addPcj>
  10027a:	c7 44 24 04 80 01 10 	movl   $0x100180,0x4(%esp)
  100281:	00 
  100282:	c7 04 24 ff 44 10 00 	movl   $0x1044ff,(%esp)
  100289:	e8 c2 24 00 00       	call   102750 <_Z11command_addPcj>
  10028e:	c7 44 24 04 a0 01 10 	movl   $0x1001a0,0x4(%esp)
  100295:	00 
  100296:	c7 04 24 e6 4b 10 00 	movl   $0x104be6,(%esp)
  10029d:	e8 ae 24 00 00       	call   102750 <_Z11command_addPcj>
  1002a2:	8d b6 00 00 00 00    	lea    0x0(%esi),%esi
  1002a8:	c7 04 24 e0 78 10 00 	movl   $0x1078e0,(%esp)
  1002af:	e8 9c 21 00 00       	call   102450 <_ZN11rl_terminal6listenEv>
  1002b4:	eb f2                	jmp    1002a8 <main+0xe8>
  1002b6:	8d 76 00             	lea    0x0(%esi),%esi
  1002b9:	8d bc 27 00 00 00 00 	lea    0x0(%edi,%eiz,1),%edi

001002c0 <_GLOBAL__sub_I_O_buf>:
  1002c0:	83 ec 1c             	sub    $0x1c,%esp
  1002c3:	c7 44 24 08 00 00 00 	movl   $0x0,0x8(%esp)
  1002ca:	00 
  1002cb:	c7 44 24 04 10 00 00 	movl   $0x10,0x4(%esp)
  1002d2:	00 
  1002d3:	c7 04 24 0c 7b 10 00 	movl   $0x107b0c,(%esp)
  1002da:	e8 e1 27 00 00       	call   102ac0 <_ZN12Object_cacheC1EjP11Allocator_p>
  1002df:	c7 04 24 00 7b 10 00 	movl   $0x107b00,(%esp)
  1002e6:	e8 15 29 00 00       	call   102c00 <_ZN7KeyscanC1Ev>
  1002eb:	c7 04 24 c0 7a 10 00 	movl   $0x107ac0,(%esp)
  1002f2:	e8 c9 19 00 00       	call   101cc0 <_ZN12staticring_tC1Ev>
  1002f7:	c7 04 24 80 7a 10 00 	movl   $0x107a80,(%esp)
  1002fe:	e8 bd 19 00 00       	call   101cc0 <_ZN12staticring_tC1Ev>
  100303:	c7 44 24 08 80 7a 10 	movl   $0x107a80,0x8(%esp)
  10030a:	00 
  10030b:	c7 44 24 04 c0 7a 10 	movl   $0x107ac0,0x4(%esp)
  100312:	00 
  100313:	c7 04 24 40 7a 10 00 	movl   $0x107a40,(%esp)
  10031a:	e8 41 15 00 00       	call   101860 <_ZN8DBStreamC1EP7Queue_pS1_>
  10031f:	c7 04 24 00 7a 10 00 	movl   $0x107a00,(%esp)
  100326:	e8 75 22 00 00       	call   1025a0 <_ZN10readline_tC1Ev>
  10032b:	c7 44 24 08 00 7a 10 	movl   $0x107a00,0x8(%esp)
  100332:	00 
  100333:	c7 44 24 04 40 7a 10 	movl   $0x107a40,0x4(%esp)
  10033a:	00 
  10033b:	c7 04 24 e0 78 10 00 	movl   $0x1078e0,(%esp)
  100342:	e8 b9 1d 00 00       	call   102100 <_ZN11rl_terminalC1EP6StreamP10readline_t>
  100347:	c7 05 c0 6f 10 00 e8 	movl   $0x104ee8,0x106fc0
  10034e:	4e 10 00 
  100351:	83 c4 1c             	add    $0x1c,%esp
  100354:	c3                   	ret    
  100355:	66 90                	xchg   %ax,%ax
  100357:	66 90                	xchg   %ax,%ax
  100359:	66 90                	xchg   %ax,%ax
  10035b:	66 90                	xchg   %ax,%ax
  10035d:	66 90                	xchg   %ax,%ax
  10035f:	90                   	nop

00100360 <debug_write>:
  100360:	56                   	push   %esi
  100361:	53                   	push   %ebx
  100362:	83 ec 14             	sub    $0x14,%esp
  100365:	8b 44 24 24          	mov    0x24(%esp),%eax
  100369:	8b 5c 24 20          	mov    0x20(%esp),%ebx
  10036d:	85 c0                	test   %eax,%eax
  10036f:	8d 34 03             	lea    (%ebx,%eax,1),%esi
  100372:	7e 16                	jle    10038a <debug_write+0x2a>
  100374:	8d 74 26 00          	lea    0x0(%esi,%eiz,1),%esi
  100378:	0f be 03             	movsbl (%ebx),%eax
  10037b:	83 c3 01             	add    $0x1,%ebx
  10037e:	89 04 24             	mov    %eax,(%esp)
  100381:	e8 4a 2c 00 00       	call   102fd0 <debug_putchar>
  100386:	39 f3                	cmp    %esi,%ebx
  100388:	75 ee                	jne    100378 <debug_write+0x18>
  10038a:	83 c4 14             	add    $0x14,%esp
  10038d:	5b                   	pop    %ebx
  10038e:	5e                   	pop    %esi
  10038f:	c3                   	ret    

00100390 <debug_printhex_halfbyte>:
  100390:	8b 44 24 04          	mov    0x4(%esp),%eax
  100394:	3c 0f                	cmp    $0xf,%al
  100396:	0f 87 a4 00 00 00    	ja     100440 <debug_printhex_halfbyte+0xb0>
  10039c:	0f b6 c0             	movzbl %al,%eax
  10039f:	ff 24 85 08 45 10 00 	jmp    *0x104508(,%eax,4)
  1003a6:	66 90                	xchg   %ax,%ax
  1003a8:	b8 30 00 00 00       	mov    $0x30,%eax
  1003ad:	8d 76 00             	lea    0x0(%esi),%esi
  1003b0:	89 44 24 04          	mov    %eax,0x4(%esp)
  1003b4:	e9 17 2c 00 00       	jmp    102fd0 <debug_putchar>
  1003b9:	8d b4 26 00 00 00 00 	lea    0x0(%esi,%eiz,1),%esi
  1003c0:	b8 31 00 00 00       	mov    $0x31,%eax
  1003c5:	eb e9                	jmp    1003b0 <debug_printhex_halfbyte+0x20>
  1003c7:	90                   	nop
  1003c8:	b8 32 00 00 00       	mov    $0x32,%eax
  1003cd:	eb e1                	jmp    1003b0 <debug_printhex_halfbyte+0x20>
  1003cf:	90                   	nop
  1003d0:	b8 33 00 00 00       	mov    $0x33,%eax
  1003d5:	eb d9                	jmp    1003b0 <debug_printhex_halfbyte+0x20>
  1003d7:	90                   	nop
  1003d8:	b8 34 00 00 00       	mov    $0x34,%eax
  1003dd:	eb d1                	jmp    1003b0 <debug_printhex_halfbyte+0x20>
  1003df:	90                   	nop
  1003e0:	b8 35 00 00 00       	mov    $0x35,%eax
  1003e5:	eb c9                	jmp    1003b0 <debug_printhex_halfbyte+0x20>
  1003e7:	90                   	nop
  1003e8:	b8 36 00 00 00       	mov    $0x36,%eax
  1003ed:	eb c1                	jmp    1003b0 <debug_printhex_halfbyte+0x20>
  1003ef:	90                   	nop
  1003f0:	b8 37 00 00 00       	mov    $0x37,%eax
  1003f5:	eb b9                	jmp    1003b0 <debug_printhex_halfbyte+0x20>
  1003f7:	90                   	nop
  1003f8:	b8 38 00 00 00       	mov    $0x38,%eax
  1003fd:	eb b1                	jmp    1003b0 <debug_printhex_halfbyte+0x20>
  1003ff:	90                   	nop
  100400:	b8 39 00 00 00       	mov    $0x39,%eax
  100405:	eb a9                	jmp    1003b0 <debug_printhex_halfbyte+0x20>
  100407:	90                   	nop
  100408:	b8 41 00 00 00       	mov    $0x41,%eax
  10040d:	eb a1                	jmp    1003b0 <debug_printhex_halfbyte+0x20>
  10040f:	90                   	nop
  100410:	b8 42 00 00 00       	mov    $0x42,%eax
  100415:	eb 99                	jmp    1003b0 <debug_printhex_halfbyte+0x20>
  100417:	90                   	nop
  100418:	b8 43 00 00 00       	mov    $0x43,%eax
  10041d:	eb 91                	jmp    1003b0 <debug_printhex_halfbyte+0x20>
  10041f:	90                   	nop
  100420:	b8 44 00 00 00       	mov    $0x44,%eax
  100425:	eb 89                	jmp    1003b0 <debug_printhex_halfbyte+0x20>
  100427:	90                   	nop
  100428:	b8 45 00 00 00       	mov    $0x45,%eax
  10042d:	eb 81                	jmp    1003b0 <debug_printhex_halfbyte+0x20>
  10042f:	90                   	nop
  100430:	b8 46 00 00 00       	mov    $0x46,%eax
  100435:	e9 76 ff ff ff       	jmp    1003b0 <debug_printhex_halfbyte+0x20>
  10043a:	8d b6 00 00 00 00    	lea    0x0(%esi),%esi
  100440:	31 c0                	xor    %eax,%eax
  100442:	e9 69 ff ff ff       	jmp    1003b0 <debug_printhex_halfbyte+0x20>
  100447:	89 f6                	mov    %esi,%esi
  100449:	8d bc 27 00 00 00 00 	lea    0x0(%edi,%eiz,1),%edi

00100450 <debug_printhex_byte>:
  100450:	53                   	push   %ebx
  100451:	83 ec 18             	sub    $0x18,%esp
  100454:	8b 5c 24 20          	mov    0x20(%esp),%ebx
  100458:	89 d8                	mov    %ebx,%eax
  10045a:	83 e3 0f             	and    $0xf,%ebx
  10045d:	25 f0 00 00 00       	and    $0xf0,%eax
  100462:	c1 f8 04             	sar    $0x4,%eax
  100465:	89 04 24             	mov    %eax,(%esp)
  100468:	e8 23 ff ff ff       	call   100390 <debug_printhex_halfbyte>
  10046d:	89 5c 24 20          	mov    %ebx,0x20(%esp)
  100471:	83 c4 18             	add    $0x18,%esp
  100474:	5b                   	pop    %ebx
  100475:	e9 16 ff ff ff       	jmp    100390 <debug_printhex_halfbyte>
  10047a:	8d b6 00 00 00 00    	lea    0x0(%esi),%esi

00100480 <debug_printhex_int32>:
  100480:	83 ec 1c             	sub    $0x1c,%esp
  100483:	c7 04 24 30 00 00 00 	movl   $0x30,(%esp)
  10048a:	e8 41 2b 00 00       	call   102fd0 <debug_putchar>
  10048f:	c7 04 24 78 00 00 00 	movl   $0x78,(%esp)
  100496:	e8 35 2b 00 00       	call   102fd0 <debug_putchar>
  10049b:	0f be 44 24 23       	movsbl 0x23(%esp),%eax
  1004a0:	89 04 24             	mov    %eax,(%esp)
  1004a3:	e8 a8 ff ff ff       	call   100450 <debug_printhex_byte>
  1004a8:	0f be 44 24 22       	movsbl 0x22(%esp),%eax
  1004ad:	89 04 24             	mov    %eax,(%esp)
  1004b0:	e8 9b ff ff ff       	call   100450 <debug_printhex_byte>
  1004b5:	0f be 44 24 21       	movsbl 0x21(%esp),%eax
  1004ba:	89 04 24             	mov    %eax,(%esp)
  1004bd:	e8 8e ff ff ff       	call   100450 <debug_printhex_byte>
  1004c2:	0f be 44 24 20       	movsbl 0x20(%esp),%eax
  1004c7:	89 04 24             	mov    %eax,(%esp)
  1004ca:	e8 81 ff ff ff       	call   100450 <debug_printhex_byte>
  1004cf:	83 c4 1c             	add    $0x1c,%esp
  1004d2:	c3                   	ret    
  1004d3:	8d b6 00 00 00 00    	lea    0x0(%esi),%esi
  1004d9:	8d bc 27 00 00 00 00 	lea    0x0(%edi,%eiz,1),%edi

001004e0 <debug_printhex_int16>:
  1004e0:	83 ec 1c             	sub    $0x1c,%esp
  1004e3:	8b 44 24 20          	mov    0x20(%esp),%eax
  1004e7:	c7 04 24 30 00 00 00 	movl   $0x30,(%esp)
  1004ee:	66 89 44 24 0c       	mov    %ax,0xc(%esp)
  1004f3:	e8 d8 2a 00 00       	call   102fd0 <debug_putchar>
  1004f8:	c7 04 24 78 00 00 00 	movl   $0x78,(%esp)
  1004ff:	e8 cc 2a 00 00       	call   102fd0 <debug_putchar>
  100504:	0f be 44 24 0d       	movsbl 0xd(%esp),%eax
  100509:	89 04 24             	mov    %eax,(%esp)
  10050c:	e8 3f ff ff ff       	call   100450 <debug_printhex_byte>
  100511:	0f be 44 24 0c       	movsbl 0xc(%esp),%eax
  100516:	89 04 24             	mov    %eax,(%esp)
  100519:	e8 32 ff ff ff       	call   100450 <debug_printhex_byte>
  10051e:	83 c4 1c             	add    $0x1c,%esp
  100521:	c3                   	ret    
  100522:	8d b4 26 00 00 00 00 	lea    0x0(%esi,%eiz,1),%esi
  100529:	8d bc 27 00 00 00 00 	lea    0x0(%edi,%eiz,1),%edi

00100530 <debug_strlen>:
  100530:	8b 54 24 04          	mov    0x4(%esp),%edx
  100534:	31 c0                	xor    %eax,%eax
  100536:	80 3a 00             	cmpb   $0x0,(%edx)
  100539:	74 10                	je     10054b <debug_strlen+0x1b>
  10053b:	90                   	nop
  10053c:	8d 74 26 00          	lea    0x0(%esi,%eiz,1),%esi
  100540:	83 c0 01             	add    $0x1,%eax
  100543:	80 3c 02 00          	cmpb   $0x0,(%edx,%eax,1)
  100547:	75 f7                	jne    100540 <debug_strlen+0x10>
  100549:	f3 c3                	repz ret 
  10054b:	f3 c3                	repz ret 
  10054d:	8d 76 00             	lea    0x0(%esi),%esi

00100550 <debug_print>:
  100550:	56                   	push   %esi
  100551:	31 c0                	xor    %eax,%eax
  100553:	53                   	push   %ebx
  100554:	83 ec 14             	sub    $0x14,%esp
  100557:	8b 5c 24 20          	mov    0x20(%esp),%ebx
  10055b:	80 3b 00             	cmpb   $0x0,(%ebx)
  10055e:	74 22                	je     100582 <debug_print+0x32>
  100560:	83 c0 01             	add    $0x1,%eax
  100563:	80 3c 03 00          	cmpb   $0x0,(%ebx,%eax,1)
  100567:	75 f7                	jne    100560 <debug_print+0x10>
  100569:	8d 34 03             	lea    (%ebx,%eax,1),%esi
  10056c:	8d 74 26 00          	lea    0x0(%esi,%eiz,1),%esi
  100570:	0f be 13             	movsbl (%ebx),%edx
  100573:	83 c3 01             	add    $0x1,%ebx
  100576:	89 14 24             	mov    %edx,(%esp)
  100579:	e8 52 2a 00 00       	call   102fd0 <debug_putchar>
  10057e:	39 f3                	cmp    %esi,%ebx
  100580:	75 ee                	jne    100570 <debug_print+0x20>
  100582:	83 c4 14             	add    $0x14,%esp
  100585:	5b                   	pop    %ebx
  100586:	5e                   	pop    %esi
  100587:	c3                   	ret    
  100588:	90                   	nop
  100589:	8d b4 26 00 00 00 00 	lea    0x0(%esi,%eiz,1),%esi

00100590 <debug_print_dump>:
  100590:	55                   	push   %ebp
  100591:	57                   	push   %edi
  100592:	56                   	push   %esi
  100593:	31 f6                	xor    %esi,%esi
  100595:	53                   	push   %ebx
  100596:	83 ec 1c             	sub    $0x1c,%esp
  100599:	8b 44 24 34          	mov    0x34(%esp),%eax
  10059d:	8b 6c 24 30          	mov    0x30(%esp),%ebp
  1005a1:	85 c0                	test   %eax,%eax
  1005a3:	8d 7c 05 00          	lea    0x0(%ebp,%eax,1),%edi
  1005a7:	89 eb                	mov    %ebp,%ebx
  1005a9:	75 30                	jne    1005db <debug_print_dump+0x4b>
  1005ab:	eb 6c                	jmp    100619 <debug_print_dump+0x89>
  1005ad:	8d 76 00             	lea    0x0(%esi),%esi
  1005b0:	0f be 03             	movsbl (%ebx),%eax
  1005b3:	89 04 24             	mov    %eax,(%esp)
  1005b6:	e8 95 fe ff ff       	call   100450 <debug_printhex_byte>
  1005bb:	83 fe 07             	cmp    $0x7,%esi
  1005be:	74 68                	je     100628 <debug_print_dump+0x98>
  1005c0:	83 fe 0f             	cmp    $0xf,%esi
  1005c3:	74 3b                	je     100600 <debug_print_dump+0x70>
  1005c5:	c7 04 24 5c 46 10 00 	movl   $0x10465c,(%esp)
  1005cc:	83 c6 01             	add    $0x1,%esi
  1005cf:	e8 7c ff ff ff       	call   100550 <debug_print>
  1005d4:	83 c3 01             	add    $0x1,%ebx
  1005d7:	39 fb                	cmp    %edi,%ebx
  1005d9:	74 3e                	je     100619 <debug_print_dump+0x89>
  1005db:	85 f6                	test   %esi,%esi
  1005dd:	75 d1                	jne    1005b0 <debug_print_dump+0x20>
  1005df:	89 2c 24             	mov    %ebp,(%esp)
  1005e2:	e8 99 fe ff ff       	call   100480 <debug_printhex_int32>
  1005e7:	c7 04 24 48 45 10 00 	movl   $0x104548,(%esp)
  1005ee:	e8 5d ff ff ff       	call   100550 <debug_print>
  1005f3:	0f be 03             	movsbl (%ebx),%eax
  1005f6:	89 04 24             	mov    %eax,(%esp)
  1005f9:	e8 52 fe ff ff       	call   100450 <debug_printhex_byte>
  1005fe:	eb c5                	jmp    1005c5 <debug_print_dump+0x35>
  100600:	c7 04 24 6a 46 10 00 	movl   $0x10466a,(%esp)
  100607:	83 c3 01             	add    $0x1,%ebx
  10060a:	83 c5 10             	add    $0x10,%ebp
  10060d:	e8 3e ff ff ff       	call   100550 <debug_print>
  100612:	66 31 f6             	xor    %si,%si
  100615:	39 fb                	cmp    %edi,%ebx
  100617:	75 c2                	jne    1005db <debug_print_dump+0x4b>
  100619:	83 c4 1c             	add    $0x1c,%esp
  10061c:	5b                   	pop    %ebx
  10061d:	5e                   	pop    %esi
  10061e:	5f                   	pop    %edi
  10061f:	5d                   	pop    %ebp
  100620:	c3                   	ret    
  100621:	8d b4 26 00 00 00 00 	lea    0x0(%esi,%eiz,1),%esi
  100628:	c7 04 24 4b 45 10 00 	movl   $0x10454b,(%esp)
  10062f:	66 be 08 00          	mov    $0x8,%si
  100633:	e8 18 ff ff ff       	call   100550 <debug_print>
  100638:	eb 9a                	jmp    1005d4 <debug_print_dump+0x44>
  10063a:	66 90                	xchg   %ax,%ax
  10063c:	66 90                	xchg   %ax,%ax
  10063e:	66 90                	xchg   %ax,%ax

00100640 <delay_cpu>:
  100640:	83 ec 14             	sub    $0x14,%esp
  100643:	31 d2                	xor    %edx,%edx
  100645:	69 44 24 18 d0 07 00 	imul   $0x7d0,0x18(%esp),%eax
  10064c:	00 
  10064d:	89 44 24 08          	mov    %eax,0x8(%esp)
  100651:	89 54 24 0c          	mov    %edx,0xc(%esp)
  100655:	8d 76 00             	lea    0x0(%esi),%esi
  100658:	90                   	nop
  100659:	8b 44 24 08          	mov    0x8(%esp),%eax
  10065d:	8b 54 24 0c          	mov    0xc(%esp),%edx
  100661:	83 c0 ff             	add    $0xffffffff,%eax
  100664:	83 d2 ff             	adc    $0xffffffff,%edx
  100667:	89 44 24 08          	mov    %eax,0x8(%esp)
  10066b:	89 54 24 0c          	mov    %edx,0xc(%esp)
  10066f:	8b 44 24 08          	mov    0x8(%esp),%eax
  100673:	8b 54 24 0c          	mov    0xc(%esp),%edx
  100677:	89 d1                	mov    %edx,%ecx
  100679:	09 c1                	or     %eax,%ecx
  10067b:	75 db                	jne    100658 <delay_cpu+0x18>
  10067d:	83 c4 14             	add    $0x14,%esp
  100680:	c3                   	ret    
  100681:	66 90                	xchg   %ax,%ax
  100683:	66 90                	xchg   %ax,%ax
  100685:	66 90                	xchg   %ax,%ax
  100687:	66 90                	xchg   %ax,%ax
  100689:	66 90                	xchg   %ax,%ax
  10068b:	66 90                	xchg   %ax,%ax
  10068d:	66 90                	xchg   %ax,%ax
  10068f:	90                   	nop

00100690 <_Z11systemErrorPKc>:
  100690:	83 ec 1c             	sub    $0x1c,%esp
  100693:	c7 04 24 4d 45 10 00 	movl   $0x10454d,(%esp)
  10069a:	e8 b1 fe ff ff       	call   100550 <debug_print>
  10069f:	8b 44 24 20          	mov    0x20(%esp),%eax
  1006a3:	89 04 24             	mov    %eax,(%esp)
  1006a6:	e8 a5 fe ff ff       	call   100550 <debug_print>
  1006ab:	c7 44 24 04 02 00 00 	movl   $0x2,0x4(%esp)
  1006b2:	00 
  1006b3:	c7 04 24 69 46 10 00 	movl   $0x104669,(%esp)
  1006ba:	e8 a1 fc ff ff       	call   100360 <debug_write>
  1006bf:	e8 3c 2a 00 00       	call   103100 <_Z20systemError_platformv>
  1006c4:	eb fe                	jmp    1006c4 <_Z11systemErrorPKc+0x34>
  1006c6:	66 90                	xchg   %ax,%ax
  1006c8:	66 90                	xchg   %ax,%ax
  1006ca:	66 90                	xchg   %ax,%ax
  1006cc:	66 90                	xchg   %ax,%ax
  1006ce:	66 90                	xchg   %ax,%ax

001006d0 <_ZN5Print5writeEPKhj>:
  1006d0:	55                   	push   %ebp
  1006d1:	57                   	push   %edi
  1006d2:	31 ff                	xor    %edi,%edi
  1006d4:	56                   	push   %esi
  1006d5:	53                   	push   %ebx
  1006d6:	83 ec 1c             	sub    $0x1c,%esp
  1006d9:	8b 74 24 38          	mov    0x38(%esp),%esi
  1006dd:	8b 6c 24 30          	mov    0x30(%esp),%ebp
  1006e1:	8b 5c 24 34          	mov    0x34(%esp),%ebx
  1006e5:	85 f6                	test   %esi,%esi
  1006e7:	74 21                	je     10070a <_ZN5Print5writeEPKhj+0x3a>
  1006e9:	8d b4 26 00 00 00 00 	lea    0x0(%esi,%eiz,1),%esi
  1006f0:	83 c3 01             	add    $0x1,%ebx
  1006f3:	8b 45 00             	mov    0x0(%ebp),%eax
  1006f6:	0f b6 53 ff          	movzbl -0x1(%ebx),%edx
  1006fa:	89 2c 24             	mov    %ebp,(%esp)
  1006fd:	89 54 24 04          	mov    %edx,0x4(%esp)
  100701:	ff 10                	call   *(%eax)
  100703:	01 c7                	add    %eax,%edi
  100705:	83 ee 01             	sub    $0x1,%esi
  100708:	75 e6                	jne    1006f0 <_ZN5Print5writeEPKhj+0x20>
  10070a:	83 c4 1c             	add    $0x1c,%esp
  10070d:	89 f8                	mov    %edi,%eax
  10070f:	5b                   	pop    %ebx
  100710:	5e                   	pop    %esi
  100711:	5f                   	pop    %edi
  100712:	5d                   	pop    %ebp
  100713:	c3                   	ret    
  100714:	8d b6 00 00 00 00    	lea    0x0(%esi),%esi
  10071a:	8d bf 00 00 00 00    	lea    0x0(%edi),%edi

00100720 <_ZN5Print5writeEPKcj>:
  100720:	8b 44 24 04          	mov    0x4(%esp),%eax
  100724:	8b 10                	mov    (%eax),%edx
  100726:	8b 42 04             	mov    0x4(%edx),%eax
  100729:	ff e0                	jmp    *%eax
  10072b:	90                   	nop
  10072c:	8d 74 26 00          	lea    0x0(%esi,%eiz,1),%esi

00100730 <_ZN5Print5writeEPKc>:
  100730:	57                   	push   %edi
  100731:	31 c0                	xor    %eax,%eax
  100733:	56                   	push   %esi
  100734:	53                   	push   %ebx
  100735:	83 ec 10             	sub    $0x10,%esp
  100738:	8b 5c 24 24          	mov    0x24(%esp),%ebx
  10073c:	8b 74 24 20          	mov    0x20(%esp),%esi
  100740:	85 db                	test   %ebx,%ebx
  100742:	74 1a                	je     10075e <_ZN5Print5writeEPKc+0x2e>
  100744:	8b 06                	mov    (%esi),%eax
  100746:	8b 78 04             	mov    0x4(%eax),%edi
  100749:	89 1c 24             	mov    %ebx,(%esp)
  10074c:	e8 ff 07 00 00       	call   100f50 <_Z6strlenPKc>
  100751:	89 5c 24 04          	mov    %ebx,0x4(%esp)
  100755:	89 34 24             	mov    %esi,(%esp)
  100758:	89 44 24 08          	mov    %eax,0x8(%esp)
  10075c:	ff d7                	call   *%edi
  10075e:	83 c4 10             	add    $0x10,%esp
  100761:	5b                   	pop    %ebx
  100762:	5e                   	pop    %esi
  100763:	5f                   	pop    %edi
  100764:	c3                   	ret    
  100765:	90                   	nop
  100766:	8d 76 00             	lea    0x0(%esi),%esi
  100769:	8d bc 27 00 00 00 00 	lea    0x0(%edi,%eiz,1),%edi

00100770 <_ZN5Print5printEPKc>:
  100770:	e9 bb ff ff ff       	jmp    100730 <_ZN5Print5writeEPKc>
  100775:	90                   	nop
  100776:	8d 76 00             	lea    0x0(%esi),%esi
  100779:	8d bc 27 00 00 00 00 	lea    0x0(%edi,%eiz,1),%edi

00100780 <_ZN5Print5printEc>:
  100780:	8b 44 24 04          	mov    0x4(%esp),%eax
  100784:	0f b6 4c 24 08       	movzbl 0x8(%esp),%ecx
  100789:	8b 10                	mov    (%eax),%edx
  10078b:	89 4c 24 08          	mov    %ecx,0x8(%esp)
  10078f:	8b 02                	mov    (%edx),%eax
  100791:	ff e0                	jmp    *%eax
  100793:	90                   	nop
  100794:	8d b6 00 00 00 00    	lea    0x0(%esi),%esi
  10079a:	8d bf 00 00 00 00    	lea    0x0(%edi),%edi

001007a0 <_ZN5Print7printlnEv>:
  1007a0:	56                   	push   %esi
  1007a1:	53                   	push   %ebx
  1007a2:	83 ec 14             	sub    $0x14,%esp
  1007a5:	8b 5c 24 20          	mov    0x20(%esp),%ebx
  1007a9:	8b 03                	mov    (%ebx),%eax
  1007ab:	89 1c 24             	mov    %ebx,(%esp)
  1007ae:	c7 44 24 04 0d 00 00 	movl   $0xd,0x4(%esp)
  1007b5:	00 
  1007b6:	ff 10                	call   *(%eax)
  1007b8:	89 c6                	mov    %eax,%esi
  1007ba:	8b 03                	mov    (%ebx),%eax
  1007bc:	89 1c 24             	mov    %ebx,(%esp)
  1007bf:	c7 44 24 04 0a 00 00 	movl   $0xa,0x4(%esp)
  1007c6:	00 
  1007c7:	ff 10                	call   *(%eax)
  1007c9:	83 c4 14             	add    $0x14,%esp
  1007cc:	5b                   	pop    %ebx
  1007cd:	01 f0                	add    %esi,%eax
  1007cf:	5e                   	pop    %esi
  1007d0:	c3                   	ret    
  1007d1:	90                   	nop
  1007d2:	8d b4 26 00 00 00 00 	lea    0x0(%esi,%eiz,1),%esi
  1007d9:	8d bc 27 00 00 00 00 	lea    0x0(%edi,%eiz,1),%edi

001007e0 <_ZN5Print7printlnEPKc>:
  1007e0:	56                   	push   %esi
  1007e1:	53                   	push   %ebx
  1007e2:	83 ec 14             	sub    $0x14,%esp
  1007e5:	8b 5c 24 20          	mov    0x20(%esp),%ebx
  1007e9:	8b 44 24 24          	mov    0x24(%esp),%eax
  1007ed:	89 1c 24             	mov    %ebx,(%esp)
  1007f0:	89 44 24 04          	mov    %eax,0x4(%esp)
  1007f4:	e8 37 ff ff ff       	call   100730 <_ZN5Print5writeEPKc>
  1007f9:	89 1c 24             	mov    %ebx,(%esp)
  1007fc:	89 c6                	mov    %eax,%esi
  1007fe:	e8 9d ff ff ff       	call   1007a0 <_ZN5Print7printlnEv>
  100803:	83 c4 14             	add    $0x14,%esp
  100806:	5b                   	pop    %ebx
  100807:	01 f0                	add    %esi,%eax
  100809:	5e                   	pop    %esi
  10080a:	c3                   	ret    
  10080b:	90                   	nop
  10080c:	8d 74 26 00          	lea    0x0(%esi,%eiz,1),%esi

00100810 <_ZN5Print7printlnEc>:
  100810:	56                   	push   %esi
  100811:	53                   	push   %ebx
  100812:	83 ec 14             	sub    $0x14,%esp
  100815:	8b 5c 24 20          	mov    0x20(%esp),%ebx
  100819:	0f b6 54 24 24       	movzbl 0x24(%esp),%edx
  10081e:	8b 03                	mov    (%ebx),%eax
  100820:	89 54 24 04          	mov    %edx,0x4(%esp)
  100824:	89 1c 24             	mov    %ebx,(%esp)
  100827:	ff 10                	call   *(%eax)
  100829:	89 1c 24             	mov    %ebx,(%esp)
  10082c:	89 c6                	mov    %eax,%esi
  10082e:	e8 6d ff ff ff       	call   1007a0 <_ZN5Print7printlnEv>
  100833:	83 c4 14             	add    $0x14,%esp
  100836:	5b                   	pop    %ebx
  100837:	01 f0                	add    %esi,%eax
  100839:	5e                   	pop    %esi
  10083a:	c3                   	ret    
  10083b:	90                   	nop
  10083c:	8d 74 26 00          	lea    0x0(%esi,%eiz,1),%esi

00100840 <_ZN5Print11printNumberEmh>:
  100840:	55                   	push   %ebp
  100841:	57                   	push   %edi
  100842:	56                   	push   %esi
  100843:	53                   	push   %ebx
  100844:	83 ec 4c             	sub    $0x4c,%esp
  100847:	8b 44 24 60          	mov    0x60(%esp),%eax
  10084b:	65 8b 3d 14 00 00 00 	mov    %gs:0x14,%edi
  100852:	89 7c 24 3c          	mov    %edi,0x3c(%esp)
  100856:	31 ff                	xor    %edi,%edi
  100858:	8b 4c 24 64          	mov    0x64(%esp),%ecx
  10085c:	c6 44 24 3b 00       	movb   $0x0,0x3b(%esp)
  100861:	89 44 24 0c          	mov    %eax,0xc(%esp)
  100865:	8b 44 24 68          	mov    0x68(%esp),%eax
  100869:	3c 01                	cmp    $0x1,%al
  10086b:	76 63                	jbe    1008d0 <_ZN5Print11printNumberEmh+0x90>
  10086d:	89 c5                	mov    %eax,%ebp
  10086f:	0f b6 f8             	movzbl %al,%edi
  100872:	89 e8                	mov    %ebp,%eax
  100874:	89 cd                	mov    %ecx,%ebp
  100876:	8d 74 24 3b          	lea    0x3b(%esp),%esi
  10087a:	89 c1                	mov    %eax,%ecx
  10087c:	eb 04                	jmp    100882 <_ZN5Print11printNumberEmh+0x42>
  10087e:	66 90                	xchg   %ax,%ax
  100880:	89 dd                	mov    %ebx,%ebp
  100882:	89 e8                	mov    %ebp,%eax
  100884:	31 d2                	xor    %edx,%edx
  100886:	f7 f7                	div    %edi
  100888:	89 ea                	mov    %ebp,%edx
  10088a:	83 ee 01             	sub    $0x1,%esi
  10088d:	89 c3                	mov    %eax,%ebx
  10088f:	89 c8                	mov    %ecx,%eax
  100891:	0f af c3             	imul   %ebx,%eax
  100894:	29 c2                	sub    %eax,%edx
  100896:	89 d0                	mov    %edx,%eax
  100898:	3c 09                	cmp    $0x9,%al
  10089a:	8d 50 30             	lea    0x30(%eax),%edx
  10089d:	8d 68 37             	lea    0x37(%eax),%ebp
  1008a0:	0f 4f d5             	cmovg  %ebp,%edx
  1008a3:	85 db                	test   %ebx,%ebx
  1008a5:	88 16                	mov    %dl,(%esi)
  1008a7:	75 d7                	jne    100880 <_ZN5Print11printNumberEmh+0x40>
  1008a9:	8b 44 24 0c          	mov    0xc(%esp),%eax
  1008ad:	89 74 24 04          	mov    %esi,0x4(%esp)
  1008b1:	89 04 24             	mov    %eax,(%esp)
  1008b4:	e8 77 fe ff ff       	call   100730 <_ZN5Print5writeEPKc>
  1008b9:	8b 4c 24 3c          	mov    0x3c(%esp),%ecx
  1008bd:	65 33 0d 14 00 00 00 	xor    %gs:0x14,%ecx
  1008c4:	75 16                	jne    1008dc <_ZN5Print11printNumberEmh+0x9c>
  1008c6:	83 c4 4c             	add    $0x4c,%esp
  1008c9:	5b                   	pop    %ebx
  1008ca:	5e                   	pop    %esi
  1008cb:	5f                   	pop    %edi
  1008cc:	5d                   	pop    %ebp
  1008cd:	c3                   	ret    
  1008ce:	66 90                	xchg   %ax,%ax
  1008d0:	bf 0a 00 00 00       	mov    $0xa,%edi
  1008d5:	bd 0a 00 00 00       	mov    $0xa,%ebp
  1008da:	eb 96                	jmp    100872 <_ZN5Print11printNumberEmh+0x32>
  1008dc:	e8 0f 49 00 00       	call   1051f0 <__fini_array_end+0x5c>
  1008e1:	90                   	nop
  1008e2:	8d b4 26 00 00 00 00 	lea    0x0(%esi,%eiz,1),%esi
  1008e9:	8d bc 27 00 00 00 00 	lea    0x0(%edi,%eiz,1),%edi

001008f0 <_ZN5Print5printEli>:
  1008f0:	57                   	push   %edi
  1008f1:	56                   	push   %esi
  1008f2:	53                   	push   %ebx
  1008f3:	83 ec 10             	sub    $0x10,%esp
  1008f6:	8b 44 24 28          	mov    0x28(%esp),%eax
  1008fa:	8b 5c 24 20          	mov    0x20(%esp),%ebx
  1008fe:	8b 74 24 24          	mov    0x24(%esp),%esi
  100902:	85 c0                	test   %eax,%eax
  100904:	74 32                	je     100938 <_ZN5Print5printEli+0x48>
  100906:	83 f8 0a             	cmp    $0xa,%eax
  100909:	74 1d                	je     100928 <_ZN5Print5printEli+0x38>
  10090b:	0f b6 c0             	movzbl %al,%eax
  10090e:	89 44 24 28          	mov    %eax,0x28(%esp)
  100912:	89 74 24 24          	mov    %esi,0x24(%esp)
  100916:	89 5c 24 20          	mov    %ebx,0x20(%esp)
  10091a:	83 c4 10             	add    $0x10,%esp
  10091d:	5b                   	pop    %ebx
  10091e:	5e                   	pop    %esi
  10091f:	5f                   	pop    %edi
  100920:	e9 1b ff ff ff       	jmp    100840 <_ZN5Print11printNumberEmh>
  100925:	8d 76 00             	lea    0x0(%esi),%esi
  100928:	85 f6                	test   %esi,%esi
  10092a:	78 24                	js     100950 <_ZN5Print5printEli+0x60>
  10092c:	c7 44 24 28 0a 00 00 	movl   $0xa,0x28(%esp)
  100933:	00 
  100934:	eb dc                	jmp    100912 <_ZN5Print5printEli+0x22>
  100936:	66 90                	xchg   %ax,%ax
  100938:	8b 03                	mov    (%ebx),%eax
  10093a:	89 f2                	mov    %esi,%edx
  10093c:	0f b6 f2             	movzbl %dl,%esi
  10093f:	89 74 24 24          	mov    %esi,0x24(%esp)
  100943:	8b 00                	mov    (%eax),%eax
  100945:	83 c4 10             	add    $0x10,%esp
  100948:	5b                   	pop    %ebx
  100949:	5e                   	pop    %esi
  10094a:	5f                   	pop    %edi
  10094b:	ff e0                	jmp    *%eax
  10094d:	8d 76 00             	lea    0x0(%esi),%esi
  100950:	8b 03                	mov    (%ebx),%eax
  100952:	f7 de                	neg    %esi
  100954:	89 1c 24             	mov    %ebx,(%esp)
  100957:	c7 44 24 04 2d 00 00 	movl   $0x2d,0x4(%esp)
  10095e:	00 
  10095f:	ff 10                	call   *(%eax)
  100961:	89 74 24 04          	mov    %esi,0x4(%esp)
  100965:	89 1c 24             	mov    %ebx,(%esp)
  100968:	c7 44 24 08 0a 00 00 	movl   $0xa,0x8(%esp)
  10096f:	00 
  100970:	89 c7                	mov    %eax,%edi
  100972:	e8 c9 fe ff ff       	call   100840 <_ZN5Print11printNumberEmh>
  100977:	83 c4 10             	add    $0x10,%esp
  10097a:	5b                   	pop    %ebx
  10097b:	5e                   	pop    %esi
  10097c:	01 f8                	add    %edi,%eax
  10097e:	5f                   	pop    %edi
  10097f:	c3                   	ret    

00100980 <_ZN5Print5printEii>:
  100980:	e9 6b ff ff ff       	jmp    1008f0 <_ZN5Print5printEli>
  100985:	90                   	nop
  100986:	8d 76 00             	lea    0x0(%esi),%esi
  100989:	8d bc 27 00 00 00 00 	lea    0x0(%edi,%eiz,1),%edi

00100990 <_ZN5Print7printlnEii>:
  100990:	56                   	push   %esi
  100991:	53                   	push   %ebx
  100992:	83 ec 14             	sub    $0x14,%esp
  100995:	8b 44 24 28          	mov    0x28(%esp),%eax
  100999:	8b 5c 24 20          	mov    0x20(%esp),%ebx
  10099d:	89 44 24 08          	mov    %eax,0x8(%esp)
  1009a1:	8b 44 24 24          	mov    0x24(%esp),%eax
  1009a5:	89 1c 24             	mov    %ebx,(%esp)
  1009a8:	89 44 24 04          	mov    %eax,0x4(%esp)
  1009ac:	e8 3f ff ff ff       	call   1008f0 <_ZN5Print5printEli>
  1009b1:	89 1c 24             	mov    %ebx,(%esp)
  1009b4:	89 c6                	mov    %eax,%esi
  1009b6:	e8 e5 fd ff ff       	call   1007a0 <_ZN5Print7printlnEv>
  1009bb:	83 c4 14             	add    $0x14,%esp
  1009be:	5b                   	pop    %ebx
  1009bf:	01 f0                	add    %esi,%eax
  1009c1:	5e                   	pop    %esi
  1009c2:	c3                   	ret    
  1009c3:	90                   	nop
  1009c4:	8d b6 00 00 00 00    	lea    0x0(%esi),%esi
  1009ca:	8d bf 00 00 00 00    	lea    0x0(%edi),%edi

001009d0 <_ZN5Print7printlnEli>:
  1009d0:	56                   	push   %esi
  1009d1:	53                   	push   %ebx
  1009d2:	83 ec 14             	sub    $0x14,%esp
  1009d5:	8b 44 24 28          	mov    0x28(%esp),%eax
  1009d9:	8b 5c 24 20          	mov    0x20(%esp),%ebx
  1009dd:	89 44 24 08          	mov    %eax,0x8(%esp)
  1009e1:	8b 44 24 24          	mov    0x24(%esp),%eax
  1009e5:	89 1c 24             	mov    %ebx,(%esp)
  1009e8:	89 44 24 04          	mov    %eax,0x4(%esp)
  1009ec:	e8 ff fe ff ff       	call   1008f0 <_ZN5Print5printEli>
  1009f1:	89 1c 24             	mov    %ebx,(%esp)
  1009f4:	89 c6                	mov    %eax,%esi
  1009f6:	e8 a5 fd ff ff       	call   1007a0 <_ZN5Print7printlnEv>
  1009fb:	83 c4 14             	add    $0x14,%esp
  1009fe:	5b                   	pop    %ebx
  1009ff:	01 f0                	add    %esi,%eax
  100a01:	5e                   	pop    %esi
  100a02:	c3                   	ret    
  100a03:	90                   	nop
  100a04:	8d b6 00 00 00 00    	lea    0x0(%esi),%esi
  100a0a:	8d bf 00 00 00 00    	lea    0x0(%edi),%edi

00100a10 <_ZN5Print5printEmi>:
  100a10:	8b 44 24 0c          	mov    0xc(%esp),%eax
  100a14:	8b 54 24 04          	mov    0x4(%esp),%edx
  100a18:	8b 4c 24 08          	mov    0x8(%esp),%ecx
  100a1c:	85 c0                	test   %eax,%eax
  100a1e:	74 18                	je     100a38 <_ZN5Print5printEmi+0x28>
  100a20:	0f b6 c0             	movzbl %al,%eax
  100a23:	89 44 24 0c          	mov    %eax,0xc(%esp)
  100a27:	89 4c 24 08          	mov    %ecx,0x8(%esp)
  100a2b:	89 54 24 04          	mov    %edx,0x4(%esp)
  100a2f:	e9 0c fe ff ff       	jmp    100840 <_ZN5Print11printNumberEmh>
  100a34:	8d 74 26 00          	lea    0x0(%esi,%eiz,1),%esi
  100a38:	8b 02                	mov    (%edx),%eax
  100a3a:	0f b6 c9             	movzbl %cl,%ecx
  100a3d:	89 4c 24 08          	mov    %ecx,0x8(%esp)
  100a41:	8b 00                	mov    (%eax),%eax
  100a43:	ff e0                	jmp    *%eax
  100a45:	90                   	nop
  100a46:	8d 76 00             	lea    0x0(%esi),%esi
  100a49:	8d bc 27 00 00 00 00 	lea    0x0(%edi,%eiz,1),%edi

00100a50 <_ZN5Print5printEhi>:
  100a50:	0f b6 44 24 08       	movzbl 0x8(%esp),%eax
  100a55:	89 44 24 08          	mov    %eax,0x8(%esp)
  100a59:	e9 b2 ff ff ff       	jmp    100a10 <_ZN5Print5printEmi>
  100a5e:	66 90                	xchg   %ax,%ax

00100a60 <_ZN5Print7printlnEhi>:
  100a60:	56                   	push   %esi
  100a61:	53                   	push   %ebx
  100a62:	83 ec 14             	sub    $0x14,%esp
  100a65:	8b 44 24 28          	mov    0x28(%esp),%eax
  100a69:	8b 5c 24 20          	mov    0x20(%esp),%ebx
  100a6d:	89 44 24 08          	mov    %eax,0x8(%esp)
  100a71:	0f b6 44 24 24       	movzbl 0x24(%esp),%eax
  100a76:	89 1c 24             	mov    %ebx,(%esp)
  100a79:	89 44 24 04          	mov    %eax,0x4(%esp)
  100a7d:	e8 8e ff ff ff       	call   100a10 <_ZN5Print5printEmi>
  100a82:	89 1c 24             	mov    %ebx,(%esp)
  100a85:	89 c6                	mov    %eax,%esi
  100a87:	e8 14 fd ff ff       	call   1007a0 <_ZN5Print7printlnEv>
  100a8c:	83 c4 14             	add    $0x14,%esp
  100a8f:	5b                   	pop    %ebx
  100a90:	01 f0                	add    %esi,%eax
  100a92:	5e                   	pop    %esi
  100a93:	c3                   	ret    
  100a94:	8d b6 00 00 00 00    	lea    0x0(%esi),%esi
  100a9a:	8d bf 00 00 00 00    	lea    0x0(%edi),%edi

00100aa0 <_ZN5Print5printEji>:
  100aa0:	e9 6b ff ff ff       	jmp    100a10 <_ZN5Print5printEmi>
  100aa5:	90                   	nop
  100aa6:	8d 76 00             	lea    0x0(%esi),%esi
  100aa9:	8d bc 27 00 00 00 00 	lea    0x0(%edi,%eiz,1),%edi

00100ab0 <_ZN5Print7printlnEji>:
  100ab0:	56                   	push   %esi
  100ab1:	53                   	push   %ebx
  100ab2:	83 ec 14             	sub    $0x14,%esp
  100ab5:	8b 44 24 28          	mov    0x28(%esp),%eax
  100ab9:	8b 5c 24 20          	mov    0x20(%esp),%ebx
  100abd:	89 44 24 08          	mov    %eax,0x8(%esp)
  100ac1:	8b 44 24 24          	mov    0x24(%esp),%eax
  100ac5:	89 1c 24             	mov    %ebx,(%esp)
  100ac8:	89 44 24 04          	mov    %eax,0x4(%esp)
  100acc:	e8 3f ff ff ff       	call   100a10 <_ZN5Print5printEmi>
  100ad1:	89 1c 24             	mov    %ebx,(%esp)
  100ad4:	89 c6                	mov    %eax,%esi
  100ad6:	e8 c5 fc ff ff       	call   1007a0 <_ZN5Print7printlnEv>
  100adb:	83 c4 14             	add    $0x14,%esp
  100ade:	5b                   	pop    %ebx
  100adf:	01 f0                	add    %esi,%eax
  100ae1:	5e                   	pop    %esi
  100ae2:	c3                   	ret    
  100ae3:	90                   	nop
  100ae4:	8d b6 00 00 00 00    	lea    0x0(%esi),%esi
  100aea:	8d bf 00 00 00 00    	lea    0x0(%edi),%edi

00100af0 <_ZN5Print7printlnEmi>:
  100af0:	56                   	push   %esi
  100af1:	53                   	push   %ebx
  100af2:	83 ec 14             	sub    $0x14,%esp
  100af5:	8b 44 24 28          	mov    0x28(%esp),%eax
  100af9:	8b 5c 24 20          	mov    0x20(%esp),%ebx
  100afd:	89 44 24 08          	mov    %eax,0x8(%esp)
  100b01:	8b 44 24 24          	mov    0x24(%esp),%eax
  100b05:	89 1c 24             	mov    %ebx,(%esp)
  100b08:	89 44 24 04          	mov    %eax,0x4(%esp)
  100b0c:	e8 ff fe ff ff       	call   100a10 <_ZN5Print5printEmi>
  100b11:	89 1c 24             	mov    %ebx,(%esp)
  100b14:	89 c6                	mov    %eax,%esi
  100b16:	e8 85 fc ff ff       	call   1007a0 <_ZN5Print7printlnEv>
  100b1b:	83 c4 14             	add    $0x14,%esp
  100b1e:	5b                   	pop    %ebx
  100b1f:	01 f0                	add    %esi,%eax
  100b21:	5e                   	pop    %esi
  100b22:	c3                   	ret    
  100b23:	90                   	nop
  100b24:	8d b6 00 00 00 00    	lea    0x0(%esi),%esi
  100b2a:	8d bf 00 00 00 00    	lea    0x0(%edi),%edi

00100b30 <_ZN5Print10printFloatEdh>:
  100b30:	55                   	push   %ebp
  100b31:	57                   	push   %edi
  100b32:	56                   	push   %esi
  100b33:	53                   	push   %ebx
  100b34:	83 ec 3c             	sub    $0x3c,%esp
  100b37:	dd 44 24 54          	fldl   0x54(%esp)
  100b3b:	dd 14 24             	fstl   (%esp)
  100b3e:	8b 5c 24 50          	mov    0x50(%esp),%ebx
  100b42:	dd 5c 24 10          	fstpl  0x10(%esp)
  100b46:	8b 7c 24 5c          	mov    0x5c(%esp),%edi
  100b4a:	e8 b1 46 00 00       	call   105200 <__fini_array_end+0x6c>
  100b4f:	85 c0                	test   %eax,%eax
  100b51:	dd 44 24 10          	fldl   0x10(%esp)
  100b55:	0f 85 75 01 00 00    	jne    100cd0 <_ZN5Print10printFloatEdh+0x1a0>
  100b5b:	dd 14 24             	fstl   (%esp)
  100b5e:	dd 5c 24 10          	fstpl  0x10(%esp)
  100b62:	e8 59 46 00 00       	call   1051c0 <__fini_array_end+0x2c>
  100b67:	85 c0                	test   %eax,%eax
  100b69:	dd 44 24 10          	fldl   0x10(%esp)
  100b6d:	0f 85 7d 01 00 00    	jne    100cf0 <_ZN5Print10printFloatEdh+0x1c0>
  100b73:	d9 05 94 45 10 00    	flds   0x104594
  100b79:	d9 c9                	fxch   %st(1)
  100b7b:	db e9                	fucomi %st(1),%st
  100b7d:	dd d9                	fstp   %st(1)
  100b7f:	0f 87 23 01 00 00    	ja     100ca8 <_ZN5Print10printFloatEdh+0x178>
  100b85:	d9 05 98 45 10 00    	flds   0x104598
  100b8b:	df e9                	fucomip %st(1),%st
  100b8d:	0f 87 1d 01 00 00    	ja     100cb0 <_ZN5Print10printFloatEdh+0x180>
  100b93:	d9 ee                	fldz   
  100b95:	31 ed                	xor    %ebp,%ebp
  100b97:	df e9                	fucomip %st(1),%st
  100b99:	89 fe                	mov    %edi,%esi
  100b9b:	0f 87 6f 01 00 00    	ja     100d10 <_ZN5Print10printFloatEdh+0x1e0>
  100ba1:	89 f8                	mov    %edi,%eax
  100ba3:	84 c0                	test   %al,%al
  100ba5:	0f 84 85 01 00 00    	je     100d30 <_ZN5Print10printFloatEdh+0x200>
  100bab:	d9 05 90 45 10 00    	flds   0x104590
  100bb1:	31 c9                	xor    %ecx,%ecx
  100bb3:	d9 05 9c 45 10 00    	flds   0x10459c
  100bb9:	8d b4 26 00 00 00 00 	lea    0x0(%esi,%eiz,1),%esi
  100bc0:	83 c1 01             	add    $0x1,%ecx
  100bc3:	89 f0                	mov    %esi,%eax
  100bc5:	38 c1                	cmp    %al,%cl
  100bc7:	dc f9                	fdivr  %st,%st(1)
  100bc9:	75 f5                	jne    100bc0 <_ZN5Print10printFloatEdh+0x90>
  100bcb:	dd d8                	fstp   %st(0)
  100bcd:	d9 7c 24 2e          	fnstcw 0x2e(%esp)
  100bd1:	de c1                	faddp  %st,%st(1)
  100bd3:	31 ff                	xor    %edi,%edi
  100bd5:	c7 44 24 08 0a 00 00 	movl   $0xa,0x8(%esp)
  100bdc:	00 
  100bdd:	89 1c 24             	mov    %ebx,(%esp)
  100be0:	0f b7 44 24 2e       	movzwl 0x2e(%esp),%eax
  100be5:	89 4c 24 1c          	mov    %ecx,0x1c(%esp)
  100be9:	b4 0c                	mov    $0xc,%ah
  100beb:	66 89 44 24 2c       	mov    %ax,0x2c(%esp)
  100bf0:	d9 c0                	fld    %st(0)
  100bf2:	d9 6c 24 2c          	fldcw  0x2c(%esp)
  100bf6:	df 7c 24 20          	fistpll 0x20(%esp)
  100bfa:	d9 6c 24 2e          	fldcw  0x2e(%esp)
  100bfe:	89 7c 24 24          	mov    %edi,0x24(%esp)
  100c02:	8b 44 24 20          	mov    0x20(%esp),%eax
  100c06:	89 44 24 20          	mov    %eax,0x20(%esp)
  100c0a:	df 6c 24 20          	fildll 0x20(%esp)
  100c0e:	de e9                	fsubrp %st,%st(1)
  100c10:	89 44 24 04          	mov    %eax,0x4(%esp)
  100c14:	dd 5c 24 10          	fstpl  0x10(%esp)
  100c18:	e8 23 fc ff ff       	call   100840 <_ZN5Print11printNumberEmh>
  100c1d:	c7 44 24 04 69 45 10 	movl   $0x104569,0x4(%esp)
  100c24:	00 
  100c25:	89 1c 24             	mov    %ebx,(%esp)
  100c28:	89 c6                	mov    %eax,%esi
  100c2a:	e8 01 fb ff ff       	call   100730 <_ZN5Print5writeEPKc>
  100c2f:	8b 4c 24 1c          	mov    0x1c(%esp),%ecx
  100c33:	01 c6                	add    %eax,%esi
  100c35:	dd 44 24 10          	fldl   0x10(%esp)
  100c39:	01 f5                	add    %esi,%ebp
  100c3b:	89 ce                	mov    %ecx,%esi
  100c3d:	8d 76 00             	lea    0x0(%esi),%esi
  100c40:	d9 7c 24 2e          	fnstcw 0x2e(%esp)
  100c44:	d8 0d 9c 45 10 00    	fmuls  0x10459c
  100c4a:	c7 44 24 08 0a 00 00 	movl   $0xa,0x8(%esp)
  100c51:	00 
  100c52:	0f b7 44 24 2e       	movzwl 0x2e(%esp),%eax
  100c57:	89 1c 24             	mov    %ebx,(%esp)
  100c5a:	b4 0c                	mov    $0xc,%ah
  100c5c:	66 89 44 24 2c       	mov    %ax,0x2c(%esp)
  100c61:	d9 6c 24 2c          	fldcw  0x2c(%esp)
  100c65:	db 54 24 28          	fistl  0x28(%esp)
  100c69:	d9 6c 24 2e          	fldcw  0x2e(%esp)
  100c6d:	8b 7c 24 28          	mov    0x28(%esp),%edi
  100c71:	dd 5c 24 10          	fstpl  0x10(%esp)
  100c75:	89 7c 24 04          	mov    %edi,0x4(%esp)
  100c79:	e8 72 fc ff ff       	call   1008f0 <_ZN5Print5printEli>
  100c7e:	89 7c 24 28          	mov    %edi,0x28(%esp)
  100c82:	01 c5                	add    %eax,%ebp
  100c84:	db 44 24 28          	fildl  0x28(%esp)
  100c88:	89 f0                	mov    %esi,%eax
  100c8a:	dd 44 24 10          	fldl   0x10(%esp)
  100c8e:	2c 01                	sub    $0x1,%al
  100c90:	de e1                	fsubp  %st,%st(1)
  100c92:	89 c6                	mov    %eax,%esi
  100c94:	75 aa                	jne    100c40 <_ZN5Print10printFloatEdh+0x110>
  100c96:	dd d8                	fstp   %st(0)
  100c98:	89 e8                	mov    %ebp,%eax
  100c9a:	83 c4 3c             	add    $0x3c,%esp
  100c9d:	5b                   	pop    %ebx
  100c9e:	5e                   	pop    %esi
  100c9f:	5f                   	pop    %edi
  100ca0:	5d                   	pop    %ebp
  100ca1:	c3                   	ret    
  100ca2:	8d b6 00 00 00 00    	lea    0x0(%esi),%esi
  100ca8:	dd d8                	fstp   %st(0)
  100caa:	eb 06                	jmp    100cb2 <_ZN5Print10printFloatEdh+0x182>
  100cac:	8d 74 26 00          	lea    0x0(%esi,%eiz,1),%esi
  100cb0:	dd d8                	fstp   %st(0)
  100cb2:	89 5c 24 50          	mov    %ebx,0x50(%esp)
  100cb6:	c7 44 24 54 65 45 10 	movl   $0x104565,0x54(%esp)
  100cbd:	00 
  100cbe:	83 c4 3c             	add    $0x3c,%esp
  100cc1:	5b                   	pop    %ebx
  100cc2:	5e                   	pop    %esi
  100cc3:	5f                   	pop    %edi
  100cc4:	5d                   	pop    %ebp
  100cc5:	e9 66 fa ff ff       	jmp    100730 <_ZN5Print5writeEPKc>
  100cca:	8d b6 00 00 00 00    	lea    0x0(%esi),%esi
  100cd0:	dd d8                	fstp   %st(0)
  100cd2:	89 5c 24 50          	mov    %ebx,0x50(%esp)
  100cd6:	c7 44 24 54 5d 45 10 	movl   $0x10455d,0x54(%esp)
  100cdd:	00 
  100cde:	83 c4 3c             	add    $0x3c,%esp
  100ce1:	5b                   	pop    %ebx
  100ce2:	5e                   	pop    %esi
  100ce3:	5f                   	pop    %edi
  100ce4:	5d                   	pop    %ebp
  100ce5:	e9 46 fa ff ff       	jmp    100730 <_ZN5Print5writeEPKc>
  100cea:	8d b6 00 00 00 00    	lea    0x0(%esi),%esi
  100cf0:	dd d8                	fstp   %st(0)
  100cf2:	89 5c 24 50          	mov    %ebx,0x50(%esp)
  100cf6:	c7 44 24 54 61 45 10 	movl   $0x104561,0x54(%esp)
  100cfd:	00 
  100cfe:	83 c4 3c             	add    $0x3c,%esp
  100d01:	5b                   	pop    %ebx
  100d02:	5e                   	pop    %esi
  100d03:	5f                   	pop    %edi
  100d04:	5d                   	pop    %ebp
  100d05:	e9 26 fa ff ff       	jmp    100730 <_ZN5Print5writeEPKc>
  100d0a:	8d b6 00 00 00 00    	lea    0x0(%esi),%esi
  100d10:	8b 03                	mov    (%ebx),%eax
  100d12:	dd 5c 24 10          	fstpl  0x10(%esp)
  100d16:	c7 44 24 04 2d 00 00 	movl   $0x2d,0x4(%esp)
  100d1d:	00 
  100d1e:	89 1c 24             	mov    %ebx,(%esp)
  100d21:	ff 10                	call   *(%eax)
  100d23:	dd 44 24 10          	fldl   0x10(%esp)
  100d27:	89 c5                	mov    %eax,%ebp
  100d29:	d9 e0                	fchs   
  100d2b:	e9 71 fe ff ff       	jmp    100ba1 <_ZN5Print10printFloatEdh+0x71>
  100d30:	d9 7c 24 2e          	fnstcw 0x2e(%esp)
  100d34:	d8 05 90 45 10 00    	fadds  0x104590
  100d3a:	c7 44 24 08 0a 00 00 	movl   $0xa,0x8(%esp)
  100d41:	00 
  100d42:	0f b7 44 24 2e       	movzwl 0x2e(%esp),%eax
  100d47:	89 1c 24             	mov    %ebx,(%esp)
  100d4a:	b4 0c                	mov    $0xc,%ah
  100d4c:	66 89 44 24 2c       	mov    %ax,0x2c(%esp)
  100d51:	d9 6c 24 2c          	fldcw  0x2c(%esp)
  100d55:	df 7c 24 20          	fistpll 0x20(%esp)
  100d59:	d9 6c 24 2e          	fldcw  0x2e(%esp)
  100d5d:	8b 44 24 20          	mov    0x20(%esp),%eax
  100d61:	89 44 24 04          	mov    %eax,0x4(%esp)
  100d65:	e8 d6 fa ff ff       	call   100840 <_ZN5Print11printNumberEmh>
  100d6a:	01 e8                	add    %ebp,%eax
  100d6c:	e9 29 ff ff ff       	jmp    100c9a <_ZN5Print10printFloatEdh+0x16a>
  100d71:	90                   	nop
  100d72:	8d b4 26 00 00 00 00 	lea    0x0(%esi,%eiz,1),%esi
  100d79:	8d bc 27 00 00 00 00 	lea    0x0(%edi,%eiz,1),%edi

00100d80 <_ZN5Print5printEdi>:
  100d80:	0f b6 44 24 10       	movzbl 0x10(%esp),%eax
  100d85:	89 44 24 10          	mov    %eax,0x10(%esp)
  100d89:	e9 a2 fd ff ff       	jmp    100b30 <_ZN5Print10printFloatEdh>
  100d8e:	66 90                	xchg   %ax,%ax

00100d90 <_ZN5Print7printlnEdi>:
  100d90:	56                   	push   %esi
  100d91:	53                   	push   %ebx
  100d92:	83 ec 14             	sub    $0x14,%esp
  100d95:	8b 5c 24 20          	mov    0x20(%esp),%ebx
  100d99:	0f b6 44 24 2c       	movzbl 0x2c(%esp),%eax
  100d9e:	dd 44 24 24          	fldl   0x24(%esp)
  100da2:	dd 5c 24 04          	fstpl  0x4(%esp)
  100da6:	89 1c 24             	mov    %ebx,(%esp)
  100da9:	89 44 24 0c          	mov    %eax,0xc(%esp)
  100dad:	e8 7e fd ff ff       	call   100b30 <_ZN5Print10printFloatEdh>
  100db2:	89 1c 24             	mov    %ebx,(%esp)
  100db5:	89 c6                	mov    %eax,%esi
  100db7:	e8 e4 f9 ff ff       	call   1007a0 <_ZN5Print7printlnEv>
  100dbc:	83 c4 14             	add    $0x14,%esp
  100dbf:	5b                   	pop    %ebx
  100dc0:	01 f0                	add    %esi,%eax
  100dc2:	5e                   	pop    %esi
  100dc3:	c3                   	ret    
  100dc4:	66 90                	xchg   %ax,%ax
  100dc6:	66 90                	xchg   %ax,%ax
  100dc8:	66 90                	xchg   %ax,%ax
  100dca:	66 90                	xchg   %ax,%ax
  100dcc:	66 90                	xchg   %ax,%ax
  100dce:	66 90                	xchg   %ax,%ax

00100dd0 <_Z16abstract_StubISRP14interrupt_info>:
  100dd0:	53                   	push   %ebx
  100dd1:	83 ec 18             	sub    $0x18,%esp
  100dd4:	8b 5c 24 20          	mov    0x20(%esp),%ebx
  100dd8:	c7 04 24 a0 45 10 00 	movl   $0x1045a0,(%esp)
  100ddf:	e8 6c f7 ff ff       	call   100550 <debug_print>
  100de4:	8b 43 24             	mov    0x24(%ebx),%eax
  100de7:	89 04 24             	mov    %eax,(%esp)
  100dea:	e8 91 f6 ff ff       	call   100480 <debug_printhex_int32>
  100def:	c7 44 24 04 02 00 00 	movl   $0x2,0x4(%esp)
  100df6:	00 
  100df7:	c7 04 24 69 46 10 00 	movl   $0x104669,(%esp)
  100dfe:	e8 5d f5 ff ff       	call   100360 <debug_write>
  100e03:	c7 44 24 20 c0 45 10 	movl   $0x1045c0,0x20(%esp)
  100e0a:	00 
  100e0b:	83 c4 18             	add    $0x18,%esp
  100e0e:	5b                   	pop    %ebx
  100e0f:	e9 7c f8 ff ff       	jmp    100690 <_Z11systemErrorPKc>
  100e14:	8d b6 00 00 00 00    	lea    0x0(%esi),%esi
  100e1a:	8d bf 00 00 00 00    	lea    0x0(%edi),%edi

00100e20 <_Z23abstract_irq_table_sizej>:
  100e20:	8b 44 24 04          	mov    0x4(%esp),%eax
  100e24:	8d 04 c0             	lea    (%eax,%eax,8),%eax
  100e27:	c3                   	ret    
  100e28:	90                   	nop
  100e29:	8d b4 26 00 00 00 00 	lea    0x0(%esi,%eiz,1),%esi

00100e30 <_Z17abstract_irq_initPvj>:
  100e30:	53                   	push   %ebx
  100e31:	83 ec 18             	sub    $0x18,%esp
  100e34:	8b 5c 24 24          	mov    0x24(%esp),%ebx
  100e38:	8b 44 24 20          	mov    0x20(%esp),%eax
  100e3c:	c7 44 24 04 00 00 00 	movl   $0x0,0x4(%esp)
  100e43:	00 
  100e44:	8d 14 db             	lea    (%ebx,%ebx,8),%edx
  100e47:	89 54 24 08          	mov    %edx,0x8(%esp)
  100e4b:	89 04 24             	mov    %eax,(%esp)
  100e4e:	a3 0c 7f 10 00       	mov    %eax,0x107f0c
  100e53:	e8 d8 03 00 00       	call   101230 <_Z6memsetPvij>
  100e58:	31 d2                	xor    %edx,%edx
  100e5a:	31 c0                	xor    %eax,%eax
  100e5c:	85 db                	test   %ebx,%ebx
  100e5e:	8b 0d 0c 7f 10 00    	mov    0x107f0c,%ecx
  100e64:	74 2b                	je     100e91 <_Z17abstract_irq_initPvj+0x61>
  100e66:	66 90                	xchg   %ax,%ax
  100e68:	83 c0 01             	add    $0x1,%eax
  100e6b:	8d 14 d2             	lea    (%edx,%edx,8),%edx
  100e6e:	39 d8                	cmp    %ebx,%eax
  100e70:	c7 04 11 d0 0d 10 00 	movl   $0x100dd0,(%ecx,%edx,1)
  100e77:	89 c2                	mov    %eax,%edx
  100e79:	75 ed                	jne    100e68 <_Z17abstract_irq_initPvj+0x38>
  100e7b:	31 d2                	xor    %edx,%edx
  100e7d:	31 c0                	xor    %eax,%eax
  100e7f:	90                   	nop
  100e80:	83 c0 01             	add    $0x1,%eax
  100e83:	8d 14 d2             	lea    (%edx,%edx,8),%edx
  100e86:	39 d8                	cmp    %ebx,%eax
  100e88:	c6 44 11 08 01       	movb   $0x1,0x8(%ecx,%edx,1)
  100e8d:	89 c2                	mov    %eax,%edx
  100e8f:	75 ef                	jne    100e80 <_Z17abstract_irq_initPvj+0x50>
  100e91:	c6 05 08 7f 10 00 01 	movb   $0x1,0x107f08
  100e98:	83 c4 18             	add    $0x18,%esp
  100e9b:	5b                   	pop    %ebx
  100e9c:	c3                   	ret    
  100e9d:	8d 76 00             	lea    0x0(%esi),%esi

00100ea0 <abstract_irq_controller>:
  100ea0:	83 ec 1c             	sub    $0x1c,%esp
  100ea3:	80 3d 08 7f 10 00 00 	cmpb   $0x0,0x107f08
  100eaa:	74 4c                	je     100ef8 <abstract_irq_controller+0x58>
  100eac:	8b 44 24 44          	mov    0x44(%esp),%eax
  100eb0:	8d 14 c0             	lea    (%eax,%eax,8),%edx
  100eb3:	03 15 0c 7f 10 00    	add    0x107f0c,%edx
  100eb9:	83 42 04 01          	addl   $0x1,0x4(%edx)
  100ebd:	83 f8 27             	cmp    $0x27,%eax
  100ec0:	76 1e                	jbe    100ee0 <abstract_irq_controller+0x40>
  100ec2:	b8 20 00 00 00       	mov    $0x20,%eax
  100ec7:	e6 a0                	out    %al,$0xa0
  100ec9:	b8 20 00 00 00       	mov    $0x20,%eax
  100ece:	e6 20                	out    %al,$0x20
  100ed0:	8d 44 24 20          	lea    0x20(%esp),%eax
  100ed4:	89 04 24             	mov    %eax,(%esp)
  100ed7:	ff 12                	call   *(%edx)
  100ed9:	83 c4 1c             	add    $0x1c,%esp
  100edc:	c3                   	ret    
  100edd:	8d 76 00             	lea    0x0(%esi),%esi
  100ee0:	83 f8 1f             	cmp    $0x1f,%eax
  100ee3:	77 e4                	ja     100ec9 <abstract_irq_controller+0x29>
  100ee5:	8d 44 24 20          	lea    0x20(%esp),%eax
  100ee9:	89 04 24             	mov    %eax,(%esp)
  100eec:	ff 12                	call   *(%edx)
  100eee:	83 c4 1c             	add    $0x1c,%esp
  100ef1:	c3                   	ret    
  100ef2:	8d b6 00 00 00 00    	lea    0x0(%esi),%esi
  100ef8:	c7 04 24 e0 45 10 00 	movl   $0x1045e0,(%esp)
  100eff:	e8 8c f7 ff ff       	call   100690 <_Z11systemErrorPKc>
  100f04:	eb a6                	jmp    100eac <abstract_irq_controller+0xc>
  100f06:	8d 76 00             	lea    0x0(%esi),%esi
  100f09:	8d bc 27 00 00 00 00 	lea    0x0(%edi,%eiz,1),%edi

00100f10 <_Z25abstract_irq_debug_attachjPFvP14interrupt_infoE>:
  100f10:	8b 44 24 04          	mov    0x4(%esp),%eax
  100f14:	8b 54 24 08          	mov    0x8(%esp),%edx
  100f18:	8d 04 c0             	lea    (%eax,%eax,8),%eax
  100f1b:	03 05 0c 7f 10 00    	add    0x107f0c,%eax
  100f21:	89 10                	mov    %edx,(%eax)
  100f23:	c6 40 08 01          	movb   $0x1,0x8(%eax)
  100f27:	c3                   	ret    
  100f28:	90                   	nop
  100f29:	8d b4 26 00 00 00 00 	lea    0x0(%esi,%eiz,1),%esi

00100f30 <_Z19abstract_irq_attachjPFvvE>:
  100f30:	8b 44 24 04          	mov    0x4(%esp),%eax
  100f34:	8b 54 24 08          	mov    0x8(%esp),%edx
  100f38:	8d 04 c0             	lea    (%eax,%eax,8),%eax
  100f3b:	03 05 0c 7f 10 00    	add    0x107f0c,%eax
  100f41:	89 10                	mov    %edx,(%eax)
  100f43:	c6 40 08 00          	movb   $0x0,0x8(%eax)
  100f47:	c3                   	ret    
  100f48:	66 90                	xchg   %ax,%ax
  100f4a:	66 90                	xchg   %ax,%ax
  100f4c:	66 90                	xchg   %ax,%ax
  100f4e:	66 90                	xchg   %ax,%ax

00100f50 <_Z6strlenPKc>:
  100f50:	8b 54 24 04          	mov    0x4(%esp),%edx
  100f54:	31 c0                	xor    %eax,%eax
  100f56:	80 3a 00             	cmpb   $0x0,(%edx)
  100f59:	74 10                	je     100f6b <_Z6strlenPKc+0x1b>
  100f5b:	90                   	nop
  100f5c:	8d 74 26 00          	lea    0x0(%esi,%eiz,1),%esi
  100f60:	83 c0 01             	add    $0x1,%eax
  100f63:	80 3c 02 00          	cmpb   $0x0,(%edx,%eax,1)
  100f67:	75 f7                	jne    100f60 <_Z6strlenPKc+0x10>
  100f69:	f3 c3                	repz ret 
  100f6b:	f3 c3                	repz ret 
  100f6d:	8d 76 00             	lea    0x0(%esi),%esi

00100f70 <_Z11str_reversePc>:
  100f70:	53                   	push   %ebx
  100f71:	8b 44 24 08          	mov    0x8(%esp),%eax
  100f75:	31 d2                	xor    %edx,%edx
  100f77:	80 38 00             	cmpb   $0x0,(%eax)
  100f7a:	75 06                	jne    100f82 <_Z11str_reversePc+0x12>
  100f7c:	eb 3b                	jmp    100fb9 <_Z11str_reversePc+0x49>
  100f7e:	66 90                	xchg   %ax,%ax
  100f80:	89 ca                	mov    %ecx,%edx
  100f82:	80 7c 10 01 00       	cmpb   $0x0,0x1(%eax,%edx,1)
  100f87:	8d 4a 01             	lea    0x1(%edx),%ecx
  100f8a:	75 f4                	jne    100f80 <_Z11str_reversePc+0x10>
  100f8c:	89 cb                	mov    %ecx,%ebx
  100f8e:	c1 eb 1f             	shr    $0x1f,%ebx
  100f91:	01 d9                	add    %ebx,%ecx
  100f93:	d1 f9                	sar    %ecx
  100f95:	85 c9                	test   %ecx,%ecx
  100f97:	7e 20                	jle    100fb9 <_Z11str_reversePc+0x49>
  100f99:	01 c2                	add    %eax,%edx
  100f9b:	8d 1c 08             	lea    (%eax,%ecx,1),%ebx
  100f9e:	66 90                	xchg   %ax,%ax
  100fa0:	0f b6 0a             	movzbl (%edx),%ecx
  100fa3:	83 ea 01             	sub    $0x1,%edx
  100fa6:	32 08                	xor    (%eax),%cl
  100fa8:	88 08                	mov    %cl,(%eax)
  100faa:	32 4a 01             	xor    0x1(%edx),%cl
  100fad:	88 4a 01             	mov    %cl,0x1(%edx)
  100fb0:	30 08                	xor    %cl,(%eax)
  100fb2:	83 c0 01             	add    $0x1,%eax
  100fb5:	39 d8                	cmp    %ebx,%eax
  100fb7:	75 e7                	jne    100fa0 <_Z11str_reversePc+0x30>
  100fb9:	5b                   	pop    %ebx
  100fba:	c3                   	ret    
  100fbb:	90                   	nop
  100fbc:	8d 74 26 00          	lea    0x0(%esi,%eiz,1),%esi

00100fc0 <_Z12num2base_strPcji>:
  100fc0:	55                   	push   %ebp
  100fc1:	57                   	push   %edi
  100fc2:	56                   	push   %esi
  100fc3:	53                   	push   %ebx
  100fc4:	31 db                	xor    %ebx,%ebx
  100fc6:	8b 74 24 14          	mov    0x14(%esp),%esi
  100fca:	8b 44 24 18          	mov    0x18(%esp),%eax
  100fce:	8b 4c 24 1c          	mov    0x1c(%esp),%ecx
  100fd2:	eb 06                	jmp    100fda <_Z12num2base_strPcji+0x1a>
  100fd4:	8d 74 26 00          	lea    0x0(%esi,%eiz,1),%esi
  100fd8:	89 d3                	mov    %edx,%ebx
  100fda:	31 d2                	xor    %edx,%edx
  100fdc:	f7 f1                	div    %ecx
  100fde:	83 fa 09             	cmp    $0x9,%edx
  100fe1:	8d 7a 30             	lea    0x30(%edx),%edi
  100fe4:	8d 6a 37             	lea    0x37(%edx),%ebp
  100fe7:	0f 47 fd             	cmova  %ebp,%edi
  100fea:	39 c8                	cmp    %ecx,%eax
  100fec:	89 fa                	mov    %edi,%edx
  100fee:	88 14 1e             	mov    %dl,(%esi,%ebx,1)
  100ff1:	8d 53 01             	lea    0x1(%ebx),%edx
  100ff4:	73 e2                	jae    100fd8 <_Z12num2base_strPcji+0x18>
  100ff6:	85 c0                	test   %eax,%eax
  100ff8:	74 26                	je     101020 <_Z12num2base_strPcji+0x60>
  100ffa:	8d 78 37             	lea    0x37(%eax),%edi
  100ffd:	83 f8 09             	cmp    $0x9,%eax
  101000:	8d 48 30             	lea    0x30(%eax),%ecx
  101003:	0f 47 cf             	cmova  %edi,%ecx
  101006:	88 0c 16             	mov    %cl,(%esi,%edx,1)
  101009:	c6 44 1e 02 00       	movb   $0x0,0x2(%esi,%ebx,1)
  10100e:	89 74 24 14          	mov    %esi,0x14(%esp)
  101012:	5b                   	pop    %ebx
  101013:	5e                   	pop    %esi
  101014:	5f                   	pop    %edi
  101015:	5d                   	pop    %ebp
  101016:	e9 55 ff ff ff       	jmp    100f70 <_Z11str_reversePc>
  10101b:	90                   	nop
  10101c:	8d 74 26 00          	lea    0x0(%esi,%eiz,1),%esi
  101020:	c6 04 16 00          	movb   $0x0,(%esi,%edx,1)
  101024:	89 74 24 14          	mov    %esi,0x14(%esp)
  101028:	5b                   	pop    %ebx
  101029:	5e                   	pop    %esi
  10102a:	5f                   	pop    %edi
  10102b:	5d                   	pop    %ebp
  10102c:	e9 3f ff ff ff       	jmp    100f70 <_Z11str_reversePc>
  101031:	eb 0d                	jmp    101040 <_Z9swap_charPcS_>
  101033:	90                   	nop
  101034:	90                   	nop
  101035:	90                   	nop
  101036:	90                   	nop
  101037:	90                   	nop
  101038:	90                   	nop
  101039:	90                   	nop
  10103a:	90                   	nop
  10103b:	90                   	nop
  10103c:	90                   	nop
  10103d:	90                   	nop
  10103e:	90                   	nop
  10103f:	90                   	nop

00101040 <_Z9swap_charPcS_>:
  101040:	8b 44 24 04          	mov    0x4(%esp),%eax
  101044:	8b 4c 24 08          	mov    0x8(%esp),%ecx
  101048:	0f b6 10             	movzbl (%eax),%edx
  10104b:	32 11                	xor    (%ecx),%dl
  10104d:	88 10                	mov    %dl,(%eax)
  10104f:	32 11                	xor    (%ecx),%dl
  101051:	88 11                	mov    %dl,(%ecx)
  101053:	30 10                	xor    %dl,(%eax)
  101055:	c3                   	ret    
  101056:	8d 76 00             	lea    0x0(%esi),%esi
  101059:	8d bc 27 00 00 00 00 	lea    0x0(%edi,%eiz,1),%edi

00101060 <_Z6strcmpPKcS0_>:
  101060:	53                   	push   %ebx
  101061:	8b 44 24 08          	mov    0x8(%esp),%eax
  101065:	8b 54 24 0c          	mov    0xc(%esp),%edx
  101069:	0f b6 08             	movzbl (%eax),%ecx
  10106c:	84 c9                	test   %cl,%cl
  10106e:	75 1f                	jne    10108f <_Z6strcmpPKcS0_+0x2f>
  101070:	eb 2e                	jmp    1010a0 <_Z6strcmpPKcS0_+0x40>
  101072:	8d b6 00 00 00 00    	lea    0x0(%esi),%esi
  101078:	38 d9                	cmp    %bl,%cl
  10107a:	7c 1a                	jl     101096 <_Z6strcmpPKcS0_+0x36>
  10107c:	8d 74 26 00          	lea    0x0(%esi,%eiz,1),%esi
  101080:	7f 2e                	jg     1010b0 <_Z6strcmpPKcS0_+0x50>
  101082:	83 c0 01             	add    $0x1,%eax
  101085:	0f b6 08             	movzbl (%eax),%ecx
  101088:	83 c2 01             	add    $0x1,%edx
  10108b:	84 c9                	test   %cl,%cl
  10108d:	74 11                	je     1010a0 <_Z6strcmpPKcS0_+0x40>
  10108f:	0f b6 1a             	movzbl (%edx),%ebx
  101092:	84 db                	test   %bl,%bl
  101094:	75 e2                	jne    101078 <_Z6strcmpPKcS0_+0x18>
  101096:	b8 ff ff ff ff       	mov    $0xffffffff,%eax
  10109b:	5b                   	pop    %ebx
  10109c:	c3                   	ret    
  10109d:	8d 76 00             	lea    0x0(%esi),%esi
  1010a0:	31 c0                	xor    %eax,%eax
  1010a2:	80 3a 00             	cmpb   $0x0,(%edx)
  1010a5:	5b                   	pop    %ebx
  1010a6:	0f 95 c0             	setne  %al
  1010a9:	c3                   	ret    
  1010aa:	8d b6 00 00 00 00    	lea    0x0(%esi),%esi
  1010b0:	b8 01 00 00 00       	mov    $0x1,%eax
  1010b5:	5b                   	pop    %ebx
  1010b6:	c3                   	ret    
  1010b7:	89 f6                	mov    %esi,%esi
  1010b9:	8d bc 27 00 00 00 00 	lea    0x0(%edi,%eiz,1),%edi

001010c0 <_Z7memmovePvPKvj>:
  1010c0:	56                   	push   %esi
  1010c1:	53                   	push   %ebx
  1010c2:	8b 44 24 0c          	mov    0xc(%esp),%eax
  1010c6:	8b 4c 24 10          	mov    0x10(%esp),%ecx
  1010ca:	8b 74 24 14          	mov    0x14(%esp),%esi
  1010ce:	39 c8                	cmp    %ecx,%eax
  1010d0:	76 2e                	jbe    101100 <_Z7memmovePvPKvj+0x40>
  1010d2:	89 c3                	mov    %eax,%ebx
  1010d4:	29 cb                	sub    %ecx,%ebx
  1010d6:	85 f6                	test   %esi,%esi
  1010d8:	8d 54 31 ff          	lea    -0x1(%ecx,%esi,1),%edx
  1010dc:	74 18                	je     1010f6 <_Z7memmovePvPKvj+0x36>
  1010de:	89 d1                	mov    %edx,%ecx
  1010e0:	29 f1                	sub    %esi,%ecx
  1010e2:	89 ce                	mov    %ecx,%esi
  1010e4:	8d 74 26 00          	lea    0x0(%esi,%eiz,1),%esi
  1010e8:	0f b6 0a             	movzbl (%edx),%ecx
  1010eb:	83 ea 01             	sub    $0x1,%edx
  1010ee:	88 4c 1a 01          	mov    %cl,0x1(%edx,%ebx,1)
  1010f2:	39 f2                	cmp    %esi,%edx
  1010f4:	75 f2                	jne    1010e8 <_Z7memmovePvPKvj+0x28>
  1010f6:	5b                   	pop    %ebx
  1010f7:	5e                   	pop    %esi
  1010f8:	c3                   	ret    
  1010f9:	8d b4 26 00 00 00 00 	lea    0x0(%esi,%eiz,1),%esi
  101100:	73 f4                	jae    1010f6 <_Z7memmovePvPKvj+0x36>
  101102:	85 f6                	test   %esi,%esi
  101104:	74 f0                	je     1010f6 <_Z7memmovePvPKvj+0x36>
  101106:	01 c6                	add    %eax,%esi
  101108:	89 c2                	mov    %eax,%edx
  10110a:	8d b6 00 00 00 00    	lea    0x0(%esi),%esi
  101110:	83 c1 01             	add    $0x1,%ecx
  101113:	0f b6 59 ff          	movzbl -0x1(%ecx),%ebx
  101117:	83 c2 01             	add    $0x1,%edx
  10111a:	39 f2                	cmp    %esi,%edx
  10111c:	88 5a ff             	mov    %bl,-0x1(%edx)
  10111f:	75 ef                	jne    101110 <_Z7memmovePvPKvj+0x50>
  101121:	5b                   	pop    %ebx
  101122:	5e                   	pop    %esi
  101123:	c3                   	ret    
  101124:	8d b6 00 00 00 00    	lea    0x0(%esi),%esi
  10112a:	8d bf 00 00 00 00    	lea    0x0(%edi),%edi

00101130 <_Z6strcpyPcPKc>:
  101130:	53                   	push   %ebx
  101131:	83 ec 0c             	sub    $0xc,%esp
  101134:	8b 4c 24 18          	mov    0x18(%esp),%ecx
  101138:	8b 5c 24 14          	mov    0x14(%esp),%ebx
  10113c:	80 39 00             	cmpb   $0x0,(%ecx)
  10113f:	74 2a                	je     10116b <_Z6strcpyPcPKc+0x3b>
  101141:	31 d2                	xor    %edx,%edx
  101143:	90                   	nop
  101144:	8d 74 26 00          	lea    0x0(%esi,%eiz,1),%esi
  101148:	83 c2 01             	add    $0x1,%edx
  10114b:	80 3c 11 00          	cmpb   $0x0,(%ecx,%edx,1)
  10114f:	75 f7                	jne    101148 <_Z6strcpyPcPKc+0x18>
  101151:	83 c2 01             	add    $0x1,%edx
  101154:	89 1c 24             	mov    %ebx,(%esp)
  101157:	89 54 24 08          	mov    %edx,0x8(%esp)
  10115b:	89 4c 24 04          	mov    %ecx,0x4(%esp)
  10115f:	e8 5c ff ff ff       	call   1010c0 <_Z7memmovePvPKvj>
  101164:	83 c4 0c             	add    $0xc,%esp
  101167:	89 d8                	mov    %ebx,%eax
  101169:	5b                   	pop    %ebx
  10116a:	c3                   	ret    
  10116b:	ba 01 00 00 00       	mov    $0x1,%edx
  101170:	eb e2                	jmp    101154 <_Z6strcpyPcPKc+0x24>
  101172:	8d b4 26 00 00 00 00 	lea    0x0(%esi,%eiz,1),%esi
  101179:	8d bc 27 00 00 00 00 	lea    0x0(%edi,%eiz,1),%edi

00101180 <_Z9strformatPcic>:
  101180:	57                   	push   %edi
  101181:	56                   	push   %esi
  101182:	53                   	push   %ebx
  101183:	83 ec 0c             	sub    $0xc,%esp
  101186:	8b 5c 24 1c          	mov    0x1c(%esp),%ebx
  10118a:	8b 74 24 20          	mov    0x20(%esp),%esi
  10118e:	0f b6 4c 24 24       	movzbl 0x24(%esp),%ecx
  101193:	80 3b 00             	cmpb   $0x0,(%ebx)
  101196:	74 54                	je     1011ec <_Z9strformatPcic+0x6c>
  101198:	31 d2                	xor    %edx,%edx
  10119a:	8d b6 00 00 00 00    	lea    0x0(%esi),%esi
  1011a0:	83 c2 01             	add    $0x1,%edx
  1011a3:	80 3c 13 00          	cmpb   $0x0,(%ebx,%edx,1)
  1011a7:	75 f7                	jne    1011a0 <_Z9strformatPcic+0x20>
  1011a9:	89 d7                	mov    %edx,%edi
  1011ab:	39 fe                	cmp    %edi,%esi
  1011ad:	7f 21                	jg     1011d0 <_Z9strformatPcic+0x50>
  1011af:	29 fe                	sub    %edi,%esi
  1011b1:	89 d8                	mov    %ebx,%eax
  1011b3:	85 f6                	test   %esi,%esi
  1011b5:	8d 14 33             	lea    (%ebx,%esi,1),%edx
  1011b8:	7e 0f                	jle    1011c9 <_Z9strformatPcic+0x49>
  1011ba:	8d b6 00 00 00 00    	lea    0x0(%esi),%esi
  1011c0:	88 08                	mov    %cl,(%eax)
  1011c2:	83 c0 01             	add    $0x1,%eax
  1011c5:	39 d0                	cmp    %edx,%eax
  1011c7:	75 f7                	jne    1011c0 <_Z9strformatPcic+0x40>
  1011c9:	83 c4 0c             	add    $0xc,%esp
  1011cc:	5b                   	pop    %ebx
  1011cd:	5e                   	pop    %esi
  1011ce:	5f                   	pop    %edi
  1011cf:	c3                   	ret    
  1011d0:	89 f0                	mov    %esi,%eax
  1011d2:	29 d0                	sub    %edx,%eax
  1011d4:	01 d8                	add    %ebx,%eax
  1011d6:	89 5c 24 04          	mov    %ebx,0x4(%esp)
  1011da:	89 04 24             	mov    %eax,(%esp)
  1011dd:	89 4c 24 08          	mov    %ecx,0x8(%esp)
  1011e1:	e8 4a ff ff ff       	call   101130 <_Z6strcpyPcPKc>
  1011e6:	8b 4c 24 08          	mov    0x8(%esp),%ecx
  1011ea:	eb c3                	jmp    1011af <_Z9strformatPcic+0x2f>
  1011ec:	31 ff                	xor    %edi,%edi
  1011ee:	31 d2                	xor    %edx,%edx
  1011f0:	eb b9                	jmp    1011ab <_Z9strformatPcic+0x2b>
  1011f2:	8d b4 26 00 00 00 00 	lea    0x0(%esi,%eiz,1),%esi
  1011f9:	8d bc 27 00 00 00 00 	lea    0x0(%edi,%eiz,1),%edi

00101200 <_Z6memcpyPvPKvj>:
  101200:	53                   	push   %ebx
  101201:	8b 4c 24 10          	mov    0x10(%esp),%ecx
  101205:	8b 44 24 08          	mov    0x8(%esp),%eax
  101209:	8b 54 24 0c          	mov    0xc(%esp),%edx
  10120d:	85 c9                	test   %ecx,%ecx
  10120f:	8d 1c 08             	lea    (%eax,%ecx,1),%ebx
  101212:	74 15                	je     101229 <_Z6memcpyPvPKvj+0x29>
  101214:	8d 74 26 00          	lea    0x0(%esi,%eiz,1),%esi
  101218:	83 c2 01             	add    $0x1,%edx
  10121b:	0f b6 4a ff          	movzbl -0x1(%edx),%ecx
  10121f:	83 c0 01             	add    $0x1,%eax
  101222:	39 d8                	cmp    %ebx,%eax
  101224:	88 48 ff             	mov    %cl,-0x1(%eax)
  101227:	75 ef                	jne    101218 <_Z6memcpyPvPKvj+0x18>
  101229:	31 c0                	xor    %eax,%eax
  10122b:	5b                   	pop    %ebx
  10122c:	c3                   	ret    
  10122d:	8d 76 00             	lea    0x0(%esi),%esi

00101230 <_Z6memsetPvij>:
  101230:	8b 44 24 0c          	mov    0xc(%esp),%eax
  101234:	8b 4c 24 04          	mov    0x4(%esp),%ecx
  101238:	0f b6 54 24 08       	movzbl 0x8(%esp),%edx
  10123d:	85 c0                	test   %eax,%eax
  10123f:	74 11                	je     101252 <_Z6memsetPvij+0x22>
  101241:	8d b4 26 00 00 00 00 	lea    0x0(%esi,%eiz,1),%esi
  101248:	83 e8 01             	sub    $0x1,%eax
  10124b:	85 c0                	test   %eax,%eax
  10124d:	88 14 01             	mov    %dl,(%ecx,%eax,1)
  101250:	75 f6                	jne    101248 <_Z6memsetPvij+0x18>
  101252:	31 c0                	xor    %eax,%eax
  101254:	c3                   	ret    
  101255:	66 90                	xchg   %ax,%ax
  101257:	66 90                	xchg   %ax,%ax
  101259:	66 90                	xchg   %ax,%ax
  10125b:	66 90                	xchg   %ax,%ax
  10125d:	66 90                	xchg   %ax,%ax
  10125f:	90                   	nop

00101260 <_ZL17call_constructorsPmS_>:
  101260:	56                   	push   %esi
  101261:	89 d6                	mov    %edx,%esi
  101263:	53                   	push   %ebx
  101264:	89 c3                	mov    %eax,%ebx
  101266:	83 ec 14             	sub    $0x14,%esp
  101269:	39 d0                	cmp    %edx,%eax
  10126b:	73 34                	jae    1012a1 <_ZL17call_constructorsPmS_+0x41>
  10126d:	8d 76 00             	lea    0x0(%esi),%esi
  101270:	c7 04 24 02 46 10 00 	movl   $0x104602,(%esp)
  101277:	e8 d4 f2 ff ff       	call   100550 <debug_print>
  10127c:	89 1c 24             	mov    %ebx,(%esp)
  10127f:	e8 fc f1 ff ff       	call   100480 <debug_printhex_int32>
  101284:	c7 44 24 04 02 00 00 	movl   $0x2,0x4(%esp)
  10128b:	00 
  10128c:	c7 04 24 69 46 10 00 	movl   $0x104669,(%esp)
  101293:	e8 c8 f0 ff ff       	call   100360 <debug_write>
  101298:	ff 13                	call   *(%ebx)
  10129a:	83 c3 04             	add    $0x4,%ebx
  10129d:	39 de                	cmp    %ebx,%esi
  10129f:	77 cf                	ja     101270 <_ZL17call_constructorsPmS_+0x10>
  1012a1:	83 c4 14             	add    $0x14,%esp
  1012a4:	5b                   	pop    %ebx
  1012a5:	5e                   	pop    %esi
  1012a6:	c3                   	ret    
  1012a7:	89 f6                	mov    %esi,%esi
  1012a9:	8d bc 27 00 00 00 00 	lea    0x0(%edi,%eiz,1),%edi

001012b0 <initenv_cpp_global_constructors>:
  1012b0:	83 ec 1c             	sub    $0x1c,%esp
  1012b3:	c7 04 24 0f 46 10 00 	movl   $0x10460f,(%esp)
  1012ba:	e8 91 f2 ff ff       	call   100550 <debug_print>
  1012bf:	c7 04 24 2c 46 10 00 	movl   $0x10462c,(%esp)
  1012c6:	e8 85 f2 ff ff       	call   100550 <debug_print>
  1012cb:	ba 74 51 10 00       	mov    $0x105174,%edx
  1012d0:	b8 74 51 10 00       	mov    $0x105174,%eax
  1012d5:	e8 86 ff ff ff       	call   101260 <_ZL17call_constructorsPmS_>
  1012da:	ba 7c 51 10 00       	mov    $0x10517c,%edx
  1012df:	b8 74 51 10 00       	mov    $0x105174,%eax
  1012e4:	e8 77 ff ff ff       	call   101260 <_ZL17call_constructorsPmS_>
  1012e9:	ba 94 51 10 00       	mov    $0x105194,%edx
  1012ee:	b8 94 51 10 00       	mov    $0x105194,%eax
  1012f3:	e8 68 ff ff ff       	call   101260 <_ZL17call_constructorsPmS_>
  1012f8:	c7 04 24 3b 46 10 00 	movl   $0x10463b,(%esp)
  1012ff:	e8 4c f2 ff ff       	call   100550 <debug_print>
  101304:	c7 04 24 8c 47 10 00 	movl   $0x10478c,(%esp)
  10130b:	e8 40 f2 ff ff       	call   100550 <debug_print>
  101310:	83 c4 1c             	add    $0x1c,%esp
  101313:	c3                   	ret    
  101314:	8d b6 00 00 00 00    	lea    0x0(%esi),%esi
  10131a:	8d bf 00 00 00 00    	lea    0x0(%edi),%edi

00101320 <initenv_bss_clean>:
  101320:	83 ec 1c             	sub    $0x1c,%esp
  101323:	c7 04 24 4c 46 10 00 	movl   $0x10464c,(%esp)
  10132a:	e8 21 f2 ff ff       	call   100550 <debug_print>
  10132f:	b8 a0 6f 10 00       	mov    $0x106fa0,%eax
  101334:	3d 98 87 10 00       	cmp    $0x108798,%eax
  101339:	73 12                	jae    10134d <initenv_bss_clean+0x2d>
  10133b:	90                   	nop
  10133c:	8d 74 26 00          	lea    0x0(%esi,%eiz,1),%esi
  101340:	c6 00 00             	movb   $0x0,(%eax)
  101343:	83 c0 01             	add    $0x1,%eax
  101346:	3d 98 87 10 00       	cmp    $0x108798,%eax
  10134b:	75 f3                	jne    101340 <initenv_bss_clean+0x20>
  10134d:	c7 04 24 47 46 10 00 	movl   $0x104647,(%esp)
  101354:	e8 f7 f1 ff ff       	call   100550 <debug_print>
  101359:	83 c4 1c             	add    $0x1c,%esp
  10135c:	c3                   	ret    
  10135d:	8d 76 00             	lea    0x0(%esi),%esi

00101360 <initenv_bss_test>:
  101360:	55                   	push   %ebp
  101361:	57                   	push   %edi
  101362:	56                   	push   %esi
  101363:	be 98 87 10 00       	mov    $0x108798,%esi
  101368:	53                   	push   %ebx
  101369:	89 f5                	mov    %esi,%ebp
  10136b:	83 ec 1c             	sub    $0x1c,%esp
  10136e:	bb a0 6f 10 00       	mov    $0x106fa0,%ebx
  101373:	c7 04 24 5e 46 10 00 	movl   $0x10465e,(%esp)
  10137a:	29 dd                	sub    %ebx,%ebp
  10137c:	e8 cf f1 ff ff       	call   100550 <debug_print>
  101381:	c7 04 24 6c 46 10 00 	movl   $0x10466c,(%esp)
  101388:	e8 c3 f1 ff ff       	call   100550 <debug_print>
  10138d:	89 2c 24             	mov    %ebp,(%esp)
  101390:	e8 eb f0 ff ff       	call   100480 <debug_printhex_int32>
  101395:	c7 44 24 04 02 00 00 	movl   $0x2,0x4(%esp)
  10139c:	00 
  10139d:	c7 04 24 69 46 10 00 	movl   $0x104669,(%esp)
  1013a4:	e8 b7 ef ff ff       	call   100360 <debug_write>
  1013a9:	c7 04 24 b8 47 10 00 	movl   $0x1047b8,(%esp)
  1013b0:	e8 9b f1 ff ff       	call   100550 <debug_print>
  1013b5:	39 de                	cmp    %ebx,%esi
  1013b7:	0f 86 a5 00 00 00    	jbe    101462 <initenv_bss_test+0x102>
  1013bd:	31 ff                	xor    %edi,%edi
  1013bf:	eb 0e                	jmp    1013cf <initenv_bss_test+0x6f>
  1013c1:	8d b4 26 00 00 00 00 	lea    0x0(%esi,%eiz,1),%esi
  1013c8:	83 c3 01             	add    $0x1,%ebx
  1013cb:	39 de                	cmp    %ebx,%esi
  1013cd:	76 43                	jbe    101412 <initenv_bss_test+0xb2>
  1013cf:	80 3b 00             	cmpb   $0x0,(%ebx)
  1013d2:	74 f4                	je     1013c8 <initenv_bss_test+0x68>
  1013d4:	89 1c 24             	mov    %ebx,(%esp)
  1013d7:	83 c3 01             	add    $0x1,%ebx
  1013da:	83 c7 01             	add    $0x1,%edi
  1013dd:	e8 9e f0 ff ff       	call   100480 <debug_printhex_int32>
  1013e2:	c7 04 24 88 47 10 00 	movl   $0x104788,(%esp)
  1013e9:	e8 62 f1 ff ff       	call   100550 <debug_print>
  1013ee:	0f be 43 ff          	movsbl -0x1(%ebx),%eax
  1013f2:	89 04 24             	mov    %eax,(%esp)
  1013f5:	e8 56 f0 ff ff       	call   100450 <debug_printhex_byte>
  1013fa:	c7 44 24 04 02 00 00 	movl   $0x2,0x4(%esp)
  101401:	00 
  101402:	c7 04 24 69 46 10 00 	movl   $0x104669,(%esp)
  101409:	e8 52 ef ff ff       	call   100360 <debug_write>
  10140e:	39 de                	cmp    %ebx,%esi
  101410:	77 bd                	ja     1013cf <initenv_bss_test+0x6f>
  101412:	c7 04 24 f8 47 10 00 	movl   $0x1047f8,(%esp)
  101419:	e8 32 f1 ff ff       	call   100550 <debug_print>
  10141e:	89 2c 24             	mov    %ebp,(%esp)
  101421:	e8 5a f0 ff ff       	call   100480 <debug_printhex_int32>
  101426:	c7 04 24 78 46 10 00 	movl   $0x104678,(%esp)
  10142d:	e8 1e f1 ff ff       	call   100550 <debug_print>
  101432:	89 3c 24             	mov    %edi,(%esp)
  101435:	e8 46 f0 ff ff       	call   100480 <debug_printhex_int32>
  10143a:	c7 44 24 04 02 00 00 	movl   $0x2,0x4(%esp)
  101441:	00 
  101442:	c7 04 24 69 46 10 00 	movl   $0x104669,(%esp)
  101449:	e8 12 ef ff ff       	call   100360 <debug_write>
  10144e:	c7 04 24 89 46 10 00 	movl   $0x104689,(%esp)
  101455:	e8 f6 f0 ff ff       	call   100550 <debug_print>
  10145a:	83 c4 1c             	add    $0x1c,%esp
  10145d:	5b                   	pop    %ebx
  10145e:	5e                   	pop    %esi
  10145f:	5f                   	pop    %edi
  101460:	5d                   	pop    %ebp
  101461:	c3                   	ret    
  101462:	31 ed                	xor    %ebp,%ebp
  101464:	31 ff                	xor    %edi,%edi
  101466:	eb aa                	jmp    101412 <initenv_bss_test+0xb2>
  101468:	90                   	nop
  101469:	8d b4 26 00 00 00 00 	lea    0x0(%esi,%eiz,1),%esi

00101470 <initenv_sections_info>:
  101470:	83 ec 1c             	sub    $0x1c,%esp
  101473:	c7 04 24 2c 48 10 00 	movl   $0x10482c,(%esp)
  10147a:	e8 d1 f0 ff ff       	call   100550 <debug_print>
  10147f:	c7 04 24 98 46 10 00 	movl   $0x104698,(%esp)
  101486:	e8 c5 f0 ff ff       	call   100550 <debug_print>
  10148b:	c7 04 24 00 00 10 00 	movl   $0x100000,(%esp)
  101492:	e8 e9 ef ff ff       	call   100480 <debug_printhex_int32>
  101497:	c7 44 24 04 02 00 00 	movl   $0x2,0x4(%esp)
  10149e:	00 
  10149f:	c7 04 24 69 46 10 00 	movl   $0x104669,(%esp)
  1014a6:	e8 b5 ee ff ff       	call   100360 <debug_write>
  1014ab:	c7 04 24 a6 46 10 00 	movl   $0x1046a6,(%esp)
  1014b2:	e8 99 f0 ff ff       	call   100550 <debug_print>
  1014b7:	c7 04 24 94 51 10 00 	movl   $0x105194,(%esp)
  1014be:	e8 bd ef ff ff       	call   100480 <debug_printhex_int32>
  1014c3:	c7 44 24 04 02 00 00 	movl   $0x2,0x4(%esp)
  1014ca:	00 
  1014cb:	c7 04 24 69 46 10 00 	movl   $0x104669,(%esp)
  1014d2:	e8 89 ee ff ff       	call   100360 <debug_write>
  1014d7:	c7 04 24 b4 46 10 00 	movl   $0x1046b4,(%esp)
  1014de:	e8 6d f0 ff ff       	call   100550 <debug_print>
  1014e3:	c7 04 24 c0 6b 10 00 	movl   $0x106bc0,(%esp)
  1014ea:	e8 91 ef ff ff       	call   100480 <debug_printhex_int32>
  1014ef:	c7 44 24 04 02 00 00 	movl   $0x2,0x4(%esp)
  1014f6:	00 
  1014f7:	c7 04 24 69 46 10 00 	movl   $0x104669,(%esp)
  1014fe:	e8 5d ee ff ff       	call   100360 <debug_write>
  101503:	c7 04 24 c2 46 10 00 	movl   $0x1046c2,(%esp)
  10150a:	e8 41 f0 ff ff       	call   100550 <debug_print>
  10150f:	c7 04 24 90 6e 10 00 	movl   $0x106e90,(%esp)
  101516:	e8 65 ef ff ff       	call   100480 <debug_printhex_int32>
  10151b:	c7 44 24 04 02 00 00 	movl   $0x2,0x4(%esp)
  101522:	00 
  101523:	c7 04 24 69 46 10 00 	movl   $0x104669,(%esp)
  10152a:	e8 31 ee ff ff       	call   100360 <debug_write>
  10152f:	c7 04 24 d0 46 10 00 	movl   $0x1046d0,(%esp)
  101536:	e8 15 f0 ff ff       	call   100550 <debug_print>
  10153b:	c7 04 24 a0 6f 10 00 	movl   $0x106fa0,(%esp)
  101542:	e8 39 ef ff ff       	call   100480 <debug_printhex_int32>
  101547:	c7 44 24 04 02 00 00 	movl   $0x2,0x4(%esp)
  10154e:	00 
  10154f:	c7 04 24 69 46 10 00 	movl   $0x104669,(%esp)
  101556:	e8 05 ee ff ff       	call   100360 <debug_write>
  10155b:	c7 04 24 de 46 10 00 	movl   $0x1046de,(%esp)
  101562:	e8 e9 ef ff ff       	call   100550 <debug_print>
  101567:	c7 04 24 98 87 10 00 	movl   $0x108798,(%esp)
  10156e:	e8 0d ef ff ff       	call   100480 <debug_printhex_int32>
  101573:	c7 44 24 04 02 00 00 	movl   $0x2,0x4(%esp)
  10157a:	00 
  10157b:	c7 04 24 69 46 10 00 	movl   $0x104669,(%esp)
  101582:	e8 d9 ed ff ff       	call   100360 <debug_write>
  101587:	c7 04 24 ec 46 10 00 	movl   $0x1046ec,(%esp)
  10158e:	e8 bd ef ff ff       	call   100550 <debug_print>
  101593:	c7 04 24 00 47 10 00 	movl   $0x104700,(%esp)
  10159a:	e8 b1 ef ff ff       	call   100550 <debug_print>
  10159f:	c7 04 24 74 51 10 00 	movl   $0x105174,(%esp)
  1015a6:	e8 d5 ee ff ff       	call   100480 <debug_printhex_int32>
  1015ab:	c7 44 24 04 02 00 00 	movl   $0x2,0x4(%esp)
  1015b2:	00 
  1015b3:	c7 04 24 69 46 10 00 	movl   $0x104669,(%esp)
  1015ba:	e8 a1 ed ff ff       	call   100360 <debug_write>
  1015bf:	c7 04 24 17 47 10 00 	movl   $0x104717,(%esp)
  1015c6:	e8 85 ef ff ff       	call   100550 <debug_print>
  1015cb:	c7 04 24 74 51 10 00 	movl   $0x105174,(%esp)
  1015d2:	e8 a9 ee ff ff       	call   100480 <debug_printhex_int32>
  1015d7:	c7 44 24 04 02 00 00 	movl   $0x2,0x4(%esp)
  1015de:	00 
  1015df:	c7 04 24 69 46 10 00 	movl   $0x104669,(%esp)
  1015e6:	e8 75 ed ff ff       	call   100360 <debug_write>
  1015eb:	c7 04 24 2e 47 10 00 	movl   $0x10472e,(%esp)
  1015f2:	e8 59 ef ff ff       	call   100550 <debug_print>
  1015f7:	c7 04 24 74 51 10 00 	movl   $0x105174,(%esp)
  1015fe:	e8 7d ee ff ff       	call   100480 <debug_printhex_int32>
  101603:	c7 44 24 04 02 00 00 	movl   $0x2,0x4(%esp)
  10160a:	00 
  10160b:	c7 04 24 69 46 10 00 	movl   $0x104669,(%esp)
  101612:	e8 49 ed ff ff       	call   100360 <debug_write>
  101617:	c7 04 24 45 47 10 00 	movl   $0x104745,(%esp)
  10161e:	e8 2d ef ff ff       	call   100550 <debug_print>
  101623:	c7 04 24 7c 51 10 00 	movl   $0x10517c,(%esp)
  10162a:	e8 51 ee ff ff       	call   100480 <debug_printhex_int32>
  10162f:	c7 44 24 04 02 00 00 	movl   $0x2,0x4(%esp)
  101636:	00 
  101637:	c7 04 24 69 46 10 00 	movl   $0x104669,(%esp)
  10163e:	e8 1d ed ff ff       	call   100360 <debug_write>
  101643:	c7 04 24 5c 47 10 00 	movl   $0x10475c,(%esp)
  10164a:	e8 01 ef ff ff       	call   100550 <debug_print>
  10164f:	c7 04 24 94 51 10 00 	movl   $0x105194,(%esp)
  101656:	e8 25 ee ff ff       	call   100480 <debug_printhex_int32>
  10165b:	c7 44 24 04 02 00 00 	movl   $0x2,0x4(%esp)
  101662:	00 
  101663:	c7 04 24 69 46 10 00 	movl   $0x104669,(%esp)
  10166a:	e8 f1 ec ff ff       	call   100360 <debug_write>
  10166f:	c7 04 24 73 47 10 00 	movl   $0x104773,(%esp)
  101676:	e8 d5 ee ff ff       	call   100550 <debug_print>
  10167b:	c7 04 24 94 51 10 00 	movl   $0x105194,(%esp)
  101682:	e8 f9 ed ff ff       	call   100480 <debug_printhex_int32>
  101687:	c7 44 24 04 02 00 00 	movl   $0x2,0x4(%esp)
  10168e:	00 
  10168f:	c7 04 24 69 46 10 00 	movl   $0x104669,(%esp)
  101696:	e8 c5 ec ff ff       	call   100360 <debug_write>
  10169b:	83 c4 1c             	add    $0x1c,%esp
  10169e:	c3                   	ret    
  10169f:	90                   	nop

001016a0 <_ZN8DBStream9availableEv>:
  1016a0:	f3 c3                	repz ret 
  1016a2:	8d b4 26 00 00 00 00 	lea    0x0(%esi,%eiz,1),%esi
  1016a9:	8d bc 27 00 00 00 00 	lea    0x0(%edi,%eiz,1),%edi

001016b0 <_ZN8DBStream4readEv>:
  1016b0:	8b 44 24 04          	mov    0x4(%esp),%eax
  1016b4:	8b 40 14             	mov    0x14(%eax),%eax
  1016b7:	8b 10                	mov    (%eax),%edx
  1016b9:	89 44 24 04          	mov    %eax,0x4(%esp)
  1016bd:	8b 42 04             	mov    0x4(%edx),%eax
  1016c0:	ff e0                	jmp    *%eax
  1016c2:	8d b4 26 00 00 00 00 	lea    0x0(%esi,%eiz,1),%esi
  1016c9:	8d bc 27 00 00 00 00 	lea    0x0(%edi,%eiz,1),%edi

001016d0 <_ZN8DBStream4peekEv>:
  1016d0:	f3 c3                	repz ret 
  1016d2:	8d b4 26 00 00 00 00 	lea    0x0(%esi,%eiz,1),%esi
  1016d9:	8d bc 27 00 00 00 00 	lea    0x0(%edi,%eiz,1),%edi

001016e0 <_ZN8DBStream5flushEv>:
  1016e0:	f3 c3                	repz ret 
  1016e2:	8d b4 26 00 00 00 00 	lea    0x0(%esi,%eiz,1),%esi
  1016e9:	8d bc 27 00 00 00 00 	lea    0x0(%edi,%eiz,1),%edi

001016f0 <_ZN8DBStream5writeEh>:
  1016f0:	53                   	push   %ebx
  1016f1:	83 ec 18             	sub    $0x18,%esp
  1016f4:	8b 44 24 24          	mov    0x24(%esp),%eax
  1016f8:	84 c0                	test   %al,%al
  1016fa:	75 0c                	jne    101708 <_ZN8DBStream5writeEh+0x18>
  1016fc:	83 c4 18             	add    $0x18,%esp
  1016ff:	31 c0                	xor    %eax,%eax
  101701:	5b                   	pop    %ebx
  101702:	c3                   	ret    
  101703:	90                   	nop
  101704:	8d 74 26 00          	lea    0x0(%esi,%eiz,1),%esi
  101708:	0f be d8             	movsbl %al,%ebx
  10170b:	8b 44 24 20          	mov    0x20(%esp),%eax
  10170f:	89 1c 24             	mov    %ebx,(%esp)
  101712:	ff 50 18             	call   *0x18(%eax)
  101715:	85 c0                	test   %eax,%eax
  101717:	74 0f                	je     101728 <_ZN8DBStream5writeEh+0x38>
  101719:	83 c4 18             	add    $0x18,%esp
  10171c:	b8 01 00 00 00       	mov    $0x1,%eax
  101721:	5b                   	pop    %ebx
  101722:	c3                   	ret    
  101723:	90                   	nop
  101724:	8d 74 26 00          	lea    0x0(%esi,%eiz,1),%esi
  101728:	8b 44 24 20          	mov    0x20(%esp),%eax
  10172c:	8b 40 10             	mov    0x10(%eax),%eax
  10172f:	8b 10                	mov    (%eax),%edx
  101731:	89 5c 24 04          	mov    %ebx,0x4(%esp)
  101735:	89 04 24             	mov    %eax,(%esp)
  101738:	ff 12                	call   *(%edx)
  10173a:	85 c0                	test   %eax,%eax
  10173c:	75 be                	jne    1016fc <_ZN8DBStream5writeEh+0xc>
  10173e:	8b 44 24 20          	mov    0x20(%esp),%eax
  101742:	8b 40 1c             	mov    0x1c(%eax),%eax
  101745:	85 c0                	test   %eax,%eax
  101747:	74 d0                	je     101719 <_ZN8DBStream5writeEh+0x29>
  101749:	ff d0                	call   *%eax
  10174b:	eb cc                	jmp    101719 <_ZN8DBStream5writeEh+0x29>
  10174d:	90                   	nop
  10174e:	66 90                	xchg   %ax,%ax

00101750 <_ZN8DBStreamC1Ejjh>:
  101750:	56                   	push   %esi
  101751:	53                   	push   %ebx
  101752:	83 ec 14             	sub    $0x14,%esp
  101755:	8b 44 24 2c          	mov    0x2c(%esp),%eax
  101759:	8b 5c 24 20          	mov    0x20(%esp),%ebx
  10175d:	84 c0                	test   %al,%al
  10175f:	c7 43 04 00 00 00 00 	movl   $0x0,0x4(%ebx)
  101766:	c7 43 08 e8 03 00 00 	movl   $0x3e8,0x8(%ebx)
  10176d:	c7 03 a8 48 10 00    	movl   $0x1048a8,(%ebx)
  101773:	74 23                	je     101798 <_ZN8DBStreamC1Ejjh+0x48>
  101775:	3c 01                	cmp    $0x1,%al
  101777:	74 67                	je     1017e0 <_ZN8DBStreamC1Ejjh+0x90>
  101779:	c7 43 1c 00 00 00 00 	movl   $0x0,0x1c(%ebx)
  101780:	c7 43 20 00 00 00 00 	movl   $0x0,0x20(%ebx)
  101787:	c7 43 24 00 00 00 00 	movl   $0x0,0x24(%ebx)
  10178e:	83 c4 14             	add    $0x14,%esp
  101791:	5b                   	pop    %ebx
  101792:	5e                   	pop    %esi
  101793:	c3                   	ret    
  101794:	8d 74 26 00          	lea    0x0(%esi,%eiz,1),%esi
  101798:	c7 04 24 18 00 00 00 	movl   $0x18,(%esp)
  10179f:	e8 1c 14 00 00       	call   102bc0 <_Znwj>
  1017a4:	89 c6                	mov    %eax,%esi
  1017a6:	8b 44 24 24          	mov    0x24(%esp),%eax
  1017aa:	89 34 24             	mov    %esi,(%esp)
  1017ad:	89 44 24 04          	mov    %eax,0x4(%esp)
  1017b1:	e8 da 01 00 00       	call   101990 <_ZN6ring_tC1Ej>
  1017b6:	89 73 10             	mov    %esi,0x10(%ebx)
  1017b9:	c7 04 24 18 00 00 00 	movl   $0x18,(%esp)
  1017c0:	e8 fb 13 00 00       	call   102bc0 <_Znwj>
  1017c5:	89 c6                	mov    %eax,%esi
  1017c7:	8b 44 24 28          	mov    0x28(%esp),%eax
  1017cb:	89 34 24             	mov    %esi,(%esp)
  1017ce:	89 44 24 04          	mov    %eax,0x4(%esp)
  1017d2:	e8 b9 01 00 00       	call   101990 <_ZN6ring_tC1Ej>
  1017d7:	89 73 14             	mov    %esi,0x14(%ebx)
  1017da:	eb 9d                	jmp    101779 <_ZN8DBStreamC1Ejjh+0x29>
  1017dc:	8d 74 26 00          	lea    0x0(%esi,%eiz,1),%esi
  1017e0:	c7 04 24 20 00 00 00 	movl   $0x20,(%esp)
  1017e7:	e8 d4 13 00 00       	call   102bc0 <_Znwj>
  1017ec:	89 c6                	mov    %eax,%esi
  1017ee:	8b 44 24 24          	mov    0x24(%esp),%eax
  1017f2:	89 34 24             	mov    %esi,(%esp)
  1017f5:	89 44 24 04          	mov    %eax,0x4(%esp)
  1017f9:	e8 d2 02 00 00       	call   101ad0 <_ZN11dynamicringC1Ei>
  1017fe:	89 73 10             	mov    %esi,0x10(%ebx)
  101801:	c7 04 24 20 00 00 00 	movl   $0x20,(%esp)
  101808:	e8 b3 13 00 00       	call   102bc0 <_Znwj>
  10180d:	89 c6                	mov    %eax,%esi
  10180f:	8b 44 24 28          	mov    0x28(%esp),%eax
  101813:	89 34 24             	mov    %esi,(%esp)
  101816:	89 44 24 04          	mov    %eax,0x4(%esp)
  10181a:	e8 b1 02 00 00       	call   101ad0 <_ZN11dynamicringC1Ei>
  10181f:	89 73 14             	mov    %esi,0x14(%ebx)
  101822:	e9 52 ff ff ff       	jmp    101779 <_ZN8DBStreamC1Ejjh+0x29>
  101827:	90                   	nop
  101828:	90                   	nop
  101829:	8d b4 26 00 00 00 00 	lea    0x0(%esi,%eiz,1),%esi

00101830 <_ZN8DBStreamC1Ev>:
  101830:	8b 44 24 04          	mov    0x4(%esp),%eax
  101834:	c7 40 04 00 00 00 00 	movl   $0x0,0x4(%eax)
  10183b:	c7 40 08 e8 03 00 00 	movl   $0x3e8,0x8(%eax)
  101842:	c7 00 a8 48 10 00    	movl   $0x1048a8,(%eax)
  101848:	c7 40 1c 00 00 00 00 	movl   $0x0,0x1c(%eax)
  10184f:	c7 40 20 00 00 00 00 	movl   $0x0,0x20(%eax)
  101856:	c3                   	ret    
  101857:	90                   	nop
  101858:	90                   	nop
  101859:	8d b4 26 00 00 00 00 	lea    0x0(%esi,%eiz,1),%esi

00101860 <_ZN8DBStreamC1EP7Queue_pS1_>:
  101860:	8b 44 24 04          	mov    0x4(%esp),%eax
  101864:	8b 54 24 08          	mov    0x8(%esp),%edx
  101868:	c7 40 04 00 00 00 00 	movl   $0x0,0x4(%eax)
  10186f:	89 50 14             	mov    %edx,0x14(%eax)
  101872:	8b 54 24 0c          	mov    0xc(%esp),%edx
  101876:	c7 40 08 e8 03 00 00 	movl   $0x3e8,0x8(%eax)
  10187d:	c7 00 a8 48 10 00    	movl   $0x1048a8,(%eax)
  101883:	c7 40 1c 00 00 00 00 	movl   $0x0,0x1c(%eax)
  10188a:	89 50 10             	mov    %edx,0x10(%eax)
  10188d:	c7 40 20 00 00 00 00 	movl   $0x0,0x20(%eax)
  101894:	c7 40 18 00 00 00 00 	movl   $0x0,0x18(%eax)
  10189b:	c3                   	ret    
  10189c:	8d 74 26 00          	lea    0x0(%esi,%eiz,1),%esi

001018a0 <_ZN8DBStream7tx_readEv>:
  1018a0:	8b 44 24 04          	mov    0x4(%esp),%eax
  1018a4:	8b 40 10             	mov    0x10(%eax),%eax
  1018a7:	8b 10                	mov    (%eax),%edx
  1018a9:	89 44 24 04          	mov    %eax,0x4(%esp)
  1018ad:	8b 42 04             	mov    0x4(%edx),%eax
  1018b0:	ff e0                	jmp    *%eax
  1018b2:	8d b4 26 00 00 00 00 	lea    0x0(%esi,%eiz,1),%esi
  1018b9:	8d bc 27 00 00 00 00 	lea    0x0(%edi,%eiz,1),%edi

001018c0 <_ZN8DBStream8rx_writeEh>:
  1018c0:	8b 44 24 08          	mov    0x8(%esp),%eax
  1018c4:	8b 54 24 04          	mov    0x4(%esp),%edx
  1018c8:	84 c0                	test   %al,%al
  1018ca:	75 04                	jne    1018d0 <_ZN8DBStream8rx_writeEh+0x10>
  1018cc:	31 c0                	xor    %eax,%eax
  1018ce:	c3                   	ret    
  1018cf:	90                   	nop
  1018d0:	8b 52 14             	mov    0x14(%edx),%edx
  1018d3:	0f be c0             	movsbl %al,%eax
  1018d6:	8b 0a                	mov    (%edx),%ecx
  1018d8:	89 44 24 08          	mov    %eax,0x8(%esp)
  1018dc:	89 54 24 04          	mov    %edx,0x4(%esp)
  1018e0:	8b 01                	mov    (%ecx),%eax
  1018e2:	ff e0                	jmp    *%eax
  1018e4:	66 90                	xchg   %ax,%ax
  1018e6:	66 90                	xchg   %ax,%ax
  1018e8:	66 90                	xchg   %ax,%ax
  1018ea:	66 90                	xchg   %ax,%ax
  1018ec:	66 90                	xchg   %ax,%ax
  1018ee:	66 90                	xchg   %ax,%ax

001018f0 <_ZN6ring_t4pushEc>:
  1018f0:	53                   	push   %ebx
  1018f1:	8b 4c 24 08          	mov    0x8(%esp),%ecx
  1018f5:	8b 44 24 0c          	mov    0xc(%esp),%eax
  1018f9:	80 79 04 02          	cmpb   $0x2,0x4(%ecx)
  1018fd:	74 23                	je     101922 <_ZN6ring_t4pushEc+0x32>
  1018ff:	8b 51 0c             	mov    0xc(%ecx),%edx
  101902:	8b 59 14             	mov    0x14(%ecx),%ebx
  101905:	88 04 13             	mov    %al,(%ebx,%edx,1)
  101908:	8b 41 0c             	mov    0xc(%ecx),%eax
  10190b:	31 d2                	xor    %edx,%edx
  10190d:	83 c0 01             	add    $0x1,%eax
  101910:	f7 71 10             	divl   0x10(%ecx)
  101913:	3b 51 08             	cmp    0x8(%ecx),%edx
  101916:	0f 94 c0             	sete   %al
  101919:	83 c0 01             	add    $0x1,%eax
  10191c:	89 51 0c             	mov    %edx,0xc(%ecx)
  10191f:	88 41 04             	mov    %al,0x4(%ecx)
  101922:	31 c0                	xor    %eax,%eax
  101924:	5b                   	pop    %ebx
  101925:	c3                   	ret    
  101926:	8d 76 00             	lea    0x0(%esi),%esi
  101929:	8d bc 27 00 00 00 00 	lea    0x0(%edi,%eiz,1),%edi

00101930 <_ZN6ring_t9availableEv>:
  101930:	8b 54 24 04          	mov    0x4(%esp),%edx
  101934:	8b 4a 10             	mov    0x10(%edx),%ecx
  101937:	8b 42 0c             	mov    0xc(%edx),%eax
  10193a:	01 c8                	add    %ecx,%eax
  10193c:	2b 42 08             	sub    0x8(%edx),%eax
  10193f:	31 d2                	xor    %edx,%edx
  101941:	f7 f1                	div    %ecx
  101943:	89 d0                	mov    %edx,%eax
  101945:	c3                   	ret    
  101946:	8d 76 00             	lea    0x0(%esi),%esi
  101949:	8d bc 27 00 00 00 00 	lea    0x0(%edi,%eiz,1),%edi

00101950 <_ZN6ring_t4peekEi>:
  101950:	31 c0                	xor    %eax,%eax
  101952:	c3                   	ret    
  101953:	90                   	nop
  101954:	8d b6 00 00 00 00    	lea    0x0(%esi),%esi
  10195a:	8d bf 00 00 00 00    	lea    0x0(%edi),%edi

00101960 <_ZN6ring_t3popEv>:
  101960:	53                   	push   %ebx
  101961:	8b 4c 24 08          	mov    0x8(%esp),%ecx
  101965:	31 c0                	xor    %eax,%eax
  101967:	80 79 04 00          	cmpb   $0x0,0x4(%ecx)
  10196b:	74 1e                	je     10198b <_ZN6ring_t3popEv+0x2b>
  10196d:	8b 51 08             	mov    0x8(%ecx),%edx
  101970:	8b 41 14             	mov    0x14(%ecx),%eax
  101973:	0f be 1c 10          	movsbl (%eax,%edx,1),%ebx
  101977:	8d 42 01             	lea    0x1(%edx),%eax
  10197a:	31 d2                	xor    %edx,%edx
  10197c:	f7 71 10             	divl   0x10(%ecx)
  10197f:	89 d8                	mov    %ebx,%eax
  101981:	3b 51 0c             	cmp    0xc(%ecx),%edx
  101984:	89 51 08             	mov    %edx,0x8(%ecx)
  101987:	0f 95 41 04          	setne  0x4(%ecx)
  10198b:	5b                   	pop    %ebx
  10198c:	c3                   	ret    
  10198d:	90                   	nop
  10198e:	66 90                	xchg   %ax,%ax

00101990 <_ZN6ring_tC1Ej>:
  101990:	56                   	push   %esi
  101991:	53                   	push   %ebx
  101992:	83 ec 14             	sub    $0x14,%esp
  101995:	8b 5c 24 20          	mov    0x20(%esp),%ebx
  101999:	8b 74 24 24          	mov    0x24(%esp),%esi
  10199d:	89 1c 24             	mov    %ebx,(%esp)
  1019a0:	e8 5b 03 00 00       	call   101d00 <_ZN7Queue_pC1Ev>
  1019a5:	a1 c8 6b 10 00       	mov    0x106bc8,%eax
  1019aa:	89 73 10             	mov    %esi,0x10(%ebx)
  1019ad:	c7 03 f0 48 10 00    	movl   $0x1048f0,(%ebx)
  1019b3:	8b 10                	mov    (%eax),%edx
  1019b5:	89 74 24 04          	mov    %esi,0x4(%esp)
  1019b9:	89 04 24             	mov    %eax,(%esp)
  1019bc:	ff 12                	call   *(%edx)
  1019be:	c7 43 08 00 00 00 00 	movl   $0x0,0x8(%ebx)
  1019c5:	c7 43 0c 00 00 00 00 	movl   $0x0,0xc(%ebx)
  1019cc:	c6 43 04 00          	movb   $0x0,0x4(%ebx)
  1019d0:	89 43 14             	mov    %eax,0x14(%ebx)
  1019d3:	83 c4 14             	add    $0x14,%esp
  1019d6:	5b                   	pop    %ebx
  1019d7:	5e                   	pop    %esi
  1019d8:	c3                   	ret    
  1019d9:	90                   	nop
  1019da:	8d b6 00 00 00 00    	lea    0x0(%esi),%esi

001019e0 <_ZN6ring_tC1EPvj>:
  1019e0:	53                   	push   %ebx
  1019e1:	83 ec 18             	sub    $0x18,%esp
  1019e4:	8b 5c 24 20          	mov    0x20(%esp),%ebx
  1019e8:	89 1c 24             	mov    %ebx,(%esp)
  1019eb:	e8 10 03 00 00       	call   101d00 <_ZN7Queue_pC1Ev>
  1019f0:	8b 44 24 28          	mov    0x28(%esp),%eax
  1019f4:	c7 03 f0 48 10 00    	movl   $0x1048f0,(%ebx)
  1019fa:	c7 43 08 00 00 00 00 	movl   $0x0,0x8(%ebx)
  101a01:	c7 43 0c 00 00 00 00 	movl   $0x0,0xc(%ebx)
  101a08:	89 43 10             	mov    %eax,0x10(%ebx)
  101a0b:	8b 44 24 24          	mov    0x24(%esp),%eax
  101a0f:	c6 43 04 00          	movb   $0x0,0x4(%ebx)
  101a13:	89 43 14             	mov    %eax,0x14(%ebx)
  101a16:	83 c4 18             	add    $0x18,%esp
  101a19:	5b                   	pop    %ebx
  101a1a:	c3                   	ret    
  101a1b:	90                   	nop
  101a1c:	8d 74 26 00          	lea    0x0(%esi,%eiz,1),%esi

00101a20 <_ZN6ring_tD1Ev>:
  101a20:	83 ec 1c             	sub    $0x1c,%esp
  101a23:	a1 c8 6b 10 00       	mov    0x106bc8,%eax
  101a28:	8b 54 24 20          	mov    0x20(%esp),%edx
  101a2c:	8b 08                	mov    (%eax),%ecx
  101a2e:	c7 02 f0 48 10 00    	movl   $0x1048f0,(%edx)
  101a34:	8b 52 14             	mov    0x14(%edx),%edx
  101a37:	89 04 24             	mov    %eax,(%esp)
  101a3a:	89 54 24 04          	mov    %edx,0x4(%esp)
  101a3e:	ff 51 04             	call   *0x4(%ecx)
  101a41:	83 c4 1c             	add    $0x1c,%esp
  101a44:	c3                   	ret    
  101a45:	66 90                	xchg   %ax,%ax
  101a47:	66 90                	xchg   %ax,%ax
  101a49:	66 90                	xchg   %ax,%ax
  101a4b:	66 90                	xchg   %ax,%ax
  101a4d:	66 90                	xchg   %ax,%ax
  101a4f:	90                   	nop

00101a50 <_ZN11dynamicring4peekEi>:
  101a50:	f3 c3                	repz ret 
  101a52:	8d b4 26 00 00 00 00 	lea    0x0(%esi,%eiz,1),%esi
  101a59:	8d bc 27 00 00 00 00 	lea    0x0(%edi,%eiz,1),%edi

00101a60 <_ZN11dynamicring9availableEv>:
  101a60:	f3 c3                	repz ret 
  101a62:	8d b4 26 00 00 00 00 	lea    0x0(%esi,%eiz,1),%esi
  101a69:	8d bc 27 00 00 00 00 	lea    0x0(%edi,%eiz,1),%edi

00101a70 <_ZN11dynamicring11engage_ringEv>:
  101a70:	57                   	push   %edi
  101a71:	56                   	push   %esi
  101a72:	53                   	push   %ebx
  101a73:	83 ec 10             	sub    $0x10,%esp
  101a76:	c7 04 24 0c 00 00 00 	movl   $0xc,(%esp)
  101a7d:	8b 5c 24 20          	mov    0x20(%esp),%ebx
  101a81:	e8 3a 11 00 00       	call   102bc0 <_Znwj>
  101a86:	c7 04 24 18 00 00 00 	movl   $0x18,(%esp)
  101a8d:	89 c6                	mov    %eax,%esi
  101a8f:	e8 2c 11 00 00       	call   102bc0 <_Znwj>
  101a94:	89 c7                	mov    %eax,%edi
  101a96:	8b 43 10             	mov    0x10(%ebx),%eax
  101a99:	89 3c 24             	mov    %edi,(%esp)
  101a9c:	89 44 24 04          	mov    %eax,0x4(%esp)
  101aa0:	e8 eb fe ff ff       	call   101990 <_ZN6ring_tC1Ej>
  101aa5:	8b 43 0c             	mov    0xc(%ebx),%eax
  101aa8:	8d 56 04             	lea    0x4(%esi),%edx
  101aab:	8d 4b 08             	lea    0x8(%ebx),%ecx
  101aae:	89 3e                	mov    %edi,(%esi)
  101ab0:	89 53 0c             	mov    %edx,0xc(%ebx)
  101ab3:	89 4e 04             	mov    %ecx,0x4(%esi)
  101ab6:	89 46 08             	mov    %eax,0x8(%esi)
  101ab9:	89 10                	mov    %edx,(%eax)
  101abb:	89 73 1c             	mov    %esi,0x1c(%ebx)
  101abe:	83 43 14 01          	addl   $0x1,0x14(%ebx)
  101ac2:	83 c4 10             	add    $0x10,%esp
  101ac5:	5b                   	pop    %ebx
  101ac6:	5e                   	pop    %esi
  101ac7:	5f                   	pop    %edi
  101ac8:	c3                   	ret    
  101ac9:	90                   	nop
  101aca:	8d b6 00 00 00 00    	lea    0x0(%esi),%esi

00101ad0 <_ZN11dynamicringC1Ei>:
  101ad0:	53                   	push   %ebx
  101ad1:	83 ec 18             	sub    $0x18,%esp
  101ad4:	8b 5c 24 20          	mov    0x20(%esp),%ebx
  101ad8:	89 1c 24             	mov    %ebx,(%esp)
  101adb:	e8 20 02 00 00       	call   101d00 <_ZN7Queue_pC1Ev>
  101ae0:	8b 44 24 24          	mov    0x24(%esp),%eax
  101ae4:	c7 03 28 49 10 00    	movl   $0x104928,(%ebx)
  101aea:	c7 43 14 00 00 00 00 	movl   $0x0,0x14(%ebx)
  101af1:	89 43 10             	mov    %eax,0x10(%ebx)
  101af4:	8d 43 08             	lea    0x8(%ebx),%eax
  101af7:	89 43 08             	mov    %eax,0x8(%ebx)
  101afa:	89 43 0c             	mov    %eax,0xc(%ebx)
  101afd:	89 1c 24             	mov    %ebx,(%esp)
  101b00:	e8 6b ff ff ff       	call   101a70 <_ZN11dynamicring11engage_ringEv>
  101b05:	8b 43 1c             	mov    0x1c(%ebx),%eax
  101b08:	89 43 18             	mov    %eax,0x18(%ebx)
  101b0b:	83 c4 18             	add    $0x18,%esp
  101b0e:	5b                   	pop    %ebx
  101b0f:	c3                   	ret    

00101b10 <_ZN11dynamicring4pushEc>:
  101b10:	56                   	push   %esi
  101b11:	53                   	push   %ebx
  101b12:	83 ec 14             	sub    $0x14,%esp
  101b15:	8b 5c 24 20          	mov    0x20(%esp),%ebx
  101b19:	0f be 74 24 24       	movsbl 0x24(%esp),%esi
  101b1e:	8b 43 1c             	mov    0x1c(%ebx),%eax
  101b21:	8b 00                	mov    (%eax),%eax
  101b23:	8b 10                	mov    (%eax),%edx
  101b25:	89 74 24 04          	mov    %esi,0x4(%esp)
  101b29:	89 04 24             	mov    %eax,(%esp)
  101b2c:	ff 12                	call   *(%edx)
  101b2e:	85 c0                	test   %eax,%eax
  101b30:	74 18                	je     101b4a <_ZN11dynamicring4pushEc+0x3a>
  101b32:	89 1c 24             	mov    %ebx,(%esp)
  101b35:	e8 36 ff ff ff       	call   101a70 <_ZN11dynamicring11engage_ringEv>
  101b3a:	8b 43 1c             	mov    0x1c(%ebx),%eax
  101b3d:	8b 00                	mov    (%eax),%eax
  101b3f:	8b 10                	mov    (%eax),%edx
  101b41:	89 74 24 04          	mov    %esi,0x4(%esp)
  101b45:	89 04 24             	mov    %eax,(%esp)
  101b48:	ff 12                	call   *(%edx)
  101b4a:	83 c4 14             	add    $0x14,%esp
  101b4d:	31 c0                	xor    %eax,%eax
  101b4f:	5b                   	pop    %ebx
  101b50:	5e                   	pop    %esi
  101b51:	c3                   	ret    
  101b52:	8d b4 26 00 00 00 00 	lea    0x0(%esi,%eiz,1),%esi
  101b59:	8d bc 27 00 00 00 00 	lea    0x0(%edi,%eiz,1),%edi

00101b60 <_ZN11dynamicring12absolve_ringEv>:
  101b60:	57                   	push   %edi
  101b61:	56                   	push   %esi
  101b62:	53                   	push   %ebx
  101b63:	83 ec 10             	sub    $0x10,%esp
  101b66:	8b 5c 24 20          	mov    0x20(%esp),%ebx
  101b6a:	8b 43 18             	mov    0x18(%ebx),%eax
  101b6d:	8b 38                	mov    (%eax),%edi
  101b6f:	8b 50 04             	mov    0x4(%eax),%edx
  101b72:	8b 48 08             	mov    0x8(%eax),%ecx
  101b75:	85 ff                	test   %edi,%edi
  101b77:	8d 72 fc             	lea    -0x4(%edx),%esi
  101b7a:	89 4a 04             	mov    %ecx,0x4(%edx)
  101b7d:	89 11                	mov    %edx,(%ecx)
  101b7f:	c7 40 04 00 00 00 00 	movl   $0x0,0x4(%eax)
  101b86:	c7 40 08 00 00 00 00 	movl   $0x0,0x8(%eax)
  101b8d:	74 13                	je     101ba2 <_ZN11dynamicring12absolve_ringEv+0x42>
  101b8f:	89 3c 24             	mov    %edi,(%esp)
  101b92:	e8 89 fe ff ff       	call   101a20 <_ZN6ring_tD1Ev>
  101b97:	89 3c 24             	mov    %edi,(%esp)
  101b9a:	e8 41 10 00 00       	call   102be0 <_ZdlPv>
  101b9f:	8b 43 18             	mov    0x18(%ebx),%eax
  101ba2:	89 04 24             	mov    %eax,(%esp)
  101ba5:	e8 36 10 00 00       	call   102be0 <_ZdlPv>
  101baa:	89 73 18             	mov    %esi,0x18(%ebx)
  101bad:	83 6b 14 01          	subl   $0x1,0x14(%ebx)
  101bb1:	83 c4 10             	add    $0x10,%esp
  101bb4:	5b                   	pop    %ebx
  101bb5:	5e                   	pop    %esi
  101bb6:	5f                   	pop    %edi
  101bb7:	c3                   	ret    
  101bb8:	90                   	nop
  101bb9:	8d b4 26 00 00 00 00 	lea    0x0(%esi,%eiz,1),%esi

00101bc0 <_ZN11dynamicring3popEv>:
  101bc0:	53                   	push   %ebx
  101bc1:	83 ec 18             	sub    $0x18,%esp
  101bc4:	8b 5c 24 20          	mov    0x20(%esp),%ebx
  101bc8:	8b 43 18             	mov    0x18(%ebx),%eax
  101bcb:	8b 00                	mov    (%eax),%eax
  101bcd:	8b 10                	mov    (%eax),%edx
  101bcf:	89 04 24             	mov    %eax,(%esp)
  101bd2:	ff 52 04             	call   *0x4(%edx)
  101bd5:	85 c0                	test   %eax,%eax
  101bd7:	75 29                	jne    101c02 <_ZN11dynamicring3popEv+0x42>
  101bd9:	83 7b 14 01          	cmpl   $0x1,0x14(%ebx)
  101bdd:	7e 21                	jle    101c00 <_ZN11dynamicring3popEv+0x40>
  101bdf:	89 1c 24             	mov    %ebx,(%esp)
  101be2:	e8 79 ff ff ff       	call   101b60 <_ZN11dynamicring12absolve_ringEv>
  101be7:	8b 43 18             	mov    0x18(%ebx),%eax
  101bea:	8b 00                	mov    (%eax),%eax
  101bec:	8b 10                	mov    (%eax),%edx
  101bee:	89 44 24 20          	mov    %eax,0x20(%esp)
  101bf2:	8b 42 04             	mov    0x4(%edx),%eax
  101bf5:	83 c4 18             	add    $0x18,%esp
  101bf8:	5b                   	pop    %ebx
  101bf9:	ff e0                	jmp    *%eax
  101bfb:	90                   	nop
  101bfc:	8d 74 26 00          	lea    0x0(%esi,%eiz,1),%esi
  101c00:	31 c0                	xor    %eax,%eax
  101c02:	83 c4 18             	add    $0x18,%esp
  101c05:	5b                   	pop    %ebx
  101c06:	c3                   	ret    
  101c07:	66 90                	xchg   %ax,%ax
  101c09:	66 90                	xchg   %ax,%ax
  101c0b:	66 90                	xchg   %ax,%ax
  101c0d:	66 90                	xchg   %ax,%ax
  101c0f:	90                   	nop

00101c10 <_ZN12staticring_t4pushEc>:
  101c10:	8b 4c 24 04          	mov    0x4(%esp),%ecx
  101c14:	8b 54 24 08          	mov    0x8(%esp),%edx
  101c18:	80 79 04 02          	cmpb   $0x2,0x4(%ecx)
  101c1c:	74 22                	je     101c40 <_ZN12staticring_t4pushEc+0x30>
  101c1e:	8b 41 0c             	mov    0xc(%ecx),%eax
  101c21:	88 54 01 14          	mov    %dl,0x14(%ecx,%eax,1)
  101c25:	83 c0 01             	add    $0x1,%eax
  101c28:	31 d2                	xor    %edx,%edx
  101c2a:	f7 71 10             	divl   0x10(%ecx)
  101c2d:	3b 51 08             	cmp    0x8(%ecx),%edx
  101c30:	89 51 0c             	mov    %edx,0xc(%ecx)
  101c33:	74 13                	je     101c48 <_ZN12staticring_t4pushEc+0x38>
  101c35:	c6 41 04 01          	movb   $0x1,0x4(%ecx)
  101c39:	b8 01 00 00 00       	mov    $0x1,%eax
  101c3e:	c3                   	ret    
  101c3f:	90                   	nop
  101c40:	31 c0                	xor    %eax,%eax
  101c42:	c3                   	ret    
  101c43:	90                   	nop
  101c44:	8d 74 26 00          	lea    0x0(%esi,%eiz,1),%esi
  101c48:	c6 41 04 02          	movb   $0x2,0x4(%ecx)
  101c4c:	b8 01 00 00 00       	mov    $0x1,%eax
  101c51:	c3                   	ret    
  101c52:	8d b4 26 00 00 00 00 	lea    0x0(%esi,%eiz,1),%esi
  101c59:	8d bc 27 00 00 00 00 	lea    0x0(%edi,%eiz,1),%edi

00101c60 <_ZN12staticring_t9availableEv>:
  101c60:	8b 54 24 04          	mov    0x4(%esp),%edx
  101c64:	8b 4a 10             	mov    0x10(%edx),%ecx
  101c67:	8b 42 0c             	mov    0xc(%edx),%eax
  101c6a:	01 c8                	add    %ecx,%eax
  101c6c:	2b 42 08             	sub    0x8(%edx),%eax
  101c6f:	31 d2                	xor    %edx,%edx
  101c71:	f7 f1                	div    %ecx
  101c73:	89 d0                	mov    %edx,%eax
  101c75:	c3                   	ret    
  101c76:	8d 76 00             	lea    0x0(%esi),%esi
  101c79:	8d bc 27 00 00 00 00 	lea    0x0(%edi,%eiz,1),%edi

00101c80 <_ZN12staticring_t4peekEi>:
  101c80:	31 c0                	xor    %eax,%eax
  101c82:	c3                   	ret    
  101c83:	90                   	nop
  101c84:	8d b6 00 00 00 00    	lea    0x0(%esi),%esi
  101c8a:	8d bf 00 00 00 00    	lea    0x0(%edi),%edi

00101c90 <_ZN12staticring_t3popEv>:
  101c90:	53                   	push   %ebx
  101c91:	8b 4c 24 08          	mov    0x8(%esp),%ecx
  101c95:	31 c0                	xor    %eax,%eax
  101c97:	80 79 04 00          	cmpb   $0x0,0x4(%ecx)
  101c9b:	74 1c                	je     101cb9 <_ZN12staticring_t3popEv+0x29>
  101c9d:	8b 51 08             	mov    0x8(%ecx),%edx
  101ca0:	0f be 5c 11 14       	movsbl 0x14(%ecx,%edx,1),%ebx
  101ca5:	8d 42 01             	lea    0x1(%edx),%eax
  101ca8:	31 d2                	xor    %edx,%edx
  101caa:	f7 71 10             	divl   0x10(%ecx)
  101cad:	89 d8                	mov    %ebx,%eax
  101caf:	3b 51 0c             	cmp    0xc(%ecx),%edx
  101cb2:	89 51 08             	mov    %edx,0x8(%ecx)
  101cb5:	0f 95 41 04          	setne  0x4(%ecx)
  101cb9:	5b                   	pop    %ebx
  101cba:	c3                   	ret    
  101cbb:	90                   	nop
  101cbc:	8d 74 26 00          	lea    0x0(%esi,%eiz,1),%esi

00101cc0 <_ZN12staticring_tC1Ev>:
  101cc0:	53                   	push   %ebx
  101cc1:	83 ec 18             	sub    $0x18,%esp
  101cc4:	8b 5c 24 20          	mov    0x20(%esp),%ebx
  101cc8:	89 1c 24             	mov    %ebx,(%esp)
  101ccb:	e8 30 00 00 00       	call   101d00 <_ZN7Queue_pC1Ev>
  101cd0:	c7 03 60 49 10 00    	movl   $0x104960,(%ebx)
  101cd6:	c7 43 10 28 00 00 00 	movl   $0x28,0x10(%ebx)
  101cdd:	c7 43 08 00 00 00 00 	movl   $0x0,0x8(%ebx)
  101ce4:	c7 43 0c 00 00 00 00 	movl   $0x0,0xc(%ebx)
  101ceb:	c6 43 04 00          	movb   $0x0,0x4(%ebx)
  101cef:	83 c4 18             	add    $0x18,%esp
  101cf2:	5b                   	pop    %ebx
  101cf3:	c3                   	ret    
  101cf4:	66 90                	xchg   %ax,%ax
  101cf6:	66 90                	xchg   %ax,%ax
  101cf8:	66 90                	xchg   %ax,%ax
  101cfa:	66 90                	xchg   %ax,%ax
  101cfc:	66 90                	xchg   %ax,%ax
  101cfe:	66 90                	xchg   %ax,%ax

00101d00 <_ZN7Queue_pC1Ev>:
  101d00:	8b 44 24 04          	mov    0x4(%esp),%eax
  101d04:	c7 00 78 49 10 00    	movl   $0x104978,(%eax)
  101d0a:	c6 40 04 00          	movb   $0x0,0x4(%eax)
  101d0e:	c3                   	ret    
  101d0f:	90                   	nop

00101d10 <_ZN14ring_history_t16hist_erase_olderEv>:
  101d10:	8b 54 24 04          	mov    0x4(%esp),%edx
  101d14:	8b 82 00 01 00 00    	mov    0x100(%edx),%eax
  101d1a:	0f be 0c 02          	movsbl (%edx,%eax,1),%ecx
  101d1e:	01 c1                	add    %eax,%ecx
  101d20:	8d 41 01             	lea    0x1(%ecx),%eax
  101d23:	81 e9 ff 00 00 00    	sub    $0xff,%ecx
  101d29:	3d 00 01 00 00       	cmp    $0x100,%eax
  101d2e:	0f 4d c1             	cmovge %ecx,%eax
  101d31:	89 82 00 01 00 00    	mov    %eax,0x100(%edx)
  101d37:	c3                   	ret    
  101d38:	90                   	nop
  101d39:	8d b4 26 00 00 00 00 	lea    0x0(%esi,%eiz,1),%esi

00101d40 <_ZN14ring_history_t21hist_is_space_for_newEi>:
  101d40:	8b 54 24 04          	mov    0x4(%esp),%edx
  101d44:	b8 01 00 00 00       	mov    $0x1,%eax
  101d49:	8b 8a 00 01 00 00    	mov    0x100(%edx),%ecx
  101d4f:	80 3c 0a 00          	cmpb   $0x0,(%edx,%ecx,1)
  101d53:	74 31                	je     101d86 <_ZN14ring_history_t21hist_is_space_for_newEi+0x46>
  101d55:	8b 82 04 01 00 00    	mov    0x104(%edx),%eax
  101d5b:	39 c1                	cmp    %eax,%ecx
  101d5d:	7f 19                	jg     101d78 <_ZN14ring_history_t21hist_is_space_for_newEi+0x38>
  101d5f:	29 c1                	sub    %eax,%ecx
  101d61:	31 c0                	xor    %eax,%eax
  101d63:	81 c1 ff 00 00 00    	add    $0xff,%ecx
  101d69:	3b 4c 24 08          	cmp    0x8(%esp),%ecx
  101d6d:	0f 9f c0             	setg   %al
  101d70:	c3                   	ret    
  101d71:	8d b4 26 00 00 00 00 	lea    0x0(%esi,%eiz,1),%esi
  101d78:	29 c1                	sub    %eax,%ecx
  101d7a:	31 c0                	xor    %eax,%eax
  101d7c:	83 e9 01             	sub    $0x1,%ecx
  101d7f:	39 4c 24 08          	cmp    %ecx,0x8(%esp)
  101d83:	0f 9c c0             	setl   %al
  101d86:	f3 c3                	repz ret 
  101d88:	90                   	nop
  101d89:	8d b4 26 00 00 00 00 	lea    0x0(%esi,%eiz,1),%esi

00101d90 <_ZN14ring_history_t14hist_save_lineEPci>:
  101d90:	55                   	push   %ebp
  101d91:	57                   	push   %edi
  101d92:	56                   	push   %esi
  101d93:	53                   	push   %ebx
  101d94:	83 ec 1c             	sub    $0x1c,%esp
  101d97:	8b 74 24 38          	mov    0x38(%esp),%esi
  101d9b:	8b 5c 24 30          	mov    0x30(%esp),%ebx
  101d9f:	81 fe fe 00 00 00    	cmp    $0xfe,%esi
  101da5:	0f 8f d7 00 00 00    	jg     101e82 <_ZN14ring_history_t14hist_save_lineEPci+0xf2>
  101dab:	8b 83 00 01 00 00    	mov    0x100(%ebx),%eax
  101db1:	8b 8b 04 01 00 00    	mov    0x104(%ebx),%ecx
  101db7:	0f be 14 03          	movsbl (%ebx,%eax,1),%edx
  101dbb:	84 d2                	test   %dl,%dl
  101dbd:	0f 84 ed 00 00 00    	je     101eb0 <_ZN14ring_history_t14hist_save_lineEPci+0x120>
  101dc3:	bf 00 01 00 00       	mov    $0x100,%edi
  101dc8:	29 cf                	sub    %ecx,%edi
  101dca:	eb 31                	jmp    101dfd <_ZN14ring_history_t14hist_save_lineEPci+0x6d>
  101dcc:	8d 74 26 00          	lea    0x0(%esi,%eiz,1),%esi
  101dd0:	8d 6c 38 ff          	lea    -0x1(%eax,%edi,1),%ebp
  101dd4:	39 ee                	cmp    %ebp,%esi
  101dd6:	7c 34                	jl     101e0c <_ZN14ring_history_t14hist_save_lineEPci+0x7c>
  101dd8:	01 c2                	add    %eax,%edx
  101dda:	8d 42 01             	lea    0x1(%edx),%eax
  101ddd:	81 ea ff 00 00 00    	sub    $0xff,%edx
  101de3:	3d 00 01 00 00       	cmp    $0x100,%eax
  101de8:	0f 4d c2             	cmovge %edx,%eax
  101deb:	0f be 14 03          	movsbl (%ebx,%eax,1),%edx
  101def:	89 83 00 01 00 00    	mov    %eax,0x100(%ebx)
  101df5:	84 d2                	test   %dl,%dl
  101df7:	0f 84 b3 00 00 00    	je     101eb0 <_ZN14ring_history_t14hist_save_lineEPci+0x120>
  101dfd:	39 c8                	cmp    %ecx,%eax
  101dff:	7e cf                	jle    101dd0 <_ZN14ring_history_t14hist_save_lineEPci+0x40>
  101e01:	89 c5                	mov    %eax,%ebp
  101e03:	29 cd                	sub    %ecx,%ebp
  101e05:	83 ed 01             	sub    $0x1,%ebp
  101e08:	39 ee                	cmp    %ebp,%esi
  101e0a:	7d cc                	jge    101dd8 <_ZN14ring_history_t14hist_save_lineEPci+0x48>
  101e0c:	84 d2                	test   %dl,%dl
  101e0e:	0f 84 9c 00 00 00    	je     101eb0 <_ZN14ring_history_t14hist_save_lineEPci+0x120>
  101e14:	89 f5                	mov    %esi,%ebp
  101e16:	bf ff 00 00 00       	mov    $0xff,%edi
  101e1b:	29 cf                	sub    %ecx,%edi
  101e1d:	39 fe                	cmp    %edi,%esi
  101e1f:	7c 6f                	jl     101e90 <_ZN14ring_history_t14hist_save_lineEPci+0x100>
  101e21:	8b 44 24 34          	mov    0x34(%esp),%eax
  101e25:	89 7c 24 08          	mov    %edi,0x8(%esp)
  101e29:	89 44 24 04          	mov    %eax,0x4(%esp)
  101e2d:	8d 44 0b 01          	lea    0x1(%ebx,%ecx,1),%eax
  101e31:	89 04 24             	mov    %eax,(%esp)
  101e34:	e8 c7 f3 ff ff       	call   101200 <_Z6memcpyPvPKvj>
  101e39:	89 f0                	mov    %esi,%eax
  101e3b:	29 f8                	sub    %edi,%eax
  101e3d:	03 7c 24 34          	add    0x34(%esp),%edi
  101e41:	89 44 24 08          	mov    %eax,0x8(%esp)
  101e45:	89 1c 24             	mov    %ebx,(%esp)
  101e48:	89 7c 24 04          	mov    %edi,0x4(%esp)
  101e4c:	e8 af f3 ff ff       	call   101200 <_Z6memcpyPvPKvj>
  101e51:	8b 83 04 01 00 00    	mov    0x104(%ebx),%eax
  101e57:	89 e9                	mov    %ebp,%ecx
  101e59:	01 c6                	add    %eax,%esi
  101e5b:	88 0c 03             	mov    %cl,(%ebx,%eax,1)
  101e5e:	8d 46 01             	lea    0x1(%esi),%eax
  101e61:	3d ff 00 00 00       	cmp    $0xff,%eax
  101e66:	7e 06                	jle    101e6e <_ZN14ring_history_t14hist_save_lineEPci+0xde>
  101e68:	8d 86 01 ff ff ff    	lea    -0xff(%esi),%eax
  101e6e:	89 83 04 01 00 00    	mov    %eax,0x104(%ebx)
  101e74:	c6 04 03 00          	movb   $0x0,(%ebx,%eax,1)
  101e78:	c7 83 08 01 00 00 00 	movl   $0x0,0x108(%ebx)
  101e7f:	00 00 00 
  101e82:	83 c4 1c             	add    $0x1c,%esp
  101e85:	5b                   	pop    %ebx
  101e86:	5e                   	pop    %esi
  101e87:	5f                   	pop    %edi
  101e88:	5d                   	pop    %ebp
  101e89:	c3                   	ret    
  101e8a:	8d b6 00 00 00 00    	lea    0x0(%esi),%esi
  101e90:	8b 44 24 34          	mov    0x34(%esp),%eax
  101e94:	89 74 24 08          	mov    %esi,0x8(%esp)
  101e98:	89 44 24 04          	mov    %eax,0x4(%esp)
  101e9c:	8d 44 0b 01          	lea    0x1(%ebx,%ecx,1),%eax
  101ea0:	89 04 24             	mov    %eax,(%esp)
  101ea3:	e8 58 f3 ff ff       	call   101200 <_Z6memcpyPvPKvj>
  101ea8:	eb a7                	jmp    101e51 <_ZN14ring_history_t14hist_save_lineEPci+0xc1>
  101eaa:	8d b6 00 00 00 00    	lea    0x0(%esi),%esi
  101eb0:	89 f2                	mov    %esi,%edx
  101eb2:	89 f5                	mov    %esi,%ebp
  101eb4:	88 14 03             	mov    %dl,(%ebx,%eax,1)
  101eb7:	e9 5a ff ff ff       	jmp    101e16 <_ZN14ring_history_t14hist_save_lineEPci+0x86>
  101ebc:	8d 74 26 00          	lea    0x0(%esi,%eiz,1),%esi

00101ec0 <_ZN14ring_history_t17hist_restore_lineEPci>:
  101ec0:	55                   	push   %ebp
  101ec1:	57                   	push   %edi
  101ec2:	56                   	push   %esi
  101ec3:	53                   	push   %ebx
  101ec4:	83 ec 1c             	sub    $0x1c,%esp
  101ec7:	8b 74 24 30          	mov    0x30(%esp),%esi
  101ecb:	8b 9e 00 01 00 00    	mov    0x100(%esi),%ebx
  101ed1:	0f be 04 1e          	movsbl (%esi,%ebx,1),%eax
  101ed5:	84 c0                	test   %al,%al
  101ed7:	0f 84 d3 01 00 00    	je     1020b0 <_ZN14ring_history_t17hist_restore_lineEPci+0x1f0>
  101edd:	89 d9                	mov    %ebx,%ecx
  101edf:	31 d2                	xor    %edx,%edx
  101ee1:	89 c5                	mov    %eax,%ebp
  101ee3:	90                   	nop
  101ee4:	8d 74 26 00          	lea    0x0(%esi,%eiz,1),%esi
  101ee8:	8d 4c 01 01          	lea    0x1(%ecx,%eax,1),%ecx
  101eec:	81 f9 00 01 00 00    	cmp    $0x100,%ecx
  101ef2:	8d b9 00 ff ff ff    	lea    -0x100(%ecx),%edi
  101ef8:	0f 4d cf             	cmovge %edi,%ecx
  101efb:	83 c2 01             	add    $0x1,%edx
  101efe:	0f be 04 0e          	movsbl (%esi,%ecx,1),%eax
  101f02:	84 c0                	test   %al,%al
  101f04:	75 e2                	jne    101ee8 <_ZN14ring_history_t17hist_restore_lineEPci+0x28>
  101f06:	89 e8                	mov    %ebp,%eax
  101f08:	8b 4c 24 38          	mov    0x38(%esp),%ecx
  101f0c:	85 c9                	test   %ecx,%ecx
  101f0e:	75 60                	jne    101f70 <_ZN14ring_history_t17hist_restore_lineEPci+0xb0>
  101f10:	8b ae 08 01 00 00    	mov    0x108(%esi),%ebp
  101f16:	39 d5                	cmp    %edx,%ebp
  101f18:	7f 45                	jg     101f5f <_ZN14ring_history_t17hist_restore_lineEPci+0x9f>
  101f1a:	84 c0                	test   %al,%al
  101f1c:	74 41                	je     101f5f <_ZN14ring_history_t17hist_restore_lineEPci+0x9f>
  101f1e:	8d 4a ff             	lea    -0x1(%edx),%ecx
  101f21:	39 cd                	cmp    %ecx,%ebp
  101f23:	0f 84 d7 00 00 00    	je     102000 <_ZN14ring_history_t17hist_restore_lineEPci+0x140>
  101f29:	31 c9                	xor    %ecx,%ecx
  101f2b:	eb 11                	jmp    101f3e <_ZN14ring_history_t17hist_restore_lineEPci+0x7e>
  101f2d:	8d 76 00             	lea    0x0(%esi),%esi
  101f30:	89 cf                	mov    %ecx,%edi
  101f32:	f7 d7                	not    %edi
  101f34:	01 d7                	add    %edx,%edi
  101f36:	39 fd                	cmp    %edi,%ebp
  101f38:	0f 84 c2 00 00 00    	je     102000 <_ZN14ring_history_t17hist_restore_lineEPci+0x140>
  101f3e:	0f be c0             	movsbl %al,%eax
  101f41:	8d 5c 03 01          	lea    0x1(%ebx,%eax,1),%ebx
  101f45:	81 fb 00 01 00 00    	cmp    $0x100,%ebx
  101f4b:	8d 83 00 ff ff ff    	lea    -0x100(%ebx),%eax
  101f51:	0f 4d d8             	cmovge %eax,%ebx
  101f54:	83 c1 01             	add    $0x1,%ecx
  101f57:	0f b6 04 1e          	movzbl (%esi,%ebx,1),%eax
  101f5b:	84 c0                	test   %al,%al
  101f5d:	75 d1                	jne    101f30 <_ZN14ring_history_t17hist_restore_lineEPci+0x70>
  101f5f:	b8 ff ff ff ff       	mov    $0xffffffff,%eax
  101f64:	83 c4 1c             	add    $0x1c,%esp
  101f67:	5b                   	pop    %ebx
  101f68:	5e                   	pop    %esi
  101f69:	5f                   	pop    %edi
  101f6a:	5d                   	pop    %ebp
  101f6b:	c3                   	ret    
  101f6c:	8d 74 26 00          	lea    0x0(%esi,%eiz,1),%esi
  101f70:	8b 8e 08 01 00 00    	mov    0x108(%esi),%ecx
  101f76:	85 c9                	test   %ecx,%ecx
  101f78:	0f 8e 23 01 00 00    	jle    1020a1 <_ZN14ring_history_t17hist_restore_lineEPci+0x1e1>
  101f7e:	83 e9 01             	sub    $0x1,%ecx
  101f81:	84 c0                	test   %al,%al
  101f83:	89 8e 08 01 00 00    	mov    %ecx,0x108(%esi)
  101f89:	74 39                	je     101fc4 <_ZN14ring_history_t17hist_restore_lineEPci+0x104>
  101f8b:	39 ca                	cmp    %ecx,%edx
  101f8d:	75 17                	jne    101fa6 <_ZN14ring_history_t17hist_restore_lineEPci+0xe6>
  101f8f:	e9 14 01 00 00       	jmp    1020a8 <_ZN14ring_history_t17hist_restore_lineEPci+0x1e8>
  101f94:	8d 74 26 00          	lea    0x0(%esi,%eiz,1),%esi
  101f98:	83 ea 01             	sub    $0x1,%edx
  101f9b:	39 d1                	cmp    %edx,%ecx
  101f9d:	8d 76 00             	lea    0x0(%esi),%esi
  101fa0:	0f 84 02 01 00 00    	je     1020a8 <_ZN14ring_history_t17hist_restore_lineEPci+0x1e8>
  101fa6:	0f be c0             	movsbl %al,%eax
  101fa9:	8d 5c 03 01          	lea    0x1(%ebx,%eax,1),%ebx
  101fad:	8d 83 00 ff ff ff    	lea    -0x100(%ebx),%eax
  101fb3:	81 fb 00 01 00 00    	cmp    $0x100,%ebx
  101fb9:	0f 4d d8             	cmovge %eax,%ebx
  101fbc:	0f b6 04 1e          	movzbl (%esi,%ebx,1),%eax
  101fc0:	84 c0                	test   %al,%al
  101fc2:	75 d4                	jne    101f98 <_ZN14ring_history_t17hist_restore_lineEPci+0xd8>
  101fc4:	31 d2                	xor    %edx,%edx
  101fc6:	01 da                	add    %ebx,%edx
  101fc8:	81 fa ff 00 00 00    	cmp    $0xff,%edx
  101fce:	0f 8f c4 00 00 00    	jg     102098 <_ZN14ring_history_t17hist_restore_lineEPci+0x1d8>
  101fd4:	0f be c0             	movsbl %al,%eax
  101fd7:	89 44 24 08          	mov    %eax,0x8(%esp)
  101fdb:	8d 44 1e 01          	lea    0x1(%esi,%ebx,1),%eax
  101fdf:	89 44 24 04          	mov    %eax,0x4(%esp)
  101fe3:	8b 44 24 34          	mov    0x34(%esp),%eax
  101fe7:	89 04 24             	mov    %eax,(%esp)
  101fea:	e8 11 f2 ff ff       	call   101200 <_Z6memcpyPvPKvj>
  101fef:	0f be 04 1e          	movsbl (%esi,%ebx,1),%eax
  101ff3:	83 c4 1c             	add    $0x1c,%esp
  101ff6:	5b                   	pop    %ebx
  101ff7:	5e                   	pop    %esi
  101ff8:	5f                   	pop    %edi
  101ff9:	5d                   	pop    %ebp
  101ffa:	c3                   	ret    
  101ffb:	90                   	nop
  101ffc:	8d 74 26 00          	lea    0x0(%esi,%eiz,1),%esi
  102000:	0f be c0             	movsbl %al,%eax
  102003:	83 c5 01             	add    $0x1,%ebp
  102006:	01 d8                	add    %ebx,%eax
  102008:	3d ff 00 00 00       	cmp    $0xff,%eax
  10200d:	89 ae 08 01 00 00    	mov    %ebp,0x108(%esi)
  102013:	7e 5b                	jle    102070 <_ZN14ring_history_t17hist_restore_lineEPci+0x1b0>
  102015:	8b 44 24 34          	mov    0x34(%esp),%eax
  102019:	bf ff 00 00 00       	mov    $0xff,%edi
  10201e:	c7 44 24 08 32 00 00 	movl   $0x32,0x8(%esp)
  102025:	00 
  102026:	29 df                	sub    %ebx,%edi
  102028:	c7 44 24 04 00 00 00 	movl   $0x0,0x4(%esp)
  10202f:	00 
  102030:	89 04 24             	mov    %eax,(%esp)
  102033:	e8 f8 f1 ff ff       	call   101230 <_Z6memsetPvij>
  102038:	8d 44 1e 01          	lea    0x1(%esi,%ebx,1),%eax
  10203c:	89 44 24 04          	mov    %eax,0x4(%esp)
  102040:	8b 44 24 34          	mov    0x34(%esp),%eax
  102044:	89 7c 24 08          	mov    %edi,0x8(%esp)
  102048:	89 04 24             	mov    %eax,(%esp)
  10204b:	e8 b0 f1 ff ff       	call   101200 <_Z6memcpyPvPKvj>
  102050:	0f be 04 1e          	movsbl (%esi,%ebx,1),%eax
  102054:	89 74 24 04          	mov    %esi,0x4(%esp)
  102058:	29 f8                	sub    %edi,%eax
  10205a:	03 7c 24 34          	add    0x34(%esp),%edi
  10205e:	89 44 24 08          	mov    %eax,0x8(%esp)
  102062:	89 3c 24             	mov    %edi,(%esp)
  102065:	e8 96 f1 ff ff       	call   101200 <_Z6memcpyPvPKvj>
  10206a:	eb 83                	jmp    101fef <_ZN14ring_history_t17hist_restore_lineEPci+0x12f>
  10206c:	8d 74 26 00          	lea    0x0(%esi,%eiz,1),%esi
  102070:	8b 44 24 34          	mov    0x34(%esp),%eax
  102074:	c7 44 24 08 32 00 00 	movl   $0x32,0x8(%esp)
  10207b:	00 
  10207c:	c7 44 24 04 00 00 00 	movl   $0x0,0x4(%esp)
  102083:	00 
  102084:	89 04 24             	mov    %eax,(%esp)
  102087:	e8 a4 f1 ff ff       	call   101230 <_Z6memsetPvij>
  10208c:	0f be 04 1e          	movsbl (%esi,%ebx,1),%eax
  102090:	e9 42 ff ff ff       	jmp    101fd7 <_ZN14ring_history_t17hist_restore_lineEPci+0x117>
  102095:	8d 76 00             	lea    0x0(%esi),%esi
  102098:	bf ff 00 00 00       	mov    $0xff,%edi
  10209d:	29 df                	sub    %ebx,%edi
  10209f:	eb 97                	jmp    102038 <_ZN14ring_history_t17hist_restore_lineEPci+0x178>
  1020a1:	31 c0                	xor    %eax,%eax
  1020a3:	e9 bc fe ff ff       	jmp    101f64 <_ZN14ring_history_t17hist_restore_lineEPci+0xa4>
  1020a8:	0f be d0             	movsbl %al,%edx
  1020ab:	e9 16 ff ff ff       	jmp    101fc6 <_ZN14ring_history_t17hist_restore_lineEPci+0x106>
  1020b0:	31 d2                	xor    %edx,%edx
  1020b2:	e9 51 fe ff ff       	jmp    101f08 <_ZN14ring_history_t17hist_restore_lineEPci+0x48>
  1020b7:	90                   	nop
  1020b8:	90                   	nop
  1020b9:	8d b4 26 00 00 00 00 	lea    0x0(%esi,%eiz,1),%esi

001020c0 <_ZN11rl_terminal12print_promptEv>:
  1020c0:	53                   	push   %ebx
  1020c1:	83 ec 18             	sub    $0x18,%esp
  1020c4:	8b 5c 24 20          	mov    0x20(%esp),%ebx
  1020c8:	c7 44 24 04 88 49 10 	movl   $0x104988,0x4(%esp)
  1020cf:	00 
  1020d0:	8b 43 04             	mov    0x4(%ebx),%eax
  1020d3:	89 04 24             	mov    %eax,(%esp)
  1020d6:	e8 95 e6 ff ff       	call   100770 <_ZN5Print5printEPKc>
  1020db:	c7 44 24 04 88 47 10 	movl   $0x104788,0x4(%esp)
  1020e2:	00 
  1020e3:	8b 43 04             	mov    0x4(%ebx),%eax
  1020e6:	89 04 24             	mov    %eax,(%esp)
  1020e9:	e8 82 e6 ff ff       	call   100770 <_ZN5Print5printEPKc>
  1020ee:	83 c4 18             	add    $0x18,%esp
  1020f1:	5b                   	pop    %ebx
  1020f2:	c3                   	ret    
  1020f3:	90                   	nop
  1020f4:	8d b6 00 00 00 00    	lea    0x0(%esi),%esi
  1020fa:	8d bf 00 00 00 00    	lea    0x0(%edi),%edi

00102100 <_ZN11rl_terminalC1EP6StreamP10readline_t>:
  102100:	8b 44 24 04          	mov    0x4(%esp),%eax
  102104:	8b 54 24 08          	mov    0x8(%esp),%edx
  102108:	c7 40 08 00 00 00 00 	movl   $0x0,0x8(%eax)
  10210f:	89 50 04             	mov    %edx,0x4(%eax)
  102112:	8b 54 24 0c          	mov    0xc(%esp),%edx
  102116:	89 10                	mov    %edx,(%eax)
  102118:	c3                   	ret    
  102119:	90                   	nop
  10211a:	8d b6 00 00 00 00    	lea    0x0(%esi),%esi

00102120 <_ZN11rl_terminal4initEP6StreamP10readline_t>:
  102120:	8b 44 24 04          	mov    0x4(%esp),%eax
  102124:	8b 54 24 08          	mov    0x8(%esp),%edx
  102128:	c7 40 08 00 00 00 00 	movl   $0x0,0x8(%eax)
  10212f:	89 50 04             	mov    %edx,0x4(%eax)
  102132:	8b 54 24 0c          	mov    0xc(%esp),%edx
  102136:	89 10                	mov    %edx,(%eax)
  102138:	c3                   	ret    
  102139:	90                   	nop
  10213a:	8d b6 00 00 00 00    	lea    0x0(%esi),%esi

00102140 <_ZN11rl_terminal16new_line_handlerEv>:
  102140:	57                   	push   %edi
  102141:	56                   	push   %esi
  102142:	53                   	push   %ebx
  102143:	83 ec 10             	sub    $0x10,%esp
  102146:	8b 3d fc 7a 10 00    	mov    0x107afc,%edi
  10214c:	8b 5c 24 20          	mov    0x20(%esp),%ebx
  102150:	8b 43 04             	mov    0x4(%ebx),%eax
  102153:	a3 fc 7a 10 00       	mov    %eax,0x107afc
  102158:	8b 03                	mov    (%ebx),%eax
  10215a:	89 04 24             	mov    %eax,(%esp)
  10215d:	e8 7e 04 00 00       	call   1025e0 <_ZN10readline_t8get_lineEv>
  102162:	89 c6                	mov    %eax,%esi
  102164:	8b 03                	mov    (%ebx),%eax
  102166:	8b 50 38             	mov    0x38(%eax),%edx
  102169:	85 d2                	test   %edx,%edx
  10216b:	7e 1b                	jle    102188 <_ZN11rl_terminal16new_line_handlerEv+0x48>
  10216d:	8d 43 0c             	lea    0xc(%ebx),%eax
  102170:	89 54 24 08          	mov    %edx,0x8(%esp)
  102174:	89 74 24 04          	mov    %esi,0x4(%esp)
  102178:	89 04 24             	mov    %eax,(%esp)
  10217b:	e8 10 fc ff ff       	call   101d90 <_ZN14ring_history_t14hist_save_lineEPci>
  102180:	89 34 24             	mov    %esi,(%esp)
  102183:	e8 68 07 00 00       	call   1028f0 <_Z7executePc>
  102188:	89 1c 24             	mov    %ebx,(%esp)
  10218b:	89 3d fc 7a 10 00    	mov    %edi,0x107afc
  102191:	e8 2a ff ff ff       	call   1020c0 <_ZN11rl_terminal12print_promptEv>
  102196:	8b 03                	mov    (%ebx),%eax
  102198:	c7 83 14 01 00 00 00 	movl   $0x0,0x114(%ebx)
  10219f:	00 00 00 
  1021a2:	89 44 24 20          	mov    %eax,0x20(%esp)
  1021a6:	83 c4 10             	add    $0x10,%esp
  1021a9:	5b                   	pop    %ebx
  1021aa:	5e                   	pop    %esi
  1021ab:	5f                   	pop    %edi
  1021ac:	e9 0f 04 00 00       	jmp    1025c0 <_ZN10readline_t4initEv>
  1021b1:	90                   	nop
  1021b2:	8d b4 26 00 00 00 00 	lea    0x0(%esi,%eiz,1),%esi
  1021b9:	8d bc 27 00 00 00 00 	lea    0x0(%edi,%eiz,1),%edi

001021c0 <_ZN11rl_terminal20terminal_move_cursorEi>:
  1021c0:	56                   	push   %esi
  1021c1:	53                   	push   %ebx
  1021c2:	83 ec 14             	sub    $0x14,%esp
  1021c5:	8b 5c 24 24          	mov    0x24(%esp),%ebx
  1021c9:	8b 74 24 20          	mov    0x20(%esp),%esi
  1021cd:	85 db                	test   %ebx,%ebx
  1021cf:	75 07                	jne    1021d8 <_ZN11rl_terminal20terminal_move_cursorEi+0x18>
  1021d1:	83 c4 14             	add    $0x14,%esp
  1021d4:	5b                   	pop    %ebx
  1021d5:	5e                   	pop    %esi
  1021d6:	c3                   	ret    
  1021d7:	90                   	nop
  1021d8:	c7 44 24 04 90 49 10 	movl   $0x104990,0x4(%esp)
  1021df:	00 
  1021e0:	8b 46 04             	mov    0x4(%esi),%eax
  1021e3:	89 04 24             	mov    %eax,(%esp)
  1021e6:	e8 85 e5 ff ff       	call   100770 <_ZN5Print5printEPKc>
  1021eb:	89 da                	mov    %ebx,%edx
  1021ed:	c1 fa 1f             	sar    $0x1f,%edx
  1021f0:	89 d0                	mov    %edx,%eax
  1021f2:	31 d8                	xor    %ebx,%eax
  1021f4:	29 d0                	sub    %edx,%eax
  1021f6:	c7 44 24 08 0a 00 00 	movl   $0xa,0x8(%esp)
  1021fd:	00 
  1021fe:	89 44 24 04          	mov    %eax,0x4(%esp)
  102202:	8b 46 04             	mov    0x4(%esi),%eax
  102205:	89 04 24             	mov    %eax,(%esp)
  102208:	e8 73 e7 ff ff       	call   100980 <_ZN5Print5printEii>
  10220d:	85 db                	test   %ebx,%ebx
  10220f:	7e 1f                	jle    102230 <_ZN11rl_terminal20terminal_move_cursorEi+0x70>
  102211:	c7 44 24 24 93 49 10 	movl   $0x104993,0x24(%esp)
  102218:	00 
  102219:	8b 46 04             	mov    0x4(%esi),%eax
  10221c:	89 44 24 20          	mov    %eax,0x20(%esp)
  102220:	83 c4 14             	add    $0x14,%esp
  102223:	5b                   	pop    %ebx
  102224:	5e                   	pop    %esi
  102225:	e9 46 e5 ff ff       	jmp    100770 <_ZN5Print5printEPKc>
  10222a:	8d b6 00 00 00 00    	lea    0x0(%esi),%esi
  102230:	c7 44 24 24 9f 49 10 	movl   $0x10499f,0x24(%esp)
  102237:	00 
  102238:	eb df                	jmp    102219 <_ZN11rl_terminal20terminal_move_cursorEi+0x59>
  10223a:	8d b6 00 00 00 00    	lea    0x0(%esi),%esi

00102240 <_ZN11rl_terminal16terminal_rewriteEv>:
  102240:	53                   	push   %ebx
  102241:	83 ec 18             	sub    $0x18,%esp
  102244:	8b 5c 24 20          	mov    0x20(%esp),%ebx
  102248:	8b 03                	mov    (%ebx),%eax
  10224a:	8b 48 34             	mov    0x34(%eax),%ecx
  10224d:	8b 50 38             	mov    0x38(%eax),%edx
  102250:	01 c8                	add    %ecx,%eax
  102252:	29 ca                	sub    %ecx,%edx
  102254:	89 54 24 08          	mov    %edx,0x8(%esp)
  102258:	89 44 24 04          	mov    %eax,0x4(%esp)
  10225c:	8b 43 04             	mov    0x4(%ebx),%eax
  10225f:	89 04 24             	mov    %eax,(%esp)
  102262:	e8 b9 e4 ff ff       	call   100720 <_ZN5Print5writeEPKcj>
  102267:	8b 13                	mov    (%ebx),%edx
  102269:	8b 42 34             	mov    0x34(%edx),%eax
  10226c:	2b 42 38             	sub    0x38(%edx),%eax
  10226f:	89 1c 24             	mov    %ebx,(%esp)
  102272:	89 44 24 04          	mov    %eax,0x4(%esp)
  102276:	e8 45 ff ff ff       	call   1021c0 <_ZN11rl_terminal20terminal_move_cursorEi>
  10227b:	83 c4 18             	add    $0x18,%esp
  10227e:	5b                   	pop    %ebx
  10227f:	c3                   	ret    

00102280 <_ZN11rl_terminal11hist_searchEi>:
  102280:	56                   	push   %esi
  102281:	53                   	push   %ebx
  102282:	83 ec 14             	sub    $0x14,%esp
  102285:	8b 5c 24 20          	mov    0x20(%esp),%ebx
  102289:	8b 44 24 24          	mov    0x24(%esp),%eax
  10228d:	89 44 24 08          	mov    %eax,0x8(%esp)
  102291:	8b 03                	mov    (%ebx),%eax
  102293:	89 44 24 04          	mov    %eax,0x4(%esp)
  102297:	8d 43 0c             	lea    0xc(%ebx),%eax
  10229a:	89 04 24             	mov    %eax,(%esp)
  10229d:	e8 1e fc ff ff       	call   101ec0 <_ZN14ring_history_t17hist_restore_lineEPci>
  1022a2:	85 c0                	test   %eax,%eax
  1022a4:	89 c6                	mov    %eax,%esi
  1022a6:	78 50                	js     1022f8 <_ZN11rl_terminal11hist_searchEi+0x78>
  1022a8:	8b 03                	mov    (%ebx),%eax
  1022aa:	8b 40 34             	mov    0x34(%eax),%eax
  1022ad:	89 1c 24             	mov    %ebx,(%esp)
  1022b0:	f7 d8                	neg    %eax
  1022b2:	89 44 24 04          	mov    %eax,0x4(%esp)
  1022b6:	e8 05 ff ff ff       	call   1021c0 <_ZN11rl_terminal20terminal_move_cursorEi>
  1022bb:	8b 03                	mov    (%ebx),%eax
  1022bd:	89 70 38             	mov    %esi,0x38(%eax)
  1022c0:	89 70 34             	mov    %esi,0x34(%eax)
  1022c3:	c7 44 24 04 95 49 10 	movl   $0x104995,0x4(%esp)
  1022ca:	00 
  1022cb:	8b 43 04             	mov    0x4(%ebx),%eax
  1022ce:	89 04 24             	mov    %eax,(%esp)
  1022d1:	e8 9a e4 ff ff       	call   100770 <_ZN5Print5printEPKc>
  1022d6:	8b 03                	mov    (%ebx),%eax
  1022d8:	89 04 24             	mov    %eax,(%esp)
  1022db:	e8 00 03 00 00       	call   1025e0 <_ZN10readline_t8get_lineEv>
  1022e0:	89 44 24 24          	mov    %eax,0x24(%esp)
  1022e4:	8b 43 04             	mov    0x4(%ebx),%eax
  1022e7:	89 44 24 20          	mov    %eax,0x20(%esp)
  1022eb:	83 c4 14             	add    $0x14,%esp
  1022ee:	5b                   	pop    %ebx
  1022ef:	5e                   	pop    %esi
  1022f0:	e9 7b e4 ff ff       	jmp    100770 <_ZN5Print5printEPKc>
  1022f5:	8d 76 00             	lea    0x0(%esi),%esi
  1022f8:	83 c4 14             	add    $0x14,%esp
  1022fb:	5b                   	pop    %ebx
  1022fc:	5e                   	pop    %esi
  1022fd:	c3                   	ret    
  1022fe:	66 90                	xchg   %ax,%ax

00102300 <_ZN11rl_terminal14escape_processEc>:
  102300:	53                   	push   %ebx
  102301:	83 ec 18             	sub    $0x18,%esp
  102304:	8b 44 24 24          	mov    0x24(%esp),%eax
  102308:	8b 5c 24 20          	mov    0x20(%esp),%ebx
  10230c:	3c 5b                	cmp    $0x5b,%al
  10230e:	0f 84 94 00 00 00    	je     1023a8 <_ZN11rl_terminal14escape_processEc+0xa8>
  102314:	0f b6 93 19 01 00 00 	movzbl 0x119(%ebx),%edx
  10231b:	80 fa 01             	cmp    $0x1,%dl
  10231e:	74 20                	je     102340 <_ZN11rl_terminal14escape_processEc+0x40>
  102320:	3c 7e                	cmp    $0x7e,%al
  102322:	74 0c                	je     102330 <_ZN11rl_terminal14escape_processEc+0x30>
  102324:	83 c4 18             	add    $0x18,%esp
  102327:	5b                   	pop    %ebx
  102328:	c3                   	ret    
  102329:	8d b4 26 00 00 00 00 	lea    0x0(%esi,%eiz,1),%esi
  102330:	83 ea 02             	sub    $0x2,%edx
  102333:	80 fa 01             	cmp    $0x1,%dl
  102336:	77 ec                	ja     102324 <_ZN11rl_terminal14escape_processEc+0x24>
  102338:	b8 01 00 00 00       	mov    $0x1,%eax
  10233d:	eb e5                	jmp    102324 <_ZN11rl_terminal14escape_processEc+0x24>
  10233f:	90                   	nop
  102340:	3c 41                	cmp    $0x41,%al
  102342:	0f 84 98 00 00 00    	je     1023e0 <_ZN11rl_terminal14escape_processEc+0xe0>
  102348:	3c 42                	cmp    $0x42,%al
  10234a:	74 6c                	je     1023b8 <_ZN11rl_terminal14escape_processEc+0xb8>
  10234c:	3c 43                	cmp    $0x43,%al
  10234e:	66 90                	xchg   %ax,%ax
  102350:	0f 84 a4 00 00 00    	je     1023fa <_ZN11rl_terminal14escape_processEc+0xfa>
  102356:	3c 44                	cmp    $0x44,%al
  102358:	0f 84 c4 00 00 00    	je     102422 <_ZN11rl_terminal14escape_processEc+0x122>
  10235e:	8d 50 c9             	lea    -0x37(%eax),%edx
  102361:	80 fa 01             	cmp    $0x1,%dl
  102364:	76 72                	jbe    1023d8 <_ZN11rl_terminal14escape_processEc+0xd8>
  102366:	3c 33                	cmp    $0x33,%al
  102368:	75 ba                	jne    102324 <_ZN11rl_terminal14escape_processEc+0x24>
  10236a:	8b 03                	mov    (%ebx),%eax
  10236c:	89 04 24             	mov    %eax,(%esp)
  10236f:	e8 9c 03 00 00       	call   102710 <_ZN10readline_t3delEv>
  102374:	85 c0                	test   %eax,%eax
  102376:	0f 85 b0 00 00 00    	jne    10242c <_ZN11rl_terminal14escape_processEc+0x12c>
  10237c:	8b 03                	mov    (%ebx),%eax
  10237e:	8b 48 34             	mov    0x34(%eax),%ecx
  102381:	39 48 38             	cmp    %ecx,0x38(%eax)
  102384:	74 52                	je     1023d8 <_ZN11rl_terminal14escape_processEc+0xd8>
  102386:	c7 44 24 04 95 49 10 	movl   $0x104995,0x4(%esp)
  10238d:	00 
  10238e:	8b 43 04             	mov    0x4(%ebx),%eax
  102391:	89 04 24             	mov    %eax,(%esp)
  102394:	e8 d7 e3 ff ff       	call   100770 <_ZN5Print5printEPKc>
  102399:	89 1c 24             	mov    %ebx,(%esp)
  10239c:	e8 9f fe ff ff       	call   102240 <_ZN11rl_terminal16terminal_rewriteEv>
  1023a1:	31 c0                	xor    %eax,%eax
  1023a3:	e9 7c ff ff ff       	jmp    102324 <_ZN11rl_terminal14escape_processEc+0x24>
  1023a8:	c6 83 19 01 00 00 01 	movb   $0x1,0x119(%ebx)
  1023af:	83 c4 18             	add    $0x18,%esp
  1023b2:	31 c0                	xor    %eax,%eax
  1023b4:	5b                   	pop    %ebx
  1023b5:	c3                   	ret    
  1023b6:	66 90                	xchg   %ax,%ax
  1023b8:	c7 44 24 04 01 00 00 	movl   $0x1,0x4(%esp)
  1023bf:	00 
  1023c0:	89 1c 24             	mov    %ebx,(%esp)
  1023c3:	e8 b8 fe ff ff       	call   102280 <_ZN11rl_terminal11hist_searchEi>
  1023c8:	b8 01 00 00 00       	mov    $0x1,%eax
  1023cd:	e9 52 ff ff ff       	jmp    102324 <_ZN11rl_terminal14escape_processEc+0x24>
  1023d2:	8d b6 00 00 00 00    	lea    0x0(%esi),%esi
  1023d8:	31 c0                	xor    %eax,%eax
  1023da:	e9 45 ff ff ff       	jmp    102324 <_ZN11rl_terminal14escape_processEc+0x24>
  1023df:	90                   	nop
  1023e0:	c7 44 24 04 00 00 00 	movl   $0x0,0x4(%esp)
  1023e7:	00 
  1023e8:	89 1c 24             	mov    %ebx,(%esp)
  1023eb:	e8 90 fe ff ff       	call   102280 <_ZN11rl_terminal11hist_searchEi>
  1023f0:	b8 01 00 00 00       	mov    $0x1,%eax
  1023f5:	e9 2a ff ff ff       	jmp    102324 <_ZN11rl_terminal14escape_processEc+0x24>
  1023fa:	c7 44 24 04 01 00 00 	movl   $0x1,0x4(%esp)
  102401:	00 
  102402:	8b 03                	mov    (%ebx),%eax
  102404:	89 04 24             	mov    %eax,(%esp)
  102407:	e8 74 02 00 00       	call   102680 <_ZN10readline_t11move_cursorEi>
  10240c:	89 1c 24             	mov    %ebx,(%esp)
  10240f:	89 44 24 04          	mov    %eax,0x4(%esp)
  102413:	e8 a8 fd ff ff       	call   1021c0 <_ZN11rl_terminal20terminal_move_cursorEi>
  102418:	b8 01 00 00 00       	mov    $0x1,%eax
  10241d:	e9 02 ff ff ff       	jmp    102324 <_ZN11rl_terminal14escape_processEc+0x24>
  102422:	c7 44 24 04 ff ff ff 	movl   $0xffffffff,0x4(%esp)
  102429:	ff 
  10242a:	eb d6                	jmp    102402 <_ZN11rl_terminal14escape_processEc+0x102>
  10242c:	c7 44 24 04 9c 49 10 	movl   $0x10499c,0x4(%esp)
  102433:	00 
  102434:	8b 43 04             	mov    0x4(%ebx),%eax
  102437:	89 04 24             	mov    %eax,(%esp)
  10243a:	e8 31 e3 ff ff       	call   100770 <_ZN5Print5printEPKc>
  10243f:	e9 38 ff ff ff       	jmp    10237c <_ZN11rl_terminal14escape_processEc+0x7c>
  102444:	8d b6 00 00 00 00    	lea    0x0(%esi),%esi
  10244a:	8d bf 00 00 00 00    	lea    0x0(%edi),%edi

00102450 <_ZN11rl_terminal6listenEv>:
  102450:	53                   	push   %ebx
  102451:	83 ec 18             	sub    $0x18,%esp
  102454:	8b 5c 24 20          	mov    0x20(%esp),%ebx
  102458:	8b 43 08             	mov    0x8(%ebx),%eax
  10245b:	85 c0                	test   %eax,%eax
  10245d:	74 59                	je     1024b8 <_ZN11rl_terminal6listenEv+0x68>
  10245f:	8b 43 04             	mov    0x4(%ebx),%eax
  102462:	8b 10                	mov    (%eax),%edx
  102464:	89 04 24             	mov    %eax,(%esp)
  102467:	ff 52 0c             	call   *0xc(%edx)
  10246a:	8d 50 01             	lea    0x1(%eax),%edx
  10246d:	83 fa 01             	cmp    $0x1,%edx
  102470:	76 3e                	jbe    1024b0 <_ZN11rl_terminal6listenEv+0x60>
  102472:	80 bb 18 01 00 00 00 	cmpb   $0x0,0x118(%ebx)
  102479:	75 15                	jne    102490 <_ZN11rl_terminal6listenEv+0x40>
  10247b:	83 f8 7f             	cmp    $0x7f,%eax
  10247e:	0f 87 bc 00 00 00    	ja     102540 <_ZN11rl_terminal6listenEv+0xf0>
  102484:	ff 24 85 a4 49 10 00 	jmp    *0x1049a4(,%eax,4)
  10248b:	90                   	nop
  10248c:	8d 74 26 00          	lea    0x0(%esi,%eiz,1),%esi
  102490:	0f be c0             	movsbl %al,%eax
  102493:	89 44 24 04          	mov    %eax,0x4(%esp)
  102497:	89 1c 24             	mov    %ebx,(%esp)
  10249a:	e8 61 fe ff ff       	call   102300 <_ZN11rl_terminal14escape_processEc>
  10249f:	85 c0                	test   %eax,%eax
  1024a1:	74 0d                	je     1024b0 <_ZN11rl_terminal6listenEv+0x60>
  1024a3:	c6 83 18 01 00 00 00 	movb   $0x0,0x118(%ebx)
  1024aa:	8d b6 00 00 00 00    	lea    0x0(%esi),%esi
  1024b0:	83 c4 18             	add    $0x18,%esp
  1024b3:	5b                   	pop    %ebx
  1024b4:	c3                   	ret    
  1024b5:	8d 76 00             	lea    0x0(%esi),%esi
  1024b8:	89 1c 24             	mov    %ebx,(%esp)
  1024bb:	e8 00 fc ff ff       	call   1020c0 <_ZN11rl_terminal12print_promptEv>
  1024c0:	c7 43 08 01 00 00 00 	movl   $0x1,0x8(%ebx)
  1024c7:	eb 96                	jmp    10245f <_ZN11rl_terminal6listenEv+0xf>
  1024c9:	8d b4 26 00 00 00 00 	lea    0x0(%esi,%eiz,1),%esi
  1024d0:	8b 03                	mov    (%ebx),%eax
  1024d2:	89 04 24             	mov    %eax,(%esp)
  1024d5:	e8 e6 01 00 00       	call   1026c0 <_ZN10readline_t9backspaceEv>
  1024da:	85 c0                	test   %eax,%eax
  1024dc:	0f 85 a6 00 00 00    	jne    102588 <_ZN11rl_terminal6listenEv+0x138>
  1024e2:	8b 03                	mov    (%ebx),%eax
  1024e4:	8b 48 34             	mov    0x34(%eax),%ecx
  1024e7:	39 48 38             	cmp    %ecx,0x38(%eax)
  1024ea:	74 c4                	je     1024b0 <_ZN11rl_terminal6listenEv+0x60>
  1024ec:	c7 44 24 04 95 49 10 	movl   $0x104995,0x4(%esp)
  1024f3:	00 
  1024f4:	8b 43 04             	mov    0x4(%ebx),%eax
  1024f7:	89 04 24             	mov    %eax,(%esp)
  1024fa:	e8 71 e2 ff ff       	call   100770 <_ZN5Print5printEPKc>
  1024ff:	89 5c 24 20          	mov    %ebx,0x20(%esp)
  102503:	83 c4 18             	add    $0x18,%esp
  102506:	5b                   	pop    %ebx
  102507:	e9 34 fd ff ff       	jmp    102240 <_ZN11rl_terminal16terminal_rewriteEv>
  10250c:	8d 74 26 00          	lea    0x0(%esi,%eiz,1),%esi
  102510:	c6 83 18 01 00 00 01 	movb   $0x1,0x118(%ebx)
  102517:	83 c4 18             	add    $0x18,%esp
  10251a:	5b                   	pop    %ebx
  10251b:	c3                   	ret    
  10251c:	8d 74 26 00          	lea    0x0(%esi,%eiz,1),%esi
  102520:	8b 43 04             	mov    0x4(%ebx),%eax
  102523:	8b 10                	mov    (%eax),%edx
  102525:	c7 44 24 04 0a 00 00 	movl   $0xa,0x4(%esp)
  10252c:	00 
  10252d:	89 04 24             	mov    %eax,(%esp)
  102530:	ff 12                	call   *(%edx)
  102532:	89 5c 24 20          	mov    %ebx,0x20(%esp)
  102536:	83 c4 18             	add    $0x18,%esp
  102539:	5b                   	pop    %ebx
  10253a:	e9 01 fc ff ff       	jmp    102140 <_ZN11rl_terminal16new_line_handlerEv>
  10253f:	90                   	nop
  102540:	0f be d0             	movsbl %al,%edx
  102543:	89 54 24 04          	mov    %edx,0x4(%esp)
  102547:	8b 13                	mov    (%ebx),%edx
  102549:	89 44 24 0c          	mov    %eax,0xc(%esp)
  10254d:	89 14 24             	mov    %edx,(%esp)
  102550:	e8 9b 00 00 00       	call   1025f0 <_ZN10readline_t11insert_charEc>
  102555:	8b 53 04             	mov    0x4(%ebx),%edx
  102558:	8b 44 24 0c          	mov    0xc(%esp),%eax
  10255c:	8b 0a                	mov    (%edx),%ecx
  10255e:	0f b6 c0             	movzbl %al,%eax
  102561:	89 44 24 04          	mov    %eax,0x4(%esp)
  102565:	89 14 24             	mov    %edx,(%esp)
  102568:	ff 11                	call   *(%ecx)
  10256a:	8b 03                	mov    (%ebx),%eax
  10256c:	8b 48 34             	mov    0x34(%eax),%ecx
  10256f:	39 48 38             	cmp    %ecx,0x38(%eax)
  102572:	0f 84 38 ff ff ff    	je     1024b0 <_ZN11rl_terminal6listenEv+0x60>
  102578:	89 5c 24 20          	mov    %ebx,0x20(%esp)
  10257c:	83 c4 18             	add    $0x18,%esp
  10257f:	5b                   	pop    %ebx
  102580:	e9 bb fc ff ff       	jmp    102240 <_ZN11rl_terminal16terminal_rewriteEv>
  102585:	8d 76 00             	lea    0x0(%esi),%esi
  102588:	c7 44 24 04 99 49 10 	movl   $0x104999,0x4(%esp)
  10258f:	00 
  102590:	8b 43 04             	mov    0x4(%ebx),%eax
  102593:	89 04 24             	mov    %eax,(%esp)
  102596:	e8 d5 e1 ff ff       	call   100770 <_ZN5Print5printEPKc>
  10259b:	e9 42 ff ff ff       	jmp    1024e2 <_ZN11rl_terminal6listenEv+0x92>

001025a0 <_ZN10readline_tC1Ev>:
  1025a0:	8b 44 24 04          	mov    0x4(%esp),%eax
  1025a4:	c7 40 34 00 00 00 00 	movl   $0x0,0x34(%eax)
  1025ab:	c7 40 38 00 00 00 00 	movl   $0x0,0x38(%eax)
  1025b2:	c3                   	ret    
  1025b3:	90                   	nop
  1025b4:	8d b6 00 00 00 00    	lea    0x0(%esi),%esi
  1025ba:	8d bf 00 00 00 00    	lea    0x0(%edi),%edi

001025c0 <_ZN10readline_t4initEv>:
  1025c0:	8b 44 24 04          	mov    0x4(%esp),%eax
  1025c4:	c7 40 34 00 00 00 00 	movl   $0x0,0x34(%eax)
  1025cb:	c7 40 38 00 00 00 00 	movl   $0x0,0x38(%eax)
  1025d2:	c3                   	ret    
  1025d3:	90                   	nop
  1025d4:	8d b6 00 00 00 00    	lea    0x0(%esi),%esi
  1025da:	8d bf 00 00 00 00    	lea    0x0(%edi),%edi

001025e0 <_ZN10readline_t8get_lineEv>:
  1025e0:	8b 44 24 04          	mov    0x4(%esp),%eax
  1025e4:	8b 50 38             	mov    0x38(%eax),%edx
  1025e7:	c6 04 10 00          	movb   $0x0,(%eax,%edx,1)
  1025eb:	c3                   	ret    
  1025ec:	8d 74 26 00          	lea    0x0(%esi,%eiz,1),%esi

001025f0 <_ZN10readline_t11insert_charEc>:
  1025f0:	56                   	push   %esi
  1025f1:	53                   	push   %ebx
  1025f2:	83 ec 14             	sub    $0x14,%esp
  1025f5:	8b 5c 24 20          	mov    0x20(%esp),%ebx
  1025f9:	8b 74 24 24          	mov    0x24(%esp),%esi
  1025fd:	8b 53 38             	mov    0x38(%ebx),%edx
  102600:	8b 43 34             	mov    0x34(%ebx),%eax
  102603:	8d 4a 01             	lea    0x1(%edx),%ecx
  102606:	39 c2                	cmp    %eax,%edx
  102608:	89 4b 38             	mov    %ecx,0x38(%ebx)
  10260b:	74 1f                	je     10262c <_ZN10readline_t11insert_charEc+0x3c>
  10260d:	29 c1                	sub    %eax,%ecx
  10260f:	8d 14 03             	lea    (%ebx,%eax,1),%edx
  102612:	83 e9 01             	sub    $0x1,%ecx
  102615:	8d 44 03 01          	lea    0x1(%ebx,%eax,1),%eax
  102619:	89 4c 24 08          	mov    %ecx,0x8(%esp)
  10261d:	89 54 24 04          	mov    %edx,0x4(%esp)
  102621:	89 04 24             	mov    %eax,(%esp)
  102624:	e8 97 ea ff ff       	call   1010c0 <_Z7memmovePvPKvj>
  102629:	8b 43 34             	mov    0x34(%ebx),%eax
  10262c:	89 f2                	mov    %esi,%edx
  10262e:	88 14 03             	mov    %dl,(%ebx,%eax,1)
  102631:	83 c0 01             	add    $0x1,%eax
  102634:	89 43 34             	mov    %eax,0x34(%ebx)
  102637:	83 c4 14             	add    $0x14,%esp
  10263a:	5b                   	pop    %ebx
  10263b:	5e                   	pop    %esi
  10263c:	c3                   	ret    
  10263d:	90                   	nop
  10263e:	66 90                	xchg   %ax,%ax

00102640 <_ZN10readline_t11insert_textEPc>:
  102640:	56                   	push   %esi
  102641:	53                   	push   %ebx
  102642:	83 ec 14             	sub    $0x14,%esp
  102645:	8b 5c 24 24          	mov    0x24(%esp),%ebx
  102649:	8b 74 24 20          	mov    0x20(%esp),%esi
  10264d:	0f be 03             	movsbl (%ebx),%eax
  102650:	84 c0                	test   %al,%al
  102652:	74 1a                	je     10266e <_ZN10readline_t11insert_textEPc+0x2e>
  102654:	8d 74 26 00          	lea    0x0(%esi,%eiz,1),%esi
  102658:	89 44 24 04          	mov    %eax,0x4(%esp)
  10265c:	83 c3 01             	add    $0x1,%ebx
  10265f:	89 34 24             	mov    %esi,(%esp)
  102662:	e8 89 ff ff ff       	call   1025f0 <_ZN10readline_t11insert_charEc>
  102667:	0f be 03             	movsbl (%ebx),%eax
  10266a:	84 c0                	test   %al,%al
  10266c:	75 ea                	jne    102658 <_ZN10readline_t11insert_textEPc+0x18>
  10266e:	83 c4 14             	add    $0x14,%esp
  102671:	5b                   	pop    %ebx
  102672:	5e                   	pop    %esi
  102673:	c3                   	ret    
  102674:	8d b6 00 00 00 00    	lea    0x0(%esi),%esi
  10267a:	8d bf 00 00 00 00    	lea    0x0(%edi),%edi

00102680 <_ZN10readline_t11move_cursorEi>:
  102680:	53                   	push   %ebx
  102681:	8b 54 24 08          	mov    0x8(%esp),%edx
  102685:	8b 4a 34             	mov    0x34(%edx),%ecx
  102688:	89 c8                	mov    %ecx,%eax
  10268a:	03 44 24 0c          	add    0xc(%esp),%eax
  10268e:	78 18                	js     1026a8 <_ZN10readline_t11move_cursorEi+0x28>
  102690:	89 42 34             	mov    %eax,0x34(%edx)
  102693:	8b 5a 38             	mov    0x38(%edx),%ebx
  102696:	39 c3                	cmp    %eax,%ebx
  102698:	7d 05                	jge    10269f <_ZN10readline_t11move_cursorEi+0x1f>
  10269a:	89 5a 34             	mov    %ebx,0x34(%edx)
  10269d:	89 d8                	mov    %ebx,%eax
  10269f:	29 c8                	sub    %ecx,%eax
  1026a1:	5b                   	pop    %ebx
  1026a2:	c3                   	ret    
  1026a3:	90                   	nop
  1026a4:	8d 74 26 00          	lea    0x0(%esi,%eiz,1),%esi
  1026a8:	c7 42 34 00 00 00 00 	movl   $0x0,0x34(%edx)
  1026af:	31 c0                	xor    %eax,%eax
  1026b1:	eb e0                	jmp    102693 <_ZN10readline_t11move_cursorEi+0x13>
  1026b3:	90                   	nop
  1026b4:	8d b6 00 00 00 00    	lea    0x0(%esi),%esi
  1026ba:	8d bf 00 00 00 00    	lea    0x0(%edi),%edi

001026c0 <_ZN10readline_t9backspaceEv>:
  1026c0:	53                   	push   %ebx
  1026c1:	31 c0                	xor    %eax,%eax
  1026c3:	83 ec 18             	sub    $0x18,%esp
  1026c6:	8b 5c 24 20          	mov    0x20(%esp),%ebx
  1026ca:	8b 53 34             	mov    0x34(%ebx),%edx
  1026cd:	85 d2                	test   %edx,%edx
  1026cf:	7e 2c                	jle    1026fd <_ZN10readline_t9backspaceEv+0x3d>
  1026d1:	8b 43 38             	mov    0x38(%ebx),%eax
  1026d4:	29 d0                	sub    %edx,%eax
  1026d6:	83 c0 01             	add    $0x1,%eax
  1026d9:	89 44 24 08          	mov    %eax,0x8(%esp)
  1026dd:	8d 04 13             	lea    (%ebx,%edx,1),%eax
  1026e0:	89 44 24 04          	mov    %eax,0x4(%esp)
  1026e4:	8d 44 13 ff          	lea    -0x1(%ebx,%edx,1),%eax
  1026e8:	89 04 24             	mov    %eax,(%esp)
  1026eb:	e8 d0 e9 ff ff       	call   1010c0 <_Z7memmovePvPKvj>
  1026f0:	b8 01 00 00 00       	mov    $0x1,%eax
  1026f5:	83 6b 34 01          	subl   $0x1,0x34(%ebx)
  1026f9:	83 6b 38 01          	subl   $0x1,0x38(%ebx)
  1026fd:	83 c4 18             	add    $0x18,%esp
  102700:	5b                   	pop    %ebx
  102701:	c3                   	ret    
  102702:	8d b4 26 00 00 00 00 	lea    0x0(%esi,%eiz,1),%esi
  102709:	8d bc 27 00 00 00 00 	lea    0x0(%edi,%eiz,1),%edi

00102710 <_ZN10readline_t3delEv>:
  102710:	53                   	push   %ebx
  102711:	31 c0                	xor    %eax,%eax
  102713:	83 ec 18             	sub    $0x18,%esp
  102716:	8b 5c 24 20          	mov    0x20(%esp),%ebx
  10271a:	8b 4b 34             	mov    0x34(%ebx),%ecx
  10271d:	8b 53 38             	mov    0x38(%ebx),%edx
  102720:	29 ca                	sub    %ecx,%edx
  102722:	85 d2                	test   %edx,%edx
  102724:	7e 22                	jle    102748 <_ZN10readline_t3delEv+0x38>
  102726:	8d 44 0b 01          	lea    0x1(%ebx,%ecx,1),%eax
  10272a:	83 ea 01             	sub    $0x1,%edx
  10272d:	01 d9                	add    %ebx,%ecx
  10272f:	89 54 24 08          	mov    %edx,0x8(%esp)
  102733:	89 44 24 04          	mov    %eax,0x4(%esp)
  102737:	89 0c 24             	mov    %ecx,(%esp)
  10273a:	e8 81 e9 ff ff       	call   1010c0 <_Z7memmovePvPKvj>
  10273f:	b8 01 00 00 00       	mov    $0x1,%eax
  102744:	83 6b 38 01          	subl   $0x1,0x38(%ebx)
  102748:	83 c4 18             	add    $0x18,%esp
  10274b:	5b                   	pop    %ebx
  10274c:	c3                   	ret    
  10274d:	66 90                	xchg   %ax,%ax
  10274f:	90                   	nop

00102750 <_Z11command_addPcj>:
  102750:	83 ec 1c             	sub    $0x1c,%esp
  102753:	c7 04 24 10 00 00 00 	movl   $0x10,(%esp)
  10275a:	e8 61 04 00 00       	call   102bc0 <_Znwj>
  10275f:	8b 15 d0 6b 10 00    	mov    0x106bd0,%edx
  102765:	8d 48 04             	lea    0x4(%eax),%ecx
  102768:	89 0d d0 6b 10 00    	mov    %ecx,0x106bd0
  10276e:	89 50 08             	mov    %edx,0x8(%eax)
  102771:	c7 40 04 cc 6b 10 00 	movl   $0x106bcc,0x4(%eax)
  102778:	89 0a                	mov    %ecx,(%edx)
  10277a:	8b 54 24 20          	mov    0x20(%esp),%edx
  10277e:	89 10                	mov    %edx,(%eax)
  102780:	8b 54 24 24          	mov    0x24(%esp),%edx
  102784:	89 50 0c             	mov    %edx,0xc(%eax)
  102787:	83 c4 1c             	add    $0x1c,%esp
  10278a:	c3                   	ret    
  10278b:	90                   	nop
  10278c:	8d 74 26 00          	lea    0x0(%esi,%eiz,1),%esi

00102790 <_Z13command_printv>:
  102790:	53                   	push   %ebx
  102791:	83 ec 18             	sub    $0x18,%esp
  102794:	a1 cc 6b 10 00       	mov    0x106bcc,%eax
  102799:	3d cc 6b 10 00       	cmp    $0x106bcc,%eax
  10279e:	8d 58 fc             	lea    -0x4(%eax),%ebx
  1027a1:	74 32                	je     1027d5 <_Z13command_printv+0x45>
  1027a3:	90                   	nop
  1027a4:	8d 74 26 00          	lea    0x0(%esi,%eiz,1),%esi
  1027a8:	8b 03                	mov    (%ebx),%eax
  1027aa:	89 44 24 04          	mov    %eax,0x4(%esp)
  1027ae:	a1 fc 7a 10 00       	mov    0x107afc,%eax
  1027b3:	89 04 24             	mov    %eax,(%esp)
  1027b6:	e8 b5 df ff ff       	call   100770 <_ZN5Print5printEPKc>
  1027bb:	a1 fc 7a 10 00       	mov    0x107afc,%eax
  1027c0:	89 04 24             	mov    %eax,(%esp)
  1027c3:	e8 d8 df ff ff       	call   1007a0 <_ZN5Print7printlnEv>
  1027c8:	8b 43 04             	mov    0x4(%ebx),%eax
  1027cb:	3d cc 6b 10 00       	cmp    $0x106bcc,%eax
  1027d0:	8d 58 fc             	lea    -0x4(%eax),%ebx
  1027d3:	75 d3                	jne    1027a8 <_Z13command_printv+0x18>
  1027d5:	83 c4 18             	add    $0x18,%esp
  1027d8:	5b                   	pop    %ebx
  1027d9:	c3                   	ret    
  1027da:	8d b6 00 00 00 00    	lea    0x0(%esi),%esi

001027e0 <_Z11interpreteriPKPKc>:
  1027e0:	56                   	push   %esi
  1027e1:	53                   	push   %ebx
  1027e2:	83 ec 14             	sub    $0x14,%esp
  1027e5:	a1 cc 6b 10 00       	mov    0x106bcc,%eax
  1027ea:	8b 74 24 24          	mov    0x24(%esp),%esi
  1027ee:	3d cc 6b 10 00       	cmp    $0x106bcc,%eax
  1027f3:	8d 58 fc             	lea    -0x4(%eax),%ebx
  1027f6:	75 15                	jne    10280d <_Z11interpreteriPKPKc+0x2d>
  1027f8:	eb 3e                	jmp    102838 <_Z11interpreteriPKPKc+0x58>
  1027fa:	8d b6 00 00 00 00    	lea    0x0(%esi),%esi
  102800:	8b 43 04             	mov    0x4(%ebx),%eax
  102803:	3d cc 6b 10 00       	cmp    $0x106bcc,%eax
  102808:	8d 58 fc             	lea    -0x4(%eax),%ebx
  10280b:	74 2b                	je     102838 <_Z11interpreteriPKPKc+0x58>
  10280d:	8b 03                	mov    (%ebx),%eax
  10280f:	89 44 24 04          	mov    %eax,0x4(%esp)
  102813:	8b 06                	mov    (%esi),%eax
  102815:	89 04 24             	mov    %eax,(%esp)
  102818:	e8 43 e8 ff ff       	call   101060 <_Z6strcmpPKcS0_>
  10281d:	85 c0                	test   %eax,%eax
  10281f:	75 df                	jne    102800 <_Z11interpreteriPKPKc+0x20>
  102821:	8b 44 24 20          	mov    0x20(%esp),%eax
  102825:	89 74 24 04          	mov    %esi,0x4(%esp)
  102829:	89 04 24             	mov    %eax,(%esp)
  10282c:	ff 53 0c             	call   *0xc(%ebx)
  10282f:	83 c4 14             	add    $0x14,%esp
  102832:	31 c0                	xor    %eax,%eax
  102834:	5b                   	pop    %ebx
  102835:	5e                   	pop    %esi
  102836:	c3                   	ret    
  102837:	90                   	nop
  102838:	a1 fc 7a 10 00       	mov    0x107afc,%eax
  10283d:	c7 44 24 04 a4 4b 10 	movl   $0x104ba4,0x4(%esp)
  102844:	00 
  102845:	89 04 24             	mov    %eax,(%esp)
  102848:	e8 23 df ff ff       	call   100770 <_ZN5Print5printEPKc>
  10284d:	8b 06                	mov    (%esi),%eax
  10284f:	89 44 24 04          	mov    %eax,0x4(%esp)
  102853:	a1 fc 7a 10 00       	mov    0x107afc,%eax
  102858:	89 04 24             	mov    %eax,(%esp)
  10285b:	e8 10 df ff ff       	call   100770 <_ZN5Print5printEPKc>
  102860:	a1 fc 7a 10 00       	mov    0x107afc,%eax
  102865:	c7 44 24 04 b0 4b 10 	movl   $0x104bb0,0x4(%esp)
  10286c:	00 
  10286d:	89 04 24             	mov    %eax,(%esp)
  102870:	e8 6b df ff ff       	call   1007e0 <_ZN5Print7printlnEPKc>
  102875:	83 c4 14             	add    $0x14,%esp
  102878:	31 c0                	xor    %eax,%eax
  10287a:	5b                   	pop    %ebx
  10287b:	5e                   	pop    %esi
  10287c:	c3                   	ret    
  10287d:	8d 76 00             	lea    0x0(%esi),%esi

00102880 <_Z5splitPcR7argvc_t>:
  102880:	53                   	push   %ebx
  102881:	8b 4c 24 0c          	mov    0xc(%esp),%ecx
  102885:	8b 44 24 08          	mov    0x8(%esp),%eax
  102889:	c7 41 04 00 00 00 00 	movl   $0x0,0x4(%ecx)
  102890:	0f b6 10             	movzbl (%eax),%edx
  102893:	84 d2                	test   %dl,%dl
  102895:	74 4d                	je     1028e4 <_Z5splitPcR7argvc_t+0x64>
  102897:	80 fa 20             	cmp    $0x20,%dl
  10289a:	75 13                	jne    1028af <_Z5splitPcR7argvc_t+0x2f>
  10289c:	8d 74 26 00          	lea    0x0(%esi,%eiz,1),%esi
  1028a0:	83 c0 01             	add    $0x1,%eax
  1028a3:	0f b6 10             	movzbl (%eax),%edx
  1028a6:	80 fa 20             	cmp    $0x20,%dl
  1028a9:	74 f5                	je     1028a0 <_Z5splitPcR7argvc_t+0x20>
  1028ab:	84 d2                	test   %dl,%dl
  1028ad:	74 e1                	je     102890 <_Z5splitPcR7argvc_t+0x10>
  1028af:	8b 51 04             	mov    0x4(%ecx),%edx
  1028b2:	8b 19                	mov    (%ecx),%ebx
  1028b4:	89 04 93             	mov    %eax,(%ebx,%edx,4)
  1028b7:	83 c2 01             	add    $0x1,%edx
  1028ba:	89 51 04             	mov    %edx,0x4(%ecx)
  1028bd:	0f b6 10             	movzbl (%eax),%edx
  1028c0:	f6 c2 df             	test   $0xdf,%dl
  1028c3:	74 0e                	je     1028d3 <_Z5splitPcR7argvc_t+0x53>
  1028c5:	8d 76 00             	lea    0x0(%esi),%esi
  1028c8:	83 c0 01             	add    $0x1,%eax
  1028cb:	0f b6 10             	movzbl (%eax),%edx
  1028ce:	f6 c2 df             	test   $0xdf,%dl
  1028d1:	75 f5                	jne    1028c8 <_Z5splitPcR7argvc_t+0x48>
  1028d3:	84 d2                	test   %dl,%dl
  1028d5:	74 b9                	je     102890 <_Z5splitPcR7argvc_t+0x10>
  1028d7:	c6 00 00             	movb   $0x0,(%eax)
  1028da:	83 c0 01             	add    $0x1,%eax
  1028dd:	0f b6 10             	movzbl (%eax),%edx
  1028e0:	84 d2                	test   %dl,%dl
  1028e2:	75 b3                	jne    102897 <_Z5splitPcR7argvc_t+0x17>
  1028e4:	5b                   	pop    %ebx
  1028e5:	c3                   	ret    
  1028e6:	8d 76 00             	lea    0x0(%esi),%esi
  1028e9:	8d bc 27 00 00 00 00 	lea    0x0(%edi,%eiz,1),%edi

001028f0 <_Z7executePc>:
  1028f0:	83 ec 4c             	sub    $0x4c,%esp
  1028f3:	8d 44 24 18          	lea    0x18(%esp),%eax
  1028f7:	89 44 24 10          	mov    %eax,0x10(%esp)
  1028fb:	8d 44 24 10          	lea    0x10(%esp),%eax
  1028ff:	89 44 24 04          	mov    %eax,0x4(%esp)
  102903:	8b 44 24 50          	mov    0x50(%esp),%eax
  102907:	89 04 24             	mov    %eax,(%esp)
  10290a:	e8 71 ff ff ff       	call   102880 <_Z5splitPcR7argvc_t>
  10290f:	8b 44 24 10          	mov    0x10(%esp),%eax
  102913:	89 44 24 04          	mov    %eax,0x4(%esp)
  102917:	8b 44 24 14          	mov    0x14(%esp),%eax
  10291b:	89 04 24             	mov    %eax,(%esp)
  10291e:	e8 bd fe ff ff       	call   1027e0 <_Z11interpreteriPKPKc>
  102923:	83 c4 4c             	add    $0x4c,%esp
  102926:	c3                   	ret    
  102927:	66 90                	xchg   %ax,%ax
  102929:	66 90                	xchg   %ax,%ax
  10292b:	66 90                	xchg   %ax,%ax
  10292d:	66 90                	xchg   %ax,%ax
  10292f:	90                   	nop

00102930 <_Z5aboutv>:
  102930:	83 ec 1c             	sub    $0x1c,%esp
  102933:	a1 fc 7a 10 00       	mov    0x107afc,%eax
  102938:	c7 44 24 04 d5 4b 10 	movl   $0x104bd5,0x4(%esp)
  10293f:	00 
  102940:	89 04 24             	mov    %eax,(%esp)
  102943:	e8 28 de ff ff       	call   100770 <_ZN5Print5printEPKc>
  102948:	a1 fc 7a 10 00       	mov    0x107afc,%eax
  10294d:	c7 44 24 04 db 4b 10 	movl   $0x104bdb,0x4(%esp)
  102954:	00 
  102955:	89 04 24             	mov    %eax,(%esp)
  102958:	e8 83 de ff ff       	call   1007e0 <_ZN5Print7printlnEPKc>
  10295d:	83 c4 1c             	add    $0x1c,%esp
  102960:	c3                   	ret    
  102961:	eb 0d                	jmp    102970 <_Z5ptestiPPc>
  102963:	90                   	nop
  102964:	90                   	nop
  102965:	90                   	nop
  102966:	90                   	nop
  102967:	90                   	nop
  102968:	90                   	nop
  102969:	90                   	nop
  10296a:	90                   	nop
  10296b:	90                   	nop
  10296c:	90                   	nop
  10296d:	90                   	nop
  10296e:	90                   	nop
  10296f:	90                   	nop

00102970 <_Z5ptestiPPc>:
  102970:	57                   	push   %edi
  102971:	56                   	push   %esi
  102972:	53                   	push   %ebx
  102973:	31 db                	xor    %ebx,%ebx
  102975:	83 ec 10             	sub    $0x10,%esp
  102978:	8b 74 24 20          	mov    0x20(%esp),%esi
  10297c:	8b 7c 24 24          	mov    0x24(%esp),%edi
  102980:	85 f6                	test   %esi,%esi
  102982:	7e 1f                	jle    1029a3 <_Z5ptestiPPc+0x33>
  102984:	8d 74 26 00          	lea    0x0(%esi,%eiz,1),%esi
  102988:	8b 04 9f             	mov    (%edi,%ebx,4),%eax
  10298b:	83 c3 01             	add    $0x1,%ebx
  10298e:	89 44 24 04          	mov    %eax,0x4(%esp)
  102992:	a1 fc 7a 10 00       	mov    0x107afc,%eax
  102997:	89 04 24             	mov    %eax,(%esp)
  10299a:	e8 41 de ff ff       	call   1007e0 <_ZN5Print7printlnEPKc>
  10299f:	39 f3                	cmp    %esi,%ebx
  1029a1:	75 e5                	jne    102988 <_Z5ptestiPPc+0x18>
  1029a3:	83 c4 10             	add    $0x10,%esp
  1029a6:	5b                   	pop    %ebx
  1029a7:	5e                   	pop    %esi
  1029a8:	5f                   	pop    %edi
  1029a9:	c3                   	ret    
  1029aa:	8d b6 00 00 00 00    	lea    0x0(%esi),%esi

001029b0 <_Z7meminfoiPPc>:
  1029b0:	83 ec 1c             	sub    $0x1c,%esp
  1029b3:	a1 c8 6b 10 00       	mov    0x106bc8,%eax
  1029b8:	8b 10                	mov    (%eax),%edx
  1029ba:	89 04 24             	mov    %eax,(%esp)
  1029bd:	ff 52 08             	call   *0x8(%edx)
  1029c0:	c7 44 24 08 0a 00 00 	movl   $0xa,0x8(%esp)
  1029c7:	00 
  1029c8:	89 44 24 04          	mov    %eax,0x4(%esp)
  1029cc:	a1 fc 7a 10 00       	mov    0x107afc,%eax
  1029d1:	89 04 24             	mov    %eax,(%esp)
  1029d4:	e8 a7 df ff ff       	call   100980 <_ZN5Print5printEii>
  1029d9:	83 c4 1c             	add    $0x1c,%esp
  1029dc:	c3                   	ret    
  1029dd:	8d 76 00             	lea    0x0(%esi),%esi

001029e0 <_Z25registry_standart_utilityv>:
  1029e0:	83 ec 1c             	sub    $0x1c,%esp
  1029e3:	c7 44 24 04 30 29 10 	movl   $0x102930,0x4(%esp)
  1029ea:	00 
  1029eb:	c7 04 24 df 4b 10 00 	movl   $0x104bdf,(%esp)
  1029f2:	e8 59 fd ff ff       	call   102750 <_Z11command_addPcj>
  1029f7:	c7 44 24 04 70 29 10 	movl   $0x102970,0x4(%esp)
  1029fe:	00 
  1029ff:	c7 04 24 e5 4b 10 00 	movl   $0x104be5,(%esp)
  102a06:	e8 45 fd ff ff       	call   102750 <_Z11command_addPcj>
  102a0b:	c7 44 24 04 90 27 10 	movl   $0x102790,0x4(%esp)
  102a12:	00 
  102a13:	c7 04 24 fa 4b 10 00 	movl   $0x104bfa,(%esp)
  102a1a:	e8 31 fd ff ff       	call   102750 <_Z11command_addPcj>
  102a1f:	c7 44 24 04 70 14 10 	movl   $0x101470,0x4(%esp)
  102a26:	00 
  102a27:	c7 04 24 eb 4b 10 00 	movl   $0x104beb,(%esp)
  102a2e:	e8 1d fd ff ff       	call   102750 <_Z11command_addPcj>
  102a33:	83 c4 1c             	add    $0x1c,%esp
  102a36:	c3                   	ret    
  102a37:	89 f6                	mov    %esi,%esi
  102a39:	8d bc 27 00 00 00 00 	lea    0x0(%edi,%eiz,1),%edi

00102a40 <_Z22registry_alloc_utilityv>:
  102a40:	83 ec 1c             	sub    $0x1c,%esp
  102a43:	c7 44 24 04 b0 29 10 	movl   $0x1029b0,0x4(%esp)
  102a4a:	00 
  102a4b:	c7 04 24 f7 4b 10 00 	movl   $0x104bf7,(%esp)
  102a52:	e8 f9 fc ff ff       	call   102750 <_Z11command_addPcj>
  102a57:	83 c4 1c             	add    $0x1c,%esp
  102a5a:	c3                   	ret    
  102a5b:	66 90                	xchg   %ax,%ax
  102a5d:	66 90                	xchg   %ax,%ax
  102a5f:	90                   	nop

00102a60 <_ZN12Object_cache8allocateEj>:
  102a60:	8b 54 24 04          	mov    0x4(%esp),%edx
  102a64:	8b 42 0c             	mov    0xc(%edx),%eax
  102a67:	8b 08                	mov    (%eax),%ecx
  102a69:	89 4a 0c             	mov    %ecx,0xc(%edx)
  102a6c:	c3                   	ret    
  102a6d:	90                   	nop
  102a6e:	66 90                	xchg   %ax,%ax

00102a70 <_ZN12Object_cache10deallocateEPv>:
  102a70:	8b 54 24 04          	mov    0x4(%esp),%edx
  102a74:	8b 44 24 08          	mov    0x8(%esp),%eax
  102a78:	8b 4a 0c             	mov    0xc(%edx),%ecx
  102a7b:	89 42 0c             	mov    %eax,0xc(%edx)
  102a7e:	89 08                	mov    %ecx,(%eax)
  102a80:	c3                   	ret    
  102a81:	90                   	nop
  102a82:	8d b4 26 00 00 00 00 	lea    0x0(%esi,%eiz,1),%esi
  102a89:	8d bc 27 00 00 00 00 	lea    0x0(%edi,%eiz,1),%edi

00102a90 <_ZN12Object_cache8freeinfoEv>:
  102a90:	53                   	push   %ebx
  102a91:	8b 5c 24 08          	mov    0x8(%esp),%ebx
  102a95:	31 c0                	xor    %eax,%eax
  102a97:	8b 53 0c             	mov    0xc(%ebx),%edx
  102a9a:	8d 4b 0c             	lea    0xc(%ebx),%ecx
  102a9d:	39 ca                	cmp    %ecx,%edx
  102a9f:	74 10                	je     102ab1 <_ZN12Object_cache8freeinfoEv+0x21>
  102aa1:	8d b4 26 00 00 00 00 	lea    0x0(%esi,%eiz,1),%esi
  102aa8:	8b 12                	mov    (%edx),%edx
  102aaa:	83 c0 01             	add    $0x1,%eax
  102aad:	39 ca                	cmp    %ecx,%edx
  102aaf:	75 f7                	jne    102aa8 <_ZN12Object_cache8freeinfoEv+0x18>
  102ab1:	0f af 43 08          	imul   0x8(%ebx),%eax
  102ab5:	5b                   	pop    %ebx
  102ab6:	c3                   	ret    
  102ab7:	90                   	nop
  102ab8:	90                   	nop
  102ab9:	8d b4 26 00 00 00 00 	lea    0x0(%esi,%eiz,1),%esi

00102ac0 <_ZN12Object_cacheC1EjP11Allocator_p>:
  102ac0:	8b 44 24 04          	mov    0x4(%esp),%eax
  102ac4:	8b 54 24 08          	mov    0x8(%esp),%edx
  102ac8:	c7 00 58 4c 10 00    	movl   $0x104c58,(%eax)
  102ace:	89 50 08             	mov    %edx,0x8(%eax)
  102ad1:	8d 50 0c             	lea    0xc(%eax),%edx
  102ad4:	89 50 0c             	mov    %edx,0xc(%eax)
  102ad7:	8b 54 24 0c          	mov    0xc(%esp),%edx
  102adb:	89 50 04             	mov    %edx,0x4(%eax)
  102ade:	c3                   	ret    
  102adf:	90                   	nop

00102ae0 <_ZN12Object_cache4initEjP11Allocator_p>:
  102ae0:	8b 44 24 04          	mov    0x4(%esp),%eax
  102ae4:	8b 54 24 08          	mov    0x8(%esp),%edx
  102ae8:	89 50 08             	mov    %edx,0x8(%eax)
  102aeb:	8d 50 0c             	lea    0xc(%eax),%edx
  102aee:	89 50 0c             	mov    %edx,0xc(%eax)
  102af1:	8b 54 24 0c          	mov    0xc(%esp),%edx
  102af5:	89 50 04             	mov    %edx,0x4(%eax)
  102af8:	c3                   	ret    
  102af9:	90                   	nop
  102afa:	8d b6 00 00 00 00    	lea    0x0(%esi),%esi

00102b00 <_ZN12Object_cache6engageEPvj>:
  102b00:	55                   	push   %ebp
  102b01:	31 d2                	xor    %edx,%edx
  102b03:	57                   	push   %edi
  102b04:	56                   	push   %esi
  102b05:	53                   	push   %ebx
  102b06:	8b 74 24 14          	mov    0x14(%esp),%esi
  102b0a:	8b 44 24 1c          	mov    0x1c(%esp),%eax
  102b0e:	8b 7c 24 18          	mov    0x18(%esp),%edi
  102b12:	8b 76 08             	mov    0x8(%esi),%esi
  102b15:	f7 f6                	div    %esi
  102b17:	85 c0                	test   %eax,%eax
  102b19:	74 37                	je     102b52 <_ZN12Object_cache6engageEPvj+0x52>
  102b1b:	89 fd                	mov    %edi,%ebp
  102b1d:	31 db                	xor    %ebx,%ebx
  102b1f:	31 c9                	xor    %ecx,%ecx
  102b21:	eb 07                	jmp    102b2a <_ZN12Object_cache6engageEPvj+0x2a>
  102b23:	90                   	nop
  102b24:	8d 74 26 00          	lea    0x0(%esi,%eiz,1),%esi
  102b28:	89 d5                	mov    %edx,%ebp
  102b2a:	0f af de             	imul   %esi,%ebx
  102b2d:	83 c1 01             	add    $0x1,%ecx
  102b30:	89 da                	mov    %ebx,%edx
  102b32:	89 cb                	mov    %ecx,%ebx
  102b34:	01 fa                	add    %edi,%edx
  102b36:	39 c1                	cmp    %eax,%ecx
  102b38:	89 55 00             	mov    %edx,0x0(%ebp)
  102b3b:	75 eb                	jne    102b28 <_ZN12Object_cache6engageEPvj+0x28>
  102b3d:	8b 44 24 14          	mov    0x14(%esp),%eax
  102b41:	8b 40 0c             	mov    0xc(%eax),%eax
  102b44:	89 02                	mov    %eax,(%edx)
  102b46:	8b 44 24 14          	mov    0x14(%esp),%eax
  102b4a:	89 78 0c             	mov    %edi,0xc(%eax)
  102b4d:	5b                   	pop    %ebx
  102b4e:	5e                   	pop    %esi
  102b4f:	5f                   	pop    %edi
  102b50:	5d                   	pop    %ebp
  102b51:	c3                   	ret    
  102b52:	89 fa                	mov    %edi,%edx
  102b54:	eb e7                	jmp    102b3d <_ZN12Object_cache6engageEPvj+0x3d>
  102b56:	8d 76 00             	lea    0x0(%esi),%esi
  102b59:	8d bc 27 00 00 00 00 	lea    0x0(%edi,%eiz,1),%edi

00102b60 <_ZnwjPv>:
  102b60:	8b 44 24 08          	mov    0x8(%esp),%eax
  102b64:	c3                   	ret    
  102b65:	8d 74 26 00          	lea    0x0(%esi,%eiz,1),%esi
  102b69:	8d bc 27 00 00 00 00 	lea    0x0(%edi,%eiz,1),%edi

00102b70 <_ZdlPvS_>:
  102b70:	f3 c3                	repz ret 
  102b72:	8d b4 26 00 00 00 00 	lea    0x0(%esi,%eiz,1),%esi
  102b79:	8d bc 27 00 00 00 00 	lea    0x0(%edi,%eiz,1),%edi

00102b80 <_ZnwjP11Allocator_p>:
  102b80:	8b 44 24 08          	mov    0x8(%esp),%eax
  102b84:	8b 4c 24 04          	mov    0x4(%esp),%ecx
  102b88:	8b 10                	mov    (%eax),%edx
  102b8a:	89 4c 24 08          	mov    %ecx,0x8(%esp)
  102b8e:	89 44 24 04          	mov    %eax,0x4(%esp)
  102b92:	8b 02                	mov    (%edx),%eax
  102b94:	ff e0                	jmp    *%eax
  102b96:	8d 76 00             	lea    0x0(%esi),%esi
  102b99:	8d bc 27 00 00 00 00 	lea    0x0(%edi,%eiz,1),%edi

00102ba0 <_ZdlPvP11Allocator_p>:
  102ba0:	8b 44 24 08          	mov    0x8(%esp),%eax
  102ba4:	8b 4c 24 04          	mov    0x4(%esp),%ecx
  102ba8:	8b 10                	mov    (%eax),%edx
  102baa:	89 4c 24 08          	mov    %ecx,0x8(%esp)
  102bae:	89 44 24 04          	mov    %eax,0x4(%esp)
  102bb2:	8b 42 04             	mov    0x4(%edx),%eax
  102bb5:	ff e0                	jmp    *%eax
  102bb7:	89 f6                	mov    %esi,%esi
  102bb9:	8d bc 27 00 00 00 00 	lea    0x0(%edi,%eiz,1),%edi

00102bc0 <_Znwj>:
  102bc0:	83 ec 1c             	sub    $0x1c,%esp
  102bc3:	a1 c8 6b 10 00       	mov    0x106bc8,%eax
  102bc8:	8b 4c 24 20          	mov    0x20(%esp),%ecx
  102bcc:	8b 10                	mov    (%eax),%edx
  102bce:	89 4c 24 04          	mov    %ecx,0x4(%esp)
  102bd2:	89 04 24             	mov    %eax,(%esp)
  102bd5:	ff 12                	call   *(%edx)
  102bd7:	83 c4 1c             	add    $0x1c,%esp
  102bda:	c3                   	ret    
  102bdb:	90                   	nop
  102bdc:	8d 74 26 00          	lea    0x0(%esi,%eiz,1),%esi

00102be0 <_ZdlPv>:
  102be0:	83 ec 1c             	sub    $0x1c,%esp
  102be3:	a1 c8 6b 10 00       	mov    0x106bc8,%eax
  102be8:	8b 4c 24 20          	mov    0x20(%esp),%ecx
  102bec:	8b 10                	mov    (%eax),%edx
  102bee:	89 4c 24 04          	mov    %ecx,0x4(%esp)
  102bf2:	89 04 24             	mov    %eax,(%esp)
  102bf5:	ff 52 04             	call   *0x4(%edx)
  102bf8:	83 c4 1c             	add    $0x1c,%esp
  102bfb:	c3                   	ret    
  102bfc:	66 90                	xchg   %ax,%ax
  102bfe:	66 90                	xchg   %ax,%ax

00102c00 <_ZN7KeyscanC1Ev>:
  102c00:	8b 44 24 04          	mov    0x4(%esp),%eax
  102c04:	c7 00 00 00 00 00    	movl   $0x0,(%eax)
  102c0a:	c7 40 04 00 00 00 00 	movl   $0x0,0x4(%eax)
  102c11:	c7 40 08 00 00 00 00 	movl   $0x0,0x8(%eax)
  102c18:	c3                   	ret    
  102c19:	90                   	nop
  102c1a:	8d b6 00 00 00 00    	lea    0x0(%esi),%esi

00102c20 <_ZN7Keyscan4initEv>:
  102c20:	8b 44 24 04          	mov    0x4(%esp),%eax
  102c24:	c7 00 00 00 00 00    	movl   $0x0,(%eax)
  102c2a:	c7 40 04 00 00 00 00 	movl   $0x0,0x4(%eax)
  102c31:	c7 40 08 00 00 00 00 	movl   $0x0,0x8(%eax)
  102c38:	c3                   	ret    
  102c39:	90                   	nop
  102c3a:	8d b6 00 00 00 00    	lea    0x0(%esi),%esi

00102c40 <_ZN7Keyscan4strmEPKc>:
  102c40:	8b 44 24 04          	mov    0x4(%esp),%eax
  102c44:	8b 40 08             	mov    0x8(%eax),%eax
  102c47:	85 c0                	test   %eax,%eax
  102c49:	74 0d                	je     102c58 <_ZN7Keyscan4strmEPKc+0x18>
  102c4b:	89 44 24 04          	mov    %eax,0x4(%esp)
  102c4f:	e9 1c db ff ff       	jmp    100770 <_ZN5Print5printEPKc>
  102c54:	8d 74 26 00          	lea    0x0(%esi,%eiz,1),%esi
  102c58:	f3 c3                	repz ret 
  102c5a:	8d b6 00 00 00 00    	lea    0x0(%esi),%esi

00102c60 <_ZN7Keyscan10scan2asciiEc>:
  102c60:	57                   	push   %edi
  102c61:	31 c9                	xor    %ecx,%ecx
  102c63:	56                   	push   %esi
  102c64:	53                   	push   %ebx
  102c65:	83 ec 10             	sub    $0x10,%esp
  102c68:	8b 44 24 24          	mov    0x24(%esp),%eax
  102c6c:	8b 5c 24 20          	mov    0x20(%esp),%ebx
  102c70:	84 c0                	test   %al,%al
  102c72:	89 c2                	mov    %eax,%edx
  102c74:	78 6a                	js     102ce0 <_ZN7Keyscan10scan2asciiEc+0x80>
  102c76:	0f be c2             	movsbl %dl,%eax
  102c79:	83 f8 57             	cmp    $0x57,%eax
  102c7c:	0f 87 06 02 00 00    	ja     102e88 <_ZN7Keyscan10scan2asciiEc+0x228>
  102c82:	8b 13                	mov    (%ebx),%edx
  102c84:	f6 c2 03             	test   $0x3,%dl
  102c87:	75 1f                	jne    102ca8 <_ZN7Keyscan10scan2asciiEc+0x48>
  102c89:	0f b7 b4 00 a0 4d 10 	movzwl 0x104da0(%eax,%eax,1),%esi
  102c90:	00 
  102c91:	8d 86 f3 fe ff ff    	lea    -0x10d(%esi),%eax
  102c97:	83 f8 05             	cmp    $0x5,%eax
  102c9a:	77 1f                	ja     102cbb <_ZN7Keyscan10scan2asciiEc+0x5b>
  102c9c:	ff 24 85 80 4c 10 00 	jmp    *0x104c80(,%eax,4)
  102ca3:	90                   	nop
  102ca4:	8d 74 26 00          	lea    0x0(%esi,%eiz,1),%esi
  102ca8:	0f b7 b4 00 e0 4c 10 	movzwl 0x104ce0(%eax,%eax,1),%esi
  102caf:	00 
  102cb0:	8d 86 f3 fe ff ff    	lea    -0x10d(%esi),%eax
  102cb6:	83 f8 05             	cmp    $0x5,%eax
  102cb9:	76 e1                	jbe    102c9c <_ZN7Keyscan10scan2asciiEc+0x3c>
  102cbb:	31 ff                	xor    %edi,%edi
  102cbd:	85 f6                	test   %esi,%esi
  102cbf:	74 38                	je     102cf9 <_ZN7Keyscan10scan2asciiEc+0x99>
  102cc1:	85 c9                	test   %ecx,%ecx
  102cc3:	75 34                	jne    102cf9 <_ZN7Keyscan10scan2asciiEc+0x99>
  102cc5:	8d 86 80 fc ff ff    	lea    -0x380(%esi),%eax
  102ccb:	83 f8 0c             	cmp    $0xc,%eax
  102cce:	0f 87 93 01 00 00    	ja     102e67 <_ZN7Keyscan10scan2asciiEc+0x207>
  102cd4:	ff 24 85 98 4c 10 00 	jmp    *0x104c98(,%eax,4)
  102cdb:	90                   	nop
  102cdc:	8d 74 26 00          	lea    0x0(%esi,%eiz,1),%esi
  102ce0:	83 e2 7f             	and    $0x7f,%edx
  102ce3:	b1 01                	mov    $0x1,%cl
  102ce5:	eb 8f                	jmp    102c76 <_ZN7Keyscan10scan2asciiEc+0x16>
  102ce7:	90                   	nop
  102ce8:	b8 02 00 00 00       	mov    $0x2,%eax
  102ced:	85 c9                	test   %ecx,%ecx
  102cef:	74 27                	je     102d18 <_ZN7Keyscan10scan2asciiEc+0xb8>
  102cf1:	f7 d0                	not    %eax
  102cf3:	31 ff                	xor    %edi,%edi
  102cf5:	21 d0                	and    %edx,%eax
  102cf7:	89 03                	mov    %eax,(%ebx)
  102cf9:	83 c4 10             	add    $0x10,%esp
  102cfc:	89 f8                	mov    %edi,%eax
  102cfe:	5b                   	pop    %ebx
  102cff:	5e                   	pop    %esi
  102d00:	5f                   	pop    %edi
  102d01:	c3                   	ret    
  102d02:	8d b6 00 00 00 00    	lea    0x0(%esi),%esi
  102d08:	85 c9                	test   %ecx,%ecx
  102d0a:	b8 01 00 00 00       	mov    $0x1,%eax
  102d0f:	75 e0                	jne    102cf1 <_ZN7Keyscan10scan2asciiEc+0x91>
  102d11:	8d b4 26 00 00 00 00 	lea    0x0(%esi,%eiz,1),%esi
  102d18:	09 c2                	or     %eax,%edx
  102d1a:	31 ff                	xor    %edi,%edi
  102d1c:	89 13                	mov    %edx,(%ebx)
  102d1e:	83 c4 10             	add    $0x10,%esp
  102d21:	89 f8                	mov    %edi,%eax
  102d23:	5b                   	pop    %ebx
  102d24:	5e                   	pop    %esi
  102d25:	5f                   	pop    %edi
  102d26:	c3                   	ret    
  102d27:	90                   	nop
  102d28:	b8 08 00 00 00       	mov    $0x8,%eax
  102d2d:	eb be                	jmp    102ced <_ZN7Keyscan10scan2asciiEc+0x8d>
  102d2f:	90                   	nop
  102d30:	b8 04 00 00 00       	mov    $0x4,%eax
  102d35:	eb b6                	jmp    102ced <_ZN7Keyscan10scan2asciiEc+0x8d>
  102d37:	90                   	nop
  102d38:	b8 20 00 00 00       	mov    $0x20,%eax
  102d3d:	eb ae                	jmp    102ced <_ZN7Keyscan10scan2asciiEc+0x8d>
  102d3f:	90                   	nop
  102d40:	b8 10 00 00 00       	mov    $0x10,%eax
  102d45:	eb a6                	jmp    102ced <_ZN7Keyscan10scan2asciiEc+0x8d>
  102d47:	31 ff                	xor    %edi,%edi
  102d49:	eb ae                	jmp    102cf9 <_ZN7Keyscan10scan2asciiEc+0x99>
  102d4b:	8b 43 08             	mov    0x8(%ebx),%eax
  102d4e:	31 ff                	xor    %edi,%edi
  102d50:	85 c0                	test   %eax,%eax
  102d52:	74 a5                	je     102cf9 <_ZN7Keyscan10scan2asciiEc+0x99>
  102d54:	c7 44 24 04 1b 00 00 	movl   $0x1b,0x4(%esp)
  102d5b:	00 
  102d5c:	89 04 24             	mov    %eax,(%esp)
  102d5f:	e8 5c eb ff ff       	call   1018c0 <_ZN8DBStream8rx_writeEh>
  102d64:	c7 44 24 04 5b 00 00 	movl   $0x5b,0x4(%esp)
  102d6b:	00 
  102d6c:	8b 43 08             	mov    0x8(%ebx),%eax
  102d6f:	89 04 24             	mov    %eax,(%esp)
  102d72:	e8 49 eb ff ff       	call   1018c0 <_ZN8DBStream8rx_writeEh>
  102d77:	c7 44 24 04 42 00 00 	movl   $0x42,0x4(%esp)
  102d7e:	00 
  102d7f:	8b 43 08             	mov    0x8(%ebx),%eax
  102d82:	89 04 24             	mov    %eax,(%esp)
  102d85:	e8 36 eb ff ff       	call   1018c0 <_ZN8DBStream8rx_writeEh>
  102d8a:	e9 6a ff ff ff       	jmp    102cf9 <_ZN7Keyscan10scan2asciiEc+0x99>
  102d8f:	8b 43 08             	mov    0x8(%ebx),%eax
  102d92:	31 ff                	xor    %edi,%edi
  102d94:	85 c0                	test   %eax,%eax
  102d96:	0f 84 5d ff ff ff    	je     102cf9 <_ZN7Keyscan10scan2asciiEc+0x99>
  102d9c:	c7 44 24 04 1b 00 00 	movl   $0x1b,0x4(%esp)
  102da3:	00 
  102da4:	89 04 24             	mov    %eax,(%esp)
  102da7:	e8 14 eb ff ff       	call   1018c0 <_ZN8DBStream8rx_writeEh>
  102dac:	c7 44 24 04 5b 00 00 	movl   $0x5b,0x4(%esp)
  102db3:	00 
  102db4:	8b 43 08             	mov    0x8(%ebx),%eax
  102db7:	89 04 24             	mov    %eax,(%esp)
  102dba:	e8 01 eb ff ff       	call   1018c0 <_ZN8DBStream8rx_writeEh>
  102dbf:	c7 44 24 04 43 00 00 	movl   $0x43,0x4(%esp)
  102dc6:	00 
  102dc7:	8b 43 08             	mov    0x8(%ebx),%eax
  102dca:	89 04 24             	mov    %eax,(%esp)
  102dcd:	e8 ee ea ff ff       	call   1018c0 <_ZN8DBStream8rx_writeEh>
  102dd2:	e9 22 ff ff ff       	jmp    102cf9 <_ZN7Keyscan10scan2asciiEc+0x99>
  102dd7:	8b 43 08             	mov    0x8(%ebx),%eax
  102dda:	31 ff                	xor    %edi,%edi
  102ddc:	85 c0                	test   %eax,%eax
  102dde:	0f 84 15 ff ff ff    	je     102cf9 <_ZN7Keyscan10scan2asciiEc+0x99>
  102de4:	c7 44 24 04 1b 00 00 	movl   $0x1b,0x4(%esp)
  102deb:	00 
  102dec:	89 04 24             	mov    %eax,(%esp)
  102def:	e8 cc ea ff ff       	call   1018c0 <_ZN8DBStream8rx_writeEh>
  102df4:	c7 44 24 04 5b 00 00 	movl   $0x5b,0x4(%esp)
  102dfb:	00 
  102dfc:	8b 43 08             	mov    0x8(%ebx),%eax
  102dff:	89 04 24             	mov    %eax,(%esp)
  102e02:	e8 b9 ea ff ff       	call   1018c0 <_ZN8DBStream8rx_writeEh>
  102e07:	c7 44 24 04 44 00 00 	movl   $0x44,0x4(%esp)
  102e0e:	00 
  102e0f:	8b 43 08             	mov    0x8(%ebx),%eax
  102e12:	89 04 24             	mov    %eax,(%esp)
  102e15:	e8 a6 ea ff ff       	call   1018c0 <_ZN8DBStream8rx_writeEh>
  102e1a:	e9 da fe ff ff       	jmp    102cf9 <_ZN7Keyscan10scan2asciiEc+0x99>
  102e1f:	8b 43 08             	mov    0x8(%ebx),%eax
  102e22:	31 ff                	xor    %edi,%edi
  102e24:	85 c0                	test   %eax,%eax
  102e26:	0f 84 cd fe ff ff    	je     102cf9 <_ZN7Keyscan10scan2asciiEc+0x99>
  102e2c:	c7 44 24 04 1b 00 00 	movl   $0x1b,0x4(%esp)
  102e33:	00 
  102e34:	89 04 24             	mov    %eax,(%esp)
  102e37:	e8 84 ea ff ff       	call   1018c0 <_ZN8DBStream8rx_writeEh>
  102e3c:	c7 44 24 04 5b 00 00 	movl   $0x5b,0x4(%esp)
  102e43:	00 
  102e44:	8b 43 08             	mov    0x8(%ebx),%eax
  102e47:	89 04 24             	mov    %eax,(%esp)
  102e4a:	e8 71 ea ff ff       	call   1018c0 <_ZN8DBStream8rx_writeEh>
  102e4f:	c7 44 24 04 41 00 00 	movl   $0x41,0x4(%esp)
  102e56:	00 
  102e57:	8b 43 08             	mov    0x8(%ebx),%eax
  102e5a:	89 04 24             	mov    %eax,(%esp)
  102e5d:	e8 5e ea ff ff       	call   1018c0 <_ZN8DBStream8rx_writeEh>
  102e62:	e9 92 fe ff ff       	jmp    102cf9 <_ZN7Keyscan10scan2asciiEc+0x99>
  102e67:	8b 43 08             	mov    0x8(%ebx),%eax
  102e6a:	85 c0                	test   %eax,%eax
  102e6c:	74 11                	je     102e7f <_ZN7Keyscan10scan2asciiEc+0x21f>
  102e6e:	89 f1                	mov    %esi,%ecx
  102e70:	0f b6 d1             	movzbl %cl,%edx
  102e73:	89 54 24 04          	mov    %edx,0x4(%esp)
  102e77:	89 04 24             	mov    %eax,(%esp)
  102e7a:	e8 41 ea ff ff       	call   1018c0 <_ZN8DBStream8rx_writeEh>
  102e7f:	89 f7                	mov    %esi,%edi
  102e81:	e9 73 fe ff ff       	jmp    102cf9 <_ZN7Keyscan10scan2asciiEc+0x99>
  102e86:	66 90                	xchg   %ax,%ax
  102e88:	bf ff ff ff ff       	mov    $0xffffffff,%edi
  102e8d:	e9 67 fe ff ff       	jmp    102cf9 <_ZN7Keyscan10scan2asciiEc+0x99>
  102e92:	8d b4 26 00 00 00 00 	lea    0x0(%esi,%eiz,1),%esi
  102e99:	8d bc 27 00 00 00 00 	lea    0x0(%edi,%eiz,1),%edi

00102ea0 <_ZN7Keyscan10scan2asciiEv>:
  102ea0:	53                   	push   %ebx
  102ea1:	83 ec 18             	sub    $0x18,%esp
  102ea4:	8b 5c 24 20          	mov    0x20(%esp),%ebx
  102ea8:	8b 43 04             	mov    0x4(%ebx),%eax
  102eab:	85 c0                	test   %eax,%eax
  102ead:	74 1f                	je     102ece <_ZN7Keyscan10scan2asciiEv+0x2e>
  102eaf:	8b 10                	mov    (%eax),%edx
  102eb1:	89 04 24             	mov    %eax,(%esp)
  102eb4:	ff 52 0c             	call   *0xc(%edx)
  102eb7:	8d 50 01             	lea    0x1(%eax),%edx
  102eba:	80 fa 01             	cmp    $0x1,%dl
  102ebd:	76 0f                	jbe    102ece <_ZN7Keyscan10scan2asciiEv+0x2e>
  102ebf:	0f be c0             	movsbl %al,%eax
  102ec2:	89 44 24 04          	mov    %eax,0x4(%esp)
  102ec6:	89 1c 24             	mov    %ebx,(%esp)
  102ec9:	e8 92 fd ff ff       	call   102c60 <_ZN7Keyscan10scan2asciiEc>
  102ece:	83 c4 18             	add    $0x18,%esp
  102ed1:	5b                   	pop    %ebx
  102ed2:	c3                   	ret    
  102ed3:	66 90                	xchg   %ax,%ax
  102ed5:	66 90                	xchg   %ax,%ax
  102ed7:	66 90                	xchg   %ax,%ax
  102ed9:	66 90                	xchg   %ax,%ax
  102edb:	66 90                	xchg   %ax,%ax
  102edd:	66 90                	xchg   %ax,%ax
  102edf:	90                   	nop

00102ee0 <_ZN18video_page_command3delEv>:
  102ee0:	f3 c3                	repz ret 
  102ee2:	8d b4 26 00 00 00 00 	lea    0x0(%esi,%eiz,1),%esi
  102ee9:	8d bc 27 00 00 00 00 	lea    0x0(%edi,%eiz,1),%edi

00102ef0 <_ZN18video_page_command9backspaseEv>:
  102ef0:	f3 c3                	repz ret 
  102ef2:	8d b4 26 00 00 00 00 	lea    0x0(%esi,%eiz,1),%esi
  102ef9:	8d bc 27 00 00 00 00 	lea    0x0(%edi,%eiz,1),%edi

00102f00 <_ZN18video_page_command4homeEv>:
  102f00:	f3 c3                	repz ret 
  102f02:	8d b4 26 00 00 00 00 	lea    0x0(%esi,%eiz,1),%esi
  102f09:	8d bc 27 00 00 00 00 	lea    0x0(%edi,%eiz,1),%edi

00102f10 <_ZN18video_page_command3endEv>:
  102f10:	f3 c3                	repz ret 
  102f12:	8d b4 26 00 00 00 00 	lea    0x0(%esi,%eiz,1),%esi
  102f19:	8d bc 27 00 00 00 00 	lea    0x0(%edi,%eiz,1),%edi

00102f20 <_ZN18video_page_command2upEi>:
  102f20:	f3 c3                	repz ret 
  102f22:	8d b4 26 00 00 00 00 	lea    0x0(%esi,%eiz,1),%esi
  102f29:	8d bc 27 00 00 00 00 	lea    0x0(%edi,%eiz,1),%edi

00102f30 <_ZN18video_page_command4downEi>:
  102f30:	f3 c3                	repz ret 
  102f32:	8d b4 26 00 00 00 00 	lea    0x0(%esi,%eiz,1),%esi
  102f39:	8d bc 27 00 00 00 00 	lea    0x0(%edi,%eiz,1),%edi

00102f40 <_ZN18video_page_command4leftEi>:
  102f40:	f3 c3                	repz ret 
  102f42:	8d b4 26 00 00 00 00 	lea    0x0(%esi,%eiz,1),%esi
  102f49:	8d bc 27 00 00 00 00 	lea    0x0(%edi,%eiz,1),%edi

00102f50 <_ZN18video_page_command5rightEi>:
  102f50:	f3 c3                	repz ret 
  102f52:	8d b4 26 00 00 00 00 	lea    0x0(%esi,%eiz,1),%esi
  102f59:	8d bc 27 00 00 00 00 	lea    0x0(%edi,%eiz,1),%edi

00102f60 <_ZN18video_page_command7putcharEi>:
  102f60:	83 ec 1c             	sub    $0x1c,%esp
  102f63:	8b 54 24 20          	mov    0x20(%esp),%edx
  102f67:	0f be 44 24 24       	movsbl 0x24(%esp),%eax
  102f6c:	89 44 24 04          	mov    %eax,0x4(%esp)
  102f70:	0f b6 42 05          	movzbl 0x5(%edx),%eax
  102f74:	0f b6 52 04          	movzbl 0x4(%edx),%edx
  102f78:	8d 04 80             	lea    (%eax,%eax,4),%eax
  102f7b:	c1 e0 04             	shl    $0x4,%eax
  102f7e:	01 d0                	add    %edx,%eax
  102f80:	89 04 24             	mov    %eax,(%esp)
  102f83:	e8 a8 11 00 00       	call   104130 <_Z18video_page_putcharic>
  102f88:	83 c4 1c             	add    $0x1c,%esp
  102f8b:	c3                   	ret    
  102f8c:	8d 74 26 00          	lea    0x0(%esi,%eiz,1),%esi

00102f90 <_ZN18video_page_commandC1Ev>:
  102f90:	8b 44 24 04          	mov    0x4(%esp),%eax
  102f94:	c7 00 e8 4e 10 00    	movl   $0x104ee8,(%eax)
  102f9a:	c6 40 04 00          	movb   $0x0,0x4(%eax)
  102f9e:	c6 40 05 00          	movb   $0x0,0x5(%eax)
  102fa2:	c3                   	ret    
  102fa3:	90                   	nop
  102fa4:	8d b6 00 00 00 00    	lea    0x0(%esi),%esi
  102faa:	8d bf 00 00 00 00    	lea    0x0(%edi),%edi

00102fb0 <_ZN18video_page_command10new_cursorEv>:
  102fb0:	f3 c3                	repz ret 
  102fb2:	8d b4 26 00 00 00 00 	lea    0x0(%esi,%eiz,1),%esi
  102fb9:	8d bc 27 00 00 00 00 	lea    0x0(%edi,%eiz,1),%edi

00102fc0 <_ZN18video_page_command11move_cursorEv>:
  102fc0:	f3 c3                	repz ret 
  102fc2:	66 90                	xchg   %ax,%ax
  102fc4:	66 90                	xchg   %ax,%ax
  102fc6:	66 90                	xchg   %ax,%ax
  102fc8:	66 90                	xchg   %ax,%ax
  102fca:	66 90                	xchg   %ax,%ax
  102fcc:	66 90                	xchg   %ax,%ax
  102fce:	66 90                	xchg   %ax,%ax

00102fd0 <debug_putchar>:
  102fd0:	83 ec 1c             	sub    $0x1c,%esp
  102fd3:	8b 44 24 20          	mov    0x20(%esp),%eax
  102fd7:	3c 0a                	cmp    $0xa,%al
  102fd9:	74 75                	je     103050 <debug_putchar+0x80>
  102fdb:	3c 0d                	cmp    $0xd,%al
  102fdd:	74 49                	je     103028 <debug_putchar+0x58>
  102fdf:	0f be c0             	movsbl %al,%eax
  102fe2:	89 44 24 04          	mov    %eax,0x4(%esp)
  102fe6:	a1 d4 6b 10 00       	mov    0x106bd4,%eax
  102feb:	89 04 24             	mov    %eax,(%esp)
  102fee:	e8 3d 11 00 00       	call   104130 <_Z18video_page_putcharic>
  102ff3:	a1 d4 6b 10 00       	mov    0x106bd4,%eax
  102ff8:	83 c0 01             	add    $0x1,%eax
  102ffb:	a3 d4 6b 10 00       	mov    %eax,0x106bd4
  103000:	3d cf 07 00 00       	cmp    $0x7cf,%eax
  103005:	7e 12                	jle    103019 <debug_putchar+0x49>
  103007:	e8 24 12 00 00       	call   104230 <_Z19video_page_drop_strv>
  10300c:	a1 d4 6b 10 00       	mov    0x106bd4,%eax
  103011:	83 e8 50             	sub    $0x50,%eax
  103014:	a3 d4 6b 10 00       	mov    %eax,0x106bd4
  103019:	89 44 24 20          	mov    %eax,0x20(%esp)
  10301d:	83 c4 1c             	add    $0x1c,%esp
  103020:	e9 2b 11 00 00       	jmp    104150 <_Z22video_page_move_cursori>
  103025:	8d 76 00             	lea    0x0(%esi),%esi
  103028:	8b 0d d4 6b 10 00    	mov    0x106bd4,%ecx
  10302e:	ba 67 66 66 66       	mov    $0x66666667,%edx
  103033:	89 c8                	mov    %ecx,%eax
  103035:	f7 ea                	imul   %edx
  103037:	c1 f9 1f             	sar    $0x1f,%ecx
  10303a:	c1 fa 05             	sar    $0x5,%edx
  10303d:	29 ca                	sub    %ecx,%edx
  10303f:	8d 04 92             	lea    (%edx,%edx,4),%eax
  103042:	c1 e0 04             	shl    $0x4,%eax
  103045:	a3 d4 6b 10 00       	mov    %eax,0x106bd4
  10304a:	eb b4                	jmp    103000 <debug_putchar+0x30>
  10304c:	8d 74 26 00          	lea    0x0(%esi,%eiz,1),%esi
  103050:	8b 0d d4 6b 10 00    	mov    0x106bd4,%ecx
  103056:	ba 67 66 66 66       	mov    $0x66666667,%edx
  10305b:	89 c8                	mov    %ecx,%eax
  10305d:	f7 ea                	imul   %edx
  10305f:	c1 f9 1f             	sar    $0x1f,%ecx
  103062:	c1 fa 05             	sar    $0x5,%edx
  103065:	29 ca                	sub    %ecx,%edx
  103067:	8d 04 92             	lea    (%edx,%edx,4),%eax
  10306a:	c1 e0 04             	shl    $0x4,%eax
  10306d:	83 c0 50             	add    $0x50,%eax
  103070:	a3 d4 6b 10 00       	mov    %eax,0x106bd4
  103075:	eb 89                	jmp    103000 <debug_putchar+0x30>
  103077:	89 f6                	mov    %esi,%esi
  103079:	8d bc 27 00 00 00 00 	lea    0x0(%edi,%eiz,1),%edi

00103080 <_Z18debug_reset_cursorv>:
  103080:	c7 05 d4 6b 10 00 00 	movl   $0x0,0x106bd4
  103087:	00 00 00 
  10308a:	c3                   	ret    
  10308b:	66 90                	xchg   %ax,%ax
  10308d:	66 90                	xchg   %ax,%ax
  10308f:	90                   	nop

00103090 <_Z13platform_initv>:
  103090:	83 ec 1c             	sub    $0x1c,%esp
  103093:	c7 04 24 0c 4f 10 00 	movl   $0x104f0c,(%esp)
  10309a:	e8 b1 d4 ff ff       	call   100550 <debug_print>
  10309f:	c7 04 24 1e 4f 10 00 	movl   $0x104f1e,(%esp)
  1030a6:	e8 a5 d4 ff ff       	call   100550 <debug_print>
  1030ab:	c7 04 24 28 4f 10 00 	movl   $0x104f28,(%esp)
  1030b2:	e8 99 d4 ff ff       	call   100550 <debug_print>
  1030b7:	c7 44 24 04 02 00 00 	movl   $0x2,0x4(%esp)
  1030be:	00 
  1030bf:	c7 04 24 69 46 10 00 	movl   $0x104669,(%esp)
  1030c6:	e8 95 d2 ff ff       	call   100360 <debug_write>
  1030cb:	c7 04 24 35 4f 10 00 	movl   $0x104f35,(%esp)
  1030d2:	e8 79 d4 ff ff       	call   100550 <debug_print>
  1030d7:	c7 04 24 3a 4f 10 00 	movl   $0x104f3a,(%esp)
  1030de:	e8 6d d4 ff ff       	call   100550 <debug_print>
  1030e3:	c7 44 24 04 02 00 00 	movl   $0x2,0x4(%esp)
  1030ea:	00 
  1030eb:	c7 04 24 69 46 10 00 	movl   $0x104669,(%esp)
  1030f2:	e8 69 d2 ff ff       	call   100360 <debug_write>
  1030f7:	83 c4 1c             	add    $0x1c,%esp
  1030fa:	e9 31 00 00 00       	jmp    103130 <_Z22init_descriptor_tablesv>
  1030ff:	90                   	nop

00103100 <_Z20systemError_platformv>:
  103100:	f3 c3                	repz ret 
  103102:	66 90                	xchg   %ax,%ax
  103104:	66 90                	xchg   %ax,%ax
  103106:	66 90                	xchg   %ax,%ax
  103108:	66 90                	xchg   %ax,%ax
  10310a:	66 90                	xchg   %ax,%ax
  10310c:	66 90                	xchg   %ax,%ax
  10310e:	66 90                	xchg   %ax,%ax

00103110 <_Z7StubISRv>:
  103110:	83 ec 1c             	sub    $0x1c,%esp
  103113:	c7 04 24 3f 4f 10 00 	movl   $0x104f3f,(%esp)
  10311a:	e8 71 d5 ff ff       	call   100690 <_Z11systemErrorPKc>
  10311f:	83 c4 1c             	add    $0x1c,%esp
  103122:	c3                   	ret    
  103123:	8d b6 00 00 00 00    	lea    0x0(%esi),%esi
  103129:	8d bc 27 00 00 00 00 	lea    0x0(%edi,%eiz,1),%edi

00103130 <_Z22init_descriptor_tablesv>:
  103130:	b8 27 00 00 00       	mov    $0x27,%eax
  103135:	83 ec 1c             	sub    $0x1c,%esp
  103138:	66 a3 40 87 10 00    	mov    %ax,0x108740
  10313e:	31 c0                	xor    %eax,%eax
  103140:	31 d2                	xor    %edx,%edx
  103142:	66 a3 6a 87 10 00    	mov    %ax,0x10876a
  103148:	b8 ff ff ff ff       	mov    $0xffffffff,%eax
  10314d:	31 c9                	xor    %ecx,%ecx
  10314f:	66 a3 68 87 10 00    	mov    %ax,0x108768
  103155:	31 c0                	xor    %eax,%eax
  103157:	66 a3 72 87 10 00    	mov    %ax,0x108772
  10315d:	b8 ff ff ff ff       	mov    $0xffffffff,%eax
  103162:	66 a3 70 87 10 00    	mov    %ax,0x108770
  103168:	31 c0                	xor    %eax,%eax
  10316a:	66 89 15 62 87 10 00 	mov    %dx,0x108762
  103171:	31 d2                	xor    %edx,%edx
  103173:	66 89 0d 60 87 10 00 	mov    %cx,0x108760
  10317a:	b9 ff ff ff ff       	mov    $0xffffffff,%ecx
  10317f:	66 a3 7a 87 10 00    	mov    %ax,0x10877a
  103185:	b8 ff ff ff ff       	mov    $0xffffffff,%eax
  10318a:	66 89 15 82 87 10 00 	mov    %dx,0x108782
  103191:	66 89 0d 80 87 10 00 	mov    %cx,0x108780
  103198:	66 a3 78 87 10 00    	mov    %ax,0x108778
  10319e:	c7 05 42 87 10 00 60 	movl   $0x108760,0x108742
  1031a5:	87 10 00 
  1031a8:	c6 05 64 87 10 00 00 	movb   $0x0,0x108764
  1031af:	c6 05 67 87 10 00 00 	movb   $0x0,0x108767
  1031b6:	c6 05 66 87 10 00 00 	movb   $0x0,0x108766
  1031bd:	c6 05 65 87 10 00 00 	movb   $0x0,0x108765
  1031c4:	c6 05 6c 87 10 00 00 	movb   $0x0,0x10876c
  1031cb:	c6 05 6f 87 10 00 00 	movb   $0x0,0x10876f
  1031d2:	c6 05 6e 87 10 00 cf 	movb   $0xcf,0x10876e
  1031d9:	c6 05 6d 87 10 00 9a 	movb   $0x9a,0x10876d
  1031e0:	c6 05 74 87 10 00 00 	movb   $0x0,0x108774
  1031e7:	c6 05 77 87 10 00 00 	movb   $0x0,0x108777
  1031ee:	c6 05 76 87 10 00 cf 	movb   $0xcf,0x108776
  1031f5:	c6 05 75 87 10 00 92 	movb   $0x92,0x108775
  1031fc:	c6 05 7c 87 10 00 00 	movb   $0x0,0x10877c
  103203:	c6 05 7f 87 10 00 00 	movb   $0x0,0x10877f
  10320a:	c6 05 7e 87 10 00 cf 	movb   $0xcf,0x10877e
  103211:	c6 05 7d 87 10 00 fa 	movb   $0xfa,0x10877d
  103218:	c6 05 84 87 10 00 00 	movb   $0x0,0x108784
  10321f:	c6 05 87 87 10 00 00 	movb   $0x0,0x108787
  103226:	c6 05 86 87 10 00 cf 	movb   $0xcf,0x108786
  10322d:	c6 05 85 87 10 00 f2 	movb   $0xf2,0x108785
  103234:	c7 04 24 40 87 10 00 	movl   $0x108740,(%esp)
  10323b:	e8 c0 0e 00 00       	call   104100 <gdt_flush>
  103240:	b8 ff 07 00 00       	mov    $0x7ff,%eax
  103245:	c7 44 24 08 00 08 00 	movl   $0x800,0x8(%esp)
  10324c:	00 
  10324d:	c7 44 24 04 00 00 00 	movl   $0x0,0x4(%esp)
  103254:	00 
  103255:	c7 04 24 40 7f 10 00 	movl   $0x107f40,(%esp)
  10325c:	66 a3 24 7f 10 00    	mov    %ax,0x107f24
  103262:	c7 05 26 7f 10 00 40 	movl   $0x107f40,0x107f26
  103269:	7f 10 00 
  10326c:	e8 bf df ff ff       	call   101230 <_Z6memsetPvij>
  103271:	b8 11 00 00 00       	mov    $0x11,%eax
  103276:	e6 20                	out    %al,$0x20
  103278:	e6 a0                	out    %al,$0xa0
  10327a:	b8 20 00 00 00       	mov    $0x20,%eax
  10327f:	e6 21                	out    %al,$0x21
  103281:	b8 28 00 00 00       	mov    $0x28,%eax
  103286:	e6 a1                	out    %al,$0xa1
  103288:	b8 04 00 00 00       	mov    $0x4,%eax
  10328d:	e6 21                	out    %al,$0x21
  10328f:	b8 02 00 00 00       	mov    $0x2,%eax
  103294:	e6 a1                	out    %al,$0xa1
  103296:	b8 01 00 00 00       	mov    $0x1,%eax
  10329b:	e6 21                	out    %al,$0x21
  10329d:	e6 a1                	out    %al,$0xa1
  10329f:	31 c0                	xor    %eax,%eax
  1032a1:	e6 21                	out    %al,$0x21
  1032a3:	e6 a1                	out    %al,$0xa1
  1032a5:	ba 10 31 10 00       	mov    $0x103110,%edx
  1032aa:	31 c0                	xor    %eax,%eax
  1032ac:	89 d1                	mov    %edx,%ecx
  1032ae:	c1 ea 10             	shr    $0x10,%edx
  1032b1:	8d b4 26 00 00 00 00 	lea    0x0(%esi,%eiz,1),%esi
  1032b8:	66 89 0c c5 40 7f 10 	mov    %cx,0x107f40(,%eax,8)
  1032bf:	00 
  1032c0:	66 89 14 c5 46 7f 10 	mov    %dx,0x107f46(,%eax,8)
  1032c7:	00 
  1032c8:	66 c7 04 c5 42 7f 10 	movw   $0x8,0x107f42(,%eax,8)
  1032cf:	00 08 00 
  1032d2:	c6 04 c5 44 7f 10 00 	movb   $0x0,0x107f44(,%eax,8)
  1032d9:	00 
  1032da:	c6 04 c5 45 7f 10 00 	movb   $0x8e,0x107f45(,%eax,8)
  1032e1:	8e 
  1032e2:	83 c0 01             	add    $0x1,%eax
  1032e5:	3d 00 01 00 00       	cmp    $0x100,%eax
  1032ea:	75 cc                	jne    1032b8 <_Z22init_descriptor_tablesv+0x188>
  1032ec:	b9 08 00 00 00       	mov    $0x8,%ecx
  1032f1:	b8 af 42 10 00       	mov    $0x1042af,%eax
  1032f6:	66 89 0d 42 7f 10 00 	mov    %cx,0x107f42
  1032fd:	b9 b9 42 10 00       	mov    $0x1042b9,%ecx
  103302:	89 c2                	mov    %eax,%edx
  103304:	66 89 0d 48 7f 10 00 	mov    %cx,0x107f48
  10330b:	c1 e9 10             	shr    $0x10,%ecx
  10330e:	66 89 0d 4e 7f 10 00 	mov    %cx,0x107f4e
  103315:	b9 08 00 00 00       	mov    $0x8,%ecx
  10331a:	66 89 0d 4a 7f 10 00 	mov    %cx,0x107f4a
  103321:	b9 c3 42 10 00       	mov    $0x1042c3,%ecx
  103326:	66 89 0d 50 7f 10 00 	mov    %cx,0x107f50
  10332d:	c1 e9 10             	shr    $0x10,%ecx
  103330:	66 89 0d 56 7f 10 00 	mov    %cx,0x107f56
  103337:	b9 08 00 00 00       	mov    $0x8,%ecx
  10333c:	66 89 0d 52 7f 10 00 	mov    %cx,0x107f52
  103343:	b9 cd 42 10 00       	mov    $0x1042cd,%ecx
  103348:	66 89 0d 58 7f 10 00 	mov    %cx,0x107f58
  10334f:	c1 e9 10             	shr    $0x10,%ecx
  103352:	66 89 0d 5e 7f 10 00 	mov    %cx,0x107f5e
  103359:	b9 08 00 00 00       	mov    $0x8,%ecx
  10335e:	66 89 0d 5a 7f 10 00 	mov    %cx,0x107f5a
  103365:	b9 d7 42 10 00       	mov    $0x1042d7,%ecx
  10336a:	66 89 0d 60 7f 10 00 	mov    %cx,0x107f60
  103371:	c1 e9 10             	shr    $0x10,%ecx
  103374:	66 89 0d 66 7f 10 00 	mov    %cx,0x107f66
  10337b:	b9 08 00 00 00       	mov    $0x8,%ecx
  103380:	66 89 0d 62 7f 10 00 	mov    %cx,0x107f62
  103387:	b9 e1 42 10 00       	mov    $0x1042e1,%ecx
  10338c:	66 89 0d 68 7f 10 00 	mov    %cx,0x107f68
  103393:	c1 e9 10             	shr    $0x10,%ecx
  103396:	66 89 0d 6e 7f 10 00 	mov    %cx,0x107f6e
  10339d:	b9 08 00 00 00       	mov    $0x8,%ecx
  1033a2:	66 89 0d 6a 7f 10 00 	mov    %cx,0x107f6a
  1033a9:	b9 eb 42 10 00       	mov    $0x1042eb,%ecx
  1033ae:	66 89 0d 70 7f 10 00 	mov    %cx,0x107f70
  1033b5:	c1 e9 10             	shr    $0x10,%ecx
  1033b8:	c1 ea 10             	shr    $0x10,%edx
  1033bb:	66 89 0d 76 7f 10 00 	mov    %cx,0x107f76
  1033c2:	b9 08 00 00 00       	mov    $0x8,%ecx
  1033c7:	66 a3 40 7f 10 00    	mov    %ax,0x107f40
  1033cd:	66 89 15 46 7f 10 00 	mov    %dx,0x107f46
  1033d4:	66 89 0d 72 7f 10 00 	mov    %cx,0x107f72
  1033db:	b9 f5 42 10 00       	mov    $0x1042f5,%ecx
  1033e0:	c6 05 44 7f 10 00 00 	movb   $0x0,0x107f44
  1033e7:	c6 05 45 7f 10 00 8e 	movb   $0x8e,0x107f45
  1033ee:	c6 05 4c 7f 10 00 00 	movb   $0x0,0x107f4c
  1033f5:	c6 05 4d 7f 10 00 8e 	movb   $0x8e,0x107f4d
  1033fc:	c6 05 54 7f 10 00 00 	movb   $0x0,0x107f54
  103403:	c6 05 55 7f 10 00 8e 	movb   $0x8e,0x107f55
  10340a:	c6 05 5c 7f 10 00 00 	movb   $0x0,0x107f5c
  103411:	c6 05 5d 7f 10 00 8e 	movb   $0x8e,0x107f5d
  103418:	c6 05 64 7f 10 00 00 	movb   $0x0,0x107f64
  10341f:	c6 05 65 7f 10 00 8e 	movb   $0x8e,0x107f65
  103426:	c6 05 6c 7f 10 00 00 	movb   $0x0,0x107f6c
  10342d:	c6 05 6d 7f 10 00 8e 	movb   $0x8e,0x107f6d
  103434:	c6 05 74 7f 10 00 00 	movb   $0x0,0x107f74
  10343b:	66 a3 90 7f 10 00    	mov    %ax,0x107f90
  103441:	b8 08 00 00 00       	mov    $0x8,%eax
  103446:	66 a3 92 7f 10 00    	mov    %ax,0x107f92
  10344c:	b8 19 43 10 00       	mov    $0x104319,%eax
  103451:	66 89 0d 78 7f 10 00 	mov    %cx,0x107f78
  103458:	c1 e9 10             	shr    $0x10,%ecx
  10345b:	66 a3 98 7f 10 00    	mov    %ax,0x107f98
  103461:	c1 e8 10             	shr    $0x10,%eax
  103464:	66 89 0d 7e 7f 10 00 	mov    %cx,0x107f7e
  10346b:	b9 08 00 00 00       	mov    $0x8,%ecx
  103470:	66 a3 9e 7f 10 00    	mov    %ax,0x107f9e
  103476:	b8 08 00 00 00       	mov    $0x8,%eax
  10347b:	66 89 0d 7a 7f 10 00 	mov    %cx,0x107f7a
  103482:	b9 ff 42 10 00       	mov    $0x1042ff,%ecx
  103487:	66 a3 9a 7f 10 00    	mov    %ax,0x107f9a
  10348d:	b8 21 43 10 00       	mov    $0x104321,%eax
  103492:	66 89 0d 80 7f 10 00 	mov    %cx,0x107f80
  103499:	c1 e9 10             	shr    $0x10,%ecx
  10349c:	66 a3 a0 7f 10 00    	mov    %ax,0x107fa0
  1034a2:	c1 e8 10             	shr    $0x10,%eax
  1034a5:	66 89 0d 86 7f 10 00 	mov    %cx,0x107f86
  1034ac:	b9 08 00 00 00       	mov    $0x8,%ecx
  1034b1:	66 a3 a6 7f 10 00    	mov    %ax,0x107fa6
  1034b7:	b8 08 00 00 00       	mov    $0x8,%eax
  1034bc:	66 89 0d 82 7f 10 00 	mov    %cx,0x107f82
  1034c3:	b9 07 43 10 00       	mov    $0x104307,%ecx
  1034c8:	66 a3 a2 7f 10 00    	mov    %ax,0x107fa2
  1034ce:	b8 29 43 10 00       	mov    $0x104329,%eax
  1034d3:	66 89 0d 88 7f 10 00 	mov    %cx,0x107f88
  1034da:	c1 e9 10             	shr    $0x10,%ecx
  1034dd:	66 a3 a8 7f 10 00    	mov    %ax,0x107fa8
  1034e3:	c1 e8 10             	shr    $0x10,%eax
  1034e6:	66 89 0d 8e 7f 10 00 	mov    %cx,0x107f8e
  1034ed:	b9 08 00 00 00       	mov    $0x8,%ecx
  1034f2:	66 a3 ae 7f 10 00    	mov    %ax,0x107fae
  1034f8:	b8 08 00 00 00       	mov    $0x8,%eax
  1034fd:	66 89 0d 8a 7f 10 00 	mov    %cx,0x107f8a
  103504:	b9 08 00 00 00       	mov    $0x8,%ecx
  103509:	66 89 15 96 7f 10 00 	mov    %dx,0x107f96
  103510:	ba 08 00 00 00       	mov    $0x8,%edx
  103515:	c6 05 75 7f 10 00 8e 	movb   $0x8e,0x107f75
  10351c:	c6 05 7c 7f 10 00 00 	movb   $0x0,0x107f7c
  103523:	c6 05 7d 7f 10 00 8e 	movb   $0x8e,0x107f7d
  10352a:	c6 05 84 7f 10 00 00 	movb   $0x0,0x107f84
  103531:	c6 05 85 7f 10 00 8e 	movb   $0x8e,0x107f85
  103538:	c6 05 8c 7f 10 00 00 	movb   $0x0,0x107f8c
  10353f:	c6 05 8d 7f 10 00 8e 	movb   $0x8e,0x107f8d
  103546:	c6 05 94 7f 10 00 00 	movb   $0x0,0x107f94
  10354d:	c6 05 95 7f 10 00 8e 	movb   $0x8e,0x107f95
  103554:	c6 05 9c 7f 10 00 00 	movb   $0x0,0x107f9c
  10355b:	c6 05 9d 7f 10 00 8e 	movb   $0x8e,0x107f9d
  103562:	c6 05 a4 7f 10 00 00 	movb   $0x0,0x107fa4
  103569:	c6 05 a5 7f 10 00 8e 	movb   $0x8e,0x107fa5
  103570:	66 a3 aa 7f 10 00    	mov    %ax,0x107faa
  103576:	b8 31 43 10 00       	mov    $0x104331,%eax
  10357b:	66 a3 b0 7f 10 00    	mov    %ax,0x107fb0
  103581:	c1 e8 10             	shr    $0x10,%eax
  103584:	66 a3 b6 7f 10 00    	mov    %ax,0x107fb6
  10358a:	b8 08 00 00 00       	mov    $0x8,%eax
  10358f:	66 a3 b2 7f 10 00    	mov    %ax,0x107fb2
  103595:	b8 39 43 10 00       	mov    $0x104339,%eax
  10359a:	66 a3 b8 7f 10 00    	mov    %ax,0x107fb8
  1035a0:	c1 e8 10             	shr    $0x10,%eax
  1035a3:	66 a3 be 7f 10 00    	mov    %ax,0x107fbe
  1035a9:	b8 08 00 00 00       	mov    $0x8,%eax
  1035ae:	66 a3 ba 7f 10 00    	mov    %ax,0x107fba
  1035b4:	b8 43 43 10 00       	mov    $0x104343,%eax
  1035b9:	66 a3 c0 7f 10 00    	mov    %ax,0x107fc0
  1035bf:	c1 e8 10             	shr    $0x10,%eax
  1035c2:	66 a3 c6 7f 10 00    	mov    %ax,0x107fc6
  1035c8:	b8 4d 43 10 00       	mov    $0x10434d,%eax
  1035cd:	66 a3 c8 7f 10 00    	mov    %ax,0x107fc8
  1035d3:	c1 e8 10             	shr    $0x10,%eax
  1035d6:	66 a3 ce 7f 10 00    	mov    %ax,0x107fce
  1035dc:	b8 57 43 10 00       	mov    $0x104357,%eax
  1035e1:	66 a3 d0 7f 10 00    	mov    %ax,0x107fd0
  1035e7:	c1 e8 10             	shr    $0x10,%eax
  1035ea:	66 a3 d6 7f 10 00    	mov    %ax,0x107fd6
  1035f0:	b8 08 00 00 00       	mov    $0x8,%eax
  1035f5:	66 a3 d2 7f 10 00    	mov    %ax,0x107fd2
  1035fb:	b8 61 43 10 00       	mov    $0x104361,%eax
  103600:	66 a3 d8 7f 10 00    	mov    %ax,0x107fd8
  103606:	c1 e8 10             	shr    $0x10,%eax
  103609:	66 a3 de 7f 10 00    	mov    %ax,0x107fde
  10360f:	b8 08 00 00 00       	mov    $0x8,%eax
  103614:	66 a3 da 7f 10 00    	mov    %ax,0x107fda
  10361a:	b8 6b 43 10 00       	mov    $0x10436b,%eax
  10361f:	66 a3 e0 7f 10 00    	mov    %ax,0x107fe0
  103625:	c1 e8 10             	shr    $0x10,%eax
  103628:	66 89 15 c2 7f 10 00 	mov    %dx,0x107fc2
  10362f:	ba 08 00 00 00       	mov    $0x8,%edx
  103634:	66 89 0d ca 7f 10 00 	mov    %cx,0x107fca
  10363b:	b9 08 00 00 00       	mov    $0x8,%ecx
  103640:	c6 05 ac 7f 10 00 00 	movb   $0x0,0x107fac
  103647:	c6 05 ad 7f 10 00 8e 	movb   $0x8e,0x107fad
  10364e:	c6 05 b4 7f 10 00 00 	movb   $0x0,0x107fb4
  103655:	c6 05 b5 7f 10 00 8e 	movb   $0x8e,0x107fb5
  10365c:	c6 05 bc 7f 10 00 00 	movb   $0x0,0x107fbc
  103663:	c6 05 bd 7f 10 00 8e 	movb   $0x8e,0x107fbd
  10366a:	c6 05 c4 7f 10 00 00 	movb   $0x0,0x107fc4
  103671:	c6 05 c5 7f 10 00 8e 	movb   $0x8e,0x107fc5
  103678:	c6 05 cc 7f 10 00 00 	movb   $0x0,0x107fcc
  10367f:	c6 05 cd 7f 10 00 8e 	movb   $0x8e,0x107fcd
  103686:	c6 05 d4 7f 10 00 00 	movb   $0x0,0x107fd4
  10368d:	c6 05 d5 7f 10 00 8e 	movb   $0x8e,0x107fd5
  103694:	c6 05 dc 7f 10 00 00 	movb   $0x0,0x107fdc
  10369b:	c6 05 dd 7f 10 00 8e 	movb   $0x8e,0x107fdd
  1036a2:	66 a3 e6 7f 10 00    	mov    %ax,0x107fe6
  1036a8:	b8 08 00 00 00       	mov    $0x8,%eax
  1036ad:	66 a3 e2 7f 10 00    	mov    %ax,0x107fe2
  1036b3:	b8 75 43 10 00       	mov    $0x104375,%eax
  1036b8:	66 a3 e8 7f 10 00    	mov    %ax,0x107fe8
  1036be:	c1 e8 10             	shr    $0x10,%eax
  1036c1:	66 a3 ee 7f 10 00    	mov    %ax,0x107fee
  1036c7:	b8 08 00 00 00       	mov    $0x8,%eax
  1036cc:	66 a3 ea 7f 10 00    	mov    %ax,0x107fea
  1036d2:	b8 7f 43 10 00       	mov    $0x10437f,%eax
  1036d7:	66 a3 f0 7f 10 00    	mov    %ax,0x107ff0
  1036dd:	c1 e8 10             	shr    $0x10,%eax
  1036e0:	66 a3 f6 7f 10 00    	mov    %ax,0x107ff6
  1036e6:	b8 08 00 00 00       	mov    $0x8,%eax
  1036eb:	66 a3 f2 7f 10 00    	mov    %ax,0x107ff2
  1036f1:	b8 89 43 10 00       	mov    $0x104389,%eax
  1036f6:	66 a3 f8 7f 10 00    	mov    %ax,0x107ff8
  1036fc:	c1 e8 10             	shr    $0x10,%eax
  1036ff:	66 a3 fe 7f 10 00    	mov    %ax,0x107ffe
  103705:	b8 08 00 00 00       	mov    $0x8,%eax
  10370a:	66 a3 fa 7f 10 00    	mov    %ax,0x107ffa
  103710:	b8 93 43 10 00       	mov    $0x104393,%eax
  103715:	66 a3 00 80 10 00    	mov    %ax,0x108000
  10371b:	c1 e8 10             	shr    $0x10,%eax
  10371e:	66 a3 06 80 10 00    	mov    %ax,0x108006
  103724:	b8 9d 43 10 00       	mov    $0x10439d,%eax
  103729:	66 a3 08 80 10 00    	mov    %ax,0x108008
  10372f:	c1 e8 10             	shr    $0x10,%eax
  103732:	66 a3 0e 80 10 00    	mov    %ax,0x10800e
  103738:	b8 a7 43 10 00       	mov    $0x1043a7,%eax
  10373d:	66 a3 10 80 10 00    	mov    %ax,0x108010
  103743:	c1 e8 10             	shr    $0x10,%eax
  103746:	66 a3 16 80 10 00    	mov    %ax,0x108016
  10374c:	b8 08 00 00 00       	mov    $0x8,%eax
  103751:	66 a3 12 80 10 00    	mov    %ax,0x108012
  103757:	b8 b1 43 10 00       	mov    $0x1043b1,%eax
  10375c:	66 89 15 02 80 10 00 	mov    %dx,0x108002
  103763:	ba 08 00 00 00       	mov    $0x8,%edx
  103768:	66 89 0d 0a 80 10 00 	mov    %cx,0x10800a
  10376f:	b9 08 00 00 00       	mov    $0x8,%ecx
  103774:	c6 05 e4 7f 10 00 00 	movb   $0x0,0x107fe4
  10377b:	c6 05 e5 7f 10 00 8e 	movb   $0x8e,0x107fe5
  103782:	c6 05 ec 7f 10 00 00 	movb   $0x0,0x107fec
  103789:	c6 05 ed 7f 10 00 8e 	movb   $0x8e,0x107fed
  103790:	c6 05 f4 7f 10 00 00 	movb   $0x0,0x107ff4
  103797:	c6 05 f5 7f 10 00 8e 	movb   $0x8e,0x107ff5
  10379e:	c6 05 fc 7f 10 00 00 	movb   $0x0,0x107ffc
  1037a5:	c6 05 fd 7f 10 00 8e 	movb   $0x8e,0x107ffd
  1037ac:	c6 05 04 80 10 00 00 	movb   $0x0,0x108004
  1037b3:	c6 05 05 80 10 00 8e 	movb   $0x8e,0x108005
  1037ba:	c6 05 0c 80 10 00 00 	movb   $0x0,0x10800c
  1037c1:	c6 05 0d 80 10 00 8e 	movb   $0x8e,0x10800d
  1037c8:	c6 05 14 80 10 00 00 	movb   $0x0,0x108014
  1037cf:	c6 05 15 80 10 00 8e 	movb   $0x8e,0x108015
  1037d6:	66 a3 18 80 10 00    	mov    %ax,0x108018
  1037dc:	c1 e8 10             	shr    $0x10,%eax
  1037df:	66 a3 1e 80 10 00    	mov    %ax,0x10801e
  1037e5:	b8 08 00 00 00       	mov    $0x8,%eax
  1037ea:	66 a3 1a 80 10 00    	mov    %ax,0x10801a
  1037f0:	b8 bb 43 10 00       	mov    $0x1043bb,%eax
  1037f5:	66 a3 20 80 10 00    	mov    %ax,0x108020
  1037fb:	c1 e8 10             	shr    $0x10,%eax
  1037fe:	66 a3 26 80 10 00    	mov    %ax,0x108026
  103804:	b8 08 00 00 00       	mov    $0x8,%eax
  103809:	66 a3 22 80 10 00    	mov    %ax,0x108022
  10380f:	b8 c5 43 10 00       	mov    $0x1043c5,%eax
  103814:	66 a3 28 80 10 00    	mov    %ax,0x108028
  10381a:	c1 e8 10             	shr    $0x10,%eax
  10381d:	66 a3 2e 80 10 00    	mov    %ax,0x10802e
  103823:	b8 08 00 00 00       	mov    $0x8,%eax
  103828:	66 a3 2a 80 10 00    	mov    %ax,0x10802a
  10382e:	b8 cc 43 10 00       	mov    $0x1043cc,%eax
  103833:	66 a3 30 80 10 00    	mov    %ax,0x108030
  103839:	c1 e8 10             	shr    $0x10,%eax
  10383c:	66 a3 36 80 10 00    	mov    %ax,0x108036
  103842:	b8 08 00 00 00       	mov    $0x8,%eax
  103847:	66 a3 32 80 10 00    	mov    %ax,0x108032
  10384d:	b8 d3 43 10 00       	mov    $0x1043d3,%eax
  103852:	66 a3 38 80 10 00    	mov    %ax,0x108038
  103858:	c1 e8 10             	shr    $0x10,%eax
  10385b:	66 a3 3e 80 10 00    	mov    %ax,0x10803e
  103861:	b8 08 00 00 00       	mov    $0x8,%eax
  103866:	66 a3 3a 80 10 00    	mov    %ax,0x10803a
  10386c:	b8 da 43 10 00       	mov    $0x1043da,%eax
  103871:	66 a3 40 80 10 00    	mov    %ax,0x108040
  103877:	c1 e8 10             	shr    $0x10,%eax
  10387a:	66 a3 46 80 10 00    	mov    %ax,0x108046
  103880:	b8 e1 43 10 00       	mov    $0x1043e1,%eax
  103885:	66 a3 48 80 10 00    	mov    %ax,0x108048
  10388b:	c1 e8 10             	shr    $0x10,%eax
  10388e:	66 a3 4e 80 10 00    	mov    %ax,0x10804e
  103894:	b8 e8 43 10 00       	mov    $0x1043e8,%eax
  103899:	66 89 15 42 80 10 00 	mov    %dx,0x108042
  1038a0:	ba 08 00 00 00       	mov    $0x8,%edx
  1038a5:	66 89 0d 4a 80 10 00 	mov    %cx,0x10804a
  1038ac:	b9 08 00 00 00       	mov    $0x8,%ecx
  1038b1:	c6 05 1c 80 10 00 00 	movb   $0x0,0x10801c
  1038b8:	c6 05 1d 80 10 00 8e 	movb   $0x8e,0x10801d
  1038bf:	c6 05 24 80 10 00 00 	movb   $0x0,0x108024
  1038c6:	c6 05 25 80 10 00 8e 	movb   $0x8e,0x108025
  1038cd:	c6 05 2c 80 10 00 00 	movb   $0x0,0x10802c
  1038d4:	c6 05 2d 80 10 00 8e 	movb   $0x8e,0x10802d
  1038db:	c6 05 34 80 10 00 00 	movb   $0x0,0x108034
  1038e2:	c6 05 35 80 10 00 8e 	movb   $0x8e,0x108035
  1038e9:	c6 05 3c 80 10 00 00 	movb   $0x0,0x10803c
  1038f0:	c6 05 3d 80 10 00 8e 	movb   $0x8e,0x10803d
  1038f7:	c6 05 44 80 10 00 00 	movb   $0x0,0x108044
  1038fe:	c6 05 45 80 10 00 8e 	movb   $0x8e,0x108045
  103905:	c6 05 4c 80 10 00 00 	movb   $0x0,0x10804c
  10390c:	c6 05 4d 80 10 00 8e 	movb   $0x8e,0x10804d
  103913:	66 a3 50 80 10 00    	mov    %ax,0x108050
  103919:	c1 e8 10             	shr    $0x10,%eax
  10391c:	66 a3 56 80 10 00    	mov    %ax,0x108056
  103922:	b8 08 00 00 00       	mov    $0x8,%eax
  103927:	66 a3 52 80 10 00    	mov    %ax,0x108052
  10392d:	b8 ef 43 10 00       	mov    $0x1043ef,%eax
  103932:	66 a3 58 80 10 00    	mov    %ax,0x108058
  103938:	c1 e8 10             	shr    $0x10,%eax
  10393b:	66 a3 5e 80 10 00    	mov    %ax,0x10805e
  103941:	b8 08 00 00 00       	mov    $0x8,%eax
  103946:	66 a3 5a 80 10 00    	mov    %ax,0x10805a
  10394c:	b8 f6 43 10 00       	mov    $0x1043f6,%eax
  103951:	66 a3 60 80 10 00    	mov    %ax,0x108060
  103957:	c1 e8 10             	shr    $0x10,%eax
  10395a:	66 a3 66 80 10 00    	mov    %ax,0x108066
  103960:	b8 08 00 00 00       	mov    $0x8,%eax
  103965:	66 a3 62 80 10 00    	mov    %ax,0x108062
  10396b:	b8 fd 43 10 00       	mov    $0x1043fd,%eax
  103970:	66 a3 68 80 10 00    	mov    %ax,0x108068
  103976:	c1 e8 10             	shr    $0x10,%eax
  103979:	66 a3 6e 80 10 00    	mov    %ax,0x10806e
  10397f:	b8 08 00 00 00       	mov    $0x8,%eax
  103984:	66 a3 6a 80 10 00    	mov    %ax,0x10806a
  10398a:	b8 04 44 10 00       	mov    $0x104404,%eax
  10398f:	66 a3 70 80 10 00    	mov    %ax,0x108070
  103995:	c1 e8 10             	shr    $0x10,%eax
  103998:	66 a3 76 80 10 00    	mov    %ax,0x108076
  10399e:	b8 08 00 00 00       	mov    $0x8,%eax
  1039a3:	66 a3 72 80 10 00    	mov    %ax,0x108072
  1039a9:	b8 0b 44 10 00       	mov    $0x10440b,%eax
  1039ae:	66 a3 78 80 10 00    	mov    %ax,0x108078
  1039b4:	c1 e8 10             	shr    $0x10,%eax
  1039b7:	66 a3 7e 80 10 00    	mov    %ax,0x10807e
  1039bd:	b8 08 00 00 00       	mov    $0x8,%eax
  1039c2:	66 a3 7a 80 10 00    	mov    %ax,0x10807a
  1039c8:	b8 12 44 10 00       	mov    $0x104412,%eax
  1039cd:	66 a3 80 80 10 00    	mov    %ax,0x108080
  1039d3:	c1 e8 10             	shr    $0x10,%eax
  1039d6:	66 a3 86 80 10 00    	mov    %ax,0x108086
  1039dc:	b8 19 44 10 00       	mov    $0x104419,%eax
  1039e1:	66 89 15 82 80 10 00 	mov    %dx,0x108082
  1039e8:	c6 05 54 80 10 00 00 	movb   $0x0,0x108054
  1039ef:	c6 05 55 80 10 00 8e 	movb   $0x8e,0x108055
  1039f6:	c6 05 5c 80 10 00 00 	movb   $0x0,0x10805c
  1039fd:	c6 05 5d 80 10 00 8e 	movb   $0x8e,0x10805d
  103a04:	c6 05 64 80 10 00 00 	movb   $0x0,0x108064
  103a0b:	c6 05 65 80 10 00 8e 	movb   $0x8e,0x108065
  103a12:	c6 05 6c 80 10 00 00 	movb   $0x0,0x10806c
  103a19:	c6 05 6d 80 10 00 8e 	movb   $0x8e,0x10806d
  103a20:	c6 05 74 80 10 00 00 	movb   $0x0,0x108074
  103a27:	c6 05 75 80 10 00 8e 	movb   $0x8e,0x108075
  103a2e:	c6 05 7c 80 10 00 00 	movb   $0x0,0x10807c
  103a35:	c6 05 7d 80 10 00 8e 	movb   $0x8e,0x10807d
  103a3c:	c6 05 84 80 10 00 00 	movb   $0x0,0x108084
  103a43:	66 a3 88 80 10 00    	mov    %ax,0x108088
  103a49:	c1 e8 10             	shr    $0x10,%eax
  103a4c:	66 a3 8e 80 10 00    	mov    %ax,0x10808e
  103a52:	b8 20 44 10 00       	mov    $0x104420,%eax
  103a57:	66 a3 90 80 10 00    	mov    %ax,0x108090
  103a5d:	c1 e8 10             	shr    $0x10,%eax
  103a60:	66 a3 96 80 10 00    	mov    %ax,0x108096
  103a66:	b8 08 00 00 00       	mov    $0x8,%eax
  103a6b:	66 a3 92 80 10 00    	mov    %ax,0x108092
  103a71:	b8 27 44 10 00       	mov    $0x104427,%eax
  103a76:	66 a3 98 80 10 00    	mov    %ax,0x108098
  103a7c:	c1 e8 10             	shr    $0x10,%eax
  103a7f:	66 a3 9e 80 10 00    	mov    %ax,0x10809e
  103a85:	b8 08 00 00 00       	mov    $0x8,%eax
  103a8a:	66 a3 9a 80 10 00    	mov    %ax,0x10809a
  103a90:	b8 2e 44 10 00       	mov    $0x10442e,%eax
  103a95:	66 a3 a0 80 10 00    	mov    %ax,0x1080a0
  103a9b:	c1 e8 10             	shr    $0x10,%eax
  103a9e:	66 a3 a6 80 10 00    	mov    %ax,0x1080a6
  103aa4:	b8 08 00 00 00       	mov    $0x8,%eax
  103aa9:	66 a3 a2 80 10 00    	mov    %ax,0x1080a2
  103aaf:	b8 35 44 10 00       	mov    $0x104435,%eax
  103ab4:	66 a3 a8 80 10 00    	mov    %ax,0x1080a8
  103aba:	c1 e8 10             	shr    $0x10,%eax
  103abd:	66 a3 ae 80 10 00    	mov    %ax,0x1080ae
  103ac3:	b8 08 00 00 00       	mov    $0x8,%eax
  103ac8:	66 a3 aa 80 10 00    	mov    %ax,0x1080aa
  103ace:	b8 3c 44 10 00       	mov    $0x10443c,%eax
  103ad3:	66 a3 b0 80 10 00    	mov    %ax,0x1080b0
  103ad9:	c1 e8 10             	shr    $0x10,%eax
  103adc:	66 a3 b6 80 10 00    	mov    %ax,0x1080b6
  103ae2:	b8 08 00 00 00       	mov    $0x8,%eax
  103ae7:	66 a3 b2 80 10 00    	mov    %ax,0x1080b2
  103aed:	b8 43 44 10 00       	mov    $0x104443,%eax
  103af2:	66 a3 b8 80 10 00    	mov    %ax,0x1080b8
  103af8:	c1 e8 10             	shr    $0x10,%eax
  103afb:	66 a3 be 80 10 00    	mov    %ax,0x1080be
  103b01:	b8 08 00 00 00       	mov    $0x8,%eax
  103b06:	66 89 0d 8a 80 10 00 	mov    %cx,0x10808a
  103b0d:	c6 05 85 80 10 00 8e 	movb   $0x8e,0x108085
  103b14:	c6 05 8c 80 10 00 00 	movb   $0x0,0x10808c
  103b1b:	c6 05 8d 80 10 00 8e 	movb   $0x8e,0x10808d
  103b22:	c6 05 94 80 10 00 00 	movb   $0x0,0x108094
  103b29:	c6 05 95 80 10 00 8e 	movb   $0x8e,0x108095
  103b30:	c6 05 9c 80 10 00 00 	movb   $0x0,0x10809c
  103b37:	c6 05 9d 80 10 00 8e 	movb   $0x8e,0x10809d
  103b3e:	c6 05 a4 80 10 00 00 	movb   $0x0,0x1080a4
  103b45:	c6 05 a5 80 10 00 8e 	movb   $0x8e,0x1080a5
  103b4c:	c6 05 ac 80 10 00 00 	movb   $0x0,0x1080ac
  103b53:	c6 05 ad 80 10 00 8e 	movb   $0x8e,0x1080ad
  103b5a:	c6 05 b4 80 10 00 00 	movb   $0x0,0x1080b4
  103b61:	c6 05 b5 80 10 00 8e 	movb   $0x8e,0x1080b5
  103b68:	66 a3 ba 80 10 00    	mov    %ax,0x1080ba
  103b6e:	c7 04 24 24 7f 10 00 	movl   $0x107f24,(%esp)
  103b75:	c6 05 bc 80 10 00 00 	movb   $0x0,0x1080bc
  103b7c:	c6 05 bd 80 10 00 8e 	movb   $0x8e,0x1080bd
  103b83:	e8 95 05 00 00       	call   10411d <idt_flush>
  103b88:	c7 04 24 48 4f 10 00 	movl   $0x104f48,(%esp)
  103b8f:	e8 bc c9 ff ff       	call   100550 <debug_print>
  103b94:	c7 44 24 04 28 00 00 	movl   $0x28,0x4(%esp)
  103b9b:	00 
  103b9c:	c7 04 24 60 87 10 00 	movl   $0x108760,(%esp)
  103ba3:	e8 e8 c9 ff ff       	call   100590 <debug_print_dump>
  103ba8:	c7 44 24 04 02 00 00 	movl   $0x2,0x4(%esp)
  103baf:	00 
  103bb0:	c7 04 24 69 46 10 00 	movl   $0x104669,(%esp)
  103bb7:	e8 a4 c7 ff ff       	call   100360 <debug_write>
  103bbc:	c7 04 24 68 4f 10 00 	movl   $0x104f68,(%esp)
  103bc3:	e8 88 c9 ff ff       	call   100550 <debug_print>
  103bc8:	c7 44 24 04 20 00 00 	movl   $0x20,0x4(%esp)
  103bcf:	00 
  103bd0:	c7 04 24 40 7f 10 00 	movl   $0x107f40,(%esp)
  103bd7:	e8 b4 c9 ff ff       	call   100590 <debug_print_dump>
  103bdc:	c7 44 24 04 02 00 00 	movl   $0x2,0x4(%esp)
  103be3:	00 
  103be4:	c7 04 24 69 46 10 00 	movl   $0x104669,(%esp)
  103beb:	e8 70 c7 ff ff       	call   100360 <debug_write>
  103bf0:	83 c4 1c             	add    $0x1c,%esp
  103bf3:	c3                   	ret    
  103bf4:	66 90                	xchg   %ax,%ax
  103bf6:	66 90                	xchg   %ax,%ax
  103bf8:	66 90                	xchg   %ax,%ax
  103bfa:	66 90                	xchg   %ax,%ax
  103bfc:	66 90                	xchg   %ax,%ax
  103bfe:	66 90                	xchg   %ax,%ax

00103c00 <_Z10init_timerj>:
  103c00:	31 d2                	xor    %edx,%edx
  103c02:	b8 dc 34 12 00       	mov    $0x1234dc,%eax
  103c07:	f7 74 24 04          	divl   0x4(%esp)
  103c0b:	89 c1                	mov    %eax,%ecx
  103c0d:	b8 36 00 00 00       	mov    $0x36,%eax
  103c12:	e6 43                	out    %al,$0x43
  103c14:	0f b6 c1             	movzbl %cl,%eax
  103c17:	e6 40                	out    %al,$0x40
  103c19:	0f b6 c5             	movzbl %ch,%eax
  103c1c:	e6 40                	out    %al,$0x40
  103c1e:	c3                   	ret    
  103c1f:	90                   	nop

00103c20 <_Z10scan2asciic>:
  103c20:	53                   	push   %ebx
  103c21:	8b 44 24 08          	mov    0x8(%esp),%eax
  103c25:	31 db                	xor    %ebx,%ebx
  103c27:	84 c0                	test   %al,%al
  103c29:	89 c2                	mov    %eax,%edx
  103c2b:	0f 88 c7 00 00 00    	js     103cf8 <_Z10scan2asciic+0xd8>
  103c31:	0f be c2             	movsbl %dl,%eax
  103c34:	83 f8 57             	cmp    $0x57,%eax
  103c37:	0f 87 1b 01 00 00    	ja     103d58 <_Z10scan2asciic+0x138>
  103c3d:	8b 0d 88 87 10 00    	mov    0x108788,%ecx
  103c43:	f6 c1 03             	test   $0x3,%cl
  103c46:	75 50                	jne    103c98 <_Z10scan2asciic+0x78>
  103c48:	0f b7 94 00 60 50 10 	movzwl 0x105060(%eax,%eax,1),%edx
  103c4f:	00 
  103c50:	81 fa 81 03 00 00    	cmp    $0x381,%edx
  103c56:	77 50                	ja     103ca8 <_Z10scan2asciic+0x88>
  103c58:	81 fa 80 03 00 00    	cmp    $0x380,%edx
  103c5e:	73 6c                	jae    103ccc <_Z10scan2asciic+0xac>
  103c60:	81 fa 0f 01 00 00    	cmp    $0x10f,%edx
  103c66:	0f 84 cc 00 00 00    	je     103d38 <_Z10scan2asciic+0x118>
  103c6c:	76 62                	jbe    103cd0 <_Z10scan2asciic+0xb0>
  103c6e:	81 fa 11 01 00 00    	cmp    $0x111,%edx
  103c74:	0f 84 b6 00 00 00    	je     103d30 <_Z10scan2asciic+0x110>
  103c7a:	0f 82 a8 00 00 00    	jb     103d28 <_Z10scan2asciic+0x108>
  103c80:	81 fa 12 01 00 00    	cmp    $0x112,%edx
  103c86:	b8 20 00 00 00       	mov    $0x20,%eax
  103c8b:	74 58                	je     103ce5 <_Z10scan2asciic+0xc5>
  103c8d:	31 c0                	xor    %eax,%eax
  103c8f:	85 db                	test   %ebx,%ebx
  103c91:	0f 44 c2             	cmove  %edx,%eax
  103c94:	5b                   	pop    %ebx
  103c95:	c3                   	ret    
  103c96:	66 90                	xchg   %ax,%ax
  103c98:	0f b7 94 00 a0 4f 10 	movzwl 0x104fa0(%eax,%eax,1),%edx
  103c9f:	00 
  103ca0:	81 fa 81 03 00 00    	cmp    $0x381,%edx
  103ca6:	76 b0                	jbe    103c58 <_Z10scan2asciic+0x38>
  103ca8:	81 fa 89 03 00 00    	cmp    $0x389,%edx
  103cae:	0f 87 8c 00 00 00    	ja     103d40 <_Z10scan2asciic+0x120>
  103cb4:	81 fa 88 03 00 00    	cmp    $0x388,%edx
  103cba:	73 10                	jae    103ccc <_Z10scan2asciic+0xac>
  103cbc:	81 fa 84 03 00 00    	cmp    $0x384,%edx
  103cc2:	74 08                	je     103ccc <_Z10scan2asciic+0xac>
  103cc4:	81 fa 86 03 00 00    	cmp    $0x386,%edx
  103cca:	75 c1                	jne    103c8d <_Z10scan2asciic+0x6d>
  103ccc:	31 c0                	xor    %eax,%eax
  103cce:	5b                   	pop    %ebx
  103ccf:	c3                   	ret    
  103cd0:	81 fa 0d 01 00 00    	cmp    $0x10d,%edx
  103cd6:	74 30                	je     103d08 <_Z10scan2asciic+0xe8>
  103cd8:	81 fa 0e 01 00 00    	cmp    $0x10e,%edx
  103cde:	b8 08 00 00 00       	mov    $0x8,%eax
  103ce3:	75 a8                	jne    103c8d <_Z10scan2asciic+0x6d>
  103ce5:	85 db                	test   %ebx,%ebx
  103ce7:	74 2f                	je     103d18 <_Z10scan2asciic+0xf8>
  103ce9:	f7 d0                	not    %eax
  103ceb:	21 c8                	and    %ecx,%eax
  103ced:	a3 88 87 10 00       	mov    %eax,0x108788
  103cf2:	31 c0                	xor    %eax,%eax
  103cf4:	5b                   	pop    %ebx
  103cf5:	c3                   	ret    
  103cf6:	66 90                	xchg   %ax,%ax
  103cf8:	83 e2 7f             	and    $0x7f,%edx
  103cfb:	b3 01                	mov    $0x1,%bl
  103cfd:	e9 2f ff ff ff       	jmp    103c31 <_Z10scan2asciic+0x11>
  103d02:	8d b6 00 00 00 00    	lea    0x0(%esi),%esi
  103d08:	85 db                	test   %ebx,%ebx
  103d0a:	b8 04 00 00 00       	mov    $0x4,%eax
  103d0f:	75 d8                	jne    103ce9 <_Z10scan2asciic+0xc9>
  103d11:	8d b4 26 00 00 00 00 	lea    0x0(%esi,%eiz,1),%esi
  103d18:	09 c1                	or     %eax,%ecx
  103d1a:	31 c0                	xor    %eax,%eax
  103d1c:	89 0d 88 87 10 00    	mov    %ecx,0x108788
  103d22:	5b                   	pop    %ebx
  103d23:	c3                   	ret    
  103d24:	8d 74 26 00          	lea    0x0(%esi,%eiz,1),%esi
  103d28:	b8 02 00 00 00       	mov    $0x2,%eax
  103d2d:	eb b6                	jmp    103ce5 <_Z10scan2asciic+0xc5>
  103d2f:	90                   	nop
  103d30:	b8 10 00 00 00       	mov    $0x10,%eax
  103d35:	eb ae                	jmp    103ce5 <_Z10scan2asciic+0xc5>
  103d37:	90                   	nop
  103d38:	b8 01 00 00 00       	mov    $0x1,%eax
  103d3d:	eb a6                	jmp    103ce5 <_Z10scan2asciic+0xc5>
  103d3f:	90                   	nop
  103d40:	81 fa 8c 03 00 00    	cmp    $0x38c,%edx
  103d46:	0f 85 41 ff ff ff    	jne    103c8d <_Z10scan2asciic+0x6d>
  103d4c:	e9 7b ff ff ff       	jmp    103ccc <_Z10scan2asciic+0xac>
  103d51:	8d b4 26 00 00 00 00 	lea    0x0(%esi,%eiz,1),%esi
  103d58:	b8 ff ff ff ff       	mov    $0xffffffff,%eax
  103d5d:	5b                   	pop    %ebx
  103d5e:	c3                   	ret    
  103d5f:	90                   	nop

00103d60 <_Z12ReadConfig32jjjjPj>:
  103d60:	0f b6 44 24 10       	movzbl 0x10(%esp),%eax
  103d65:	0f b6 4c 24 0c       	movzbl 0xc(%esp),%ecx
  103d6a:	0f b6 54 24 08       	movzbl 0x8(%esp),%edx
  103d6f:	83 e0 3f             	and    $0x3f,%eax
  103d72:	c1 e0 02             	shl    $0x2,%eax
  103d75:	83 e1 07             	and    $0x7,%ecx
  103d78:	c1 e1 08             	shl    $0x8,%ecx
  103d7b:	0d 00 00 00 80       	or     $0x80000000,%eax
  103d80:	09 c8                	or     %ecx,%eax
  103d82:	0f b6 4c 24 04       	movzbl 0x4(%esp),%ecx
  103d87:	83 e2 1f             	and    $0x1f,%edx
  103d8a:	c1 e2 0b             	shl    $0xb,%edx
  103d8d:	09 d0                	or     %edx,%eax
  103d8f:	ba f8 0c 00 00       	mov    $0xcf8,%edx
  103d94:	c1 e1 10             	shl    $0x10,%ecx
  103d97:	09 c8                	or     %ecx,%eax
  103d99:	ef                   	out    %eax,(%dx)
  103d9a:	b2 fc                	mov    $0xfc,%dl
  103d9c:	ed                   	in     (%dx),%eax
  103d9d:	8b 4c 24 14          	mov    0x14(%esp),%ecx
  103da1:	89 01                	mov    %eax,(%ecx)
  103da3:	c3                   	ret    
  103da4:	8d b6 00 00 00 00    	lea    0x0(%esi),%esi
  103daa:	8d bf 00 00 00 00    	lea    0x0(%edi),%edi

00103db0 <_Z18GetPCIDevClassNamej>:
  103db0:	8b 4c 24 04          	mov    0x4(%esp),%ecx
  103db4:	39 0d e0 6b 10 00    	cmp    %ecx,0x106be0
  103dba:	74 1e                	je     103dda <_Z18GetPCIDevClassNamej+0x2a>
  103dbc:	ba 04 6c 10 00       	mov    $0x106c04,%edx
  103dc1:	b8 01 00 00 00       	mov    $0x1,%eax
  103dc6:	66 90                	xchg   %ax,%ax
  103dc8:	39 0a                	cmp    %ecx,(%edx)
  103dca:	74 14                	je     103de0 <_Z18GetPCIDevClassNamej+0x30>
  103dcc:	83 c0 01             	add    $0x1,%eax
  103dcf:	83 c2 24             	add    $0x24,%edx
  103dd2:	83 f8 13             	cmp    $0x13,%eax
  103dd5:	75 f1                	jne    103dc8 <_Z18GetPCIDevClassNamej+0x18>
  103dd7:	30 c0                	xor    %al,%al
  103dd9:	c3                   	ret    
  103dda:	31 c0                	xor    %eax,%eax
  103ddc:	8d 74 26 00          	lea    0x0(%esi,%eiz,1),%esi
  103de0:	8d 04 c0             	lea    (%eax,%eax,8),%eax
  103de3:	8d 04 85 e4 6b 10 00 	lea    0x106be4(,%eax,4),%eax
  103dea:	c3                   	ret    
  103deb:	90                   	nop
  103dec:	8d 74 26 00          	lea    0x0(%esi,%eiz,1),%esi

00103df0 <_Z16ReadPCIDevHeaderjjjP12PCIDevHeader>:
  103df0:	55                   	push   %ebp
  103df1:	57                   	push   %edi
  103df2:	56                   	push   %esi
  103df3:	53                   	push   %ebx
  103df4:	83 ec 02             	sub    $0x2,%esp
  103df7:	8b 44 24 22          	mov    0x22(%esp),%eax
  103dfb:	85 c0                	test   %eax,%eax
  103dfd:	0f 84 7d 00 00 00    	je     103e80 <_Z16ReadPCIDevHeaderjjjP12PCIDevHeader+0x90>
  103e03:	8b 6c 24 1e          	mov    0x1e(%esp),%ebp
  103e07:	31 c9                	xor    %ecx,%ecx
  103e09:	8b 7c 24 1a          	mov    0x1a(%esp),%edi
  103e0d:	0f b6 74 24 16       	movzbl 0x16(%esp),%esi
  103e12:	8b 5c 24 22          	mov    0x22(%esp),%ebx
  103e16:	83 e5 07             	and    $0x7,%ebp
  103e19:	83 e7 1f             	and    $0x1f,%edi
  103e1c:	c1 e5 08             	shl    $0x8,%ebp
  103e1f:	c1 e7 0b             	shl    $0xb,%edi
  103e22:	c1 e6 10             	shl    $0x10,%esi
  103e25:	89 c8                	mov    %ecx,%eax
  103e27:	ba f8 0c 00 00       	mov    $0xcf8,%edx
  103e2c:	83 e0 3f             	and    $0x3f,%eax
  103e2f:	c1 e0 02             	shl    $0x2,%eax
  103e32:	0d 00 00 00 80       	or     $0x80000000,%eax
  103e37:	09 e8                	or     %ebp,%eax
  103e39:	09 f8                	or     %edi,%eax
  103e3b:	09 f0                	or     %esi,%eax
  103e3d:	ef                   	out    %eax,(%dx)
  103e3e:	b2 fc                	mov    $0xfc,%dl
  103e40:	ed                   	in     (%dx),%eax
  103e41:	83 c1 01             	add    $0x1,%ecx
  103e44:	83 c3 04             	add    $0x4,%ebx
  103e47:	83 e1 3f             	and    $0x3f,%ecx
  103e4a:	89 43 fc             	mov    %eax,-0x4(%ebx)
  103e4d:	80 f9 04             	cmp    $0x4,%cl
  103e50:	75 d3                	jne    103e25 <_Z16ReadPCIDevHeaderjjjP12PCIDevHeader+0x35>
  103e52:	8b 44 24 22          	mov    0x22(%esp),%eax
  103e56:	0f b7 00             	movzwl (%eax),%eax
  103e59:	66 89 04 24          	mov    %ax,(%esp)
  103e5d:	83 e8 01             	sub    $0x1,%eax
  103e60:	66 83 f8 fd          	cmp    $0xfffd,%ax
  103e64:	77 1a                	ja     103e80 <_Z16ReadPCIDevHeaderjjjP12PCIDevHeader+0x90>
  103e66:	8b 44 24 22          	mov    0x22(%esp),%eax
  103e6a:	66 83 78 02 ff       	cmpw   $0xffff,0x2(%eax)
  103e6f:	0f 94 c0             	sete   %al
  103e72:	83 c4 02             	add    $0x2,%esp
  103e75:	5b                   	pop    %ebx
  103e76:	0f b6 c0             	movzbl %al,%eax
  103e79:	5e                   	pop    %esi
  103e7a:	5f                   	pop    %edi
  103e7b:	5d                   	pop    %ebp
  103e7c:	c3                   	ret    
  103e7d:	8d 76 00             	lea    0x0(%esi),%esi
  103e80:	83 c4 02             	add    $0x2,%esp
  103e83:	b8 01 00 00 00       	mov    $0x1,%eax
  103e88:	5b                   	pop    %ebx
  103e89:	5e                   	pop    %esi
  103e8a:	5f                   	pop    %edi
  103e8b:	5d                   	pop    %ebp
  103e8c:	c3                   	ret    
  103e8d:	8d 76 00             	lea    0x0(%esi),%esi

00103e90 <_Z17PrintPCIDevHeaderjjjP12PCIDevHeader>:
  103e90:	55                   	push   %ebp
  103e91:	57                   	push   %edi
  103e92:	56                   	push   %esi
  103e93:	53                   	push   %ebx
  103e94:	83 ec 1c             	sub    $0x1c,%esp
  103e97:	a1 fc 7a 10 00       	mov    0x107afc,%eax
  103e9c:	c7 44 24 04 10 51 10 	movl   $0x105110,0x4(%esp)
  103ea3:	00 
  103ea4:	8b 5c 24 3c          	mov    0x3c(%esp),%ebx
  103ea8:	8b 6c 24 30          	mov    0x30(%esp),%ebp
  103eac:	8b 7c 24 34          	mov    0x34(%esp),%edi
  103eb0:	89 04 24             	mov    %eax,(%esp)
  103eb3:	8b 74 24 38          	mov    0x38(%esp),%esi
  103eb7:	e8 b4 c8 ff ff       	call   100770 <_ZN5Print5printEPKc>
  103ebc:	a1 fc 7a 10 00       	mov    0x107afc,%eax
  103ec1:	c7 44 24 08 10 00 00 	movl   $0x10,0x8(%esp)
  103ec8:	00 
  103ec9:	89 6c 24 04          	mov    %ebp,0x4(%esp)
  103ecd:	89 04 24             	mov    %eax,(%esp)
  103ed0:	e8 ab ca ff ff       	call   100980 <_ZN5Print5printEii>
  103ed5:	a1 fc 7a 10 00       	mov    0x107afc,%eax
  103eda:	c7 44 24 04 15 51 10 	movl   $0x105115,0x4(%esp)
  103ee1:	00 
  103ee2:	89 04 24             	mov    %eax,(%esp)
  103ee5:	e8 86 c8 ff ff       	call   100770 <_ZN5Print5printEPKc>
  103eea:	a1 fc 7a 10 00       	mov    0x107afc,%eax
  103eef:	c7 44 24 08 10 00 00 	movl   $0x10,0x8(%esp)
  103ef6:	00 
  103ef7:	89 7c 24 04          	mov    %edi,0x4(%esp)
  103efb:	89 04 24             	mov    %eax,(%esp)
  103efe:	e8 7d ca ff ff       	call   100980 <_ZN5Print5printEii>
  103f03:	a1 fc 7a 10 00       	mov    0x107afc,%eax
  103f08:	c7 44 24 04 1b 51 10 	movl   $0x10511b,0x4(%esp)
  103f0f:	00 
  103f10:	89 04 24             	mov    %eax,(%esp)
  103f13:	e8 58 c8 ff ff       	call   100770 <_ZN5Print5printEPKc>
  103f18:	a1 fc 7a 10 00       	mov    0x107afc,%eax
  103f1d:	c7 44 24 08 10 00 00 	movl   $0x10,0x8(%esp)
  103f24:	00 
  103f25:	89 74 24 04          	mov    %esi,0x4(%esp)
  103f29:	89 04 24             	mov    %eax,(%esp)
  103f2c:	e8 4f ca ff ff       	call   100980 <_ZN5Print5printEii>
  103f31:	a1 fc 7a 10 00       	mov    0x107afc,%eax
  103f36:	c7 44 24 04 22 51 10 	movl   $0x105122,0x4(%esp)
  103f3d:	00 
  103f3e:	89 04 24             	mov    %eax,(%esp)
  103f41:	e8 2a c8 ff ff       	call   100770 <_ZN5Print5printEPKc>
  103f46:	c7 44 24 08 10 00 00 	movl   $0x10,0x8(%esp)
  103f4d:	00 
  103f4e:	0f b7 03             	movzwl (%ebx),%eax
  103f51:	89 44 24 04          	mov    %eax,0x4(%esp)
  103f55:	a1 fc 7a 10 00       	mov    0x107afc,%eax
  103f5a:	89 04 24             	mov    %eax,(%esp)
  103f5d:	e8 1e ca ff ff       	call   100980 <_ZN5Print5printEii>
  103f62:	a1 fc 7a 10 00       	mov    0x107afc,%eax
  103f67:	c7 44 24 04 2b 51 10 	movl   $0x10512b,0x4(%esp)
  103f6e:	00 
  103f6f:	89 04 24             	mov    %eax,(%esp)
  103f72:	e8 f9 c7 ff ff       	call   100770 <_ZN5Print5printEPKc>
  103f77:	c7 44 24 08 10 00 00 	movl   $0x10,0x8(%esp)
  103f7e:	00 
  103f7f:	0f b7 43 02          	movzwl 0x2(%ebx),%eax
  103f83:	89 44 24 04          	mov    %eax,0x4(%esp)
  103f87:	a1 fc 7a 10 00       	mov    0x107afc,%eax
  103f8c:	89 04 24             	mov    %eax,(%esp)
  103f8f:	e8 ec c9 ff ff       	call   100980 <_ZN5Print5printEii>
  103f94:	0f b6 4b 0b          	movzbl 0xb(%ebx),%ecx
  103f98:	3b 0d e0 6b 10 00    	cmp    0x106be0,%ecx
  103f9e:	74 47                	je     103fe7 <_Z17PrintPCIDevHeaderjjjP12PCIDevHeader+0x157>
  103fa0:	ba 04 6c 10 00       	mov    $0x106c04,%edx
  103fa5:	b8 01 00 00 00       	mov    $0x1,%eax
  103faa:	8d b6 00 00 00 00    	lea    0x0(%esi),%esi
  103fb0:	3b 0a                	cmp    (%edx),%ecx
  103fb2:	74 3c                	je     103ff0 <_Z17PrintPCIDevHeaderjjjP12PCIDevHeader+0x160>
  103fb4:	83 c0 01             	add    $0x1,%eax
  103fb7:	83 c2 24             	add    $0x24,%edx
  103fba:	83 f8 13             	cmp    $0x13,%eax
  103fbd:	75 f1                	jne    103fb0 <_Z17PrintPCIDevHeaderjjjP12PCIDevHeader+0x120>
  103fbf:	31 db                	xor    %ebx,%ebx
  103fc1:	a1 fc 7a 10 00       	mov    0x107afc,%eax
  103fc6:	89 5c 24 04          	mov    %ebx,0x4(%esp)
  103fca:	89 04 24             	mov    %eax,(%esp)
  103fcd:	e8 9e c7 ff ff       	call   100770 <_ZN5Print5printEPKc>
  103fd2:	a1 fc 7a 10 00       	mov    0x107afc,%eax
  103fd7:	89 44 24 30          	mov    %eax,0x30(%esp)
  103fdb:	83 c4 1c             	add    $0x1c,%esp
  103fde:	5b                   	pop    %ebx
  103fdf:	5e                   	pop    %esi
  103fe0:	5f                   	pop    %edi
  103fe1:	5d                   	pop    %ebp
  103fe2:	e9 b9 c7 ff ff       	jmp    1007a0 <_ZN5Print7printlnEv>
  103fe7:	31 c0                	xor    %eax,%eax
  103fe9:	8d b4 26 00 00 00 00 	lea    0x0(%esi,%eiz,1),%esi
  103ff0:	8d 04 c0             	lea    (%eax,%eax,8),%eax
  103ff3:	8d 1c 85 e4 6b 10 00 	lea    0x106be4(,%eax,4),%ebx
  103ffa:	a1 fc 7a 10 00       	mov    0x107afc,%eax
  103fff:	c7 44 24 04 33 51 10 	movl   $0x105133,0x4(%esp)
  104006:	00 
  104007:	89 04 24             	mov    %eax,(%esp)
  10400a:	e8 61 c7 ff ff       	call   100770 <_ZN5Print5printEPKc>
  10400f:	eb b0                	jmp    103fc1 <_Z17PrintPCIDevHeaderjjjP12PCIDevHeader+0x131>
  104011:	eb 0d                	jmp    104020 <_Z7PCIScanv>
  104013:	90                   	nop
  104014:	90                   	nop
  104015:	90                   	nop
  104016:	90                   	nop
  104017:	90                   	nop
  104018:	90                   	nop
  104019:	90                   	nop
  10401a:	90                   	nop
  10401b:	90                   	nop
  10401c:	90                   	nop
  10401d:	90                   	nop
  10401e:	90                   	nop
  10401f:	90                   	nop

00104020 <_Z7PCIScanv>:
  104020:	55                   	push   %ebp
  104021:	57                   	push   %edi
  104022:	31 ff                	xor    %edi,%edi
  104024:	56                   	push   %esi
  104025:	53                   	push   %ebx
  104026:	83 ec 2c             	sub    $0x2c,%esp
  104029:	8d 6c 24 10          	lea    0x10(%esp),%ebp
  10402d:	8d 76 00             	lea    0x0(%esi),%esi
  104030:	31 db                	xor    %ebx,%ebx
  104032:	eb 10                	jmp    104044 <_Z7PCIScanv+0x24>
  104034:	8d 74 26 00          	lea    0x0(%esi,%eiz,1),%esi
  104038:	83 c3 01             	add    $0x1,%ebx
  10403b:	83 fb 20             	cmp    $0x20,%ebx
  10403e:	0f 84 7c 00 00 00    	je     1040c0 <_Z7PCIScanv+0xa0>
  104044:	89 6c 24 0c          	mov    %ebp,0xc(%esp)
  104048:	c7 44 24 08 00 00 00 	movl   $0x0,0x8(%esp)
  10404f:	00 
  104050:	89 5c 24 04          	mov    %ebx,0x4(%esp)
  104054:	89 3c 24             	mov    %edi,(%esp)
  104057:	e8 94 fd ff ff       	call   103df0 <_Z16ReadPCIDevHeaderjjjP12PCIDevHeader>
  10405c:	85 c0                	test   %eax,%eax
  10405e:	75 d8                	jne    104038 <_Z7PCIScanv+0x18>
  104060:	89 6c 24 0c          	mov    %ebp,0xc(%esp)
  104064:	c7 44 24 08 00 00 00 	movl   $0x0,0x8(%esp)
  10406b:	00 
  10406c:	89 5c 24 04          	mov    %ebx,0x4(%esp)
  104070:	89 3c 24             	mov    %edi,(%esp)
  104073:	e8 18 fe ff ff       	call   103e90 <_Z17PrintPCIDevHeaderjjjP12PCIDevHeader>
  104078:	80 7c 24 1e 00       	cmpb   $0x0,0x1e(%esp)
  10407d:	79 b9                	jns    104038 <_Z7PCIScanv+0x18>
  10407f:	be 01 00 00 00       	mov    $0x1,%esi
  104084:	eb 0a                	jmp    104090 <_Z7PCIScanv+0x70>
  104086:	66 90                	xchg   %ax,%ax
  104088:	83 c6 01             	add    $0x1,%esi
  10408b:	83 fe 08             	cmp    $0x8,%esi
  10408e:	74 a8                	je     104038 <_Z7PCIScanv+0x18>
  104090:	89 6c 24 0c          	mov    %ebp,0xc(%esp)
  104094:	89 74 24 08          	mov    %esi,0x8(%esp)
  104098:	89 5c 24 04          	mov    %ebx,0x4(%esp)
  10409c:	89 3c 24             	mov    %edi,(%esp)
  10409f:	e8 4c fd ff ff       	call   103df0 <_Z16ReadPCIDevHeaderjjjP12PCIDevHeader>
  1040a4:	85 c0                	test   %eax,%eax
  1040a6:	75 e0                	jne    104088 <_Z7PCIScanv+0x68>
  1040a8:	89 6c 24 0c          	mov    %ebp,0xc(%esp)
  1040ac:	89 74 24 08          	mov    %esi,0x8(%esp)
  1040b0:	89 5c 24 04          	mov    %ebx,0x4(%esp)
  1040b4:	89 3c 24             	mov    %edi,(%esp)
  1040b7:	e8 d4 fd ff ff       	call   103e90 <_Z17PrintPCIDevHeaderjjjP12PCIDevHeader>
  1040bc:	eb ca                	jmp    104088 <_Z7PCIScanv+0x68>
  1040be:	66 90                	xchg   %ax,%ax
  1040c0:	83 c7 01             	add    $0x1,%edi
  1040c3:	81 ff ff 00 00 00    	cmp    $0xff,%edi
  1040c9:	0f 85 61 ff ff ff    	jne    104030 <_Z7PCIScanv+0x10>
  1040cf:	83 c4 2c             	add    $0x2c,%esp
  1040d2:	5b                   	pop    %ebx
  1040d3:	5e                   	pop    %esi
  1040d4:	5f                   	pop    %edi
  1040d5:	5d                   	pop    %ebp
  1040d6:	c3                   	ret    
  1040d7:	89 f6                	mov    %esi,%esi
  1040d9:	8d bc 27 00 00 00 00 	lea    0x0(%edi,%eiz,1),%edi

001040e0 <_Z5kmainv>:
  1040e0:	83 ec 1c             	sub    $0x1c,%esp
  1040e3:	a1 fc 7a 10 00       	mov    0x107afc,%eax
  1040e8:	c7 44 24 04 40 51 10 	movl   $0x105140,0x4(%esp)
  1040ef:	00 
  1040f0:	89 04 24             	mov    %eax,(%esp)
  1040f3:	e8 78 c6 ff ff       	call   100770 <_ZN5Print5printEPKc>
  1040f8:	83 c4 1c             	add    $0x1c,%esp
  1040fb:	e9 20 ff ff ff       	jmp    104020 <_Z7PCIScanv>

00104100 <gdt_flush>:
  104100:	8b 44 24 04          	mov    0x4(%esp),%eax
  104104:	0f 01 10             	lgdtl  (%eax)
  104107:	66 b8 10 00          	mov    $0x10,%ax
  10410b:	8e d8                	mov    %eax,%ds
  10410d:	8e c0                	mov    %eax,%es
  10410f:	8e e0                	mov    %eax,%fs
  104111:	8e e8                	mov    %eax,%gs
  104113:	8e d0                	mov    %eax,%ss
  104115:	ea 1c 41 10 00 08 00 	ljmp   $0x8,$0x10411c

0010411c <flush>:
  10411c:	c3                   	ret    

0010411d <idt_flush>:
  10411d:	8b 44 24 04          	mov    0x4(%esp),%eax
  104121:	0f 01 18             	lidtl  (%eax)
  104124:	c3                   	ret    
  104125:	66 90                	xchg   %ax,%ax
  104127:	66 90                	xchg   %ax,%ax
  104129:	66 90                	xchg   %ax,%ax
  10412b:	66 90                	xchg   %ax,%ax
  10412d:	66 90                	xchg   %ax,%ax
  10412f:	90                   	nop

00104130 <_Z18video_page_putcharic>:
  104130:	8b 15 8c 6e 10 00    	mov    0x106e8c,%edx
  104136:	8b 44 24 04          	mov    0x4(%esp),%eax
  10413a:	8b 4c 24 08          	mov    0x8(%esp),%ecx
  10413e:	c6 44 42 01 0a       	movb   $0xa,0x1(%edx,%eax,2)
  104143:	8b 15 8c 6e 10 00    	mov    0x106e8c,%edx
  104149:	88 0c 42             	mov    %cl,(%edx,%eax,2)
  10414c:	c3                   	ret    
  10414d:	8d 76 00             	lea    0x0(%esi),%esi

00104150 <_Z22video_page_move_cursori>:
  104150:	8b 4c 24 04          	mov    0x4(%esp),%ecx
  104154:	b8 0e 00 00 00       	mov    $0xe,%eax
  104159:	ba d4 03 00 00       	mov    $0x3d4,%edx
  10415e:	ee                   	out    %al,(%dx)
  10415f:	0f b6 c5             	movzbl %ch,%eax
  104162:	b2 d5                	mov    $0xd5,%dl
  104164:	ee                   	out    %al,(%dx)
  104165:	b8 0f 00 00 00       	mov    $0xf,%eax
  10416a:	b2 d4                	mov    $0xd4,%dl
  10416c:	ee                   	out    %al,(%dx)
  10416d:	0f b6 c1             	movzbl %cl,%eax
  104170:	b2 d5                	mov    $0xd5,%dl
  104172:	ee                   	out    %al,(%dx)
  104173:	c3                   	ret    
  104174:	8d b6 00 00 00 00    	lea    0x0(%esi),%esi
  10417a:	8d bf 00 00 00 00    	lea    0x0(%edi),%edi

00104180 <_Z16video_page_resetv>:
  104180:	31 c0                	xor    %eax,%eax
  104182:	8d b6 00 00 00 00    	lea    0x0(%esi),%esi
  104188:	8b 15 8c 6e 10 00    	mov    0x106e8c,%edx
  10418e:	c6 44 02 01 0a       	movb   $0xa,0x1(%edx,%eax,1)
  104193:	8b 15 8c 6e 10 00    	mov    0x106e8c,%edx
  104199:	c6 04 02 20          	movb   $0x20,(%edx,%eax,1)
  10419d:	83 c0 02             	add    $0x2,%eax
  1041a0:	3d a0 0f 00 00       	cmp    $0xfa0,%eax
  1041a5:	75 e1                	jne    104188 <_Z16video_page_resetv+0x8>
  1041a7:	f3 c3                	repz ret 
  1041a9:	8d b4 26 00 00 00 00 	lea    0x0(%esi,%eiz,1),%esi

001041b0 <_Z18video_page_clr_stri>:
  1041b0:	8b 44 24 04          	mov    0x4(%esp),%eax
  1041b4:	8d 14 80             	lea    (%eax,%eax,4),%edx
  1041b7:	31 c0                	xor    %eax,%eax
  1041b9:	c1 e2 05             	shl    $0x5,%edx
  1041bc:	8d 74 26 00          	lea    0x0(%esi,%eiz,1),%esi
  1041c0:	8b 0d 8c 6e 10 00    	mov    0x106e8c,%ecx
  1041c6:	01 c1                	add    %eax,%ecx
  1041c8:	c6 44 0a 01 0a       	movb   $0xa,0x1(%edx,%ecx,1)
  1041cd:	8b 0d 8c 6e 10 00    	mov    0x106e8c,%ecx
  1041d3:	01 c1                	add    %eax,%ecx
  1041d5:	83 c0 02             	add    $0x2,%eax
  1041d8:	3d a0 00 00 00       	cmp    $0xa0,%eax
  1041dd:	c6 04 11 20          	movb   $0x20,(%ecx,%edx,1)
  1041e1:	75 dd                	jne    1041c0 <_Z18video_page_clr_stri+0x10>
  1041e3:	f3 c3                	repz ret 
  1041e5:	8d 74 26 00          	lea    0x0(%esi,%eiz,1),%esi
  1041e9:	8d bc 27 00 00 00 00 	lea    0x0(%edi,%eiz,1),%edi

001041f0 <_Z19video_page_copy_strii>:
  1041f0:	56                   	push   %esi
  1041f1:	53                   	push   %ebx
  1041f2:	8b 54 24 0c          	mov    0xc(%esp),%edx
  1041f6:	8b 44 24 10          	mov    0x10(%esp),%eax
  1041fa:	8d 1c 92             	lea    (%edx,%edx,4),%ebx
  1041fd:	8d 04 80             	lea    (%eax,%eax,4),%eax
  104200:	c1 e0 05             	shl    $0x5,%eax
  104203:	c1 e3 05             	shl    $0x5,%ebx
  104206:	8d b0 a0 00 00 00    	lea    0xa0(%eax),%esi
  10420c:	29 c3                	sub    %eax,%ebx
  10420e:	66 90                	xchg   %ax,%ax
  104210:	8b 15 8c 6e 10 00    	mov    0x106e8c,%edx
  104216:	8d 0c 02             	lea    (%edx,%eax,1),%ecx
  104219:	0f b6 0c 19          	movzbl (%ecx,%ebx,1),%ecx
  10421d:	88 0c 02             	mov    %cl,(%edx,%eax,1)
  104220:	83 c0 01             	add    $0x1,%eax
  104223:	39 f0                	cmp    %esi,%eax
  104225:	75 e9                	jne    104210 <_Z19video_page_copy_strii+0x20>
  104227:	5b                   	pop    %ebx
  104228:	5e                   	pop    %esi
  104229:	c3                   	ret    
  10422a:	8d b6 00 00 00 00    	lea    0x0(%esi),%esi

00104230 <_Z19video_page_drop_strv>:
  104230:	57                   	push   %edi
  104231:	31 ff                	xor    %edi,%edi
  104233:	56                   	push   %esi
  104234:	53                   	push   %ebx
  104235:	bb a0 00 00 00       	mov    $0xa0,%ebx
  10423a:	83 ec 04             	sub    $0x4,%esp
  10423d:	8d 76 00             	lea    0x0(%esi),%esi
  104240:	89 de                	mov    %ebx,%esi
  104242:	89 f8                	mov    %edi,%eax
  104244:	29 fe                	sub    %edi,%esi
  104246:	66 90                	xchg   %ax,%ax
  104248:	8b 15 8c 6e 10 00    	mov    0x106e8c,%edx
  10424e:	8d 0c 02             	lea    (%edx,%eax,1),%ecx
  104251:	0f b6 0c 31          	movzbl (%ecx,%esi,1),%ecx
  104255:	88 0c 02             	mov    %cl,(%edx,%eax,1)
  104258:	83 c0 01             	add    $0x1,%eax
  10425b:	39 c3                	cmp    %eax,%ebx
  10425d:	75 e9                	jne    104248 <_Z19video_page_drop_strv+0x18>
  10425f:	81 c7 a0 00 00 00    	add    $0xa0,%edi
  104265:	81 c3 a0 00 00 00    	add    $0xa0,%ebx
  10426b:	81 ff 00 0f 00 00    	cmp    $0xf00,%edi
  104271:	75 cd                	jne    104240 <_Z19video_page_drop_strv+0x10>
  104273:	c7 04 24 18 00 00 00 	movl   $0x18,(%esp)
  10427a:	e8 31 ff ff ff       	call   1041b0 <_Z18video_page_clr_stri>
  10427f:	83 c4 04             	add    $0x4,%esp
  104282:	5b                   	pop    %ebx
  104283:	5e                   	pop    %esi
  104284:	5f                   	pop    %edi
  104285:	c3                   	ret    
  104286:	66 90                	xchg   %ax,%ax
  104288:	66 90                	xchg   %ax,%ax
  10428a:	66 90                	xchg   %ax,%ax
  10428c:	66 90                	xchg   %ax,%ax
  10428e:	66 90                	xchg   %ax,%ax

00104290 <_Z16proc_length_initv>:
  104290:	f3 c3                	repz ret 
  104292:	66 90                	xchg   %ax,%ax
  104294:	66 90                	xchg   %ax,%ax
  104296:	66 90                	xchg   %ax,%ax
  104298:	66 90                	xchg   %ax,%ax
  10429a:	66 90                	xchg   %ax,%ax
  10429c:	66 90                	xchg   %ax,%ax
  10429e:	66 90                	xchg   %ax,%ax

001042a0 <isr_handler>:
  1042a0:	e9 fb cb ff ff       	jmp    100ea0 <abstract_irq_controller>

001042a5 <boot>:
  1042a5:	fa                   	cli    
  1042a6:	53                   	push   %ebx
  1042a7:	e8 14 bf ff ff       	call   1001c0 <main>
  1042ac:	f4                   	hlt    

001042ad <loop>:
  1042ad:	eb fe                	jmp    1042ad <loop>

001042af <isr0>:
  1042af:	fa                   	cli    
  1042b0:	6a 00                	push   $0x0
  1042b2:	6a 00                	push   $0x0
  1042b4:	e9 91 01 00 00       	jmp    10444a <isr_common_stub>

001042b9 <isr1>:
  1042b9:	fa                   	cli    
  1042ba:	6a 00                	push   $0x0
  1042bc:	6a 01                	push   $0x1
  1042be:	e9 87 01 00 00       	jmp    10444a <isr_common_stub>

001042c3 <isr2>:
  1042c3:	fa                   	cli    
  1042c4:	6a 00                	push   $0x0
  1042c6:	6a 02                	push   $0x2
  1042c8:	e9 7d 01 00 00       	jmp    10444a <isr_common_stub>

001042cd <isr3>:
  1042cd:	fa                   	cli    
  1042ce:	6a 00                	push   $0x0
  1042d0:	6a 03                	push   $0x3
  1042d2:	e9 73 01 00 00       	jmp    10444a <isr_common_stub>

001042d7 <isr4>:
  1042d7:	fa                   	cli    
  1042d8:	6a 00                	push   $0x0
  1042da:	6a 04                	push   $0x4
  1042dc:	e9 69 01 00 00       	jmp    10444a <isr_common_stub>

001042e1 <isr5>:
  1042e1:	fa                   	cli    
  1042e2:	6a 00                	push   $0x0
  1042e4:	6a 05                	push   $0x5
  1042e6:	e9 5f 01 00 00       	jmp    10444a <isr_common_stub>

001042eb <isr6>:
  1042eb:	fa                   	cli    
  1042ec:	6a 00                	push   $0x0
  1042ee:	6a 06                	push   $0x6
  1042f0:	e9 55 01 00 00       	jmp    10444a <isr_common_stub>

001042f5 <isr7>:
  1042f5:	fa                   	cli    
  1042f6:	6a 00                	push   $0x0
  1042f8:	6a 07                	push   $0x7
  1042fa:	e9 4b 01 00 00       	jmp    10444a <isr_common_stub>

001042ff <isr8>:
  1042ff:	fa                   	cli    
  104300:	6a 08                	push   $0x8
  104302:	e9 43 01 00 00       	jmp    10444a <isr_common_stub>

00104307 <isr9>:
  104307:	fa                   	cli    
  104308:	6a 00                	push   $0x0
  10430a:	6a 09                	push   $0x9
  10430c:	e9 39 01 00 00       	jmp    10444a <isr_common_stub>

00104311 <isr10>:
  104311:	fa                   	cli    
  104312:	6a 0a                	push   $0xa
  104314:	e9 31 01 00 00       	jmp    10444a <isr_common_stub>

00104319 <isr11>:
  104319:	fa                   	cli    
  10431a:	6a 0b                	push   $0xb
  10431c:	e9 29 01 00 00       	jmp    10444a <isr_common_stub>

00104321 <isr12>:
  104321:	fa                   	cli    
  104322:	6a 0c                	push   $0xc
  104324:	e9 21 01 00 00       	jmp    10444a <isr_common_stub>

00104329 <isr13>:
  104329:	fa                   	cli    
  10432a:	6a 0d                	push   $0xd
  10432c:	e9 19 01 00 00       	jmp    10444a <isr_common_stub>

00104331 <isr14>:
  104331:	fa                   	cli    
  104332:	6a 0e                	push   $0xe
  104334:	e9 11 01 00 00       	jmp    10444a <isr_common_stub>

00104339 <isr15>:
  104339:	fa                   	cli    
  10433a:	6a 00                	push   $0x0
  10433c:	6a 0f                	push   $0xf
  10433e:	e9 07 01 00 00       	jmp    10444a <isr_common_stub>

00104343 <isr16>:
  104343:	fa                   	cli    
  104344:	6a 00                	push   $0x0
  104346:	6a 10                	push   $0x10
  104348:	e9 fd 00 00 00       	jmp    10444a <isr_common_stub>

0010434d <isr17>:
  10434d:	fa                   	cli    
  10434e:	6a 00                	push   $0x0
  104350:	6a 11                	push   $0x11
  104352:	e9 f3 00 00 00       	jmp    10444a <isr_common_stub>

00104357 <isr18>:
  104357:	fa                   	cli    
  104358:	6a 00                	push   $0x0
  10435a:	6a 12                	push   $0x12
  10435c:	e9 e9 00 00 00       	jmp    10444a <isr_common_stub>

00104361 <isr19>:
  104361:	fa                   	cli    
  104362:	6a 00                	push   $0x0
  104364:	6a 13                	push   $0x13
  104366:	e9 df 00 00 00       	jmp    10444a <isr_common_stub>

0010436b <isr20>:
  10436b:	fa                   	cli    
  10436c:	6a 00                	push   $0x0
  10436e:	6a 14                	push   $0x14
  104370:	e9 d5 00 00 00       	jmp    10444a <isr_common_stub>

00104375 <isr21>:
  104375:	fa                   	cli    
  104376:	6a 00                	push   $0x0
  104378:	6a 15                	push   $0x15
  10437a:	e9 cb 00 00 00       	jmp    10444a <isr_common_stub>

0010437f <isr22>:
  10437f:	fa                   	cli    
  104380:	6a 00                	push   $0x0
  104382:	6a 16                	push   $0x16
  104384:	e9 c1 00 00 00       	jmp    10444a <isr_common_stub>

00104389 <isr23>:
  104389:	fa                   	cli    
  10438a:	6a 00                	push   $0x0
  10438c:	6a 17                	push   $0x17
  10438e:	e9 b7 00 00 00       	jmp    10444a <isr_common_stub>

00104393 <isr24>:
  104393:	fa                   	cli    
  104394:	6a 00                	push   $0x0
  104396:	6a 18                	push   $0x18
  104398:	e9 ad 00 00 00       	jmp    10444a <isr_common_stub>

0010439d <isr25>:
  10439d:	fa                   	cli    
  10439e:	6a 00                	push   $0x0
  1043a0:	6a 19                	push   $0x19
  1043a2:	e9 a3 00 00 00       	jmp    10444a <isr_common_stub>

001043a7 <isr26>:
  1043a7:	fa                   	cli    
  1043a8:	6a 00                	push   $0x0
  1043aa:	6a 1a                	push   $0x1a
  1043ac:	e9 99 00 00 00       	jmp    10444a <isr_common_stub>

001043b1 <isr27>:
  1043b1:	fa                   	cli    
  1043b2:	6a 00                	push   $0x0
  1043b4:	6a 1b                	push   $0x1b
  1043b6:	e9 8f 00 00 00       	jmp    10444a <isr_common_stub>

001043bb <isr28>:
  1043bb:	fa                   	cli    
  1043bc:	6a 00                	push   $0x0
  1043be:	6a 1c                	push   $0x1c
  1043c0:	e9 85 00 00 00       	jmp    10444a <isr_common_stub>

001043c5 <isr29>:
  1043c5:	fa                   	cli    
  1043c6:	6a 00                	push   $0x0
  1043c8:	6a 1d                	push   $0x1d
  1043ca:	eb 7e                	jmp    10444a <isr_common_stub>

001043cc <isr30>:
  1043cc:	fa                   	cli    
  1043cd:	6a 00                	push   $0x0
  1043cf:	6a 1e                	push   $0x1e
  1043d1:	eb 77                	jmp    10444a <isr_common_stub>

001043d3 <isr31>:
  1043d3:	fa                   	cli    
  1043d4:	6a 00                	push   $0x0
  1043d6:	6a 1f                	push   $0x1f
  1043d8:	eb 70                	jmp    10444a <isr_common_stub>

001043da <isr32>:
  1043da:	fa                   	cli    
  1043db:	6a 00                	push   $0x0
  1043dd:	6a 20                	push   $0x20
  1043df:	eb 69                	jmp    10444a <isr_common_stub>

001043e1 <isr33>:
  1043e1:	fa                   	cli    
  1043e2:	6a 00                	push   $0x0
  1043e4:	6a 21                	push   $0x21
  1043e6:	eb 62                	jmp    10444a <isr_common_stub>

001043e8 <isr34>:
  1043e8:	fa                   	cli    
  1043e9:	6a 00                	push   $0x0
  1043eb:	6a 22                	push   $0x22
  1043ed:	eb 5b                	jmp    10444a <isr_common_stub>

001043ef <isr35>:
  1043ef:	fa                   	cli    
  1043f0:	6a 00                	push   $0x0
  1043f2:	6a 23                	push   $0x23
  1043f4:	eb 54                	jmp    10444a <isr_common_stub>

001043f6 <isr36>:
  1043f6:	fa                   	cli    
  1043f7:	6a 00                	push   $0x0
  1043f9:	6a 24                	push   $0x24
  1043fb:	eb 4d                	jmp    10444a <isr_common_stub>

001043fd <isr37>:
  1043fd:	fa                   	cli    
  1043fe:	6a 00                	push   $0x0
  104400:	6a 25                	push   $0x25
  104402:	eb 46                	jmp    10444a <isr_common_stub>

00104404 <isr38>:
  104404:	fa                   	cli    
  104405:	6a 00                	push   $0x0
  104407:	6a 26                	push   $0x26
  104409:	eb 3f                	jmp    10444a <isr_common_stub>

0010440b <isr39>:
  10440b:	fa                   	cli    
  10440c:	6a 00                	push   $0x0
  10440e:	6a 27                	push   $0x27
  104410:	eb 38                	jmp    10444a <isr_common_stub>

00104412 <isr40>:
  104412:	fa                   	cli    
  104413:	6a 00                	push   $0x0
  104415:	6a 28                	push   $0x28
  104417:	eb 31                	jmp    10444a <isr_common_stub>

00104419 <isr41>:
  104419:	fa                   	cli    
  10441a:	6a 00                	push   $0x0
  10441c:	6a 29                	push   $0x29
  10441e:	eb 2a                	jmp    10444a <isr_common_stub>

00104420 <isr42>:
  104420:	fa                   	cli    
  104421:	6a 00                	push   $0x0
  104423:	6a 2a                	push   $0x2a
  104425:	eb 23                	jmp    10444a <isr_common_stub>

00104427 <isr43>:
  104427:	fa                   	cli    
  104428:	6a 00                	push   $0x0
  10442a:	6a 2b                	push   $0x2b
  10442c:	eb 1c                	jmp    10444a <isr_common_stub>

0010442e <isr44>:
  10442e:	fa                   	cli    
  10442f:	6a 00                	push   $0x0
  104431:	6a 2c                	push   $0x2c
  104433:	eb 15                	jmp    10444a <isr_common_stub>

00104435 <isr45>:
  104435:	fa                   	cli    
  104436:	6a 00                	push   $0x0
  104438:	6a 2d                	push   $0x2d
  10443a:	eb 0e                	jmp    10444a <isr_common_stub>

0010443c <isr46>:
  10443c:	fa                   	cli    
  10443d:	6a 00                	push   $0x0
  10443f:	6a 2e                	push   $0x2e
  104441:	eb 07                	jmp    10444a <isr_common_stub>

00104443 <isr47>:
  104443:	fa                   	cli    
  104444:	6a 00                	push   $0x0
  104446:	6a 2f                	push   $0x2f
  104448:	eb 00                	jmp    10444a <isr_common_stub>

0010444a <isr_common_stub>:
  10444a:	60                   	pusha  
  10444b:	66 8c d8             	mov    %ds,%ax
  10444e:	50                   	push   %eax
  10444f:	66 b8 10 00          	mov    $0x10,%ax
  104453:	8e d8                	mov    %eax,%ds
  104455:	8e c0                	mov    %eax,%es
  104457:	8e e0                	mov    %eax,%fs
  104459:	8e e8                	mov    %eax,%gs
  10445b:	e8 40 ca ff ff       	call   100ea0 <abstract_irq_controller>
  104460:	58                   	pop    %eax
  104461:	8e d8                	mov    %eax,%ds
  104463:	8e c0                	mov    %eax,%es
  104465:	8e e0                	mov    %eax,%fs
  104467:	8e e8                	mov    %eax,%gs
  104469:	61                   	popa   
  10446a:	83 c4 08             	add    $0x8,%esp
  10446d:	fb                   	sti    
  10446e:	cf                   	iret   
  10446f:	90                   	nop

00104470 <__libc_csu_init>:
  104470:	55                   	push   %ebp
  104471:	57                   	push   %edi
  104472:	31 ff                	xor    %edi,%edi
  104474:	56                   	push   %esi
  104475:	53                   	push   %ebx
  104476:	e8 b5 bb ff ff       	call   100030 <__x86.get_pc_thunk.bx>
  10447b:	81 c3 19 2a 00 00    	add    $0x2a19,%ebx
  104481:	83 ec 1c             	sub    $0x1c,%esp
  104484:	8b 6c 24 30          	mov    0x30(%esp),%ebp
  104488:	8d b3 e8 e2 ff ff    	lea    -0x1d18(%ebx),%esi
  10448e:	e8 bd 0c 00 00       	call   105150 <_init>
  104493:	8d 83 e0 e2 ff ff    	lea    -0x1d20(%ebx),%eax
  104499:	29 c6                	sub    %eax,%esi
  10449b:	c1 fe 02             	sar    $0x2,%esi
  10449e:	85 f6                	test   %esi,%esi
  1044a0:	74 27                	je     1044c9 <__libc_csu_init+0x59>
  1044a2:	8d b6 00 00 00 00    	lea    0x0(%esi),%esi
  1044a8:	8b 44 24 38          	mov    0x38(%esp),%eax
  1044ac:	89 2c 24             	mov    %ebp,(%esp)
  1044af:	89 44 24 08          	mov    %eax,0x8(%esp)
  1044b3:	8b 44 24 34          	mov    0x34(%esp),%eax
  1044b7:	89 44 24 04          	mov    %eax,0x4(%esp)
  1044bb:	ff 94 bb e0 e2 ff ff 	call   *-0x1d20(%ebx,%edi,4)
  1044c2:	83 c7 01             	add    $0x1,%edi
  1044c5:	39 f7                	cmp    %esi,%edi
  1044c7:	75 df                	jne    1044a8 <__libc_csu_init+0x38>
  1044c9:	83 c4 1c             	add    $0x1c,%esp
  1044cc:	5b                   	pop    %ebx
  1044cd:	5e                   	pop    %esi
  1044ce:	5f                   	pop    %edi
  1044cf:	5d                   	pop    %ebp
  1044d0:	c3                   	ret    
  1044d1:	eb 0d                	jmp    1044e0 <__libc_csu_fini>
  1044d3:	90                   	nop
  1044d4:	90                   	nop
  1044d5:	90                   	nop
  1044d6:	90                   	nop
  1044d7:	90                   	nop
  1044d8:	90                   	nop
  1044d9:	90                   	nop
  1044da:	90                   	nop
  1044db:	90                   	nop
  1044dc:	90                   	nop
  1044dd:	90                   	nop
  1044de:	90                   	nop
  1044df:	90                   	nop

001044e0 <__libc_csu_fini>:
  1044e0:	f3 c3                	repz ret 

001044e2 <_fp_hw>:
  1044e2:	03 00 00 00 66 90                                   ....f.

001044e8 <_IO_stdin_used>:
  1044e8:	01 00 02 00 48 65 6c 6c 6f 57 6f 72 6c 64 00 70     ....HelloWorld.p
  1044f8:	63 69 73 63 61 6e 00 6b 65 79 73 63 61 6e 00 90     ciscan.keyscan..
  104508:	a8 03 10 00 c0 03 10 00 c8 03 10 00 d0 03 10 00     ................
  104518:	d8 03 10 00 e0 03 10 00 e8 03 10 00 f0 03 10 00     ................
  104528:	f8 03 10 00 00 04 10 00 08 04 10 00 10 04 10 00     ................
  104538:	18 04 10 00 20 04 10 00 28 04 10 00 30 04 10 00     .... ...(...0...
  104548:	3a 20 00 7c 00 3e 3e 53 59 53 54 45 4d 20 45 52     : .|.>>SYSTEM ER
  104558:	52 4f 52 3a 00 6e 61 6e 00 69 6e 66 00 6f 76 66     ROR:.nan.inf.ovf
  104568:	00 2e 00                                            ...

0010456b <_ZTS5Print>:
  10456b:	35 50 72 69 6e 74 00 66 90                          5Print.f.

00104574 <_ZTI5Print>:
  104574:	a8 87 10 00 6b 45 10 00 66 90 66 90                 ....kE..f.f.

00104580 <_ZTV5Print>:
  104580:	00 00 00 00 74 45 10 00 e0 51 10 00 d0 06 10 00     ....tE...Q......
  104590:	00 00 00 3f ff ff 7f 4f ff ff 7f cf 00 00 20 41     ...?...O...... A
  1045a0:	3e 3e 41 49 43 5f 55 4e 44 45 46 49 4e 45 44 5f     >>AIC_UNDEFINED_
  1045b0:	49 52 51 3a 20 69 72 71 5f 6e 75 6d 3a 00 66 90     IRQ: irq_num:.f.
  1045c0:	61 62 73 74 72 61 63 74 5f 69 72 71 5f 63 6f 6e     abstract_irq_con
  1045d0:	74 72 6f 6c 6c 65 72 5f 53 74 75 62 49 52 51 00     troller_StubIRQ.
  1045e0:	61 69 63 20 68 61 73 20 62 65 65 6e 20 63 61 6c     aic has been cal
  1045f0:	6c 65 64 2c 20 62 75 74 20 6e 6f 74 20 69 6e 69     led, but not ini
  104600:	74 00 63 61 6c 6c 20 63 6f 6e 73 74 72 3a 00 3e     t.call constr:.>
  104610:	3e 43 41 4c 4c 20 47 4c 4f 42 41 4c 20 43 4f 4e     >CALL GLOBAL CON
  104620:	53 54 52 55 43 54 4f 52 53 0d 0a 00 63 6f 6e 73     STRUCTORS...cons
  104630:	74 72 20 63 61 6c 6c 3a 0d 0a 00 63 6f 6e 73 74     tr call:...const
  104640:	72 20 63 61 6c 6c 20 4f 4b 0d 0a 00 3e 3e 42 53     r call OK...>>BS
  104650:	53 5f 43 4c 45 41 4e 2e 2e 2e 20 20 20 00 3e 3e     S_CLEAN...   .>>
  104660:	42 53 53 5f 54 45 53 54 3a 0d 0a 00 62 73 73 5f     BSS_TEST:...bss_
  104670:	6c 65 6e 67 74 68 3a 00 0d 0a 74 6f 74 61 6c 20     length:...total 
  104680:	6e 6f 6e 4e 75 6c 6c 3a 00 62 73 73 5f 74 65 73     nonNull:.bss_tes
  104690:	74 5f 65 6e 64 0d 0a 00 5f 74 65 78 74 5f 62 65     t_end..._text_be
  1046a0:	67 69 6e 20 3a 00 5f 74 65 78 74 5f 65 6e 64 20     gin :._text_end 
  1046b0:	20 20 3a 00 5f 64 61 74 61 5f 62 65 67 69 6e 20       :._data_begin 
  1046c0:	3a 00 5f 64 61 74 61 5f 65 6e 64 20 20 20 3a 00     :._data_end   :.
  1046d0:	5f 62 73 73 5f 62 65 67 69 6e 20 20 3a 00 5f 62     _bss_begin  :._b
  1046e0:	73 73 5f 65 6e 64 20 20 20 20 3a 00 43 6f 6e 73     ss_end    :.Cons
  1046f0:	74 72 75 63 74 6f 72 20 69 6e 66 6f 3a 0d 0a 00     tructor info:...
  104700:	5f 5f 70 72 65 69 6e 69 74 5f 61 72 72 61 79 5f     __preinit_array_
  104710:	73 74 61 72 74 3a 00 5f 5f 70 72 65 69 6e 69 74     start:.__preinit
  104720:	5f 61 72 72 61 79 5f 65 6e 64 20 20 3a 00 5f 5f     _array_end  :.__
  104730:	69 6e 69 74 5f 61 72 72 61 79 5f 73 74 61 72 74     init_array_start
  104740:	20 20 20 3a 00 5f 5f 69 6e 69 74 5f 61 72 72 61        :.__init_arra
  104750:	79 5f 65 6e 64 20 20 20 20 20 3a 00 5f 63 74 6f     y_end     :._cto
  104760:	72 5f 73 74 61 72 74 20 20 20 20 20 20 20 20 20     r_start         
  104770:	20 3a 00 5f 63 74 6f 72 5f 65 6e 64 20 20 20 20      :._ctor_end    
  104780:	20 20 20 20 20 20 20 20 3a 00 66 90 67 6c 6f 62             :.f.glob
  104790:	61 6c 20 63 6f 6e 73 74 72 75 63 74 6f 72 73 20     al constructors 
  1047a0:	73 75 63 63 65 73 66 75 61 6c 79 20 63 61 6c 6c     succesfualy call
  1047b0:	65 64 2e 2e 2e 0d 0a 00 73 63 61 6e 20 62 73 73     ed......scan bss
  1047c0:	5f 73 65 63 74 69 6f 6e 20 28 61 6c 6c 20 6e 6f     _section (all no
  1047d0:	6e 4e 75 6c 6c 20 62 79 74 65 73 20 68 61 73 20     nNull bytes has 
  1047e0:	62 65 65 6e 20 70 72 69 6e 74 65 64 29 20 2e 2e     been printed) ..
  1047f0:	2e 2e 2e 2e 2e 0d 0a 00 2a 2a 2a 2a 2a 2a 2a 2a     ........********
  104800:	2a 2a 2a 2a 2a 2a 2a 2a 2a 2a 2a 2a 2a 2a 2a 2a     ****************
  104810:	2a 20 65 6e 64 20 73 63 61 6e 0d 0a 74 6f 74 61     * end scan..tota
  104820:	6c 20 73 63 61 6e 65 64 3a 00 00 00 3e 3e 53 45     l scaned:...>>SE
  104830:	43 54 49 4f 4e 53 20 41 4e 44 20 43 4f 4e 53 54     CTIONS AND CONST
  104840:	52 55 43 54 4f 52 53 20 49 4e 46 4f 3a 0d 0a 00     RUCTORS INFO:...

00104850 <_ZTI6Stream>:
  104850:	e8 87 10 00 5c 48 10 00 74 45 10 00                 ....\H..tE..

0010485c <_ZTS6Stream>:
  10485c:	36 53 74 72 65 61 6d 00                             6Stream.

00104864 <_ZTS8DBStream>:
  104864:	38 44 42 53 74 72 65 61 6d 00 66 90                 8DBStream.f.

00104870 <_ZTI8DBStream>:
  104870:	e8 87 10 00 64 48 10 00 50 48 10 00 66 90 66 90     ....dH..PH..f.f.

00104880 <_ZTV6Stream>:
  104880:	00 00 00 00 50 48 10 00 e0 51 10 00 d0 06 10 00     ....PH...Q......
  104890:	e0 51 10 00 e0 51 10 00 e0 51 10 00 e0 51 10 00     .Q...Q...Q...Q..

001048a0 <_ZTV8DBStream>:
  1048a0:	00 00 00 00 70 48 10 00 f0 16 10 00 d0 06 10 00     ....pH..........
  1048b0:	a0 16 10 00 b0 16 10 00 d0 16 10 00 e0 16 10 00     ................

001048c0 <_ZTI7Queue_p>:
  1048c0:	a8 87 10 00 c8 48 10 00                             .....H..

001048c8 <_ZTS7Queue_p>:
  1048c8:	37 51 75 65 75 65 5f 70 00                          7Queue_p.

001048d1 <_ZTS6ring_t>:
  1048d1:	36 72 69 6e 67 5f 74 00 66 90 90                    6ring_t.f..

001048dc <_ZTI6ring_t>:
  1048dc:	e8 87 10 00 d1 48 10 00 c0 48 10 00                 .....H...H..

001048e8 <_ZTV6ring_t>:
  1048e8:	00 00 00 00 dc 48 10 00 f0 18 10 00 60 19 10 00     .....H......`...
  1048f8:	30 19 10 00 50 19 10 00                             0...P...

00104900 <_ZTS11dynamicring>:
  104900:	31 31 64 79 6e 61 6d 69 63 72 69 6e 67 00 66 90     11dynamicring.f.

00104910 <_ZTI11dynamicring>:
  104910:	e8 87 10 00 00 49 10 00 c0 48 10 00 66 90 66 90     .....I...H..f.f.

00104920 <_ZTV11dynamicring>:
  104920:	00 00 00 00 10 49 10 00 10 1b 10 00 c0 1b 10 00     .....I..........
  104930:	60 1a 10 00 50 1a 10 00                             `...P...

00104938 <_ZTS12staticring_t>:
  104938:	31 32 73 74 61 74 69 63 72 69 6e 67 5f 74 00 90     12staticring_t..

00104948 <_ZTI12staticring_t>:
  104948:	e8 87 10 00 38 49 10 00 c0 48 10 00 66 90 66 90     ....8I...H..f.f.

00104958 <_ZTV12staticring_t>:
  104958:	00 00 00 00 48 49 10 00 10 1c 10 00 90 1c 10 00     ....HI..........
  104968:	60 1c 10 00 80 1c 10 00                             `.......

00104970 <_ZTV7Queue_p>:
  104970:	00 00 00 00 c0 48 10 00 e0 51 10 00 e0 51 10 00     .....H...Q...Q..
  104980:	e0 51 10 00 e0 51 10 00 6d 61 63 68 69 6e 65 00     .Q...Q..machine.
  104990:	1b 5b 00 43 00 1b 5b 4b 00 1b 5b 44 20 1b 5b 44     .[.C..[K..[D .[D
  1049a0:	00 66 90 90 40 25 10 00 b0 24 10 00 b0 24 10 00     .f..@%...$...$..
  1049b0:	b0 24 10 00 40 25 10 00 b0 24 10 00 b0 24 10 00     .$..@%...$...$..
  1049c0:	40 25 10 00 d0 24 10 00 40 25 10 00 20 25 10 00     @%...$..@%.. %..
  1049d0:	b0 24 10 00 40 25 10 00 b0 24 10 00 b0 24 10 00     .$..@%...$...$..
  1049e0:	40 25 10 00 b0 24 10 00 40 25 10 00 40 25 10 00     @%...$..@%..@%..
  1049f0:	40 25 10 00 40 25 10 00 b0 24 10 00 40 25 10 00     @%..@%...$..@%..
  104a00:	40 25 10 00 40 25 10 00 40 25 10 00 40 25 10 00     @%..@%..@%..@%..
  104a10:	10 25 10 00 40 25 10 00 40 25 10 00 40 25 10 00     .%..@%..@%..@%..
  104a20:	40 25 10 00 40 25 10 00 40 25 10 00 40 25 10 00     @%..@%..@%..@%..
  104a30:	40 25 10 00 40 25 10 00 40 25 10 00 40 25 10 00     @%..@%..@%..@%..
  104a40:	40 25 10 00 40 25 10 00 40 25 10 00 40 25 10 00     @%..@%..@%..@%..
  104a50:	40 25 10 00 40 25 10 00 40 25 10 00 40 25 10 00     @%..@%..@%..@%..
  104a60:	40 25 10 00 40 25 10 00 40 25 10 00 40 25 10 00     @%..@%..@%..@%..
  104a70:	40 25 10 00 40 25 10 00 40 25 10 00 40 25 10 00     @%..@%..@%..@%..
  104a80:	40 25 10 00 40 25 10 00 40 25 10 00 40 25 10 00     @%..@%..@%..@%..
  104a90:	40 25 10 00 40 25 10 00 40 25 10 00 40 25 10 00     @%..@%..@%..@%..
  104aa0:	40 25 10 00 40 25 10 00 40 25 10 00 40 25 10 00     @%..@%..@%..@%..
  104ab0:	40 25 10 00 40 25 10 00 40 25 10 00 40 25 10 00     @%..@%..@%..@%..
  104ac0:	40 25 10 00 40 25 10 00 40 25 10 00 40 25 10 00     @%..@%..@%..@%..
  104ad0:	40 25 10 00 40 25 10 00 40 25 10 00 40 25 10 00     @%..@%..@%..@%..
  104ae0:	40 25 10 00 40 25 10 00 40 25 10 00 40 25 10 00     @%..@%..@%..@%..
  104af0:	40 25 10 00 40 25 10 00 40 25 10 00 40 25 10 00     @%..@%..@%..@%..
  104b00:	40 25 10 00 40 25 10 00 40 25 10 00 40 25 10 00     @%..@%..@%..@%..
  104b10:	40 25 10 00 40 25 10 00 40 25 10 00 40 25 10 00     @%..@%..@%..@%..
  104b20:	40 25 10 00 40 25 10 00 40 25 10 00 40 25 10 00     @%..@%..@%..@%..
  104b30:	40 25 10 00 40 25 10 00 40 25 10 00 40 25 10 00     @%..@%..@%..@%..
  104b40:	40 25 10 00 40 25 10 00 40 25 10 00 40 25 10 00     @%..@%..@%..@%..
  104b50:	40 25 10 00 40 25 10 00 40 25 10 00 40 25 10 00     @%..@%..@%..@%..
  104b60:	40 25 10 00 40 25 10 00 40 25 10 00 40 25 10 00     @%..@%..@%..@%..
  104b70:	40 25 10 00 40 25 10 00 40 25 10 00 40 25 10 00     @%..@%..@%..@%..
  104b80:	40 25 10 00 40 25 10 00 40 25 10 00 40 25 10 00     @%..@%..@%..@%..
  104b90:	40 25 10 00 40 25 10 00 40 25 10 00 40 25 10 00     @%..@%..@%..@%..
  104ba0:	d0 24 10 00 43 6f 6d 6d 61 6e 64 20 22 00 66 90     .$..Command ".f.
  104bb0:	22 20 6e 6f 74 20 66 6f 75 6e 64 2e 20 55 73 65     " not found. Use
  104bc0:	20 22 6c 69 73 74 22 20 69 6e 73 74 72 75 63 74      "list" instruct
  104bd0:	69 6f 6e 2e 00 47 65 6e 4f 53 00 30 2e 31 00 61     ion..GenOS.0.1.a
  104be0:	62 6f 75 74 00 70 74 65 73 74 00 73 65 63 74 69     bout.ptest.secti
  104bf0:	6f 6e 69 6e 66 6f 00 6d 65 6d 6c 69 73 74 00 90     oninfo.memlist..

00104c00 <_ZTI11Allocator_p>:
  104c00:	a8 87 10 00 08 4c 10 00                             .....L..

00104c08 <_ZTS11Allocator_p>:
  104c08:	31 31 41 6c 6c 6f 63 61 74 6f 72 5f 70 00           11Allocator_p.

00104c16 <_ZTS12Object_cache>:
  104c16:	31 32 4f 62 6a 65 63 74 5f 63 61 63 68 65 00 66     12Object_cache.f
  104c26:	90 90                                               ..

00104c28 <_ZTI12Object_cache>:
  104c28:	e8 87 10 00 16 4c 10 00 00 4c 10 00 66 90 66 90     .....L...L..f.f.

00104c38 <_ZTV11Allocator_p>:
  104c38:	00 00 00 00 00 4c 10 00 e0 51 10 00 e0 51 10 00     .....L...Q...Q..
  104c48:	e0 51 10 00 66 90 66 90                             .Q..f.f.

00104c50 <_ZTV12Object_cache>:
  104c50:	00 00 00 00 28 4c 10 00 60 2a 10 00 70 2a 10 00     ....(L..`*..p*..
  104c60:	90 2a 10 00 66 90 66 90 66 90 66 90 66 90 66 90     .*..f.f.f.f.f.f.
  104c70:	66 90 66 90 66 90 66 90 66 90 66 90 66 90 66 90     f.f.f.f.f.f.f.f.
  104c80:	30 2d 10 00 28 2d 10 00 08 2d 10 00 e8 2c 10 00     0-..(-...-...,..
  104c90:	40 2d 10 00 38 2d 10 00 47 2d 10 00 1f 2e 10 00     @-..8-..G-......
  104ca0:	67 2e 10 00 67 2e 10 00 d7 2d 10 00 67 2e 10 00     g...g....-..g...
  104cb0:	8f 2d 10 00 67 2e 10 00 47 2d 10 00 4b 2d 10 00     .-..g...G-..K-..
  104cc0:	67 2e 10 00 67 2e 10 00 47 2d 10 00 00 00 00 00     g...g...G-......
	...

00104ce0 <_ZL20s_scanTableWithShift>:
  104ce0:	00 01 1b 00 21 00 40 00 23 00 24 00 25 00 5e 00     ....!.@.#.$.%.^.
  104cf0:	26 00 2a 00 28 00 29 00 5f 00 2b 00 08 00 09 00     &.*.(.)._.+.....
  104d00:	51 00 57 00 45 00 52 00 54 00 59 00 55 00 49 00     Q.W.E.R.T.Y.U.I.
  104d10:	4f 00 50 00 7b 00 7d 00 0a 00 0d 01 41 00 53 00     O.P.{.}.....A.S.
  104d20:	44 00 46 00 47 00 48 00 4a 00 4b 00 4c 00 3a 00     D.F.G.H.J.K.L.:.
  104d30:	22 00 7e 00 0f 01 7c 00 5a 00 58 00 43 00 56 00     ".~...|.Z.X.C.V.
  104d40:	42 00 4e 00 4d 00 3c 00 3e 00 3f 00 10 01 13 01     B.N.M.<.>.?.....
  104d50:	11 01 20 00 14 01 01 01 02 01 03 01 04 01 05 01     .. .............
  104d60:	06 01 07 01 08 01 09 01 0a 01 15 01 16 01 80 03     ................
  104d70:	81 03 82 03 83 03 84 03 85 03 86 03 87 03 88 03     ................
  104d80:	89 03 8a 03 8b 03 8c 03 17 01 00 01 00 01 00 01     ................
	...

00104da0 <_ZL18s_scanTableNoShift>:
  104da0:	00 01 1b 00 31 00 32 00 33 00 34 00 35 00 36 00     ....1.2.3.4.5.6.
  104db0:	37 00 38 00 39 00 30 00 2d 00 3d 00 08 00 09 00     7.8.9.0.-.=.....
  104dc0:	71 00 77 00 65 00 72 00 74 00 79 00 75 00 69 00     q.w.e.r.t.y.u.i.
  104dd0:	6f 00 70 00 5b 00 5d 00 0a 00 0d 01 61 00 73 00     o.p.[.].....a.s.
  104de0:	64 00 66 00 67 00 68 00 6a 00 6b 00 6c 00 3b 00     d.f.g.h.j.k.l.;.
  104df0:	27 00 60 00 0f 01 5c 00 7a 00 78 00 63 00 76 00     '.`...\.z.x.c.v.
  104e00:	62 00 6e 00 6d 00 2c 00 2e 00 2f 00 10 01 13 01     b.n.m.,.../.....
  104e10:	11 01 20 00 14 01 01 01 02 01 03 01 04 01 05 01     .. .............
  104e20:	06 01 07 01 08 01 09 01 0a 01 15 01 16 01 80 03     ................
  104e30:	81 03 82 03 83 03 84 03 85 03 86 03 87 03 88 03     ................
  104e40:	89 03 8a 03 8b 03 8c 03 17 01 00 01 00 01 00 01     ................

00104e50 <_ZTI10KeyCommand>:
  104e50:	a8 87 10 00 58 4e 10 00                             ....XN..

00104e58 <_ZTS10KeyCommand>:
  104e58:	31 30 4b 65 79 43 6f 6d 6d 61 6e 64 00              10KeyCommand.

00104e65 <_ZTS18video_page_command>:
  104e65:	31 38 76 69 64 65 6f 5f 70 61 67 65 5f 63 6f 6d     18video_page_com
  104e75:	6d 61 6e 64 00 66 90                                mand.f.

00104e7c <_ZTI18video_page_command>:
  104e7c:	e8 87 10 00 65 4e 10 00 50 4e 10 00 66 90 66 90     ....eN..PN..f.f.
  104e8c:	66 90 66 90 66 90 66 90 66 90 66 90 66 90 66 90     f.f.f.f.f.f.f.f.
  104e9c:	66 90 66 90                                         f.f.

00104ea0 <_ZTV10KeyCommand>:
  104ea0:	00 00 00 00 50 4e 10 00 e0 51 10 00 e0 51 10 00     ....PN...Q...Q..
  104eb0:	e0 51 10 00 e0 51 10 00 e0 51 10 00 e0 51 10 00     .Q...Q...Q...Q..
  104ec0:	e0 51 10 00 e0 51 10 00 e0 51 10 00 66 90 66 90     .Q...Q...Q..f.f.
  104ed0:	66 90 66 90 66 90 66 90 66 90 66 90 66 90 66 90     f.f.f.f.f.f.f.f.

00104ee0 <_ZTV18video_page_command>:
  104ee0:	00 00 00 00 7c 4e 10 00 60 2f 10 00 e0 2e 10 00     ....|N..`/......
  104ef0:	f0 2e 10 00 00 2f 10 00 10 2f 10 00 20 2f 10 00     ...../.../.. /..
  104f00:	30 2f 10 00 40 2f 10 00 50 2f 10 00 3e 3e 50 4c     0/..@/..P/..>>PL
  104f10:	41 54 46 4f 52 4d 5f 49 4e 49 54 0d 0a 00 50 4c     ATFORM_INIT...PL
  104f20:	41 54 46 4f 52 4d 3a 00 50 43 5f 6d 75 6c 74 69     ATFORM:.PC_multi
  104f30:	62 6f 6f 74 00 43 50 55 3a 00 69 33 38 36 00 53     boot.CPU:.i386.S
  104f40:	74 75 62 49 52 51 00 90 47 6c 6f 62 61 6c 20 44     tubIRQ..Global D
  104f50:	65 73 63 72 69 70 74 6f 72 73 20 54 61 62 6c 65     escriptors Table
  104f60:	20 47 44 54 3a 0a 00 00 47 6c 6f 62 61 6c 20 44      GDT:...Global D
  104f70:	65 73 63 72 69 70 74 6f 72 73 20 54 61 62 6c 65     escriptors Table
  104f80:	20 49 44 54 20 28 62 65 67 69 6e 29 3a 0a 00 00      IDT (begin):...
  104f90:	66 90 66 90 66 90 66 90 66 90 66 90 66 90 66 90     f.f.f.f.f.f.f.f.

00104fa0 <_ZL20s_scanTableWithShift>:
  104fa0:	00 01 1b 00 21 00 40 00 23 00 24 00 25 00 5e 00     ....!.@.#.$.%.^.
  104fb0:	26 00 2a 00 28 00 29 00 5f 00 2b 00 08 00 09 00     &.*.(.)._.+.....
  104fc0:	51 00 57 00 45 00 52 00 54 00 59 00 55 00 49 00     Q.W.E.R.T.Y.U.I.
  104fd0:	4f 00 50 00 7b 00 7d 00 0a 00 0d 01 41 00 53 00     O.P.{.}.....A.S.
  104fe0:	44 00 46 00 47 00 48 00 4a 00 4b 00 4c 00 3a 00     D.F.G.H.J.K.L.:.
  104ff0:	22 00 7e 00 0f 01 7c 00 5a 00 58 00 43 00 56 00     ".~...|.Z.X.C.V.
  105000:	42 00 4e 00 4d 00 3c 00 3e 00 3f 00 10 01 13 01     B.N.M.<.>.?.....
  105010:	11 01 20 00 14 01 01 01 02 01 03 01 04 01 05 01     .. .............
  105020:	06 01 07 01 08 01 09 01 0a 01 15 01 16 01 80 03     ................
  105030:	81 03 82 03 83 03 84 03 85 03 86 03 87 03 88 03     ................
  105040:	89 03 8a 03 8b 03 8c 03 17 01 00 01 00 01 00 01     ................
	...

00105060 <_ZL18s_scanTableNoShift>:
  105060:	00 01 1b 00 31 00 32 00 33 00 34 00 35 00 36 00     ....1.2.3.4.5.6.
  105070:	37 00 38 00 39 00 30 00 2d 00 3d 00 08 00 09 00     7.8.9.0.-.=.....
  105080:	71 00 77 00 65 00 72 00 74 00 79 00 75 00 69 00     q.w.e.r.t.y.u.i.
  105090:	6f 00 70 00 5b 00 5d 00 0a 00 0d 01 61 00 73 00     o.p.[.].....a.s.
  1050a0:	64 00 66 00 67 00 68 00 6a 00 6b 00 6c 00 3b 00     d.f.g.h.j.k.l.;.
  1050b0:	27 00 60 00 0f 01 5c 00 7a 00 78 00 63 00 76 00     '.`...\.z.x.c.v.
  1050c0:	62 00 6e 00 6d 00 2c 00 2e 00 2f 00 10 01 13 01     b.n.m.,.../.....
  1050d0:	11 01 20 00 14 01 01 01 02 01 03 01 04 01 05 01     .. .............
  1050e0:	06 01 07 01 08 01 09 01 0a 01 15 01 16 01 80 03     ................
  1050f0:	81 03 82 03 83 03 84 03 85 03 86 03 87 03 88 03     ................
  105100:	89 03 8a 03 8b 03 8c 03 17 01 00 01 00 01 00 01     ................
  105110:	62 75 73 3d 00 20 64 65 76 3d 00 20 66 75 6e 63     bus=. dev=. func
  105120:	3d 00 20 76 65 6e 64 49 44 3d 00 20 64 65 76 49     =. vendID=. devI
  105130:	44 3d 00 20 63 6c 61 73 73 5f 6e 61 6d 65 3d 00     D=. class_name=.
  105140:	0a 3e 3e 3e 20 6b 6d 61 69 6e 21 0a 00 66 90 90     .>>> kmain!..f..

00105150 <_init>:
  105150:	53                   	push   %ebx
  105151:	83 ec 08             	sub    $0x8,%esp
  105154:	e8 d7 ae ff ff       	call   100030 <__x86.get_pc_thunk.bx>
  105159:	81 c3 3b 1d 00 00    	add    $0x1d3b,%ebx
  10515f:	8b 83 fc ff ff ff    	mov    -0x4(%ebx),%eax
  105165:	85 c0                	test   %eax,%eax
  105167:	74 05                	je     10516e <_init+0x1e>
  105169:	e8 42 00 00 00       	call   1051b0 <__fini_array_end+0x1c>
  10516e:	83 c4 08             	add    $0x8,%esp
  105171:	5b                   	pop    %ebx
  105172:	c3                   	ret    
  105173:	90                   	nop

00105174 <__init_array_start>:
  105174:	d0 00                	rolb   (%eax)
  105176:	10 00                	adc    %al,(%eax)
  105178:	c0 02 10             	rolb   $0x10,(%edx)
	...

0010517c <_fini>:
  10517c:	53                   	push   %ebx
  10517d:	83 ec 08             	sub    $0x8,%esp
  105180:	e8 ab ae ff ff       	call   100030 <__x86.get_pc_thunk.bx>
  105185:	81 c3 0f 1d 00 00    	add    $0x1d0f,%ebx
  10518b:	83 c4 08             	add    $0x8,%esp
  10518e:	5b                   	pop    %ebx
  10518f:	c3                   	ret    

00105190 <__fini_array_start>:
  105190:	b0 00                	mov    $0x0,%al
  105192:	10 00                	adc    %al,(%eax)

Дизассемблирование раздела .plt:

001051a0 <.plt>:
  1051a0:	ff 35 98 6e 10 00    	pushl  0x106e98
  1051a6:	ff 25 9c 6e 10 00    	jmp    *0x106e9c
  1051ac:	00 00                	add    %al,(%eax)
  1051ae:	00 00                	add    %al,(%eax)
  1051b0:	ff 25 a0 6e 10 00    	jmp    *0x106ea0
  1051b6:	68 00 00 00 00       	push   $0x0
  1051bb:	e9 e0 ff ff ff       	jmp    1051a0 <_text_end+0xc>
  1051c0:	ff 25 a4 6e 10 00    	jmp    *0x106ea4
  1051c6:	68 08 00 00 00       	push   $0x8
  1051cb:	e9 d0 ff ff ff       	jmp    1051a0 <_text_end+0xc>
  1051d0:	ff 25 a8 6e 10 00    	jmp    *0x106ea8
  1051d6:	68 10 00 00 00       	push   $0x10
  1051db:	e9 c0 ff ff ff       	jmp    1051a0 <_text_end+0xc>
  1051e0:	ff 25 ac 6e 10 00    	jmp    *0x106eac
  1051e6:	68 18 00 00 00       	push   $0x18
  1051eb:	e9 b0 ff ff ff       	jmp    1051a0 <_text_end+0xc>
  1051f0:	ff 25 b0 6e 10 00    	jmp    *0x106eb0
  1051f6:	68 20 00 00 00       	push   $0x20
  1051fb:	e9 a0 ff ff ff       	jmp    1051a0 <_text_end+0xc>
  105200:	ff 25 b4 6e 10 00    	jmp    *0x106eb4
  105206:	68 28 00 00 00       	push   $0x28
  10520b:	e9 90 ff ff ff       	jmp    1051a0 <_text_end+0xc>
