
kernel:     формат файла elf32-i386


Дизассемблирование раздела .text:

00100000 <_ZL4outbth-0xc>:
  100000:	02 b0 ad 1b 01 00    	add    0x11bad(%eax),%dh
  100006:	00 00                	add    %al,(%eax)
  100008:	fd                   	std    
  100009:	4f                   	dec    %edi
  10000a:	52                   	push   %edx
  10000b:	e4 55                	in     $0x55,%al

0010000c <_ZL4outbth>:
  10000c:	55                   	push   %ebp
  10000d:	89 e5                	mov    %esp,%ebp
  10000f:	83 ec 08             	sub    $0x8,%esp
  100012:	8b 55 08             	mov    0x8(%ebp),%edx
  100015:	8b 45 0c             	mov    0xc(%ebp),%eax
  100018:	66 89 55 fc          	mov    %dx,-0x4(%ebp)
  10001c:	88 45 f8             	mov    %al,-0x8(%ebp)
  10001f:	0f b7 55 fc          	movzwl -0x4(%ebp),%edx
  100023:	0f b6 45 f8          	movzbl -0x8(%ebp),%eax
  100027:	ee                   	out    %al,(%dx)
  100028:	c9                   	leave  
  100029:	c3                   	ret    

0010002a <_ZL3inbt>:
  10002a:	55                   	push   %ebp
  10002b:	89 e5                	mov    %esp,%ebp
  10002d:	83 ec 14             	sub    $0x14,%esp
  100030:	8b 45 08             	mov    0x8(%ebp),%eax
  100033:	66 89 45 ec          	mov    %ax,-0x14(%ebp)
  100037:	0f b7 45 ec          	movzwl -0x14(%ebp),%eax
  10003b:	89 c2                	mov    %eax,%edx
  10003d:	ec                   	in     (%dx),%al
  10003e:	88 45 ff             	mov    %al,-0x1(%ebp)
  100041:	0f b6 45 ff          	movzbl -0x1(%ebp),%eax
  100045:	c9                   	leave  
  100046:	c3                   	ret    

00100047 <_ZL29platform_abstract_irq_handlerP14interrupt_info>:
  100047:	55                   	push   %ebp
  100048:	89 e5                	mov    %esp,%ebp
  10004a:	83 ec 08             	sub    $0x8,%esp
  10004d:	8b 45 08             	mov    0x8(%ebp),%eax
  100050:	8b 40 24             	mov    0x24(%eax),%eax
  100053:	83 f8 27             	cmp    $0x27,%eax
  100056:	76 14                	jbe    10006c <_ZL29platform_abstract_irq_handlerP14interrupt_info+0x25>
  100058:	c7 44 24 04 20 00 00 	movl   $0x20,0x4(%esp)
  10005f:	00 
  100060:	c7 04 24 a0 00 00 00 	movl   $0xa0,(%esp)
  100067:	e8 a0 ff ff ff       	call   10000c <_ZL4outbth>
  10006c:	8b 45 08             	mov    0x8(%ebp),%eax
  10006f:	8b 40 24             	mov    0x24(%eax),%eax
  100072:	83 f8 1f             	cmp    $0x1f,%eax
  100075:	76 14                	jbe    10008b <_ZL29platform_abstract_irq_handlerP14interrupt_info+0x44>
  100077:	c7 44 24 04 20 00 00 	movl   $0x20,0x4(%esp)
  10007e:	00 
  10007f:	c7 04 24 20 00 00 00 	movl   $0x20,(%esp)
  100086:	e8 81 ff ff ff       	call   10000c <_ZL4outbth>
  10008b:	c9                   	leave  
  10008c:	c3                   	ret    

0010008d <__cxa_pure_virtual>:
  10008d:	55                   	push   %ebp
  10008e:	89 e5                	mov    %esp,%ebp
  100090:	eb fe                	jmp    100090 <__cxa_pure_virtual+0x3>

00100092 <_Z10timerprintv>:
  100092:	55                   	push   %ebp
  100093:	89 e5                	mov    %esp,%ebp
  100095:	83 ec 18             	sub    $0x18,%esp
  100098:	e8 a9 7a 00 00       	call   107b46 <_Z6millisv>
  10009d:	89 c2                	mov    %eax,%edx
  10009f:	a1 80 92 10 00       	mov    0x109280,%eax
  1000a4:	c7 44 24 08 0a 00 00 	movl   $0xa,0x8(%esp)
  1000ab:	00 
  1000ac:	89 54 24 04          	mov    %edx,0x4(%esp)
  1000b0:	89 04 24             	mov    %eax,(%esp)
  1000b3:	e8 02 0e 00 00       	call   100eba <_ZN5Print7printlnEji>
  1000b8:	c9                   	leave  
  1000b9:	c3                   	ret    

001000ba <_Z9DoNothingv>:
  1000ba:	55                   	push   %ebp
  1000bb:	89 e5                	mov    %esp,%ebp
  1000bd:	5d                   	pop    %ebp
  1000be:	c3                   	ret    

001000bf <_Z15KeyboardHandlerv>:
  1000bf:	55                   	push   %ebp
  1000c0:	89 e5                	mov    %esp,%ebp
  1000c2:	83 ec 18             	sub    $0x18,%esp
  1000c5:	c7 04 24 60 00 00 00 	movl   $0x60,(%esp)
  1000cc:	e8 59 ff ff ff       	call   10002a <_ZL3inbt>
  1000d1:	0f be c0             	movsbl %al,%eax
  1000d4:	89 44 24 04          	mov    %eax,0x4(%esp)
  1000d8:	c7 04 24 20 98 10 00 	movl   $0x109820,(%esp)
  1000df:	e8 94 3e 00 00       	call   103f78 <_ZN11Scan2KeyCom10scan2asciiEc>
  1000e4:	c9                   	leave  
  1000e5:	c3                   	ret    

001000e6 <_Z12TimerHandlerv>:
  1000e6:	55                   	push   %ebp
  1000e7:	89 e5                	mov    %esp,%ebp
  1000e9:	a1 30 98 10 00       	mov    0x109830,%eax
  1000ee:	8b 15 34 98 10 00    	mov    0x109834,%edx
  1000f4:	83 c0 01             	add    $0x1,%eax
  1000f7:	83 d2 00             	adc    $0x0,%edx
  1000fa:	a3 30 98 10 00       	mov    %eax,0x109830
  1000ff:	89 15 34 98 10 00    	mov    %edx,0x109834
  100105:	5d                   	pop    %ebp
  100106:	c3                   	ret    

00100107 <_Z3dddv>:
  100107:	55                   	push   %ebp
  100108:	89 e5                	mov    %esp,%ebp
  10010a:	83 ec 18             	sub    $0x18,%esp
  10010d:	a1 40 a1 10 00       	mov    0x10a140,%eax
  100112:	8d 50 01             	lea    0x1(%eax),%edx
  100115:	89 15 40 a1 10 00    	mov    %edx,0x10a140
  10011b:	8b 15 80 92 10 00    	mov    0x109280,%edx
  100121:	c7 44 24 08 0a 00 00 	movl   $0xa,0x8(%esp)
  100128:	00 
  100129:	89 44 24 04          	mov    %eax,0x4(%esp)
  10012d:	89 14 24             	mov    %edx,(%esp)
  100130:	e8 4f 0d 00 00       	call   100e84 <_ZN5Print7printlnEii>
  100135:	c9                   	leave  
  100136:	c3                   	ret    

00100137 <_Z4testv>:
  100137:	55                   	push   %ebp
  100138:	89 e5                	mov    %esp,%ebp
  10013a:	5d                   	pop    %ebp
  10013b:	c3                   	ret    

0010013c <_Z5resetv>:
  10013c:	55                   	push   %ebp
  10013d:	89 e5                	mov    %esp,%ebp
  10013f:	83 ec 18             	sub    $0x18,%esp
  100142:	c7 04 24 92 00 00 00 	movl   $0x92,(%esp)
  100149:	e8 dc fe ff ff       	call   10002a <_ZL3inbt>
  10014e:	88 45 ff             	mov    %al,-0x1(%ebp)
  100151:	0f b6 45 ff          	movzbl -0x1(%ebp),%eax
  100155:	83 c8 01             	or     $0x1,%eax
  100158:	0f b6 c0             	movzbl %al,%eax
  10015b:	89 44 24 04          	mov    %eax,0x4(%esp)
  10015f:	c7 04 24 92 00 00 00 	movl   $0x92,(%esp)
  100166:	e8 a1 fe ff ff       	call   10000c <_ZL4outbth>
  10016b:	c9                   	leave  
  10016c:	c3                   	ret    

0010016d <_Z3clrv>:
  10016d:	55                   	push   %ebp
  10016e:	89 e5                	mov    %esp,%ebp
  100170:	83 ec 18             	sub    $0x18,%esp
  100173:	c7 04 24 0c 96 10 00 	movl   $0x10960c,(%esp)
  10017a:	e8 85 35 00 00       	call   103704 <_ZN14VideoPagePrint4initEv>
  10017f:	c9                   	leave  
  100180:	c3                   	ret    

00100181 <_Z4ddd2v>:
  100181:	55                   	push   %ebp
  100182:	89 e5                	mov    %esp,%ebp
  100184:	5d                   	pop    %ebp
  100185:	c3                   	ret    

00100186 <main>:
  100186:	55                   	push   %ebp
  100187:	89 e5                	mov    %esp,%ebp
  100189:	83 e4 f0             	and    $0xfffffff0,%esp
  10018c:	83 ec 20             	sub    $0x20,%esp
  10018f:	e8 59 02 00 00       	call   1003ed <_Z7OS_initv>
  100194:	c7 44 24 08 10 27 00 	movl   $0x2710,0x8(%esp)
  10019b:	00 
  10019c:	c7 44 24 04 60 a1 10 	movl   $0x10a160,0x4(%esp)
  1001a3:	00 
  1001a4:	c7 04 24 8c c8 10 00 	movl   $0x10c88c,(%esp)
  1001ab:	e8 02 43 00 00       	call   1044b2 <_ZN16Linear_allocator6engageEPvj>
  1001b0:	c7 05 20 96 10 00 8c 	movl   $0x10c88c,0x109620
  1001b7:	c8 10 00 
  1001ba:	fb                   	sti    
  1001bb:	e8 1e 2a 00 00       	call   102bde <_Z25registry_standart_utilityv>
  1001c0:	e8 60 2a 00 00       	call   102c25 <_Z22registry_alloc_utilityv>
  1001c5:	b8 51 81 10 00       	mov    $0x108151,%eax
  1001ca:	89 44 24 04          	mov    %eax,0x4(%esp)
  1001ce:	c7 04 24 64 84 10 00 	movl   $0x108464,(%esp)
  1001d5:	e8 c6 26 00 00       	call   1028a0 <_Z11command_addPcj>
  1001da:	b8 37 01 10 00       	mov    $0x100137,%eax
  1001df:	89 44 24 04          	mov    %eax,0x4(%esp)
  1001e3:	c7 04 24 6c 84 10 00 	movl   $0x10846c,(%esp)
  1001ea:	e8 b1 26 00 00       	call   1028a0 <_Z11command_addPcj>
  1001ef:	b8 92 00 10 00       	mov    $0x100092,%eax
  1001f4:	89 44 24 04          	mov    %eax,0x4(%esp)
  1001f8:	c7 04 24 71 84 10 00 	movl   $0x108471,(%esp)
  1001ff:	e8 9c 26 00 00       	call   1028a0 <_Z11command_addPcj>
  100204:	b8 6d 01 10 00       	mov    $0x10016d,%eax
  100209:	89 44 24 04          	mov    %eax,0x4(%esp)
  10020d:	c7 04 24 77 84 10 00 	movl   $0x108477,(%esp)
  100214:	e8 87 26 00 00       	call   1028a0 <_Z11command_addPcj>
  100219:	b8 3c 01 10 00       	mov    $0x10013c,%eax
  10021e:	89 44 24 04          	mov    %eax,0x4(%esp)
  100222:	c7 04 24 7b 84 10 00 	movl   $0x10847b,(%esp)
  100229:	e8 72 26 00 00       	call   1028a0 <_Z11command_addPcj>
  10022e:	c7 04 24 0c 96 10 00 	movl   $0x10960c,(%esp)
  100235:	e8 ca 34 00 00       	call   103704 <_ZN14VideoPagePrint4initEv>
  10023a:	c7 44 24 0c 01 00 00 	movl   $0x1,0xc(%esp)
  100241:	00 
  100242:	c7 44 24 08 64 00 00 	movl   $0x64,0x8(%esp)
  100249:	00 
  10024a:	c7 44 24 04 81 01 10 	movl   $0x100181,0x4(%esp)
  100251:	00 
  100252:	c7 04 24 70 c8 10 00 	movl   $0x10c870,(%esp)
  100259:	e8 a8 48 00 00       	call   104b06 <_ZN3TSH8newTimerEPFvvEjh>
  10025e:	a1 8c 84 10 00       	mov    0x10848c,%eax
  100263:	89 44 24 0c          	mov    %eax,0xc(%esp)
  100267:	a1 90 84 10 00       	mov    0x108490,%eax
  10026c:	89 44 24 08          	mov    %eax,0x8(%esp)
  100270:	a1 94 84 10 00       	mov    0x108494,%eax
  100275:	89 44 24 04          	mov    %eax,0x4(%esp)
  100279:	c7 04 24 84 c8 10 00 	movl   $0x10c884,(%esp)
  100280:	e8 e3 49 00 00       	call   104c68 <_ZN10AFS_filter4initEfff>
  100285:	8d 44 24 10          	lea    0x10(%esp),%eax
  100289:	89 04 24             	mov    %eax,(%esp)
  10028c:	e8 a1 02 00 00       	call   100532 <_ZN7median3IjE4initEv>
  100291:	c7 44 24 04 02 00 00 	movl   $0x2,0x4(%esp)
  100298:	00 
  100299:	8d 44 24 10          	lea    0x10(%esp),%eax
  10029d:	89 04 24             	mov    %eax,(%esp)
  1002a0:	e8 b7 02 00 00       	call   10055c <_ZN7median3IjE9calculateEj>
  1002a5:	8b 15 80 92 10 00    	mov    0x109280,%edx
  1002ab:	c7 44 24 08 0a 00 00 	movl   $0xa,0x8(%esp)
  1002b2:	00 
  1002b3:	89 44 24 04          	mov    %eax,0x4(%esp)
  1002b7:	89 14 24             	mov    %edx,(%esp)
  1002ba:	e8 fb 0b 00 00       	call   100eba <_ZN5Print7printlnEji>
  1002bf:	c7 44 24 04 0a 00 00 	movl   $0xa,0x4(%esp)
  1002c6:	00 
  1002c7:	8d 44 24 10          	lea    0x10(%esp),%eax
  1002cb:	89 04 24             	mov    %eax,(%esp)
  1002ce:	e8 89 02 00 00       	call   10055c <_ZN7median3IjE9calculateEj>
  1002d3:	8b 15 80 92 10 00    	mov    0x109280,%edx
  1002d9:	c7 44 24 08 0a 00 00 	movl   $0xa,0x8(%esp)
  1002e0:	00 
  1002e1:	89 44 24 04          	mov    %eax,0x4(%esp)
  1002e5:	89 14 24             	mov    %edx,(%esp)
  1002e8:	e8 cd 0b 00 00       	call   100eba <_ZN5Print7printlnEji>
  1002ed:	c7 44 24 04 03 00 00 	movl   $0x3,0x4(%esp)
  1002f4:	00 
  1002f5:	8d 44 24 10          	lea    0x10(%esp),%eax
  1002f9:	89 04 24             	mov    %eax,(%esp)
  1002fc:	e8 5b 02 00 00       	call   10055c <_ZN7median3IjE9calculateEj>
  100301:	8b 15 80 92 10 00    	mov    0x109280,%edx
  100307:	c7 44 24 08 0a 00 00 	movl   $0xa,0x8(%esp)
  10030e:	00 
  10030f:	89 44 24 04          	mov    %eax,0x4(%esp)
  100313:	89 14 24             	mov    %edx,(%esp)
  100316:	e8 9f 0b 00 00       	call   100eba <_ZN5Print7printlnEji>
  10031b:	c7 44 24 04 04 00 00 	movl   $0x4,0x4(%esp)
  100322:	00 
  100323:	8d 44 24 10          	lea    0x10(%esp),%eax
  100327:	89 04 24             	mov    %eax,(%esp)
  10032a:	e8 2d 02 00 00       	call   10055c <_ZN7median3IjE9calculateEj>
  10032f:	8b 15 80 92 10 00    	mov    0x109280,%edx
  100335:	c7 44 24 08 0a 00 00 	movl   $0xa,0x8(%esp)
  10033c:	00 
  10033d:	89 44 24 04          	mov    %eax,0x4(%esp)
  100341:	89 14 24             	mov    %edx,(%esp)
  100344:	e8 71 0b 00 00       	call   100eba <_ZN5Print7printlnEji>
  100349:	c7 44 24 04 03 00 00 	movl   $0x3,0x4(%esp)
  100350:	00 
  100351:	8d 44 24 10          	lea    0x10(%esp),%eax
  100355:	89 04 24             	mov    %eax,(%esp)
  100358:	e8 ff 01 00 00       	call   10055c <_ZN7median3IjE9calculateEj>
  10035d:	8b 15 80 92 10 00    	mov    0x109280,%edx
  100363:	c7 44 24 08 0a 00 00 	movl   $0xa,0x8(%esp)
  10036a:	00 
  10036b:	89 44 24 04          	mov    %eax,0x4(%esp)
  10036f:	89 14 24             	mov    %edx,(%esp)
  100372:	e8 43 0b 00 00       	call   100eba <_ZN5Print7printlnEji>
  100377:	c7 44 24 04 02 00 00 	movl   $0x2,0x4(%esp)
  10037e:	00 
  10037f:	8d 44 24 10          	lea    0x10(%esp),%eax
  100383:	89 04 24             	mov    %eax,(%esp)
  100386:	e8 d1 01 00 00       	call   10055c <_ZN7median3IjE9calculateEj>
  10038b:	8b 15 80 92 10 00    	mov    0x109280,%edx
  100391:	c7 44 24 08 0a 00 00 	movl   $0xa,0x8(%esp)
  100398:	00 
  100399:	89 44 24 04          	mov    %eax,0x4(%esp)
  10039d:	89 14 24             	mov    %edx,(%esp)
  1003a0:	e8 15 0b 00 00       	call   100eba <_ZN5Print7printlnEji>
  1003a5:	c7 44 24 04 01 00 00 	movl   $0x1,0x4(%esp)
  1003ac:	00 
  1003ad:	8d 44 24 10          	lea    0x10(%esp),%eax
  1003b1:	89 04 24             	mov    %eax,(%esp)
  1003b4:	e8 a3 01 00 00       	call   10055c <_ZN7median3IjE9calculateEj>
  1003b9:	8b 15 80 92 10 00    	mov    0x109280,%edx
  1003bf:	c7 44 24 08 0a 00 00 	movl   $0xa,0x8(%esp)
  1003c6:	00 
  1003c7:	89 44 24 04          	mov    %eax,0x4(%esp)
  1003cb:	89 14 24             	mov    %edx,(%esp)
  1003ce:	e8 e7 0a 00 00       	call   100eba <_ZN5Print7printlnEji>
  1003d3:	c7 04 24 00 97 10 00 	movl   $0x109700,(%esp)
  1003da:	e8 51 1b 00 00       	call   101f30 <_ZN11rl_terminal12print_promptEv>
  1003df:	c7 04 24 70 c8 10 00 	movl   $0x10c870,(%esp)
  1003e6:	e8 17 46 00 00       	call   104a02 <_ZN3TSH5startEv>
  1003eb:	eb f2                	jmp    1003df <main+0x259>

001003ed <_Z7OS_initv>:
  1003ed:	55                   	push   %ebp
  1003ee:	89 e5                	mov    %esp,%ebp
  1003f0:	83 ec 18             	sub    $0x18,%esp
  1003f3:	c7 04 24 81 84 10 00 	movl   $0x108481,(%esp)
  1003fa:	e8 cc 04 00 00       	call   1008cb <debug_print>
  1003ff:	e8 a3 12 00 00       	call   1016a7 <initenv_sections_info>
  100404:	e8 87 11 00 00       	call   101590 <initenv_bss_test>
  100409:	e8 45 11 00 00       	call   101553 <initenv_bss_clean>
  10040e:	e8 cc 10 00 00       	call   1014df <initenv_cpp_global_constructors>
  100413:	e8 b7 6a 00 00       	call   106ecf <_Z13platform_initv>
  100418:	c7 44 24 04 00 01 00 	movl   $0x100,0x4(%esp)
  10041f:	00 
  100420:	c7 04 24 40 98 10 00 	movl   $0x109840,(%esp)
  100427:	e8 7c 0e 00 00       	call   1012a8 <_Z17abstract_irq_initPvj>
  10042c:	c7 44 24 04 e6 00 10 	movl   $0x1000e6,0x4(%esp)
  100433:	00 
  100434:	c7 04 24 20 00 00 00 	movl   $0x20,(%esp)
  10043b:	e8 97 0f 00 00       	call   1013d7 <_Z19abstract_irq_attachjPFvvE>
  100440:	c7 44 24 04 bf 00 10 	movl   $0x1000bf,0x4(%esp)
  100447:	00 
  100448:	c7 04 24 21 00 00 00 	movl   $0x21,(%esp)
  10044f:	e8 83 0f 00 00       	call   1013d7 <_Z19abstract_irq_attachjPFvvE>
  100454:	c7 04 24 e8 03 00 00 	movl   $0x3e8,(%esp)
  10045b:	e8 83 76 00 00       	call   107ae3 <_Z10init_timerj>
  100460:	c9                   	leave  
  100461:	c3                   	ret    

00100462 <_Z41__static_initialization_and_destruction_0ii>:
  100462:	55                   	push   %ebp
  100463:	89 e5                	mov    %esp,%ebp
  100465:	83 ec 18             	sub    $0x18,%esp
  100468:	83 7d 08 01          	cmpl   $0x1,0x8(%ebp)
  10046c:	0f 85 a1 00 00 00    	jne    100513 <_Z41__static_initialization_and_destruction_0ii+0xb1>
  100472:	81 7d 0c ff ff 00 00 	cmpl   $0xffff,0xc(%ebp)
  100479:	0f 85 94 00 00 00    	jne    100513 <_Z41__static_initialization_and_destruction_0ii+0xb1>
  10047f:	c7 44 24 0c 19 00 00 	movl   $0x19,0xc(%esp)
  100486:	00 
  100487:	c7 44 24 08 50 00 00 	movl   $0x50,0x8(%esp)
  10048e:	00 
  10048f:	c7 44 24 04 00 80 0b 	movl   $0xb8000,0x4(%esp)
  100496:	00 
  100497:	c7 04 24 00 96 10 00 	movl   $0x109600,(%esp)
  10049e:	e8 87 2c 00 00       	call   10312a <_ZN9VideoPageC1Ejjj>
  1004a3:	c7 44 24 04 00 96 10 	movl   $0x109600,0x4(%esp)
  1004aa:	00 
  1004ab:	c7 04 24 0c 96 10 00 	movl   $0x10960c,(%esp)
  1004b2:	e8 13 32 00 00       	call   1036ca <_ZN14VideoPagePrintC1EP9VideoPage>
  1004b7:	c7 04 24 40 96 10 00 	movl   $0x109640,(%esp)
  1004be:	e8 a9 1f 00 00       	call   10246c <_ZN10readline_tC1Ev>
  1004c3:	c7 44 24 08 0c 96 10 	movl   $0x10960c,0x8(%esp)
  1004ca:	00 
  1004cb:	c7 44 24 04 40 96 10 	movl   $0x109640,0x4(%esp)
  1004d2:	00 
  1004d3:	c7 04 24 00 97 10 00 	movl   $0x109700,(%esp)
  1004da:	e8 85 1a 00 00       	call   101f64 <_ZN11rl_terminalC1EP10readline_tP6KeyCom>
  1004df:	c7 44 24 04 00 97 10 	movl   $0x109700,0x4(%esp)
  1004e6:	00 
  1004e7:	c7 04 24 20 98 10 00 	movl   $0x109820,(%esp)
  1004ee:	e8 1b 3a 00 00       	call   103f0e <_ZN11Scan2KeyComC1EP6KeyCom>
  1004f3:	c7 04 24 70 c8 10 00 	movl   $0x10c870,(%esp)
  1004fa:	e8 4b 47 00 00       	call   104c4a <_ZN3TSHC1Ev>
  1004ff:	c7 44 24 04 00 00 00 	movl   $0x0,0x4(%esp)
  100506:	00 
  100507:	c7 04 24 8c c8 10 00 	movl   $0x10c88c,(%esp)
  10050e:	e8 6b 3f 00 00       	call   10447e <_ZN16Linear_allocatorC1EP11Allocator_p>
  100513:	c9                   	leave  
  100514:	c3                   	ret    

00100515 <_GLOBAL__sub_I_v>:
  100515:	55                   	push   %ebp
  100516:	89 e5                	mov    %esp,%ebp
  100518:	83 ec 18             	sub    $0x18,%esp
  10051b:	c7 44 24 04 ff ff 00 	movl   $0xffff,0x4(%esp)
  100522:	00 
  100523:	c7 04 24 01 00 00 00 	movl   $0x1,(%esp)
  10052a:	e8 33 ff ff ff       	call   100462 <_Z41__static_initialization_and_destruction_0ii>
  10052f:	c9                   	leave  
  100530:	c3                   	ret    
  100531:	90                   	nop

00100532 <_ZN7median3IjE4initEv>:
  100532:	55                   	push   %ebp
  100533:	89 e5                	mov    %esp,%ebp
  100535:	8b 45 08             	mov    0x8(%ebp),%eax
  100538:	c7 40 04 00 00 00 00 	movl   $0x0,0x4(%eax)
  10053f:	8b 45 08             	mov    0x8(%ebp),%eax
  100542:	c7 40 08 00 00 00 00 	movl   $0x0,0x8(%eax)
  100549:	8b 45 08             	mov    0x8(%ebp),%eax
  10054c:	c7 40 0c 00 00 00 00 	movl   $0x0,0xc(%eax)
  100553:	8b 45 08             	mov    0x8(%ebp),%eax
  100556:	c6 00 00             	movb   $0x0,(%eax)
  100559:	5d                   	pop    %ebp
  10055a:	c3                   	ret    
  10055b:	90                   	nop

0010055c <_ZN7median3IjE9calculateEj>:
  10055c:	55                   	push   %ebp
  10055d:	89 e5                	mov    %esp,%ebp
  10055f:	83 ec 10             	sub    $0x10,%esp
  100562:	8b 45 08             	mov    0x8(%ebp),%eax
  100565:	0f b6 00             	movzbl (%eax),%eax
  100568:	0f b6 d0             	movzbl %al,%edx
  10056b:	8b 45 08             	mov    0x8(%ebp),%eax
  10056e:	8b 4d 0c             	mov    0xc(%ebp),%ecx
  100571:	89 4c 90 04          	mov    %ecx,0x4(%eax,%edx,4)
  100575:	8b 45 08             	mov    0x8(%ebp),%eax
  100578:	0f b6 00             	movzbl (%eax),%eax
  10057b:	8d 50 01             	lea    0x1(%eax),%edx
  10057e:	8b 45 08             	mov    0x8(%ebp),%eax
  100581:	88 10                	mov    %dl,(%eax)
  100583:	8b 45 08             	mov    0x8(%ebp),%eax
  100586:	0f b6 08             	movzbl (%eax),%ecx
  100589:	0f b6 d1             	movzbl %cl,%edx
  10058c:	89 d0                	mov    %edx,%eax
  10058e:	c1 e0 03             	shl    $0x3,%eax
  100591:	01 d0                	add    %edx,%eax
  100593:	01 c0                	add    %eax,%eax
  100595:	01 d0                	add    %edx,%eax
  100597:	8d 14 c5 00 00 00 00 	lea    0x0(,%eax,8),%edx
  10059e:	01 d0                	add    %edx,%eax
  1005a0:	66 c1 e8 08          	shr    $0x8,%ax
  1005a4:	89 c2                	mov    %eax,%edx
  1005a6:	d0 ea                	shr    %dl
  1005a8:	89 d0                	mov    %edx,%eax
  1005aa:	01 c0                	add    %eax,%eax
  1005ac:	01 d0                	add    %edx,%eax
  1005ae:	29 c1                	sub    %eax,%ecx
  1005b0:	89 ca                	mov    %ecx,%edx
  1005b2:	8b 45 08             	mov    0x8(%ebp),%eax
  1005b5:	88 10                	mov    %dl,(%eax)
  1005b7:	c6 45 fc 00          	movb   $0x0,-0x4(%ebp)
  1005bb:	c6 45 fd 00          	movb   $0x0,-0x3(%ebp)
  1005bf:	c6 45 fe 00          	movb   $0x0,-0x2(%ebp)
  1005c3:	8b 45 08             	mov    0x8(%ebp),%eax
  1005c6:	8b 50 04             	mov    0x4(%eax),%edx
  1005c9:	8b 45 08             	mov    0x8(%ebp),%eax
  1005cc:	8b 40 08             	mov    0x8(%eax),%eax
  1005cf:	39 c2                	cmp    %eax,%edx
  1005d1:	77 0c                	ja     1005df <_ZN7median3IjE9calculateEj+0x83>
  1005d3:	0f b6 45 fd          	movzbl -0x3(%ebp),%eax
  1005d7:	83 c0 01             	add    $0x1,%eax
  1005da:	88 45 fd             	mov    %al,-0x3(%ebp)
  1005dd:	eb 0a                	jmp    1005e9 <_ZN7median3IjE9calculateEj+0x8d>
  1005df:	0f b6 45 fc          	movzbl -0x4(%ebp),%eax
  1005e3:	83 c0 01             	add    $0x1,%eax
  1005e6:	88 45 fc             	mov    %al,-0x4(%ebp)
  1005e9:	8b 45 08             	mov    0x8(%ebp),%eax
  1005ec:	8b 50 04             	mov    0x4(%eax),%edx
  1005ef:	8b 45 08             	mov    0x8(%ebp),%eax
  1005f2:	8b 40 0c             	mov    0xc(%eax),%eax
  1005f5:	39 c2                	cmp    %eax,%edx
  1005f7:	77 0c                	ja     100605 <_ZN7median3IjE9calculateEj+0xa9>
  1005f9:	0f b6 45 fe          	movzbl -0x2(%ebp),%eax
  1005fd:	83 c0 01             	add    $0x1,%eax
  100600:	88 45 fe             	mov    %al,-0x2(%ebp)
  100603:	eb 0a                	jmp    10060f <_ZN7median3IjE9calculateEj+0xb3>
  100605:	0f b6 45 fc          	movzbl -0x4(%ebp),%eax
  100609:	83 c0 01             	add    $0x1,%eax
  10060c:	88 45 fc             	mov    %al,-0x4(%ebp)
  10060f:	8b 45 08             	mov    0x8(%ebp),%eax
  100612:	8b 50 08             	mov    0x8(%eax),%edx
  100615:	8b 45 08             	mov    0x8(%ebp),%eax
  100618:	8b 40 0c             	mov    0xc(%eax),%eax
  10061b:	39 c2                	cmp    %eax,%edx
  10061d:	77 0c                	ja     10062b <_ZN7median3IjE9calculateEj+0xcf>
  10061f:	0f b6 45 fe          	movzbl -0x2(%ebp),%eax
  100623:	83 c0 01             	add    $0x1,%eax
  100626:	88 45 fe             	mov    %al,-0x2(%ebp)
  100629:	eb 0a                	jmp    100635 <_ZN7median3IjE9calculateEj+0xd9>
  10062b:	0f b6 45 fd          	movzbl -0x3(%ebp),%eax
  10062f:	83 c0 01             	add    $0x1,%eax
  100632:	88 45 fd             	mov    %al,-0x3(%ebp)
  100635:	c6 45 ff 00          	movb   $0x0,-0x1(%ebp)
  100639:	eb 24                	jmp    10065f <_ZN7median3IjE9calculateEj+0x103>
  10063b:	0f b6 45 ff          	movzbl -0x1(%ebp),%eax
  10063f:	0f b6 44 05 fc       	movzbl -0x4(%ebp,%eax,1),%eax
  100644:	3c 01                	cmp    $0x1,%al
  100646:	75 0d                	jne    100655 <_ZN7median3IjE9calculateEj+0xf9>
  100648:	0f b6 55 ff          	movzbl -0x1(%ebp),%edx
  10064c:	8b 45 08             	mov    0x8(%ebp),%eax
  10064f:	8b 44 90 04          	mov    0x4(%eax,%edx,4),%eax
  100653:	eb 15                	jmp    10066a <_ZN7median3IjE9calculateEj+0x10e>
  100655:	0f b6 45 ff          	movzbl -0x1(%ebp),%eax
  100659:	83 c0 01             	add    $0x1,%eax
  10065c:	88 45 ff             	mov    %al,-0x1(%ebp)
  10065f:	80 7d ff 02          	cmpb   $0x2,-0x1(%ebp)
  100663:	76 d6                	jbe    10063b <_ZN7median3IjE9calculateEj+0xdf>
  100665:	b8 00 00 00 00       	mov    $0x0,%eax
  10066a:	c9                   	leave  
  10066b:	c3                   	ret    

0010066c <_ZL4outbth>:
  10066c:	55                   	push   %ebp
  10066d:	89 e5                	mov    %esp,%ebp
  10066f:	83 ec 08             	sub    $0x8,%esp
  100672:	8b 55 08             	mov    0x8(%ebp),%edx
  100675:	8b 45 0c             	mov    0xc(%ebp),%eax
  100678:	66 89 55 fc          	mov    %dx,-0x4(%ebp)
  10067c:	88 45 f8             	mov    %al,-0x8(%ebp)
  10067f:	0f b7 55 fc          	movzwl -0x4(%ebp),%edx
  100683:	0f b6 45 f8          	movzbl -0x8(%ebp),%eax
  100687:	ee                   	out    %al,(%dx)
  100688:	c9                   	leave  
  100689:	c3                   	ret    

0010068a <_ZL3inbt>:
  10068a:	55                   	push   %ebp
  10068b:	89 e5                	mov    %esp,%ebp
  10068d:	83 ec 14             	sub    $0x14,%esp
  100690:	8b 45 08             	mov    0x8(%ebp),%eax
  100693:	66 89 45 ec          	mov    %ax,-0x14(%ebp)
  100697:	0f b7 45 ec          	movzwl -0x14(%ebp),%eax
  10069b:	89 c2                	mov    %eax,%edx
  10069d:	ec                   	in     (%dx),%al
  10069e:	88 45 ff             	mov    %al,-0x1(%ebp)
  1006a1:	0f b6 45 ff          	movzbl -0x1(%ebp),%eax
  1006a5:	c9                   	leave  
  1006a6:	c3                   	ret    

001006a7 <_ZL29platform_abstract_irq_handlerP14interrupt_info>:
  1006a7:	55                   	push   %ebp
  1006a8:	89 e5                	mov    %esp,%ebp
  1006aa:	83 ec 08             	sub    $0x8,%esp
  1006ad:	8b 45 08             	mov    0x8(%ebp),%eax
  1006b0:	8b 40 24             	mov    0x24(%eax),%eax
  1006b3:	83 f8 27             	cmp    $0x27,%eax
  1006b6:	76 14                	jbe    1006cc <_ZL29platform_abstract_irq_handlerP14interrupt_info+0x25>
  1006b8:	c7 44 24 04 20 00 00 	movl   $0x20,0x4(%esp)
  1006bf:	00 
  1006c0:	c7 04 24 a0 00 00 00 	movl   $0xa0,(%esp)
  1006c7:	e8 a0 ff ff ff       	call   10066c <_ZL4outbth>
  1006cc:	8b 45 08             	mov    0x8(%ebp),%eax
  1006cf:	8b 40 24             	mov    0x24(%eax),%eax
  1006d2:	83 f8 1f             	cmp    $0x1f,%eax
  1006d5:	76 14                	jbe    1006eb <_ZL29platform_abstract_irq_handlerP14interrupt_info+0x44>
  1006d7:	c7 44 24 04 20 00 00 	movl   $0x20,0x4(%esp)
  1006de:	00 
  1006df:	c7 04 24 20 00 00 00 	movl   $0x20,(%esp)
  1006e6:	e8 81 ff ff ff       	call   10066c <_ZL4outbth>
  1006eb:	c9                   	leave  
  1006ec:	c3                   	ret    

001006ed <debug_write>:
  1006ed:	55                   	push   %ebp
  1006ee:	89 e5                	mov    %esp,%ebp
  1006f0:	83 ec 28             	sub    $0x28,%esp
  1006f3:	c7 45 f4 00 00 00 00 	movl   $0x0,-0xc(%ebp)
  1006fa:	eb 1a                	jmp    100716 <debug_write+0x29>
  1006fc:	8b 55 f4             	mov    -0xc(%ebp),%edx
  1006ff:	8b 45 08             	mov    0x8(%ebp),%eax
  100702:	01 d0                	add    %edx,%eax
  100704:	0f b6 00             	movzbl (%eax),%eax
  100707:	0f be c0             	movsbl %al,%eax
  10070a:	89 04 24             	mov    %eax,(%esp)
  10070d:	e8 fc 65 00 00       	call   106d0e <debug_putchar>
  100712:	83 45 f4 01          	addl   $0x1,-0xc(%ebp)
  100716:	8b 45 f4             	mov    -0xc(%ebp),%eax
  100719:	3b 45 0c             	cmp    0xc(%ebp),%eax
  10071c:	7c de                	jl     1006fc <debug_write+0xf>
  10071e:	c9                   	leave  
  10071f:	c3                   	ret    

00100720 <debug_printhex_halfbyte>:
  100720:	55                   	push   %ebp
  100721:	89 e5                	mov    %esp,%ebp
  100723:	83 ec 28             	sub    $0x28,%esp
  100726:	8b 45 08             	mov    0x8(%ebp),%eax
  100729:	88 45 e4             	mov    %al,-0x1c(%ebp)
  10072c:	0f be 45 e4          	movsbl -0x1c(%ebp),%eax
  100730:	83 f8 0f             	cmp    $0xf,%eax
  100733:	77 68                	ja     10079d <debug_printhex_halfbyte+0x7d>
  100735:	8b 04 85 98 84 10 00 	mov    0x108498(,%eax,4),%eax
  10073c:	ff e0                	jmp    *%eax
  10073e:	c6 45 f7 30          	movb   $0x30,-0x9(%ebp)
  100742:	eb 59                	jmp    10079d <debug_printhex_halfbyte+0x7d>
  100744:	c6 45 f7 31          	movb   $0x31,-0x9(%ebp)
  100748:	eb 53                	jmp    10079d <debug_printhex_halfbyte+0x7d>
  10074a:	c6 45 f7 32          	movb   $0x32,-0x9(%ebp)
  10074e:	eb 4d                	jmp    10079d <debug_printhex_halfbyte+0x7d>
  100750:	c6 45 f7 33          	movb   $0x33,-0x9(%ebp)
  100754:	eb 47                	jmp    10079d <debug_printhex_halfbyte+0x7d>
  100756:	c6 45 f7 34          	movb   $0x34,-0x9(%ebp)
  10075a:	eb 41                	jmp    10079d <debug_printhex_halfbyte+0x7d>
  10075c:	c6 45 f7 35          	movb   $0x35,-0x9(%ebp)
  100760:	eb 3b                	jmp    10079d <debug_printhex_halfbyte+0x7d>
  100762:	c6 45 f7 36          	movb   $0x36,-0x9(%ebp)
  100766:	eb 35                	jmp    10079d <debug_printhex_halfbyte+0x7d>
  100768:	c6 45 f7 37          	movb   $0x37,-0x9(%ebp)
  10076c:	eb 2f                	jmp    10079d <debug_printhex_halfbyte+0x7d>
  10076e:	c6 45 f7 38          	movb   $0x38,-0x9(%ebp)
  100772:	eb 29                	jmp    10079d <debug_printhex_halfbyte+0x7d>
  100774:	c6 45 f7 39          	movb   $0x39,-0x9(%ebp)
  100778:	eb 23                	jmp    10079d <debug_printhex_halfbyte+0x7d>
  10077a:	c6 45 f7 41          	movb   $0x41,-0x9(%ebp)
  10077e:	eb 1d                	jmp    10079d <debug_printhex_halfbyte+0x7d>
  100780:	c6 45 f7 42          	movb   $0x42,-0x9(%ebp)
  100784:	eb 17                	jmp    10079d <debug_printhex_halfbyte+0x7d>
  100786:	c6 45 f7 43          	movb   $0x43,-0x9(%ebp)
  10078a:	eb 11                	jmp    10079d <debug_printhex_halfbyte+0x7d>
  10078c:	c6 45 f7 44          	movb   $0x44,-0x9(%ebp)
  100790:	eb 0b                	jmp    10079d <debug_printhex_halfbyte+0x7d>
  100792:	c6 45 f7 45          	movb   $0x45,-0x9(%ebp)
  100796:	eb 05                	jmp    10079d <debug_printhex_halfbyte+0x7d>
  100798:	c6 45 f7 46          	movb   $0x46,-0x9(%ebp)
  10079c:	90                   	nop
  10079d:	0f be 45 f7          	movsbl -0x9(%ebp),%eax
  1007a1:	89 04 24             	mov    %eax,(%esp)
  1007a4:	e8 65 65 00 00       	call   106d0e <debug_putchar>
  1007a9:	c9                   	leave  
  1007aa:	c3                   	ret    

001007ab <debug_printhex_byte>:
  1007ab:	55                   	push   %ebp
  1007ac:	89 e5                	mov    %esp,%ebp
  1007ae:	83 ec 18             	sub    $0x18,%esp
  1007b1:	8b 45 08             	mov    0x8(%ebp),%eax
  1007b4:	88 45 f4             	mov    %al,-0xc(%ebp)
  1007b7:	0f be 45 f4          	movsbl -0xc(%ebp),%eax
  1007bb:	25 f0 00 00 00       	and    $0xf0,%eax
  1007c0:	c1 f8 04             	sar    $0x4,%eax
  1007c3:	0f be c0             	movsbl %al,%eax
  1007c6:	89 04 24             	mov    %eax,(%esp)
  1007c9:	e8 52 ff ff ff       	call   100720 <debug_printhex_halfbyte>
  1007ce:	0f be 45 f4          	movsbl -0xc(%ebp),%eax
  1007d2:	83 e0 0f             	and    $0xf,%eax
  1007d5:	89 04 24             	mov    %eax,(%esp)
  1007d8:	e8 43 ff ff ff       	call   100720 <debug_printhex_halfbyte>
  1007dd:	c9                   	leave  
  1007de:	c3                   	ret    

001007df <debug_printhex_int32>:
  1007df:	55                   	push   %ebp
  1007e0:	89 e5                	mov    %esp,%ebp
  1007e2:	83 ec 28             	sub    $0x28,%esp
  1007e5:	8d 45 08             	lea    0x8(%ebp),%eax
  1007e8:	89 45 f4             	mov    %eax,-0xc(%ebp)
  1007eb:	c7 04 24 30 00 00 00 	movl   $0x30,(%esp)
  1007f2:	e8 17 65 00 00       	call   106d0e <debug_putchar>
  1007f7:	c7 04 24 78 00 00 00 	movl   $0x78,(%esp)
  1007fe:	e8 0b 65 00 00       	call   106d0e <debug_putchar>
  100803:	8b 45 f4             	mov    -0xc(%ebp),%eax
  100806:	83 c0 03             	add    $0x3,%eax
  100809:	0f b6 00             	movzbl (%eax),%eax
  10080c:	0f be c0             	movsbl %al,%eax
  10080f:	89 04 24             	mov    %eax,(%esp)
  100812:	e8 94 ff ff ff       	call   1007ab <debug_printhex_byte>
  100817:	8b 45 f4             	mov    -0xc(%ebp),%eax
  10081a:	83 c0 02             	add    $0x2,%eax
  10081d:	0f b6 00             	movzbl (%eax),%eax
  100820:	0f be c0             	movsbl %al,%eax
  100823:	89 04 24             	mov    %eax,(%esp)
  100826:	e8 80 ff ff ff       	call   1007ab <debug_printhex_byte>
  10082b:	8b 45 f4             	mov    -0xc(%ebp),%eax
  10082e:	83 c0 01             	add    $0x1,%eax
  100831:	0f b6 00             	movzbl (%eax),%eax
  100834:	0f be c0             	movsbl %al,%eax
  100837:	89 04 24             	mov    %eax,(%esp)
  10083a:	e8 6c ff ff ff       	call   1007ab <debug_printhex_byte>
  10083f:	8b 45 f4             	mov    -0xc(%ebp),%eax
  100842:	0f b6 00             	movzbl (%eax),%eax
  100845:	0f be c0             	movsbl %al,%eax
  100848:	89 04 24             	mov    %eax,(%esp)
  10084b:	e8 5b ff ff ff       	call   1007ab <debug_printhex_byte>
  100850:	c9                   	leave  
  100851:	c3                   	ret    

00100852 <debug_printhex_int16>:
  100852:	55                   	push   %ebp
  100853:	89 e5                	mov    %esp,%ebp
  100855:	83 ec 28             	sub    $0x28,%esp
  100858:	8b 45 08             	mov    0x8(%ebp),%eax
  10085b:	66 89 45 e4          	mov    %ax,-0x1c(%ebp)
  10085f:	8d 45 e4             	lea    -0x1c(%ebp),%eax
  100862:	89 45 f4             	mov    %eax,-0xc(%ebp)
  100865:	c7 04 24 30 00 00 00 	movl   $0x30,(%esp)
  10086c:	e8 9d 64 00 00       	call   106d0e <debug_putchar>
  100871:	c7 04 24 78 00 00 00 	movl   $0x78,(%esp)
  100878:	e8 91 64 00 00       	call   106d0e <debug_putchar>
  10087d:	8b 45 f4             	mov    -0xc(%ebp),%eax
  100880:	83 c0 01             	add    $0x1,%eax
  100883:	0f b6 00             	movzbl (%eax),%eax
  100886:	0f be c0             	movsbl %al,%eax
  100889:	89 04 24             	mov    %eax,(%esp)
  10088c:	e8 1a ff ff ff       	call   1007ab <debug_printhex_byte>
  100891:	8b 45 f4             	mov    -0xc(%ebp),%eax
  100894:	0f b6 00             	movzbl (%eax),%eax
  100897:	0f be c0             	movsbl %al,%eax
  10089a:	89 04 24             	mov    %eax,(%esp)
  10089d:	e8 09 ff ff ff       	call   1007ab <debug_printhex_byte>
  1008a2:	c9                   	leave  
  1008a3:	c3                   	ret    

001008a4 <debug_strlen>:
  1008a4:	55                   	push   %ebp
  1008a5:	89 e5                	mov    %esp,%ebp
  1008a7:	83 ec 10             	sub    $0x10,%esp
  1008aa:	c7 45 fc 00 00 00 00 	movl   $0x0,-0x4(%ebp)
  1008b1:	eb 04                	jmp    1008b7 <debug_strlen+0x13>
  1008b3:	83 45 fc 01          	addl   $0x1,-0x4(%ebp)
  1008b7:	8b 55 fc             	mov    -0x4(%ebp),%edx
  1008ba:	8b 45 08             	mov    0x8(%ebp),%eax
  1008bd:	01 d0                	add    %edx,%eax
  1008bf:	0f b6 00             	movzbl (%eax),%eax
  1008c2:	84 c0                	test   %al,%al
  1008c4:	75 ed                	jne    1008b3 <debug_strlen+0xf>
  1008c6:	8b 45 fc             	mov    -0x4(%ebp),%eax
  1008c9:	c9                   	leave  
  1008ca:	c3                   	ret    

001008cb <debug_print>:
  1008cb:	55                   	push   %ebp
  1008cc:	89 e5                	mov    %esp,%ebp
  1008ce:	83 ec 18             	sub    $0x18,%esp
  1008d1:	8b 45 08             	mov    0x8(%ebp),%eax
  1008d4:	89 04 24             	mov    %eax,(%esp)
  1008d7:	e8 c8 ff ff ff       	call   1008a4 <debug_strlen>
  1008dc:	89 44 24 04          	mov    %eax,0x4(%esp)
  1008e0:	8b 45 08             	mov    0x8(%ebp),%eax
  1008e3:	89 04 24             	mov    %eax,(%esp)
  1008e6:	e8 02 fe ff ff       	call   1006ed <debug_write>
  1008eb:	c9                   	leave  
  1008ec:	c3                   	ret    

001008ed <debug_print_dump>:
  1008ed:	55                   	push   %ebp
  1008ee:	89 e5                	mov    %esp,%ebp
  1008f0:	83 ec 28             	sub    $0x28,%esp
  1008f3:	8b 45 08             	mov    0x8(%ebp),%eax
  1008f6:	89 45 e8             	mov    %eax,-0x18(%ebp)
  1008f9:	8b 45 08             	mov    0x8(%ebp),%eax
  1008fc:	89 45 f4             	mov    %eax,-0xc(%ebp)
  1008ff:	c7 45 f0 00 00 00 00 	movl   $0x0,-0x10(%ebp)
  100906:	c7 45 ec 00 00 00 00 	movl   $0x0,-0x14(%ebp)
  10090d:	c7 45 f0 00 00 00 00 	movl   $0x0,-0x10(%ebp)
  100914:	eb 7e                	jmp    100994 <debug_print_dump+0xa7>
  100916:	83 7d ec 00          	cmpl   $0x0,-0x14(%ebp)
  10091a:	75 17                	jne    100933 <debug_print_dump+0x46>
  10091c:	8b 45 f4             	mov    -0xc(%ebp),%eax
  10091f:	89 04 24             	mov    %eax,(%esp)
  100922:	e8 b8 fe ff ff       	call   1007df <debug_printhex_int32>
  100927:	c7 04 24 d8 84 10 00 	movl   $0x1084d8,(%esp)
  10092e:	e8 98 ff ff ff       	call   1008cb <debug_print>
  100933:	8b 45 f0             	mov    -0x10(%ebp),%eax
  100936:	8b 55 e8             	mov    -0x18(%ebp),%edx
  100939:	01 d0                	add    %edx,%eax
  10093b:	0f b6 00             	movzbl (%eax),%eax
  10093e:	0f be c0             	movsbl %al,%eax
  100941:	89 04 24             	mov    %eax,(%esp)
  100944:	e8 62 fe ff ff       	call   1007ab <debug_printhex_byte>
  100949:	83 7d ec 07          	cmpl   $0x7,-0x14(%ebp)
  10094d:	75 12                	jne    100961 <debug_print_dump+0x74>
  10094f:	c7 04 24 db 84 10 00 	movl   $0x1084db,(%esp)
  100956:	e8 70 ff ff ff       	call   1008cb <debug_print>
  10095b:	83 45 ec 01          	addl   $0x1,-0x14(%ebp)
  10095f:	eb 2f                	jmp    100990 <debug_print_dump+0xa3>
  100961:	83 7d ec 0f          	cmpl   $0xf,-0x14(%ebp)
  100965:	75 19                	jne    100980 <debug_print_dump+0x93>
  100967:	c7 04 24 dd 84 10 00 	movl   $0x1084dd,(%esp)
  10096e:	e8 58 ff ff ff       	call   1008cb <debug_print>
  100973:	c7 45 ec 00 00 00 00 	movl   $0x0,-0x14(%ebp)
  10097a:	83 45 f4 10          	addl   $0x10,-0xc(%ebp)
  10097e:	eb 10                	jmp    100990 <debug_print_dump+0xa3>
  100980:	c7 04 24 df 84 10 00 	movl   $0x1084df,(%esp)
  100987:	e8 3f ff ff ff       	call   1008cb <debug_print>
  10098c:	83 45 ec 01          	addl   $0x1,-0x14(%ebp)
  100990:	83 45 f0 01          	addl   $0x1,-0x10(%ebp)
  100994:	8b 45 f0             	mov    -0x10(%ebp),%eax
  100997:	3b 45 0c             	cmp    0xc(%ebp),%eax
  10099a:	0f 82 76 ff ff ff    	jb     100916 <debug_print_dump+0x29>
  1009a0:	c9                   	leave  
  1009a1:	c3                   	ret    

001009a2 <delay_cpu>:
  1009a2:	55                   	push   %ebp
  1009a3:	89 e5                	mov    %esp,%ebp
  1009a5:	83 ec 18             	sub    $0x18,%esp
  1009a8:	8b 45 08             	mov    0x8(%ebp),%eax
  1009ab:	89 45 e8             	mov    %eax,-0x18(%ebp)
  1009ae:	8b 45 0c             	mov    0xc(%ebp),%eax
  1009b1:	89 45 ec             	mov    %eax,-0x14(%ebp)
  1009b4:	8b 45 e8             	mov    -0x18(%ebp),%eax
  1009b7:	8b 55 ec             	mov    -0x14(%ebp),%edx
  1009ba:	89 45 f8             	mov    %eax,-0x8(%ebp)
  1009bd:	89 55 fc             	mov    %edx,-0x4(%ebp)
  1009c0:	8b 45 f8             	mov    -0x8(%ebp),%eax
  1009c3:	8b 55 fc             	mov    -0x4(%ebp),%edx
  1009c6:	83 c0 ff             	add    $0xffffffff,%eax
  1009c9:	83 d2 ff             	adc    $0xffffffff,%edx
  1009cc:	89 45 f8             	mov    %eax,-0x8(%ebp)
  1009cf:	89 55 fc             	mov    %edx,-0x4(%ebp)
  1009d2:	8b 45 f8             	mov    -0x8(%ebp),%eax
  1009d5:	8b 55 fc             	mov    -0x4(%ebp),%edx
  1009d8:	09 d0                	or     %edx,%eax
  1009da:	85 c0                	test   %eax,%eax
  1009dc:	0f 94 c0             	sete   %al
  1009df:	84 c0                	test   %al,%al
  1009e1:	74 02                	je     1009e5 <delay_cpu+0x43>
  1009e3:	eb 02                	jmp    1009e7 <delay_cpu+0x45>
  1009e5:	eb d9                	jmp    1009c0 <delay_cpu+0x1e>
  1009e7:	c9                   	leave  
  1009e8:	c3                   	ret    

001009e9 <_ZL4outbth>:
  1009e9:	55                   	push   %ebp
  1009ea:	89 e5                	mov    %esp,%ebp
  1009ec:	83 ec 08             	sub    $0x8,%esp
  1009ef:	8b 55 08             	mov    0x8(%ebp),%edx
  1009f2:	8b 45 0c             	mov    0xc(%ebp),%eax
  1009f5:	66 89 55 fc          	mov    %dx,-0x4(%ebp)
  1009f9:	88 45 f8             	mov    %al,-0x8(%ebp)
  1009fc:	0f b7 55 fc          	movzwl -0x4(%ebp),%edx
  100a00:	0f b6 45 f8          	movzbl -0x8(%ebp),%eax
  100a04:	ee                   	out    %al,(%dx)
  100a05:	c9                   	leave  
  100a06:	c3                   	ret    

00100a07 <_ZL3inbt>:
  100a07:	55                   	push   %ebp
  100a08:	89 e5                	mov    %esp,%ebp
  100a0a:	83 ec 14             	sub    $0x14,%esp
  100a0d:	8b 45 08             	mov    0x8(%ebp),%eax
  100a10:	66 89 45 ec          	mov    %ax,-0x14(%ebp)
  100a14:	0f b7 45 ec          	movzwl -0x14(%ebp),%eax
  100a18:	89 c2                	mov    %eax,%edx
  100a1a:	ec                   	in     (%dx),%al
  100a1b:	88 45 ff             	mov    %al,-0x1(%ebp)
  100a1e:	0f b6 45 ff          	movzbl -0x1(%ebp),%eax
  100a22:	c9                   	leave  
  100a23:	c3                   	ret    

00100a24 <_ZL29platform_abstract_irq_handlerP14interrupt_info>:
  100a24:	55                   	push   %ebp
  100a25:	89 e5                	mov    %esp,%ebp
  100a27:	83 ec 08             	sub    $0x8,%esp
  100a2a:	8b 45 08             	mov    0x8(%ebp),%eax
  100a2d:	8b 40 24             	mov    0x24(%eax),%eax
  100a30:	83 f8 27             	cmp    $0x27,%eax
  100a33:	76 14                	jbe    100a49 <_ZL29platform_abstract_irq_handlerP14interrupt_info+0x25>
  100a35:	c7 44 24 04 20 00 00 	movl   $0x20,0x4(%esp)
  100a3c:	00 
  100a3d:	c7 04 24 a0 00 00 00 	movl   $0xa0,(%esp)
  100a44:	e8 a0 ff ff ff       	call   1009e9 <_ZL4outbth>
  100a49:	8b 45 08             	mov    0x8(%ebp),%eax
  100a4c:	8b 40 24             	mov    0x24(%eax),%eax
  100a4f:	83 f8 1f             	cmp    $0x1f,%eax
  100a52:	76 14                	jbe    100a68 <_ZL29platform_abstract_irq_handlerP14interrupt_info+0x44>
  100a54:	c7 44 24 04 20 00 00 	movl   $0x20,0x4(%esp)
  100a5b:	00 
  100a5c:	c7 04 24 20 00 00 00 	movl   $0x20,(%esp)
  100a63:	e8 81 ff ff ff       	call   1009e9 <_ZL4outbth>
  100a68:	c9                   	leave  
  100a69:	c3                   	ret    

00100a6a <_Z11systemErrorPKc>:
  100a6a:	55                   	push   %ebp
  100a6b:	89 e5                	mov    %esp,%ebp
  100a6d:	83 ec 18             	sub    $0x18,%esp
  100a70:	c7 04 24 e1 84 10 00 	movl   $0x1084e1,(%esp)
  100a77:	e8 4f fe ff ff       	call   1008cb <debug_print>
  100a7c:	8b 45 08             	mov    0x8(%ebp),%eax
  100a7f:	89 04 24             	mov    %eax,(%esp)
  100a82:	e8 44 fe ff ff       	call   1008cb <debug_print>
  100a87:	c7 44 24 04 02 00 00 	movl   $0x2,0x4(%esp)
  100a8e:	00 
  100a8f:	c7 04 24 f1 84 10 00 	movl   $0x1084f1,(%esp)
  100a96:	e8 52 fc ff ff       	call   1006ed <debug_write>
  100a9b:	e8 a0 64 00 00       	call   106f40 <_Z20systemError_platformv>
  100aa0:	eb fe                	jmp    100aa0 <_Z11systemErrorPKc+0x36>

00100aa2 <_ZL4outbth>:
  100aa2:	55                   	push   %ebp
  100aa3:	89 e5                	mov    %esp,%ebp
  100aa5:	83 ec 08             	sub    $0x8,%esp
  100aa8:	8b 55 08             	mov    0x8(%ebp),%edx
  100aab:	8b 45 0c             	mov    0xc(%ebp),%eax
  100aae:	66 89 55 fc          	mov    %dx,-0x4(%ebp)
  100ab2:	88 45 f8             	mov    %al,-0x8(%ebp)
  100ab5:	0f b7 55 fc          	movzwl -0x4(%ebp),%edx
  100ab9:	0f b6 45 f8          	movzbl -0x8(%ebp),%eax
  100abd:	ee                   	out    %al,(%dx)
  100abe:	c9                   	leave  
  100abf:	c3                   	ret    

00100ac0 <_ZL3inbt>:
  100ac0:	55                   	push   %ebp
  100ac1:	89 e5                	mov    %esp,%ebp
  100ac3:	83 ec 14             	sub    $0x14,%esp
  100ac6:	8b 45 08             	mov    0x8(%ebp),%eax
  100ac9:	66 89 45 ec          	mov    %ax,-0x14(%ebp)
  100acd:	0f b7 45 ec          	movzwl -0x14(%ebp),%eax
  100ad1:	89 c2                	mov    %eax,%edx
  100ad3:	ec                   	in     (%dx),%al
  100ad4:	88 45 ff             	mov    %al,-0x1(%ebp)
  100ad7:	0f b6 45 ff          	movzbl -0x1(%ebp),%eax
  100adb:	c9                   	leave  
  100adc:	c3                   	ret    

00100add <_ZL29platform_abstract_irq_handlerP14interrupt_info>:
  100add:	55                   	push   %ebp
  100ade:	89 e5                	mov    %esp,%ebp
  100ae0:	83 ec 08             	sub    $0x8,%esp
  100ae3:	8b 45 08             	mov    0x8(%ebp),%eax
  100ae6:	8b 40 24             	mov    0x24(%eax),%eax
  100ae9:	83 f8 27             	cmp    $0x27,%eax
  100aec:	76 14                	jbe    100b02 <_ZL29platform_abstract_irq_handlerP14interrupt_info+0x25>
  100aee:	c7 44 24 04 20 00 00 	movl   $0x20,0x4(%esp)
  100af5:	00 
  100af6:	c7 04 24 a0 00 00 00 	movl   $0xa0,(%esp)
  100afd:	e8 a0 ff ff ff       	call   100aa2 <_ZL4outbth>
  100b02:	8b 45 08             	mov    0x8(%ebp),%eax
  100b05:	8b 40 24             	mov    0x24(%eax),%eax
  100b08:	83 f8 1f             	cmp    $0x1f,%eax
  100b0b:	76 14                	jbe    100b21 <_ZL29platform_abstract_irq_handlerP14interrupt_info+0x44>
  100b0d:	c7 44 24 04 20 00 00 	movl   $0x20,0x4(%esp)
  100b14:	00 
  100b15:	c7 04 24 20 00 00 00 	movl   $0x20,(%esp)
  100b1c:	e8 81 ff ff ff       	call   100aa2 <_ZL4outbth>
  100b21:	c9                   	leave  
  100b22:	c3                   	ret    
  100b23:	90                   	nop

00100b24 <_ZN5Print5writeEPKhj>:
  100b24:	55                   	push   %ebp
  100b25:	89 e5                	mov    %esp,%ebp
  100b27:	83 ec 28             	sub    $0x28,%esp
  100b2a:	8b 45 0c             	mov    0xc(%ebp),%eax
  100b2d:	89 45 f4             	mov    %eax,-0xc(%ebp)
  100b30:	c7 45 f0 00 00 00 00 	movl   $0x0,-0x10(%ebp)
  100b37:	eb 25                	jmp    100b5e <_ZN5Print5writeEPKhj+0x3a>
  100b39:	8b 45 08             	mov    0x8(%ebp),%eax
  100b3c:	8b 00                	mov    (%eax),%eax
  100b3e:	8b 10                	mov    (%eax),%edx
  100b40:	8b 45 f4             	mov    -0xc(%ebp),%eax
  100b43:	8d 48 01             	lea    0x1(%eax),%ecx
  100b46:	89 4d f4             	mov    %ecx,-0xc(%ebp)
  100b49:	0f b6 00             	movzbl (%eax),%eax
  100b4c:	0f b6 c0             	movzbl %al,%eax
  100b4f:	89 44 24 04          	mov    %eax,0x4(%esp)
  100b53:	8b 45 08             	mov    0x8(%ebp),%eax
  100b56:	89 04 24             	mov    %eax,(%esp)
  100b59:	ff d2                	call   *%edx
  100b5b:	01 45 f0             	add    %eax,-0x10(%ebp)
  100b5e:	8b 45 10             	mov    0x10(%ebp),%eax
  100b61:	8d 50 ff             	lea    -0x1(%eax),%edx
  100b64:	89 55 10             	mov    %edx,0x10(%ebp)
  100b67:	85 c0                	test   %eax,%eax
  100b69:	0f 95 c0             	setne  %al
  100b6c:	84 c0                	test   %al,%al
  100b6e:	75 c9                	jne    100b39 <_ZN5Print5writeEPKhj+0x15>
  100b70:	8b 45 f0             	mov    -0x10(%ebp),%eax
  100b73:	c9                   	leave  
  100b74:	c3                   	ret    
  100b75:	90                   	nop

00100b76 <_ZN5Print5writeEPKcj>:
  100b76:	55                   	push   %ebp
  100b77:	89 e5                	mov    %esp,%ebp
  100b79:	83 ec 18             	sub    $0x18,%esp
  100b7c:	8b 45 08             	mov    0x8(%ebp),%eax
  100b7f:	8b 00                	mov    (%eax),%eax
  100b81:	83 c0 04             	add    $0x4,%eax
  100b84:	8b 00                	mov    (%eax),%eax
  100b86:	8b 55 10             	mov    0x10(%ebp),%edx
  100b89:	89 54 24 08          	mov    %edx,0x8(%esp)
  100b8d:	8b 55 0c             	mov    0xc(%ebp),%edx
  100b90:	89 54 24 04          	mov    %edx,0x4(%esp)
  100b94:	8b 55 08             	mov    0x8(%ebp),%edx
  100b97:	89 14 24             	mov    %edx,(%esp)
  100b9a:	ff d0                	call   *%eax
  100b9c:	c9                   	leave  
  100b9d:	c3                   	ret    

00100b9e <_ZN5Print5writeEPKc>:
  100b9e:	55                   	push   %ebp
  100b9f:	89 e5                	mov    %esp,%ebp
  100ba1:	53                   	push   %ebx
  100ba2:	83 ec 14             	sub    $0x14,%esp
  100ba5:	83 7d 0c 00          	cmpl   $0x0,0xc(%ebp)
  100ba9:	75 07                	jne    100bb2 <_ZN5Print5writeEPKc+0x14>
  100bab:	b8 00 00 00 00       	mov    $0x0,%eax
  100bb0:	eb 28                	jmp    100bda <_ZN5Print5writeEPKc+0x3c>
  100bb2:	8b 45 08             	mov    0x8(%ebp),%eax
  100bb5:	8b 00                	mov    (%eax),%eax
  100bb7:	83 c0 04             	add    $0x4,%eax
  100bba:	8b 18                	mov    (%eax),%ebx
  100bbc:	8b 45 0c             	mov    0xc(%ebp),%eax
  100bbf:	89 04 24             	mov    %eax,(%esp)
  100bc2:	e8 09 49 00 00       	call   1054d0 <strlen>
  100bc7:	89 44 24 08          	mov    %eax,0x8(%esp)
  100bcb:	8b 45 0c             	mov    0xc(%ebp),%eax
  100bce:	89 44 24 04          	mov    %eax,0x4(%esp)
  100bd2:	8b 45 08             	mov    0x8(%ebp),%eax
  100bd5:	89 04 24             	mov    %eax,(%esp)
  100bd8:	ff d3                	call   *%ebx
  100bda:	83 c4 14             	add    $0x14,%esp
  100bdd:	5b                   	pop    %ebx
  100bde:	5d                   	pop    %ebp
  100bdf:	c3                   	ret    

00100be0 <_ZN5Print5printEPKc>:
  100be0:	55                   	push   %ebp
  100be1:	89 e5                	mov    %esp,%ebp
  100be3:	83 ec 18             	sub    $0x18,%esp
  100be6:	8b 45 0c             	mov    0xc(%ebp),%eax
  100be9:	89 44 24 04          	mov    %eax,0x4(%esp)
  100bed:	8b 45 08             	mov    0x8(%ebp),%eax
  100bf0:	89 04 24             	mov    %eax,(%esp)
  100bf3:	e8 a6 ff ff ff       	call   100b9e <_ZN5Print5writeEPKc>
  100bf8:	c9                   	leave  
  100bf9:	c3                   	ret    

00100bfa <_ZN5Print5printEc>:
  100bfa:	55                   	push   %ebp
  100bfb:	89 e5                	mov    %esp,%ebp
  100bfd:	83 ec 18             	sub    $0x18,%esp
  100c00:	8b 45 0c             	mov    0xc(%ebp),%eax
  100c03:	88 45 f4             	mov    %al,-0xc(%ebp)
  100c06:	8b 45 08             	mov    0x8(%ebp),%eax
  100c09:	8b 00                	mov    (%eax),%eax
  100c0b:	8b 00                	mov    (%eax),%eax
  100c0d:	0f b6 55 f4          	movzbl -0xc(%ebp),%edx
  100c11:	0f b6 d2             	movzbl %dl,%edx
  100c14:	89 54 24 04          	mov    %edx,0x4(%esp)
  100c18:	8b 55 08             	mov    0x8(%ebp),%edx
  100c1b:	89 14 24             	mov    %edx,(%esp)
  100c1e:	ff d0                	call   *%eax
  100c20:	c9                   	leave  
  100c21:	c3                   	ret    

00100c22 <_ZN5Print5printEhi>:
  100c22:	55                   	push   %ebp
  100c23:	89 e5                	mov    %esp,%ebp
  100c25:	83 ec 18             	sub    $0x18,%esp
  100c28:	8b 45 0c             	mov    0xc(%ebp),%eax
  100c2b:	88 45 f4             	mov    %al,-0xc(%ebp)
  100c2e:	0f b6 45 f4          	movzbl -0xc(%ebp),%eax
  100c32:	8b 55 10             	mov    0x10(%ebp),%edx
  100c35:	89 54 24 08          	mov    %edx,0x8(%esp)
  100c39:	89 44 24 04          	mov    %eax,0x4(%esp)
  100c3d:	8b 45 08             	mov    0x8(%ebp),%eax
  100c40:	89 04 24             	mov    %eax,(%esp)
  100c43:	e8 ee 00 00 00       	call   100d36 <_ZN5Print5printEmi>
  100c48:	c9                   	leave  
  100c49:	c3                   	ret    

00100c4a <_ZN5Print5printEii>:
  100c4a:	55                   	push   %ebp
  100c4b:	89 e5                	mov    %esp,%ebp
  100c4d:	83 ec 18             	sub    $0x18,%esp
  100c50:	8b 45 10             	mov    0x10(%ebp),%eax
  100c53:	89 44 24 08          	mov    %eax,0x8(%esp)
  100c57:	8b 45 0c             	mov    0xc(%ebp),%eax
  100c5a:	89 44 24 04          	mov    %eax,0x4(%esp)
  100c5e:	8b 45 08             	mov    0x8(%ebp),%eax
  100c61:	89 04 24             	mov    %eax,(%esp)
  100c64:	e8 25 00 00 00       	call   100c8e <_ZN5Print5printEli>
  100c69:	c9                   	leave  
  100c6a:	c3                   	ret    
  100c6b:	90                   	nop

00100c6c <_ZN5Print5printEji>:
  100c6c:	55                   	push   %ebp
  100c6d:	89 e5                	mov    %esp,%ebp
  100c6f:	83 ec 18             	sub    $0x18,%esp
  100c72:	8b 45 10             	mov    0x10(%ebp),%eax
  100c75:	89 44 24 08          	mov    %eax,0x8(%esp)
  100c79:	8b 45 0c             	mov    0xc(%ebp),%eax
  100c7c:	89 44 24 04          	mov    %eax,0x4(%esp)
  100c80:	8b 45 08             	mov    0x8(%ebp),%eax
  100c83:	89 04 24             	mov    %eax,(%esp)
  100c86:	e8 ab 00 00 00       	call   100d36 <_ZN5Print5printEmi>
  100c8b:	c9                   	leave  
  100c8c:	c3                   	ret    
  100c8d:	90                   	nop

00100c8e <_ZN5Print5printEli>:
  100c8e:	55                   	push   %ebp
  100c8f:	89 e5                	mov    %esp,%ebp
  100c91:	83 ec 28             	sub    $0x28,%esp
  100c94:	83 7d 10 00          	cmpl   $0x0,0x10(%ebp)
  100c98:	75 1b                	jne    100cb5 <_ZN5Print5printEli+0x27>
  100c9a:	8b 45 08             	mov    0x8(%ebp),%eax
  100c9d:	8b 00                	mov    (%eax),%eax
  100c9f:	8b 00                	mov    (%eax),%eax
  100ca1:	8b 55 0c             	mov    0xc(%ebp),%edx
  100ca4:	0f b6 d2             	movzbl %dl,%edx
  100ca7:	89 54 24 04          	mov    %edx,0x4(%esp)
  100cab:	8b 55 08             	mov    0x8(%ebp),%edx
  100cae:	89 14 24             	mov    %edx,(%esp)
  100cb1:	ff d0                	call   *%eax
  100cb3:	eb 7e                	jmp    100d33 <_ZN5Print5printEli+0xa5>
  100cb5:	83 7d 10 0a          	cmpl   $0xa,0x10(%ebp)
  100cb9:	75 5c                	jne    100d17 <_ZN5Print5printEli+0x89>
  100cbb:	83 7d 0c 00          	cmpl   $0x0,0xc(%ebp)
  100cbf:	79 3a                	jns    100cfb <_ZN5Print5printEli+0x6d>
  100cc1:	c7 44 24 04 2d 00 00 	movl   $0x2d,0x4(%esp)
  100cc8:	00 
  100cc9:	8b 45 08             	mov    0x8(%ebp),%eax
  100ccc:	89 04 24             	mov    %eax,(%esp)
  100ccf:	e8 26 ff ff ff       	call   100bfa <_ZN5Print5printEc>
  100cd4:	89 45 f4             	mov    %eax,-0xc(%ebp)
  100cd7:	f7 5d 0c             	negl   0xc(%ebp)
  100cda:	8b 45 0c             	mov    0xc(%ebp),%eax
  100cdd:	c7 44 24 08 0a 00 00 	movl   $0xa,0x8(%esp)
  100ce4:	00 
  100ce5:	89 44 24 04          	mov    %eax,0x4(%esp)
  100ce9:	8b 45 08             	mov    0x8(%ebp),%eax
  100cec:	89 04 24             	mov    %eax,(%esp)
  100cef:	e8 aa 02 00 00       	call   100f9e <_ZN5Print11printNumberEmh>
  100cf4:	8b 55 f4             	mov    -0xc(%ebp),%edx
  100cf7:	01 d0                	add    %edx,%eax
  100cf9:	eb 38                	jmp    100d33 <_ZN5Print5printEli+0xa5>
  100cfb:	8b 45 0c             	mov    0xc(%ebp),%eax
  100cfe:	c7 44 24 08 0a 00 00 	movl   $0xa,0x8(%esp)
  100d05:	00 
  100d06:	89 44 24 04          	mov    %eax,0x4(%esp)
  100d0a:	8b 45 08             	mov    0x8(%ebp),%eax
  100d0d:	89 04 24             	mov    %eax,(%esp)
  100d10:	e8 89 02 00 00       	call   100f9e <_ZN5Print11printNumberEmh>
  100d15:	eb 1c                	jmp    100d33 <_ZN5Print5printEli+0xa5>
  100d17:	8b 45 10             	mov    0x10(%ebp),%eax
  100d1a:	0f b6 d0             	movzbl %al,%edx
  100d1d:	8b 45 0c             	mov    0xc(%ebp),%eax
  100d20:	89 54 24 08          	mov    %edx,0x8(%esp)
  100d24:	89 44 24 04          	mov    %eax,0x4(%esp)
  100d28:	8b 45 08             	mov    0x8(%ebp),%eax
  100d2b:	89 04 24             	mov    %eax,(%esp)
  100d2e:	e8 6b 02 00 00       	call   100f9e <_ZN5Print11printNumberEmh>
  100d33:	c9                   	leave  
  100d34:	c3                   	ret    
  100d35:	90                   	nop

00100d36 <_ZN5Print5printEmi>:
  100d36:	55                   	push   %ebp
  100d37:	89 e5                	mov    %esp,%ebp
  100d39:	83 ec 18             	sub    $0x18,%esp
  100d3c:	83 7d 10 00          	cmpl   $0x0,0x10(%ebp)
  100d40:	75 1b                	jne    100d5d <_ZN5Print5printEmi+0x27>
  100d42:	8b 45 08             	mov    0x8(%ebp),%eax
  100d45:	8b 00                	mov    (%eax),%eax
  100d47:	8b 00                	mov    (%eax),%eax
  100d49:	8b 55 0c             	mov    0xc(%ebp),%edx
  100d4c:	0f b6 d2             	movzbl %dl,%edx
  100d4f:	89 54 24 04          	mov    %edx,0x4(%esp)
  100d53:	8b 55 08             	mov    0x8(%ebp),%edx
  100d56:	89 14 24             	mov    %edx,(%esp)
  100d59:	ff d0                	call   *%eax
  100d5b:	eb 1c                	jmp    100d79 <_ZN5Print5printEmi+0x43>
  100d5d:	8b 45 10             	mov    0x10(%ebp),%eax
  100d60:	0f b6 c0             	movzbl %al,%eax
  100d63:	89 44 24 08          	mov    %eax,0x8(%esp)
  100d67:	8b 45 0c             	mov    0xc(%ebp),%eax
  100d6a:	89 44 24 04          	mov    %eax,0x4(%esp)
  100d6e:	8b 45 08             	mov    0x8(%ebp),%eax
  100d71:	89 04 24             	mov    %eax,(%esp)
  100d74:	e8 25 02 00 00       	call   100f9e <_ZN5Print11printNumberEmh>
  100d79:	c9                   	leave  
  100d7a:	c3                   	ret    
  100d7b:	90                   	nop

00100d7c <_ZN5Print5printEdi>:
  100d7c:	55                   	push   %ebp
  100d7d:	89 e5                	mov    %esp,%ebp
  100d7f:	83 ec 28             	sub    $0x28,%esp
  100d82:	8b 45 0c             	mov    0xc(%ebp),%eax
  100d85:	89 45 f0             	mov    %eax,-0x10(%ebp)
  100d88:	8b 45 10             	mov    0x10(%ebp),%eax
  100d8b:	89 45 f4             	mov    %eax,-0xc(%ebp)
  100d8e:	8b 45 14             	mov    0x14(%ebp),%eax
  100d91:	0f b6 c0             	movzbl %al,%eax
  100d94:	89 44 24 0c          	mov    %eax,0xc(%esp)
  100d98:	dd 45 f0             	fldl   -0x10(%ebp)
  100d9b:	dd 5c 24 04          	fstpl  0x4(%esp)
  100d9f:	8b 45 08             	mov    0x8(%ebp),%eax
  100da2:	89 04 24             	mov    %eax,(%esp)
  100da5:	e8 80 02 00 00       	call   10102a <_ZN5Print10printFloatEdh>
  100daa:	c9                   	leave  
  100dab:	c3                   	ret    

00100dac <_ZN5Print7printlnEv>:
  100dac:	55                   	push   %ebp
  100dad:	89 e5                	mov    %esp,%ebp
  100daf:	83 ec 28             	sub    $0x28,%esp
  100db2:	c7 44 24 04 0d 00 00 	movl   $0xd,0x4(%esp)
  100db9:	00 
  100dba:	8b 45 08             	mov    0x8(%ebp),%eax
  100dbd:	89 04 24             	mov    %eax,(%esp)
  100dc0:	e8 35 fe ff ff       	call   100bfa <_ZN5Print5printEc>
  100dc5:	89 45 f4             	mov    %eax,-0xc(%ebp)
  100dc8:	c7 44 24 04 0a 00 00 	movl   $0xa,0x4(%esp)
  100dcf:	00 
  100dd0:	8b 45 08             	mov    0x8(%ebp),%eax
  100dd3:	89 04 24             	mov    %eax,(%esp)
  100dd6:	e8 1f fe ff ff       	call   100bfa <_ZN5Print5printEc>
  100ddb:	01 45 f4             	add    %eax,-0xc(%ebp)
  100dde:	8b 45 f4             	mov    -0xc(%ebp),%eax
  100de1:	c9                   	leave  
  100de2:	c3                   	ret    
  100de3:	90                   	nop

00100de4 <_ZN5Print7printlnEPKc>:
  100de4:	55                   	push   %ebp
  100de5:	89 e5                	mov    %esp,%ebp
  100de7:	83 ec 28             	sub    $0x28,%esp
  100dea:	8b 45 0c             	mov    0xc(%ebp),%eax
  100ded:	89 44 24 04          	mov    %eax,0x4(%esp)
  100df1:	8b 45 08             	mov    0x8(%ebp),%eax
  100df4:	89 04 24             	mov    %eax,(%esp)
  100df7:	e8 e4 fd ff ff       	call   100be0 <_ZN5Print5printEPKc>
  100dfc:	89 45 f4             	mov    %eax,-0xc(%ebp)
  100dff:	8b 45 08             	mov    0x8(%ebp),%eax
  100e02:	89 04 24             	mov    %eax,(%esp)
  100e05:	e8 a2 ff ff ff       	call   100dac <_ZN5Print7printlnEv>
  100e0a:	01 45 f4             	add    %eax,-0xc(%ebp)
  100e0d:	8b 45 f4             	mov    -0xc(%ebp),%eax
  100e10:	c9                   	leave  
  100e11:	c3                   	ret    

00100e12 <_ZN5Print7printlnEc>:
  100e12:	55                   	push   %ebp
  100e13:	89 e5                	mov    %esp,%ebp
  100e15:	83 ec 28             	sub    $0x28,%esp
  100e18:	8b 45 0c             	mov    0xc(%ebp),%eax
  100e1b:	88 45 e4             	mov    %al,-0x1c(%ebp)
  100e1e:	0f be 45 e4          	movsbl -0x1c(%ebp),%eax
  100e22:	89 44 24 04          	mov    %eax,0x4(%esp)
  100e26:	8b 45 08             	mov    0x8(%ebp),%eax
  100e29:	89 04 24             	mov    %eax,(%esp)
  100e2c:	e8 c9 fd ff ff       	call   100bfa <_ZN5Print5printEc>
  100e31:	89 45 f4             	mov    %eax,-0xc(%ebp)
  100e34:	8b 45 08             	mov    0x8(%ebp),%eax
  100e37:	89 04 24             	mov    %eax,(%esp)
  100e3a:	e8 6d ff ff ff       	call   100dac <_ZN5Print7printlnEv>
  100e3f:	01 45 f4             	add    %eax,-0xc(%ebp)
  100e42:	8b 45 f4             	mov    -0xc(%ebp),%eax
  100e45:	c9                   	leave  
  100e46:	c3                   	ret    
  100e47:	90                   	nop

00100e48 <_ZN5Print7printlnEhi>:
  100e48:	55                   	push   %ebp
  100e49:	89 e5                	mov    %esp,%ebp
  100e4b:	83 ec 28             	sub    $0x28,%esp
  100e4e:	8b 45 0c             	mov    0xc(%ebp),%eax
  100e51:	88 45 e4             	mov    %al,-0x1c(%ebp)
  100e54:	0f b6 45 e4          	movzbl -0x1c(%ebp),%eax
  100e58:	8b 55 10             	mov    0x10(%ebp),%edx
  100e5b:	89 54 24 08          	mov    %edx,0x8(%esp)
  100e5f:	89 44 24 04          	mov    %eax,0x4(%esp)
  100e63:	8b 45 08             	mov    0x8(%ebp),%eax
  100e66:	89 04 24             	mov    %eax,(%esp)
  100e69:	e8 b4 fd ff ff       	call   100c22 <_ZN5Print5printEhi>
  100e6e:	89 45 f4             	mov    %eax,-0xc(%ebp)
  100e71:	8b 45 08             	mov    0x8(%ebp),%eax
  100e74:	89 04 24             	mov    %eax,(%esp)
  100e77:	e8 30 ff ff ff       	call   100dac <_ZN5Print7printlnEv>
  100e7c:	01 45 f4             	add    %eax,-0xc(%ebp)
  100e7f:	8b 45 f4             	mov    -0xc(%ebp),%eax
  100e82:	c9                   	leave  
  100e83:	c3                   	ret    

00100e84 <_ZN5Print7printlnEii>:
  100e84:	55                   	push   %ebp
  100e85:	89 e5                	mov    %esp,%ebp
  100e87:	83 ec 28             	sub    $0x28,%esp
  100e8a:	8b 45 10             	mov    0x10(%ebp),%eax
  100e8d:	89 44 24 08          	mov    %eax,0x8(%esp)
  100e91:	8b 45 0c             	mov    0xc(%ebp),%eax
  100e94:	89 44 24 04          	mov    %eax,0x4(%esp)
  100e98:	8b 45 08             	mov    0x8(%ebp),%eax
  100e9b:	89 04 24             	mov    %eax,(%esp)
  100e9e:	e8 a7 fd ff ff       	call   100c4a <_ZN5Print5printEii>
  100ea3:	89 45 f4             	mov    %eax,-0xc(%ebp)
  100ea6:	8b 45 08             	mov    0x8(%ebp),%eax
  100ea9:	89 04 24             	mov    %eax,(%esp)
  100eac:	e8 fb fe ff ff       	call   100dac <_ZN5Print7printlnEv>
  100eb1:	01 45 f4             	add    %eax,-0xc(%ebp)
  100eb4:	8b 45 f4             	mov    -0xc(%ebp),%eax
  100eb7:	c9                   	leave  
  100eb8:	c3                   	ret    
  100eb9:	90                   	nop

00100eba <_ZN5Print7printlnEji>:
  100eba:	55                   	push   %ebp
  100ebb:	89 e5                	mov    %esp,%ebp
  100ebd:	83 ec 28             	sub    $0x28,%esp
  100ec0:	8b 45 10             	mov    0x10(%ebp),%eax
  100ec3:	89 44 24 08          	mov    %eax,0x8(%esp)
  100ec7:	8b 45 0c             	mov    0xc(%ebp),%eax
  100eca:	89 44 24 04          	mov    %eax,0x4(%esp)
  100ece:	8b 45 08             	mov    0x8(%ebp),%eax
  100ed1:	89 04 24             	mov    %eax,(%esp)
  100ed4:	e8 93 fd ff ff       	call   100c6c <_ZN5Print5printEji>
  100ed9:	89 45 f4             	mov    %eax,-0xc(%ebp)
  100edc:	8b 45 08             	mov    0x8(%ebp),%eax
  100edf:	89 04 24             	mov    %eax,(%esp)
  100ee2:	e8 c5 fe ff ff       	call   100dac <_ZN5Print7printlnEv>
  100ee7:	01 45 f4             	add    %eax,-0xc(%ebp)
  100eea:	8b 45 f4             	mov    -0xc(%ebp),%eax
  100eed:	c9                   	leave  
  100eee:	c3                   	ret    
  100eef:	90                   	nop

00100ef0 <_ZN5Print7printlnEli>:
  100ef0:	55                   	push   %ebp
  100ef1:	89 e5                	mov    %esp,%ebp
  100ef3:	83 ec 28             	sub    $0x28,%esp
  100ef6:	8b 45 10             	mov    0x10(%ebp),%eax
  100ef9:	89 44 24 08          	mov    %eax,0x8(%esp)
  100efd:	8b 45 0c             	mov    0xc(%ebp),%eax
  100f00:	89 44 24 04          	mov    %eax,0x4(%esp)
  100f04:	8b 45 08             	mov    0x8(%ebp),%eax
  100f07:	89 04 24             	mov    %eax,(%esp)
  100f0a:	e8 7f fd ff ff       	call   100c8e <_ZN5Print5printEli>
  100f0f:	89 45 f4             	mov    %eax,-0xc(%ebp)
  100f12:	8b 45 08             	mov    0x8(%ebp),%eax
  100f15:	89 04 24             	mov    %eax,(%esp)
  100f18:	e8 8f fe ff ff       	call   100dac <_ZN5Print7printlnEv>
  100f1d:	01 45 f4             	add    %eax,-0xc(%ebp)
  100f20:	8b 45 f4             	mov    -0xc(%ebp),%eax
  100f23:	c9                   	leave  
  100f24:	c3                   	ret    
  100f25:	90                   	nop

00100f26 <_ZN5Print7printlnEmi>:
  100f26:	55                   	push   %ebp
  100f27:	89 e5                	mov    %esp,%ebp
  100f29:	83 ec 28             	sub    $0x28,%esp
  100f2c:	8b 45 10             	mov    0x10(%ebp),%eax
  100f2f:	89 44 24 08          	mov    %eax,0x8(%esp)
  100f33:	8b 45 0c             	mov    0xc(%ebp),%eax
  100f36:	89 44 24 04          	mov    %eax,0x4(%esp)
  100f3a:	8b 45 08             	mov    0x8(%ebp),%eax
  100f3d:	89 04 24             	mov    %eax,(%esp)
  100f40:	e8 f1 fd ff ff       	call   100d36 <_ZN5Print5printEmi>
  100f45:	89 45 f4             	mov    %eax,-0xc(%ebp)
  100f48:	8b 45 08             	mov    0x8(%ebp),%eax
  100f4b:	89 04 24             	mov    %eax,(%esp)
  100f4e:	e8 59 fe ff ff       	call   100dac <_ZN5Print7printlnEv>
  100f53:	01 45 f4             	add    %eax,-0xc(%ebp)
  100f56:	8b 45 f4             	mov    -0xc(%ebp),%eax
  100f59:	c9                   	leave  
  100f5a:	c3                   	ret    
  100f5b:	90                   	nop

00100f5c <_ZN5Print7printlnEdi>:
  100f5c:	55                   	push   %ebp
  100f5d:	89 e5                	mov    %esp,%ebp
  100f5f:	83 ec 38             	sub    $0x38,%esp
  100f62:	8b 45 0c             	mov    0xc(%ebp),%eax
  100f65:	89 45 e0             	mov    %eax,-0x20(%ebp)
  100f68:	8b 45 10             	mov    0x10(%ebp),%eax
  100f6b:	89 45 e4             	mov    %eax,-0x1c(%ebp)
  100f6e:	8b 45 14             	mov    0x14(%ebp),%eax
  100f71:	89 44 24 0c          	mov    %eax,0xc(%esp)
  100f75:	dd 45 e0             	fldl   -0x20(%ebp)
  100f78:	dd 5c 24 04          	fstpl  0x4(%esp)
  100f7c:	8b 45 08             	mov    0x8(%ebp),%eax
  100f7f:	89 04 24             	mov    %eax,(%esp)
  100f82:	e8 f5 fd ff ff       	call   100d7c <_ZN5Print5printEdi>
  100f87:	89 45 f4             	mov    %eax,-0xc(%ebp)
  100f8a:	8b 45 08             	mov    0x8(%ebp),%eax
  100f8d:	89 04 24             	mov    %eax,(%esp)
  100f90:	e8 17 fe ff ff       	call   100dac <_ZN5Print7printlnEv>
  100f95:	01 45 f4             	add    %eax,-0xc(%ebp)
  100f98:	8b 45 f4             	mov    -0xc(%ebp),%eax
  100f9b:	c9                   	leave  
  100f9c:	c3                   	ret    
  100f9d:	90                   	nop

00100f9e <_ZN5Print11printNumberEmh>:
  100f9e:	55                   	push   %ebp
  100f9f:	89 e5                	mov    %esp,%ebp
  100fa1:	83 ec 48             	sub    $0x48,%esp
  100fa4:	8b 45 10             	mov    0x10(%ebp),%eax
  100fa7:	88 45 c4             	mov    %al,-0x3c(%ebp)
  100faa:	b8 20 00 00 00       	mov    $0x20,%eax
  100faf:	8d 55 ce             	lea    -0x32(%ebp),%edx
  100fb2:	01 d0                	add    %edx,%eax
  100fb4:	89 45 f4             	mov    %eax,-0xc(%ebp)
  100fb7:	8b 45 f4             	mov    -0xc(%ebp),%eax
  100fba:	c6 00 00             	movb   $0x0,(%eax)
  100fbd:	80 7d c4 01          	cmpb   $0x1,-0x3c(%ebp)
  100fc1:	77 04                	ja     100fc7 <_ZN5Print11printNumberEmh+0x29>
  100fc3:	c6 45 c4 0a          	movb   $0xa,-0x3c(%ebp)
  100fc7:	8b 45 0c             	mov    0xc(%ebp),%eax
  100fca:	89 45 f0             	mov    %eax,-0x10(%ebp)
  100fcd:	0f b6 4d c4          	movzbl -0x3c(%ebp),%ecx
  100fd1:	8b 45 0c             	mov    0xc(%ebp),%eax
  100fd4:	ba 00 00 00 00       	mov    $0x0,%edx
  100fd9:	f7 f1                	div    %ecx
  100fdb:	89 45 0c             	mov    %eax,0xc(%ebp)
  100fde:	8b 45 f0             	mov    -0x10(%ebp),%eax
  100fe1:	89 c2                	mov    %eax,%edx
  100fe3:	8b 45 0c             	mov    0xc(%ebp),%eax
  100fe6:	f6 65 c4             	mulb   -0x3c(%ebp)
  100fe9:	29 c2                	sub    %eax,%edx
  100feb:	89 d0                	mov    %edx,%eax
  100fed:	88 45 ef             	mov    %al,-0x11(%ebp)
  100ff0:	83 6d f4 01          	subl   $0x1,-0xc(%ebp)
  100ff4:	80 7d ef 09          	cmpb   $0x9,-0x11(%ebp)
  100ff8:	7f 09                	jg     101003 <_ZN5Print11printNumberEmh+0x65>
  100ffa:	0f b6 45 ef          	movzbl -0x11(%ebp),%eax
  100ffe:	83 c0 30             	add    $0x30,%eax
  101001:	eb 07                	jmp    10100a <_ZN5Print11printNumberEmh+0x6c>
  101003:	0f b6 45 ef          	movzbl -0x11(%ebp),%eax
  101007:	83 c0 37             	add    $0x37,%eax
  10100a:	8b 55 f4             	mov    -0xc(%ebp),%edx
  10100d:	88 02                	mov    %al,(%edx)
  10100f:	83 7d 0c 00          	cmpl   $0x0,0xc(%ebp)
  101013:	75 b2                	jne    100fc7 <_ZN5Print11printNumberEmh+0x29>
  101015:	8b 45 f4             	mov    -0xc(%ebp),%eax
  101018:	89 44 24 04          	mov    %eax,0x4(%esp)
  10101c:	8b 45 08             	mov    0x8(%ebp),%eax
  10101f:	89 04 24             	mov    %eax,(%esp)
  101022:	e8 77 fb ff ff       	call   100b9e <_ZN5Print5writeEPKc>
  101027:	c9                   	leave  
  101028:	c3                   	ret    
  101029:	90                   	nop

0010102a <_ZN5Print10printFloatEdh>:
  10102a:	55                   	push   %ebp
  10102b:	89 e5                	mov    %esp,%ebp
  10102d:	83 ec 68             	sub    $0x68,%esp
  101030:	8b 45 14             	mov    0x14(%ebp),%eax
  101033:	8b 55 0c             	mov    0xc(%ebp),%edx
  101036:	89 55 c0             	mov    %edx,-0x40(%ebp)
  101039:	8b 55 10             	mov    0x10(%ebp),%edx
  10103c:	89 55 c4             	mov    %edx,-0x3c(%ebp)
  10103f:	88 45 bc             	mov    %al,-0x44(%ebp)
  101042:	c7 45 f4 00 00 00 00 	movl   $0x0,-0xc(%ebp)
  101049:	dd 45 c0             	fldl   -0x40(%ebp)
  10104c:	dd 05 00 85 10 00    	fldl   0x108500
  101052:	d9 c9                	fxch   %st(1)
  101054:	df e9                	fucomip %st(1),%st
  101056:	dd d8                	fstp   %st(0)
  101058:	76 18                	jbe    101072 <_ZN5Print10printFloatEdh+0x48>
  10105a:	c7 44 24 04 f8 84 10 	movl   $0x1084f8,0x4(%esp)
  101061:	00 
  101062:	8b 45 08             	mov    0x8(%ebp),%eax
  101065:	89 04 24             	mov    %eax,(%esp)
  101068:	e8 73 fb ff ff       	call   100be0 <_ZN5Print5printEPKc>
  10106d:	e9 62 01 00 00       	jmp    1011d4 <_ZN5Print10printFloatEdh+0x1aa>
  101072:	dd 05 08 85 10 00    	fldl   0x108508
  101078:	dd 45 c0             	fldl   -0x40(%ebp)
  10107b:	d9 c9                	fxch   %st(1)
  10107d:	df e9                	fucomip %st(1),%st
  10107f:	dd d8                	fstp   %st(0)
  101081:	76 18                	jbe    10109b <_ZN5Print10printFloatEdh+0x71>
  101083:	c7 44 24 04 f8 84 10 	movl   $0x1084f8,0x4(%esp)
  10108a:	00 
  10108b:	8b 45 08             	mov    0x8(%ebp),%eax
  10108e:	89 04 24             	mov    %eax,(%esp)
  101091:	e8 4a fb ff ff       	call   100be0 <_ZN5Print5printEPKc>
  101096:	e9 39 01 00 00       	jmp    1011d4 <_ZN5Print10printFloatEdh+0x1aa>
  10109b:	d9 ee                	fldz   
  10109d:	dd 45 c0             	fldl   -0x40(%ebp)
  1010a0:	d9 c9                	fxch   %st(1)
  1010a2:	df e9                	fucomip %st(1),%st
  1010a4:	dd d8                	fstp   %st(0)
  1010a6:	76 1e                	jbe    1010c6 <_ZN5Print10printFloatEdh+0x9c>
  1010a8:	c7 44 24 04 2d 00 00 	movl   $0x2d,0x4(%esp)
  1010af:	00 
  1010b0:	8b 45 08             	mov    0x8(%ebp),%eax
  1010b3:	89 04 24             	mov    %eax,(%esp)
  1010b6:	e8 3f fb ff ff       	call   100bfa <_ZN5Print5printEc>
  1010bb:	01 45 f4             	add    %eax,-0xc(%ebp)
  1010be:	dd 45 c0             	fldl   -0x40(%ebp)
  1010c1:	d9 e0                	fchs   
  1010c3:	dd 5d c0             	fstpl  -0x40(%ebp)
  1010c6:	dd 05 10 85 10 00    	fldl   0x108510
  1010cc:	dd 5d e8             	fstpl  -0x18(%ebp)
  1010cf:	c6 45 e7 00          	movb   $0x0,-0x19(%ebp)
  1010d3:	eb 12                	jmp    1010e7 <_ZN5Print10printFloatEdh+0xbd>
  1010d5:	dd 45 e8             	fldl   -0x18(%ebp)
  1010d8:	dd 05 18 85 10 00    	fldl   0x108518
  1010de:	de f9                	fdivrp %st,%st(1)
  1010e0:	dd 5d e8             	fstpl  -0x18(%ebp)
  1010e3:	80 45 e7 01          	addb   $0x1,-0x19(%ebp)
  1010e7:	0f b6 45 e7          	movzbl -0x19(%ebp),%eax
  1010eb:	3a 45 bc             	cmp    -0x44(%ebp),%al
  1010ee:	72 e5                	jb     1010d5 <_ZN5Print10printFloatEdh+0xab>
  1010f0:	dd 45 c0             	fldl   -0x40(%ebp)
  1010f3:	dc 45 e8             	faddl  -0x18(%ebp)
  1010f6:	dd 5d c0             	fstpl  -0x40(%ebp)
  1010f9:	dd 45 c0             	fldl   -0x40(%ebp)
  1010fc:	d9 7d be             	fnstcw -0x42(%ebp)
  1010ff:	0f b7 45 be          	movzwl -0x42(%ebp),%eax
  101103:	b4 0c                	mov    $0xc,%ah
  101105:	66 89 45 ba          	mov    %ax,-0x46(%ebp)
  101109:	d9 6d ba             	fldcw  -0x46(%ebp)
  10110c:	df 7d b0             	fistpll -0x50(%ebp)
  10110f:	d9 6d be             	fldcw  -0x42(%ebp)
  101112:	8b 45 b0             	mov    -0x50(%ebp),%eax
  101115:	8b 55 b4             	mov    -0x4c(%ebp),%edx
  101118:	89 45 d4             	mov    %eax,-0x2c(%ebp)
  10111b:	8b 45 d4             	mov    -0x2c(%ebp),%eax
  10111e:	ba 00 00 00 00       	mov    $0x0,%edx
  101123:	89 45 b0             	mov    %eax,-0x50(%ebp)
  101126:	89 55 b4             	mov    %edx,-0x4c(%ebp)
  101129:	df 6d b0             	fildll -0x50(%ebp)
  10112c:	dd 45 c0             	fldl   -0x40(%ebp)
  10112f:	de e1                	fsubp  %st,%st(1)
  101131:	dd 5d d8             	fstpl  -0x28(%ebp)
  101134:	c7 44 24 08 0a 00 00 	movl   $0xa,0x8(%esp)
  10113b:	00 
  10113c:	8b 45 d4             	mov    -0x2c(%ebp),%eax
  10113f:	89 44 24 04          	mov    %eax,0x4(%esp)
  101143:	8b 45 08             	mov    0x8(%ebp),%eax
  101146:	89 04 24             	mov    %eax,(%esp)
  101149:	e8 e8 fb ff ff       	call   100d36 <_ZN5Print5printEmi>
  10114e:	01 45 f4             	add    %eax,-0xc(%ebp)
  101151:	80 7d bc 00          	cmpb   $0x0,-0x44(%ebp)
  101155:	74 16                	je     10116d <_ZN5Print10printFloatEdh+0x143>
  101157:	c7 44 24 04 fc 84 10 	movl   $0x1084fc,0x4(%esp)
  10115e:	00 
  10115f:	8b 45 08             	mov    0x8(%ebp),%eax
  101162:	89 04 24             	mov    %eax,(%esp)
  101165:	e8 76 fa ff ff       	call   100be0 <_ZN5Print5printEPKc>
  10116a:	01 45 f4             	add    %eax,-0xc(%ebp)
  10116d:	eb 4f                	jmp    1011be <_ZN5Print10printFloatEdh+0x194>
  10116f:	dd 45 d8             	fldl   -0x28(%ebp)
  101172:	dd 05 18 85 10 00    	fldl   0x108518
  101178:	de c9                	fmulp  %st,%st(1)
  10117a:	dd 5d d8             	fstpl  -0x28(%ebp)
  10117d:	dd 45 d8             	fldl   -0x28(%ebp)
  101180:	d9 7d be             	fnstcw -0x42(%ebp)
  101183:	0f b7 45 be          	movzwl -0x42(%ebp),%eax
  101187:	b4 0c                	mov    $0xc,%ah
  101189:	66 89 45 ba          	mov    %ax,-0x46(%ebp)
  10118d:	d9 6d ba             	fldcw  -0x46(%ebp)
  101190:	db 5d d0             	fistpl -0x30(%ebp)
  101193:	d9 6d be             	fldcw  -0x42(%ebp)
  101196:	c7 44 24 08 0a 00 00 	movl   $0xa,0x8(%esp)
  10119d:	00 
  10119e:	8b 45 d0             	mov    -0x30(%ebp),%eax
  1011a1:	89 44 24 04          	mov    %eax,0x4(%esp)
  1011a5:	8b 45 08             	mov    0x8(%ebp),%eax
  1011a8:	89 04 24             	mov    %eax,(%esp)
  1011ab:	e8 9a fa ff ff       	call   100c4a <_ZN5Print5printEii>
  1011b0:	01 45 f4             	add    %eax,-0xc(%ebp)
  1011b3:	db 45 d0             	fildl  -0x30(%ebp)
  1011b6:	dd 45 d8             	fldl   -0x28(%ebp)
  1011b9:	de e1                	fsubp  %st,%st(1)
  1011bb:	dd 5d d8             	fstpl  -0x28(%ebp)
  1011be:	0f b6 45 bc          	movzbl -0x44(%ebp),%eax
  1011c2:	8d 50 ff             	lea    -0x1(%eax),%edx
  1011c5:	88 55 bc             	mov    %dl,-0x44(%ebp)
  1011c8:	84 c0                	test   %al,%al
  1011ca:	0f 95 c0             	setne  %al
  1011cd:	84 c0                	test   %al,%al
  1011cf:	75 9e                	jne    10116f <_ZN5Print10printFloatEdh+0x145>
  1011d1:	8b 45 f4             	mov    -0xc(%ebp),%eax
  1011d4:	c9                   	leave  
  1011d5:	c3                   	ret    

001011d6 <_ZL4outbth>:
  1011d6:	55                   	push   %ebp
  1011d7:	89 e5                	mov    %esp,%ebp
  1011d9:	83 ec 08             	sub    $0x8,%esp
  1011dc:	8b 55 08             	mov    0x8(%ebp),%edx
  1011df:	8b 45 0c             	mov    0xc(%ebp),%eax
  1011e2:	66 89 55 fc          	mov    %dx,-0x4(%ebp)
  1011e6:	88 45 f8             	mov    %al,-0x8(%ebp)
  1011e9:	0f b7 55 fc          	movzwl -0x4(%ebp),%edx
  1011ed:	0f b6 45 f8          	movzbl -0x8(%ebp),%eax
  1011f1:	ee                   	out    %al,(%dx)
  1011f2:	c9                   	leave  
  1011f3:	c3                   	ret    

001011f4 <_ZL3inbt>:
  1011f4:	55                   	push   %ebp
  1011f5:	89 e5                	mov    %esp,%ebp
  1011f7:	83 ec 14             	sub    $0x14,%esp
  1011fa:	8b 45 08             	mov    0x8(%ebp),%eax
  1011fd:	66 89 45 ec          	mov    %ax,-0x14(%ebp)
  101201:	0f b7 45 ec          	movzwl -0x14(%ebp),%eax
  101205:	89 c2                	mov    %eax,%edx
  101207:	ec                   	in     (%dx),%al
  101208:	88 45 ff             	mov    %al,-0x1(%ebp)
  10120b:	0f b6 45 ff          	movzbl -0x1(%ebp),%eax
  10120f:	c9                   	leave  
  101210:	c3                   	ret    

00101211 <_ZL29platform_abstract_irq_handlerP14interrupt_info>:
  101211:	55                   	push   %ebp
  101212:	89 e5                	mov    %esp,%ebp
  101214:	83 ec 08             	sub    $0x8,%esp
  101217:	8b 45 08             	mov    0x8(%ebp),%eax
  10121a:	8b 40 24             	mov    0x24(%eax),%eax
  10121d:	83 f8 27             	cmp    $0x27,%eax
  101220:	76 14                	jbe    101236 <_ZL29platform_abstract_irq_handlerP14interrupt_info+0x25>
  101222:	c7 44 24 04 20 00 00 	movl   $0x20,0x4(%esp)
  101229:	00 
  10122a:	c7 04 24 a0 00 00 00 	movl   $0xa0,(%esp)
  101231:	e8 a0 ff ff ff       	call   1011d6 <_ZL4outbth>
  101236:	8b 45 08             	mov    0x8(%ebp),%eax
  101239:	8b 40 24             	mov    0x24(%eax),%eax
  10123c:	83 f8 1f             	cmp    $0x1f,%eax
  10123f:	76 14                	jbe    101255 <_ZL29platform_abstract_irq_handlerP14interrupt_info+0x44>
  101241:	c7 44 24 04 20 00 00 	movl   $0x20,0x4(%esp)
  101248:	00 
  101249:	c7 04 24 20 00 00 00 	movl   $0x20,(%esp)
  101250:	e8 81 ff ff ff       	call   1011d6 <_ZL4outbth>
  101255:	c9                   	leave  
  101256:	c3                   	ret    

00101257 <_Z16abstract_StubISRP14interrupt_info>:
  101257:	55                   	push   %ebp
  101258:	89 e5                	mov    %esp,%ebp
  10125a:	83 ec 18             	sub    $0x18,%esp
  10125d:	c7 04 24 30 85 10 00 	movl   $0x108530,(%esp)
  101264:	e8 62 f6 ff ff       	call   1008cb <debug_print>
  101269:	8b 45 08             	mov    0x8(%ebp),%eax
  10126c:	8b 40 24             	mov    0x24(%eax),%eax
  10126f:	89 04 24             	mov    %eax,(%esp)
  101272:	e8 68 f5 ff ff       	call   1007df <debug_printhex_int32>
  101277:	c7 44 24 04 02 00 00 	movl   $0x2,0x4(%esp)
  10127e:	00 
  10127f:	c7 04 24 4e 85 10 00 	movl   $0x10854e,(%esp)
  101286:	e8 62 f4 ff ff       	call   1006ed <debug_write>
  10128b:	c7 04 24 54 85 10 00 	movl   $0x108554,(%esp)
  101292:	e8 d3 f7 ff ff       	call   100a6a <_Z11systemErrorPKc>
  101297:	c9                   	leave  
  101298:	c3                   	ret    

00101299 <_Z23abstract_irq_table_sizej>:
  101299:	55                   	push   %ebp
  10129a:	89 e5                	mov    %esp,%ebp
  10129c:	8b 55 08             	mov    0x8(%ebp),%edx
  10129f:	89 d0                	mov    %edx,%eax
  1012a1:	c1 e0 03             	shl    $0x3,%eax
  1012a4:	01 d0                	add    %edx,%eax
  1012a6:	5d                   	pop    %ebp
  1012a7:	c3                   	ret    

001012a8 <_Z17abstract_irq_initPvj>:
  1012a8:	55                   	push   %ebp
  1012a9:	89 e5                	mov    %esp,%ebp
  1012ab:	83 ec 28             	sub    $0x28,%esp
  1012ae:	8b 45 08             	mov    0x8(%ebp),%eax
  1012b1:	a3 a0 c8 10 00       	mov    %eax,0x10c8a0
  1012b6:	8b 55 0c             	mov    0xc(%ebp),%edx
  1012b9:	89 d0                	mov    %edx,%eax
  1012bb:	c1 e0 03             	shl    $0x3,%eax
  1012be:	01 d0                	add    %edx,%eax
  1012c0:	89 44 24 08          	mov    %eax,0x8(%esp)
  1012c4:	c7 44 24 04 00 00 00 	movl   $0x0,0x4(%esp)
  1012cb:	00 
  1012cc:	8b 45 08             	mov    0x8(%ebp),%eax
  1012cf:	89 04 24             	mov    %eax,(%esp)
  1012d2:	e8 66 44 00 00       	call   10573d <memset>
  1012d7:	c7 45 f4 00 00 00 00 	movl   $0x0,-0xc(%ebp)
  1012de:	eb 1c                	jmp    1012fc <_Z17abstract_irq_initPvj+0x54>
  1012e0:	8b 0d a0 c8 10 00    	mov    0x10c8a0,%ecx
  1012e6:	8b 55 f4             	mov    -0xc(%ebp),%edx
  1012e9:	89 d0                	mov    %edx,%eax
  1012eb:	c1 e0 03             	shl    $0x3,%eax
  1012ee:	01 d0                	add    %edx,%eax
  1012f0:	01 c8                	add    %ecx,%eax
  1012f2:	c7 00 57 12 10 00    	movl   $0x101257,(%eax)
  1012f8:	83 45 f4 01          	addl   $0x1,-0xc(%ebp)
  1012fc:	8b 45 f4             	mov    -0xc(%ebp),%eax
  1012ff:	3b 45 0c             	cmp    0xc(%ebp),%eax
  101302:	72 dc                	jb     1012e0 <_Z17abstract_irq_initPvj+0x38>
  101304:	c7 45 f0 00 00 00 00 	movl   $0x0,-0x10(%ebp)
  10130b:	eb 1a                	jmp    101327 <_Z17abstract_irq_initPvj+0x7f>
  10130d:	8b 0d a0 c8 10 00    	mov    0x10c8a0,%ecx
  101313:	8b 55 f0             	mov    -0x10(%ebp),%edx
  101316:	89 d0                	mov    %edx,%eax
  101318:	c1 e0 03             	shl    $0x3,%eax
  10131b:	01 d0                	add    %edx,%eax
  10131d:	01 c8                	add    %ecx,%eax
  10131f:	c6 40 08 01          	movb   $0x1,0x8(%eax)
  101323:	83 45 f0 01          	addl   $0x1,-0x10(%ebp)
  101327:	8b 45 f0             	mov    -0x10(%ebp),%eax
  10132a:	3b 45 0c             	cmp    0xc(%ebp),%eax
  10132d:	72 de                	jb     10130d <_Z17abstract_irq_initPvj+0x65>
  10132f:	c6 05 a4 c8 10 00 01 	movb   $0x1,0x10c8a4
  101336:	c9                   	leave  
  101337:	c3                   	ret    

00101338 <abstract_irq_controller>:
  101338:	55                   	push   %ebp
  101339:	89 e5                	mov    %esp,%ebp
  10133b:	53                   	push   %ebx
  10133c:	83 ec 24             	sub    $0x24,%esp
  10133f:	0f b6 05 a4 c8 10 00 	movzbl 0x10c8a4,%eax
  101346:	84 c0                	test   %al,%al
  101348:	75 0c                	jne    101356 <abstract_irq_controller+0x1e>
  10134a:	c7 04 24 74 85 10 00 	movl   $0x108574,(%esp)
  101351:	e8 14 f7 ff ff       	call   100a6a <_Z11systemErrorPKc>
  101356:	8b 45 2c             	mov    0x2c(%ebp),%eax
  101359:	89 45 f4             	mov    %eax,-0xc(%ebp)
  10135c:	8b 0d a0 c8 10 00    	mov    0x10c8a0,%ecx
  101362:	8b 55 f4             	mov    -0xc(%ebp),%edx
  101365:	89 d0                	mov    %edx,%eax
  101367:	c1 e0 03             	shl    $0x3,%eax
  10136a:	01 d0                	add    %edx,%eax
  10136c:	01 c8                	add    %ecx,%eax
  10136e:	8b 50 04             	mov    0x4(%eax),%edx
  101371:	83 c2 01             	add    $0x1,%edx
  101374:	89 50 04             	mov    %edx,0x4(%eax)
  101377:	8d 45 08             	lea    0x8(%ebp),%eax
  10137a:	89 04 24             	mov    %eax,(%esp)
  10137d:	e8 8f fe ff ff       	call   101211 <_ZL29platform_abstract_irq_handlerP14interrupt_info>
  101382:	8b 0d a0 c8 10 00    	mov    0x10c8a0,%ecx
  101388:	8b 55 f4             	mov    -0xc(%ebp),%edx
  10138b:	89 d0                	mov    %edx,%eax
  10138d:	c1 e0 03             	shl    $0x3,%eax
  101390:	01 d0                	add    %edx,%eax
  101392:	01 c8                	add    %ecx,%eax
  101394:	8b 00                	mov    (%eax),%eax
  101396:	8d 5d 08             	lea    0x8(%ebp),%ebx
  101399:	89 1c 24             	mov    %ebx,(%esp)
  10139c:	ff d0                	call   *%eax
  10139e:	83 c4 24             	add    $0x24,%esp
  1013a1:	5b                   	pop    %ebx
  1013a2:	5d                   	pop    %ebp
  1013a3:	c3                   	ret    

001013a4 <_Z25abstract_irq_debug_attachjPFvP14interrupt_infoE>:
  1013a4:	55                   	push   %ebp
  1013a5:	89 e5                	mov    %esp,%ebp
  1013a7:	8b 0d a0 c8 10 00    	mov    0x10c8a0,%ecx
  1013ad:	8b 55 08             	mov    0x8(%ebp),%edx
  1013b0:	89 d0                	mov    %edx,%eax
  1013b2:	c1 e0 03             	shl    $0x3,%eax
  1013b5:	01 d0                	add    %edx,%eax
  1013b7:	8d 14 01             	lea    (%ecx,%eax,1),%edx
  1013ba:	8b 45 0c             	mov    0xc(%ebp),%eax
  1013bd:	89 02                	mov    %eax,(%edx)
  1013bf:	8b 0d a0 c8 10 00    	mov    0x10c8a0,%ecx
  1013c5:	8b 55 08             	mov    0x8(%ebp),%edx
  1013c8:	89 d0                	mov    %edx,%eax
  1013ca:	c1 e0 03             	shl    $0x3,%eax
  1013cd:	01 d0                	add    %edx,%eax
  1013cf:	01 c8                	add    %ecx,%eax
  1013d1:	c6 40 08 01          	movb   $0x1,0x8(%eax)
  1013d5:	5d                   	pop    %ebp
  1013d6:	c3                   	ret    

001013d7 <_Z19abstract_irq_attachjPFvvE>:
  1013d7:	55                   	push   %ebp
  1013d8:	89 e5                	mov    %esp,%ebp
  1013da:	8b 0d a0 c8 10 00    	mov    0x10c8a0,%ecx
  1013e0:	8b 55 08             	mov    0x8(%ebp),%edx
  1013e3:	89 d0                	mov    %edx,%eax
  1013e5:	c1 e0 03             	shl    $0x3,%eax
  1013e8:	01 d0                	add    %edx,%eax
  1013ea:	8d 14 01             	lea    (%ecx,%eax,1),%edx
  1013ed:	8b 45 0c             	mov    0xc(%ebp),%eax
  1013f0:	89 02                	mov    %eax,(%edx)
  1013f2:	8b 0d a0 c8 10 00    	mov    0x10c8a0,%ecx
  1013f8:	8b 55 08             	mov    0x8(%ebp),%edx
  1013fb:	89 d0                	mov    %edx,%eax
  1013fd:	c1 e0 03             	shl    $0x3,%eax
  101400:	01 d0                	add    %edx,%eax
  101402:	01 c8                	add    %ecx,%eax
  101404:	c6 40 08 00          	movb   $0x0,0x8(%eax)
  101408:	5d                   	pop    %ebp
  101409:	c3                   	ret    

0010140a <_ZL4outbth>:
  10140a:	55                   	push   %ebp
  10140b:	89 e5                	mov    %esp,%ebp
  10140d:	83 ec 08             	sub    $0x8,%esp
  101410:	8b 55 08             	mov    0x8(%ebp),%edx
  101413:	8b 45 0c             	mov    0xc(%ebp),%eax
  101416:	66 89 55 fc          	mov    %dx,-0x4(%ebp)
  10141a:	88 45 f8             	mov    %al,-0x8(%ebp)
  10141d:	0f b7 55 fc          	movzwl -0x4(%ebp),%edx
  101421:	0f b6 45 f8          	movzbl -0x8(%ebp),%eax
  101425:	ee                   	out    %al,(%dx)
  101426:	c9                   	leave  
  101427:	c3                   	ret    

00101428 <_ZL3inbt>:
  101428:	55                   	push   %ebp
  101429:	89 e5                	mov    %esp,%ebp
  10142b:	83 ec 14             	sub    $0x14,%esp
  10142e:	8b 45 08             	mov    0x8(%ebp),%eax
  101431:	66 89 45 ec          	mov    %ax,-0x14(%ebp)
  101435:	0f b7 45 ec          	movzwl -0x14(%ebp),%eax
  101439:	89 c2                	mov    %eax,%edx
  10143b:	ec                   	in     (%dx),%al
  10143c:	88 45 ff             	mov    %al,-0x1(%ebp)
  10143f:	0f b6 45 ff          	movzbl -0x1(%ebp),%eax
  101443:	c9                   	leave  
  101444:	c3                   	ret    

00101445 <_ZL29platform_abstract_irq_handlerP14interrupt_info>:
  101445:	55                   	push   %ebp
  101446:	89 e5                	mov    %esp,%ebp
  101448:	83 ec 08             	sub    $0x8,%esp
  10144b:	8b 45 08             	mov    0x8(%ebp),%eax
  10144e:	8b 40 24             	mov    0x24(%eax),%eax
  101451:	83 f8 27             	cmp    $0x27,%eax
  101454:	76 14                	jbe    10146a <_ZL29platform_abstract_irq_handlerP14interrupt_info+0x25>
  101456:	c7 44 24 04 20 00 00 	movl   $0x20,0x4(%esp)
  10145d:	00 
  10145e:	c7 04 24 a0 00 00 00 	movl   $0xa0,(%esp)
  101465:	e8 a0 ff ff ff       	call   10140a <_ZL4outbth>
  10146a:	8b 45 08             	mov    0x8(%ebp),%eax
  10146d:	8b 40 24             	mov    0x24(%eax),%eax
  101470:	83 f8 1f             	cmp    $0x1f,%eax
  101473:	76 14                	jbe    101489 <_ZL29platform_abstract_irq_handlerP14interrupt_info+0x44>
  101475:	c7 44 24 04 20 00 00 	movl   $0x20,0x4(%esp)
  10147c:	00 
  10147d:	c7 04 24 20 00 00 00 	movl   $0x20,(%esp)
  101484:	e8 81 ff ff ff       	call   10140a <_ZL4outbth>
  101489:	c9                   	leave  
  10148a:	c3                   	ret    

0010148b <_ZL17call_constructorsPmS_>:
  10148b:	55                   	push   %ebp
  10148c:	89 e5                	mov    %esp,%ebp
  10148e:	83 ec 28             	sub    $0x28,%esp
  101491:	8b 45 08             	mov    0x8(%ebp),%eax
  101494:	89 45 f4             	mov    %eax,-0xc(%ebp)
  101497:	eb 3c                	jmp    1014d5 <_ZL17call_constructorsPmS_+0x4a>
  101499:	c7 04 24 98 85 10 00 	movl   $0x108598,(%esp)
  1014a0:	e8 26 f4 ff ff       	call   1008cb <debug_print>
  1014a5:	8b 45 f4             	mov    -0xc(%ebp),%eax
  1014a8:	89 04 24             	mov    %eax,(%esp)
  1014ab:	e8 2f f3 ff ff       	call   1007df <debug_printhex_int32>
  1014b0:	c7 44 24 04 02 00 00 	movl   $0x2,0x4(%esp)
  1014b7:	00 
  1014b8:	c7 04 24 a5 85 10 00 	movl   $0x1085a5,(%esp)
  1014bf:	e8 29 f2 ff ff       	call   1006ed <debug_write>
  1014c4:	8b 45 f4             	mov    -0xc(%ebp),%eax
  1014c7:	8b 00                	mov    (%eax),%eax
  1014c9:	89 45 f0             	mov    %eax,-0x10(%ebp)
  1014cc:	8b 45 f0             	mov    -0x10(%ebp),%eax
  1014cf:	ff d0                	call   *%eax
  1014d1:	83 45 f4 04          	addl   $0x4,-0xc(%ebp)
  1014d5:	8b 45 f4             	mov    -0xc(%ebp),%eax
  1014d8:	3b 45 0c             	cmp    0xc(%ebp),%eax
  1014db:	72 bc                	jb     101499 <_ZL17call_constructorsPmS_+0xe>
  1014dd:	c9                   	leave  
  1014de:	c3                   	ret    

001014df <initenv_cpp_global_constructors>:
  1014df:	55                   	push   %ebp
  1014e0:	89 e5                	mov    %esp,%ebp
  1014e2:	83 ec 18             	sub    $0x18,%esp
  1014e5:	c7 04 24 a8 85 10 00 	movl   $0x1085a8,(%esp)
  1014ec:	e8 da f3 ff ff       	call   1008cb <debug_print>
  1014f1:	c7 04 24 c5 85 10 00 	movl   $0x1085c5,(%esp)
  1014f8:	e8 ce f3 ff ff       	call   1008cb <debug_print>
  1014fd:	c7 44 24 04 70 92 10 	movl   $0x109270,0x4(%esp)
  101504:	00 
  101505:	c7 04 24 70 92 10 00 	movl   $0x109270,(%esp)
  10150c:	e8 7a ff ff ff       	call   10148b <_ZL17call_constructorsPmS_>
  101511:	c7 44 24 04 74 92 10 	movl   $0x109274,0x4(%esp)
  101518:	00 
  101519:	c7 04 24 70 92 10 00 	movl   $0x109270,(%esp)
  101520:	e8 66 ff ff ff       	call   10148b <_ZL17call_constructorsPmS_>
  101525:	c7 44 24 04 74 92 10 	movl   $0x109274,0x4(%esp)
  10152c:	00 
  10152d:	c7 04 24 74 92 10 00 	movl   $0x109274,(%esp)
  101534:	e8 52 ff ff ff       	call   10148b <_ZL17call_constructorsPmS_>
  101539:	c7 04 24 d4 85 10 00 	movl   $0x1085d4,(%esp)
  101540:	e8 86 f3 ff ff       	call   1008cb <debug_print>
  101545:	c7 04 24 e8 85 10 00 	movl   $0x1085e8,(%esp)
  10154c:	e8 7a f3 ff ff       	call   1008cb <debug_print>
  101551:	c9                   	leave  
  101552:	c3                   	ret    

00101553 <initenv_bss_clean>:
  101553:	55                   	push   %ebp
  101554:	89 e5                	mov    %esp,%ebp
  101556:	83 ec 28             	sub    $0x28,%esp
  101559:	c7 04 24 14 86 10 00 	movl   $0x108614,(%esp)
  101560:	e8 66 f3 ff ff       	call   1008cb <debug_print>
  101565:	c7 45 f4 00 96 10 00 	movl   $0x109600,-0xc(%ebp)
  10156c:	eb 0a                	jmp    101578 <initenv_bss_clean+0x25>
  10156e:	8b 45 f4             	mov    -0xc(%ebp),%eax
  101571:	c6 00 00             	movb   $0x0,(%eax)
  101574:	83 45 f4 01          	addl   $0x1,-0xc(%ebp)
  101578:	b8 38 d1 10 00       	mov    $0x10d138,%eax
  10157d:	39 45 f4             	cmp    %eax,-0xc(%ebp)
  101580:	72 ec                	jb     10156e <initenv_bss_clean+0x1b>
  101582:	c7 04 24 26 86 10 00 	movl   $0x108626,(%esp)
  101589:	e8 3d f3 ff ff       	call   1008cb <debug_print>
  10158e:	c9                   	leave  
  10158f:	c3                   	ret    

00101590 <initenv_bss_test>:
  101590:	55                   	push   %ebp
  101591:	89 e5                	mov    %esp,%ebp
  101593:	83 ec 28             	sub    $0x28,%esp
  101596:	c7 45 f4 00 00 00 00 	movl   $0x0,-0xc(%ebp)
  10159d:	c7 45 f0 00 00 00 00 	movl   $0x0,-0x10(%ebp)
  1015a4:	c7 04 24 2b 86 10 00 	movl   $0x10862b,(%esp)
  1015ab:	e8 1b f3 ff ff       	call   1008cb <debug_print>
  1015b0:	c7 04 24 39 86 10 00 	movl   $0x108639,(%esp)
  1015b7:	e8 0f f3 ff ff       	call   1008cb <debug_print>
  1015bc:	ba 38 d1 10 00       	mov    $0x10d138,%edx
  1015c1:	b8 00 96 10 00       	mov    $0x109600,%eax
  1015c6:	29 c2                	sub    %eax,%edx
  1015c8:	89 d0                	mov    %edx,%eax
  1015ca:	89 04 24             	mov    %eax,(%esp)
  1015cd:	e8 0d f2 ff ff       	call   1007df <debug_printhex_int32>
  1015d2:	c7 44 24 04 02 00 00 	movl   $0x2,0x4(%esp)
  1015d9:	00 
  1015da:	c7 04 24 a5 85 10 00 	movl   $0x1085a5,(%esp)
  1015e1:	e8 07 f1 ff ff       	call   1006ed <debug_write>
  1015e6:	c7 04 24 48 86 10 00 	movl   $0x108648,(%esp)
  1015ed:	e8 d9 f2 ff ff       	call   1008cb <debug_print>
  1015f2:	c7 45 ec 00 96 10 00 	movl   $0x109600,-0x14(%ebp)
  1015f9:	eb 52                	jmp    10164d <initenv_bss_test+0xbd>
  1015fb:	83 45 f0 01          	addl   $0x1,-0x10(%ebp)
  1015ff:	8b 45 ec             	mov    -0x14(%ebp),%eax
  101602:	0f b6 00             	movzbl (%eax),%eax
  101605:	84 c0                	test   %al,%al
  101607:	74 40                	je     101649 <initenv_bss_test+0xb9>
  101609:	8b 45 ec             	mov    -0x14(%ebp),%eax
  10160c:	89 04 24             	mov    %eax,(%esp)
  10160f:	e8 cb f1 ff ff       	call   1007df <debug_printhex_int32>
  101614:	c7 04 24 88 86 10 00 	movl   $0x108688,(%esp)
  10161b:	e8 ab f2 ff ff       	call   1008cb <debug_print>
  101620:	8b 45 ec             	mov    -0x14(%ebp),%eax
  101623:	0f b6 00             	movzbl (%eax),%eax
  101626:	0f be c0             	movsbl %al,%eax
  101629:	89 04 24             	mov    %eax,(%esp)
  10162c:	e8 7a f1 ff ff       	call   1007ab <debug_printhex_byte>
  101631:	c7 44 24 04 02 00 00 	movl   $0x2,0x4(%esp)
  101638:	00 
  101639:	c7 04 24 a5 85 10 00 	movl   $0x1085a5,(%esp)
  101640:	e8 a8 f0 ff ff       	call   1006ed <debug_write>
  101645:	83 45 f4 01          	addl   $0x1,-0xc(%ebp)
  101649:	83 45 ec 01          	addl   $0x1,-0x14(%ebp)
  10164d:	b8 38 d1 10 00       	mov    $0x10d138,%eax
  101652:	39 45 ec             	cmp    %eax,-0x14(%ebp)
  101655:	72 a4                	jb     1015fb <initenv_bss_test+0x6b>
  101657:	c7 04 24 8c 86 10 00 	movl   $0x10868c,(%esp)
  10165e:	e8 68 f2 ff ff       	call   1008cb <debug_print>
  101663:	8b 45 f0             	mov    -0x10(%ebp),%eax
  101666:	89 04 24             	mov    %eax,(%esp)
  101669:	e8 71 f1 ff ff       	call   1007df <debug_printhex_int32>
  10166e:	c7 04 24 be 86 10 00 	movl   $0x1086be,(%esp)
  101675:	e8 51 f2 ff ff       	call   1008cb <debug_print>
  10167a:	8b 45 f4             	mov    -0xc(%ebp),%eax
  10167d:	89 04 24             	mov    %eax,(%esp)
  101680:	e8 5a f1 ff ff       	call   1007df <debug_printhex_int32>
  101685:	c7 44 24 04 02 00 00 	movl   $0x2,0x4(%esp)
  10168c:	00 
  10168d:	c7 04 24 a5 85 10 00 	movl   $0x1085a5,(%esp)
  101694:	e8 54 f0 ff ff       	call   1006ed <debug_write>
  101699:	c7 04 24 cf 86 10 00 	movl   $0x1086cf,(%esp)
  1016a0:	e8 26 f2 ff ff       	call   1008cb <debug_print>
  1016a5:	c9                   	leave  
  1016a6:	c3                   	ret    

001016a7 <initenv_sections_info>:
  1016a7:	55                   	push   %ebp
  1016a8:	89 e5                	mov    %esp,%ebp
  1016aa:	83 ec 18             	sub    $0x18,%esp
  1016ad:	c7 04 24 e0 86 10 00 	movl   $0x1086e0,(%esp)
  1016b4:	e8 12 f2 ff ff       	call   1008cb <debug_print>
  1016b9:	c7 04 24 04 87 10 00 	movl   $0x108704,(%esp)
  1016c0:	e8 06 f2 ff ff       	call   1008cb <debug_print>
  1016c5:	b8 00 00 10 00       	mov    $0x100000,%eax
  1016ca:	89 04 24             	mov    %eax,(%esp)
  1016cd:	e8 0d f1 ff ff       	call   1007df <debug_printhex_int32>
  1016d2:	c7 44 24 04 02 00 00 	movl   $0x2,0x4(%esp)
  1016d9:	00 
  1016da:	c7 04 24 a5 85 10 00 	movl   $0x1085a5,(%esp)
  1016e1:	e8 07 f0 ff ff       	call   1006ed <debug_write>
  1016e6:	c7 04 24 12 87 10 00 	movl   $0x108712,(%esp)
  1016ed:	e8 d9 f1 ff ff       	call   1008cb <debug_print>
  1016f2:	b8 74 92 10 00       	mov    $0x109274,%eax
  1016f7:	89 04 24             	mov    %eax,(%esp)
  1016fa:	e8 e0 f0 ff ff       	call   1007df <debug_printhex_int32>
  1016ff:	c7 44 24 04 02 00 00 	movl   $0x2,0x4(%esp)
  101706:	00 
  101707:	c7 04 24 a5 85 10 00 	movl   $0x1085a5,(%esp)
  10170e:	e8 da ef ff ff       	call   1006ed <debug_write>
  101713:	c7 04 24 20 87 10 00 	movl   $0x108720,(%esp)
  10171a:	e8 ac f1 ff ff       	call   1008cb <debug_print>
  10171f:	b8 80 92 10 00       	mov    $0x109280,%eax
  101724:	89 04 24             	mov    %eax,(%esp)
  101727:	e8 b3 f0 ff ff       	call   1007df <debug_printhex_int32>
  10172c:	c7 44 24 04 02 00 00 	movl   $0x2,0x4(%esp)
  101733:	00 
  101734:	c7 04 24 a5 85 10 00 	movl   $0x1085a5,(%esp)
  10173b:	e8 ad ef ff ff       	call   1006ed <debug_write>
  101740:	c7 04 24 2e 87 10 00 	movl   $0x10872e,(%esp)
  101747:	e8 7f f1 ff ff       	call   1008cb <debug_print>
  10174c:	b8 ec 95 10 00       	mov    $0x1095ec,%eax
  101751:	89 04 24             	mov    %eax,(%esp)
  101754:	e8 86 f0 ff ff       	call   1007df <debug_printhex_int32>
  101759:	c7 44 24 04 02 00 00 	movl   $0x2,0x4(%esp)
  101760:	00 
  101761:	c7 04 24 a5 85 10 00 	movl   $0x1085a5,(%esp)
  101768:	e8 80 ef ff ff       	call   1006ed <debug_write>
  10176d:	c7 04 24 3c 87 10 00 	movl   $0x10873c,(%esp)
  101774:	e8 52 f1 ff ff       	call   1008cb <debug_print>
  101779:	b8 00 96 10 00       	mov    $0x109600,%eax
  10177e:	89 04 24             	mov    %eax,(%esp)
  101781:	e8 59 f0 ff ff       	call   1007df <debug_printhex_int32>
  101786:	c7 44 24 04 02 00 00 	movl   $0x2,0x4(%esp)
  10178d:	00 
  10178e:	c7 04 24 a5 85 10 00 	movl   $0x1085a5,(%esp)
  101795:	e8 53 ef ff ff       	call   1006ed <debug_write>
  10179a:	c7 04 24 4a 87 10 00 	movl   $0x10874a,(%esp)
  1017a1:	e8 25 f1 ff ff       	call   1008cb <debug_print>
  1017a6:	b8 38 d1 10 00       	mov    $0x10d138,%eax
  1017ab:	89 04 24             	mov    %eax,(%esp)
  1017ae:	e8 2c f0 ff ff       	call   1007df <debug_printhex_int32>
  1017b3:	c7 44 24 04 02 00 00 	movl   $0x2,0x4(%esp)
  1017ba:	00 
  1017bb:	c7 04 24 a5 85 10 00 	movl   $0x1085a5,(%esp)
  1017c2:	e8 26 ef ff ff       	call   1006ed <debug_write>
  1017c7:	c7 04 24 58 87 10 00 	movl   $0x108758,(%esp)
  1017ce:	e8 f8 f0 ff ff       	call   1008cb <debug_print>
  1017d3:	c7 04 24 6c 87 10 00 	movl   $0x10876c,(%esp)
  1017da:	e8 ec f0 ff ff       	call   1008cb <debug_print>
  1017df:	b8 70 92 10 00       	mov    $0x109270,%eax
  1017e4:	89 04 24             	mov    %eax,(%esp)
  1017e7:	e8 f3 ef ff ff       	call   1007df <debug_printhex_int32>
  1017ec:	c7 44 24 04 02 00 00 	movl   $0x2,0x4(%esp)
  1017f3:	00 
  1017f4:	c7 04 24 a5 85 10 00 	movl   $0x1085a5,(%esp)
  1017fb:	e8 ed ee ff ff       	call   1006ed <debug_write>
  101800:	c7 04 24 83 87 10 00 	movl   $0x108783,(%esp)
  101807:	e8 bf f0 ff ff       	call   1008cb <debug_print>
  10180c:	b8 70 92 10 00       	mov    $0x109270,%eax
  101811:	89 04 24             	mov    %eax,(%esp)
  101814:	e8 c6 ef ff ff       	call   1007df <debug_printhex_int32>
  101819:	c7 44 24 04 02 00 00 	movl   $0x2,0x4(%esp)
  101820:	00 
  101821:	c7 04 24 a5 85 10 00 	movl   $0x1085a5,(%esp)
  101828:	e8 c0 ee ff ff       	call   1006ed <debug_write>
  10182d:	c7 04 24 9a 87 10 00 	movl   $0x10879a,(%esp)
  101834:	e8 92 f0 ff ff       	call   1008cb <debug_print>
  101839:	b8 70 92 10 00       	mov    $0x109270,%eax
  10183e:	89 04 24             	mov    %eax,(%esp)
  101841:	e8 99 ef ff ff       	call   1007df <debug_printhex_int32>
  101846:	c7 44 24 04 02 00 00 	movl   $0x2,0x4(%esp)
  10184d:	00 
  10184e:	c7 04 24 a5 85 10 00 	movl   $0x1085a5,(%esp)
  101855:	e8 93 ee ff ff       	call   1006ed <debug_write>
  10185a:	c7 04 24 b1 87 10 00 	movl   $0x1087b1,(%esp)
  101861:	e8 65 f0 ff ff       	call   1008cb <debug_print>
  101866:	b8 74 92 10 00       	mov    $0x109274,%eax
  10186b:	89 04 24             	mov    %eax,(%esp)
  10186e:	e8 6c ef ff ff       	call   1007df <debug_printhex_int32>
  101873:	c7 44 24 04 02 00 00 	movl   $0x2,0x4(%esp)
  10187a:	00 
  10187b:	c7 04 24 a5 85 10 00 	movl   $0x1085a5,(%esp)
  101882:	e8 66 ee ff ff       	call   1006ed <debug_write>
  101887:	c7 04 24 c8 87 10 00 	movl   $0x1087c8,(%esp)
  10188e:	e8 38 f0 ff ff       	call   1008cb <debug_print>
  101893:	b8 74 92 10 00       	mov    $0x109274,%eax
  101898:	89 04 24             	mov    %eax,(%esp)
  10189b:	e8 3f ef ff ff       	call   1007df <debug_printhex_int32>
  1018a0:	c7 44 24 04 02 00 00 	movl   $0x2,0x4(%esp)
  1018a7:	00 
  1018a8:	c7 04 24 a5 85 10 00 	movl   $0x1085a5,(%esp)
  1018af:	e8 39 ee ff ff       	call   1006ed <debug_write>
  1018b4:	c7 04 24 df 87 10 00 	movl   $0x1087df,(%esp)
  1018bb:	e8 0b f0 ff ff       	call   1008cb <debug_print>
  1018c0:	b8 74 92 10 00       	mov    $0x109274,%eax
  1018c5:	89 04 24             	mov    %eax,(%esp)
  1018c8:	e8 12 ef ff ff       	call   1007df <debug_printhex_int32>
  1018cd:	c7 44 24 04 02 00 00 	movl   $0x2,0x4(%esp)
  1018d4:	00 
  1018d5:	c7 04 24 a5 85 10 00 	movl   $0x1085a5,(%esp)
  1018dc:	e8 0c ee ff ff       	call   1006ed <debug_write>
  1018e1:	c9                   	leave  
  1018e2:	c3                   	ret    
  1018e3:	90                   	nop

001018e4 <_ZN14ring_history_t16hist_erase_olderEv>:
  1018e4:	55                   	push   %ebp
  1018e5:	89 e5                	mov    %esp,%ebp
  1018e7:	83 ec 10             	sub    $0x10,%esp
  1018ea:	8b 45 08             	mov    0x8(%ebp),%eax
  1018ed:	8b 88 00 01 00 00    	mov    0x100(%eax),%ecx
  1018f3:	8b 45 08             	mov    0x8(%ebp),%eax
  1018f6:	8b 80 00 01 00 00    	mov    0x100(%eax),%eax
  1018fc:	8b 55 08             	mov    0x8(%ebp),%edx
  1018ff:	0f b6 04 02          	movzbl (%edx,%eax,1),%eax
  101903:	0f be c0             	movsbl %al,%eax
  101906:	01 c8                	add    %ecx,%eax
  101908:	83 c0 01             	add    $0x1,%eax
  10190b:	89 45 fc             	mov    %eax,-0x4(%ebp)
  10190e:	81 7d fc ff 00 00 00 	cmpl   $0xff,-0x4(%ebp)
  101915:	7e 07                	jle    10191e <_ZN14ring_history_t16hist_erase_olderEv+0x3a>
  101917:	81 6d fc 00 01 00 00 	subl   $0x100,-0x4(%ebp)
  10191e:	8b 45 08             	mov    0x8(%ebp),%eax
  101921:	8b 55 fc             	mov    -0x4(%ebp),%edx
  101924:	89 90 00 01 00 00    	mov    %edx,0x100(%eax)
  10192a:	c9                   	leave  
  10192b:	c3                   	ret    

0010192c <_ZN14ring_history_t21hist_is_space_for_newEi>:
  10192c:	55                   	push   %ebp
  10192d:	89 e5                	mov    %esp,%ebp
  10192f:	8b 45 08             	mov    0x8(%ebp),%eax
  101932:	8b 80 00 01 00 00    	mov    0x100(%eax),%eax
  101938:	8b 55 08             	mov    0x8(%ebp),%edx
  10193b:	0f b6 04 02          	movzbl (%edx,%eax,1),%eax
  10193f:	84 c0                	test   %al,%al
  101941:	75 07                	jne    10194a <_ZN14ring_history_t21hist_is_space_for_newEi+0x1e>
  101943:	b8 01 00 00 00       	mov    $0x1,%eax
  101948:	eb 6a                	jmp    1019b4 <_ZN14ring_history_t21hist_is_space_for_newEi+0x88>
  10194a:	8b 45 08             	mov    0x8(%ebp),%eax
  10194d:	8b 90 04 01 00 00    	mov    0x104(%eax),%edx
  101953:	8b 45 08             	mov    0x8(%ebp),%eax
  101956:	8b 80 00 01 00 00    	mov    0x100(%eax),%eax
  10195c:	39 c2                	cmp    %eax,%edx
  10195e:	7c 2a                	jl     10198a <_ZN14ring_history_t21hist_is_space_for_newEi+0x5e>
  101960:	8b 45 08             	mov    0x8(%ebp),%eax
  101963:	8b 80 04 01 00 00    	mov    0x104(%eax),%eax
  101969:	ba 00 01 00 00       	mov    $0x100,%edx
  10196e:	29 c2                	sub    %eax,%edx
  101970:	8b 45 08             	mov    0x8(%ebp),%eax
  101973:	8b 80 00 01 00 00    	mov    0x100(%eax),%eax
  101979:	01 d0                	add    %edx,%eax
  10197b:	83 e8 01             	sub    $0x1,%eax
  10197e:	3b 45 0c             	cmp    0xc(%ebp),%eax
  101981:	7e 2c                	jle    1019af <_ZN14ring_history_t21hist_is_space_for_newEi+0x83>
  101983:	b8 01 00 00 00       	mov    $0x1,%eax
  101988:	eb 2a                	jmp    1019b4 <_ZN14ring_history_t21hist_is_space_for_newEi+0x88>
  10198a:	8b 45 08             	mov    0x8(%ebp),%eax
  10198d:	8b 90 00 01 00 00    	mov    0x100(%eax),%edx
  101993:	8b 45 08             	mov    0x8(%ebp),%eax
  101996:	8b 80 04 01 00 00    	mov    0x104(%eax),%eax
  10199c:	29 c2                	sub    %eax,%edx
  10199e:	89 d0                	mov    %edx,%eax
  1019a0:	83 e8 01             	sub    $0x1,%eax
  1019a3:	3b 45 0c             	cmp    0xc(%ebp),%eax
  1019a6:	7e 07                	jle    1019af <_ZN14ring_history_t21hist_is_space_for_newEi+0x83>
  1019a8:	b8 01 00 00 00       	mov    $0x1,%eax
  1019ad:	eb 05                	jmp    1019b4 <_ZN14ring_history_t21hist_is_space_for_newEi+0x88>
  1019af:	b8 00 00 00 00       	mov    $0x0,%eax
  1019b4:	5d                   	pop    %ebp
  1019b5:	c3                   	ret    

001019b6 <_ZN14ring_history_t14hist_save_lineEPci>:
  1019b6:	55                   	push   %ebp
  1019b7:	89 e5                	mov    %esp,%ebp
  1019b9:	83 ec 28             	sub    $0x28,%esp
  1019bc:	81 7d 10 fe 00 00 00 	cmpl   $0xfe,0x10(%ebp)
  1019c3:	7e 05                	jle    1019ca <_ZN14ring_history_t14hist_save_lineEPci+0x14>
  1019c5:	e9 66 01 00 00       	jmp    101b30 <_ZN14ring_history_t14hist_save_lineEPci+0x17a>
  1019ca:	eb 0b                	jmp    1019d7 <_ZN14ring_history_t14hist_save_lineEPci+0x21>
  1019cc:	8b 45 08             	mov    0x8(%ebp),%eax
  1019cf:	89 04 24             	mov    %eax,(%esp)
  1019d2:	e8 0d ff ff ff       	call   1018e4 <_ZN14ring_history_t16hist_erase_olderEv>
  1019d7:	8b 45 10             	mov    0x10(%ebp),%eax
  1019da:	89 44 24 04          	mov    %eax,0x4(%esp)
  1019de:	8b 45 08             	mov    0x8(%ebp),%eax
  1019e1:	89 04 24             	mov    %eax,(%esp)
  1019e4:	e8 43 ff ff ff       	call   10192c <_ZN14ring_history_t21hist_is_space_for_newEi>
  1019e9:	85 c0                	test   %eax,%eax
  1019eb:	0f 94 c0             	sete   %al
  1019ee:	84 c0                	test   %al,%al
  1019f0:	75 da                	jne    1019cc <_ZN14ring_history_t14hist_save_lineEPci+0x16>
  1019f2:	8b 45 08             	mov    0x8(%ebp),%eax
  1019f5:	8b 80 00 01 00 00    	mov    0x100(%eax),%eax
  1019fb:	8b 55 08             	mov    0x8(%ebp),%edx
  1019fe:	0f b6 04 02          	movzbl (%edx,%eax,1),%eax
  101a02:	84 c0                	test   %al,%al
  101a04:	75 14                	jne    101a1a <_ZN14ring_history_t14hist_save_lineEPci+0x64>
  101a06:	8b 45 08             	mov    0x8(%ebp),%eax
  101a09:	8b 80 00 01 00 00    	mov    0x100(%eax),%eax
  101a0f:	8b 55 10             	mov    0x10(%ebp),%edx
  101a12:	89 d1                	mov    %edx,%ecx
  101a14:	8b 55 08             	mov    0x8(%ebp),%edx
  101a17:	88 0c 02             	mov    %cl,(%edx,%eax,1)
  101a1a:	8b 45 08             	mov    0x8(%ebp),%eax
  101a1d:	8b 80 04 01 00 00    	mov    0x104(%eax),%eax
  101a23:	ba ff 00 00 00       	mov    $0xff,%edx
  101a28:	29 c2                	sub    %eax,%edx
  101a2a:	89 d0                	mov    %edx,%eax
  101a2c:	3b 45 10             	cmp    0x10(%ebp),%eax
  101a2f:	7e 29                	jle    101a5a <_ZN14ring_history_t14hist_save_lineEPci+0xa4>
  101a31:	8b 45 10             	mov    0x10(%ebp),%eax
  101a34:	8b 55 08             	mov    0x8(%ebp),%edx
  101a37:	8b 92 04 01 00 00    	mov    0x104(%edx),%edx
  101a3d:	8d 4a 01             	lea    0x1(%edx),%ecx
  101a40:	8b 55 08             	mov    0x8(%ebp),%edx
  101a43:	01 ca                	add    %ecx,%edx
  101a45:	89 44 24 08          	mov    %eax,0x8(%esp)
  101a49:	8b 45 0c             	mov    0xc(%ebp),%eax
  101a4c:	89 44 24 04          	mov    %eax,0x4(%esp)
  101a50:	89 14 24             	mov    %edx,(%esp)
  101a53:	e8 ab 3d 00 00       	call   105803 <memcpy>
  101a58:	eb 63                	jmp    101abd <_ZN14ring_history_t14hist_save_lineEPci+0x107>
  101a5a:	8b 45 08             	mov    0x8(%ebp),%eax
  101a5d:	8b 80 04 01 00 00    	mov    0x104(%eax),%eax
  101a63:	ba ff 00 00 00       	mov    $0xff,%edx
  101a68:	29 c2                	sub    %eax,%edx
  101a6a:	89 d0                	mov    %edx,%eax
  101a6c:	89 45 f4             	mov    %eax,-0xc(%ebp)
  101a6f:	8b 45 f4             	mov    -0xc(%ebp),%eax
  101a72:	8b 55 08             	mov    0x8(%ebp),%edx
  101a75:	8b 92 04 01 00 00    	mov    0x104(%edx),%edx
  101a7b:	8d 4a 01             	lea    0x1(%edx),%ecx
  101a7e:	8b 55 08             	mov    0x8(%ebp),%edx
  101a81:	01 ca                	add    %ecx,%edx
  101a83:	89 44 24 08          	mov    %eax,0x8(%esp)
  101a87:	8b 45 0c             	mov    0xc(%ebp),%eax
  101a8a:	89 44 24 04          	mov    %eax,0x4(%esp)
  101a8e:	89 14 24             	mov    %edx,(%esp)
  101a91:	e8 6d 3d 00 00       	call   105803 <memcpy>
  101a96:	8b 45 f4             	mov    -0xc(%ebp),%eax
  101a99:	8b 55 10             	mov    0x10(%ebp),%edx
  101a9c:	29 c2                	sub    %eax,%edx
  101a9e:	89 d0                	mov    %edx,%eax
  101aa0:	89 c2                	mov    %eax,%edx
  101aa2:	8b 4d f4             	mov    -0xc(%ebp),%ecx
  101aa5:	8b 45 0c             	mov    0xc(%ebp),%eax
  101aa8:	01 c1                	add    %eax,%ecx
  101aaa:	8b 45 08             	mov    0x8(%ebp),%eax
  101aad:	89 54 24 08          	mov    %edx,0x8(%esp)
  101ab1:	89 4c 24 04          	mov    %ecx,0x4(%esp)
  101ab5:	89 04 24             	mov    %eax,(%esp)
  101ab8:	e8 46 3d 00 00       	call   105803 <memcpy>
  101abd:	8b 45 08             	mov    0x8(%ebp),%eax
  101ac0:	8b 80 04 01 00 00    	mov    0x104(%eax),%eax
  101ac6:	8b 55 10             	mov    0x10(%ebp),%edx
  101ac9:	89 d1                	mov    %edx,%ecx
  101acb:	8b 55 08             	mov    0x8(%ebp),%edx
  101ace:	88 0c 02             	mov    %cl,(%edx,%eax,1)
  101ad1:	8b 45 08             	mov    0x8(%ebp),%eax
  101ad4:	8b 90 04 01 00 00    	mov    0x104(%eax),%edx
  101ada:	8b 45 10             	mov    0x10(%ebp),%eax
  101add:	01 d0                	add    %edx,%eax
  101adf:	8d 50 01             	lea    0x1(%eax),%edx
  101ae2:	8b 45 08             	mov    0x8(%ebp),%eax
  101ae5:	89 90 04 01 00 00    	mov    %edx,0x104(%eax)
  101aeb:	8b 45 08             	mov    0x8(%ebp),%eax
  101aee:	8b 80 04 01 00 00    	mov    0x104(%eax),%eax
  101af4:	3d ff 00 00 00       	cmp    $0xff,%eax
  101af9:	7e 18                	jle    101b13 <_ZN14ring_history_t14hist_save_lineEPci+0x15d>
  101afb:	8b 45 08             	mov    0x8(%ebp),%eax
  101afe:	8b 80 04 01 00 00    	mov    0x104(%eax),%eax
  101b04:	8d 90 00 ff ff ff    	lea    -0x100(%eax),%edx
  101b0a:	8b 45 08             	mov    0x8(%ebp),%eax
  101b0d:	89 90 04 01 00 00    	mov    %edx,0x104(%eax)
  101b13:	8b 45 08             	mov    0x8(%ebp),%eax
  101b16:	8b 80 04 01 00 00    	mov    0x104(%eax),%eax
  101b1c:	8b 55 08             	mov    0x8(%ebp),%edx
  101b1f:	c6 04 02 00          	movb   $0x0,(%edx,%eax,1)
  101b23:	8b 45 08             	mov    0x8(%ebp),%eax
  101b26:	c7 80 08 01 00 00 00 	movl   $0x0,0x108(%eax)
  101b2d:	00 00 00 
  101b30:	c9                   	leave  
  101b31:	c3                   	ret    

00101b32 <_ZN11rl_terminal11hist_searchEi>:
  101b32:	55                   	push   %ebp
  101b33:	89 e5                	mov    %esp,%ebp
  101b35:	83 ec 28             	sub    $0x28,%esp
  101b38:	8b 45 08             	mov    0x8(%ebp),%eax
  101b3b:	8b 40 08             	mov    0x8(%eax),%eax
  101b3e:	8d 48 08             	lea    0x8(%eax),%ecx
  101b41:	8b 45 08             	mov    0x8(%ebp),%eax
  101b44:	8d 50 14             	lea    0x14(%eax),%edx
  101b47:	8b 45 0c             	mov    0xc(%ebp),%eax
  101b4a:	89 44 24 08          	mov    %eax,0x8(%esp)
  101b4e:	89 4c 24 04          	mov    %ecx,0x4(%esp)
  101b52:	89 14 24             	mov    %edx,(%esp)
  101b55:	e8 a0 00 00 00       	call   101bfa <_ZN14ring_history_t17hist_restore_lineEPci>
  101b5a:	89 45 f4             	mov    %eax,-0xc(%ebp)
  101b5d:	83 7d f4 00          	cmpl   $0x0,-0xc(%ebp)
  101b61:	0f 88 91 00 00 00    	js     101bf8 <_ZN11rl_terminal11hist_searchEi+0xc6>
  101b67:	8b 45 08             	mov    0x8(%ebp),%eax
  101b6a:	8b 40 0c             	mov    0xc(%eax),%eax
  101b6d:	8b 00                	mov    (%eax),%eax
  101b6f:	83 c0 1c             	add    $0x1c,%eax
  101b72:	8b 00                	mov    (%eax),%eax
  101b74:	8b 55 08             	mov    0x8(%ebp),%edx
  101b77:	8b 52 08             	mov    0x8(%edx),%edx
  101b7a:	8b 8a a8 00 00 00    	mov    0xa8(%edx),%ecx
  101b80:	8b 55 08             	mov    0x8(%ebp),%edx
  101b83:	8b 52 0c             	mov    0xc(%edx),%edx
  101b86:	89 4c 24 04          	mov    %ecx,0x4(%esp)
  101b8a:	89 14 24             	mov    %edx,(%esp)
  101b8d:	ff d0                	call   *%eax
  101b8f:	8b 45 08             	mov    0x8(%ebp),%eax
  101b92:	8b 40 0c             	mov    0xc(%eax),%eax
  101b95:	8b 00                	mov    (%eax),%eax
  101b97:	83 c0 08             	add    $0x8,%eax
  101b9a:	8b 00                	mov    (%eax),%eax
  101b9c:	8b 55 08             	mov    0x8(%ebp),%edx
  101b9f:	8b 52 08             	mov    0x8(%edx),%edx
  101ba2:	8b 8a ac 00 00 00    	mov    0xac(%edx),%ecx
  101ba8:	8b 55 08             	mov    0x8(%ebp),%edx
  101bab:	8b 52 0c             	mov    0xc(%edx),%edx
  101bae:	89 4c 24 04          	mov    %ecx,0x4(%esp)
  101bb2:	89 14 24             	mov    %edx,(%esp)
  101bb5:	ff d0                	call   *%eax
  101bb7:	8b 45 08             	mov    0x8(%ebp),%eax
  101bba:	8b 50 08             	mov    0x8(%eax),%edx
  101bbd:	8b 45 08             	mov    0x8(%ebp),%eax
  101bc0:	8b 40 08             	mov    0x8(%eax),%eax
  101bc3:	8b 4d f4             	mov    -0xc(%ebp),%ecx
  101bc6:	89 88 ac 00 00 00    	mov    %ecx,0xac(%eax)
  101bcc:	8b 80 ac 00 00 00    	mov    0xac(%eax),%eax
  101bd2:	89 82 a8 00 00 00    	mov    %eax,0xa8(%edx)
  101bd8:	8b 45 08             	mov    0x8(%ebp),%eax
  101bdb:	8b 40 08             	mov    0x8(%eax),%eax
  101bde:	89 04 24             	mov    %eax,(%esp)
  101be1:	e8 ce 08 00 00       	call   1024b4 <_ZN10readline_t8get_lineEv>
  101be6:	8b 55 08             	mov    0x8(%ebp),%edx
  101be9:	8b 52 0c             	mov    0xc(%edx),%edx
  101bec:	89 44 24 04          	mov    %eax,0x4(%esp)
  101bf0:	89 14 24             	mov    %edx,(%esp)
  101bf3:	e8 e8 ef ff ff       	call   100be0 <_ZN5Print5printEPKc>
  101bf8:	c9                   	leave  
  101bf9:	c3                   	ret    

00101bfa <_ZN14ring_history_t17hist_restore_lineEPci>:
  101bfa:	55                   	push   %ebp
  101bfb:	89 e5                	mov    %esp,%ebp
  101bfd:	53                   	push   %ebx
  101bfe:	83 ec 34             	sub    $0x34,%esp
  101c01:	c7 45 f4 00 00 00 00 	movl   $0x0,-0xc(%ebp)
  101c08:	8b 45 08             	mov    0x8(%ebp),%eax
  101c0b:	8b 80 00 01 00 00    	mov    0x100(%eax),%eax
  101c11:	89 45 f0             	mov    %eax,-0x10(%ebp)
  101c14:	eb 28                	jmp    101c3e <_ZN14ring_history_t17hist_restore_lineEPci+0x44>
  101c16:	8b 55 08             	mov    0x8(%ebp),%edx
  101c19:	8b 45 f0             	mov    -0x10(%ebp),%eax
  101c1c:	01 d0                	add    %edx,%eax
  101c1e:	0f b6 00             	movzbl (%eax),%eax
  101c21:	0f be c0             	movsbl %al,%eax
  101c24:	83 c0 01             	add    $0x1,%eax
  101c27:	01 45 f0             	add    %eax,-0x10(%ebp)
  101c2a:	81 7d f0 ff 00 00 00 	cmpl   $0xff,-0x10(%ebp)
  101c31:	7e 07                	jle    101c3a <_ZN14ring_history_t17hist_restore_lineEPci+0x40>
  101c33:	81 6d f0 00 01 00 00 	subl   $0x100,-0x10(%ebp)
  101c3a:	83 45 f4 01          	addl   $0x1,-0xc(%ebp)
  101c3e:	8b 55 08             	mov    0x8(%ebp),%edx
  101c41:	8b 45 f0             	mov    -0x10(%ebp),%eax
  101c44:	01 d0                	add    %edx,%eax
  101c46:	0f b6 00             	movzbl (%eax),%eax
  101c49:	84 c0                	test   %al,%al
  101c4b:	75 c9                	jne    101c16 <_ZN14ring_history_t17hist_restore_lineEPci+0x1c>
  101c4d:	83 7d 10 00          	cmpl   $0x0,0x10(%ebp)
  101c51:	0f 85 95 01 00 00    	jne    101dec <_ZN14ring_history_t17hist_restore_lineEPci+0x1f2>
  101c57:	8b 45 08             	mov    0x8(%ebp),%eax
  101c5a:	8b 80 08 01 00 00    	mov    0x108(%eax),%eax
  101c60:	3b 45 f4             	cmp    -0xc(%ebp),%eax
  101c63:	0f 8f 79 01 00 00    	jg     101de2 <_ZN14ring_history_t17hist_restore_lineEPci+0x1e8>
  101c69:	8b 45 08             	mov    0x8(%ebp),%eax
  101c6c:	8b 80 00 01 00 00    	mov    0x100(%eax),%eax
  101c72:	89 45 ec             	mov    %eax,-0x14(%ebp)
  101c75:	c7 45 e8 00 00 00 00 	movl   $0x0,-0x18(%ebp)
  101c7c:	eb 28                	jmp    101ca6 <_ZN14ring_history_t17hist_restore_lineEPci+0xac>
  101c7e:	8b 55 08             	mov    0x8(%ebp),%edx
  101c81:	8b 45 ec             	mov    -0x14(%ebp),%eax
  101c84:	01 d0                	add    %edx,%eax
  101c86:	0f b6 00             	movzbl (%eax),%eax
  101c89:	0f be c0             	movsbl %al,%eax
  101c8c:	83 c0 01             	add    $0x1,%eax
  101c8f:	01 45 ec             	add    %eax,-0x14(%ebp)
  101c92:	81 7d ec ff 00 00 00 	cmpl   $0xff,-0x14(%ebp)
  101c99:	7e 07                	jle    101ca2 <_ZN14ring_history_t17hist_restore_lineEPci+0xa8>
  101c9b:	81 6d ec 00 01 00 00 	subl   $0x100,-0x14(%ebp)
  101ca2:	83 45 e8 01          	addl   $0x1,-0x18(%ebp)
  101ca6:	8b 55 08             	mov    0x8(%ebp),%edx
  101ca9:	8b 45 ec             	mov    -0x14(%ebp),%eax
  101cac:	01 d0                	add    %edx,%eax
  101cae:	0f b6 00             	movzbl (%eax),%eax
  101cb1:	84 c0                	test   %al,%al
  101cb3:	74 1a                	je     101ccf <_ZN14ring_history_t17hist_restore_lineEPci+0xd5>
  101cb5:	8b 45 e8             	mov    -0x18(%ebp),%eax
  101cb8:	8b 55 f4             	mov    -0xc(%ebp),%edx
  101cbb:	29 c2                	sub    %eax,%edx
  101cbd:	89 d0                	mov    %edx,%eax
  101cbf:	8d 50 ff             	lea    -0x1(%eax),%edx
  101cc2:	8b 45 08             	mov    0x8(%ebp),%eax
  101cc5:	8b 80 08 01 00 00    	mov    0x108(%eax),%eax
  101ccb:	39 c2                	cmp    %eax,%edx
  101ccd:	75 af                	jne    101c7e <_ZN14ring_history_t17hist_restore_lineEPci+0x84>
  101ccf:	8b 55 08             	mov    0x8(%ebp),%edx
  101cd2:	8b 45 ec             	mov    -0x14(%ebp),%eax
  101cd5:	01 d0                	add    %edx,%eax
  101cd7:	0f b6 00             	movzbl (%eax),%eax
  101cda:	84 c0                	test   %al,%al
  101cdc:	0f 84 00 01 00 00    	je     101de2 <_ZN14ring_history_t17hist_restore_lineEPci+0x1e8>
  101ce2:	8b 45 08             	mov    0x8(%ebp),%eax
  101ce5:	8b 80 08 01 00 00    	mov    0x108(%eax),%eax
  101ceb:	8d 50 01             	lea    0x1(%eax),%edx
  101cee:	8b 45 08             	mov    0x8(%ebp),%eax
  101cf1:	89 90 08 01 00 00    	mov    %edx,0x108(%eax)
  101cf7:	8b 55 08             	mov    0x8(%ebp),%edx
  101cfa:	8b 45 ec             	mov    -0x14(%ebp),%eax
  101cfd:	01 d0                	add    %edx,%eax
  101cff:	0f b6 00             	movzbl (%eax),%eax
  101d02:	0f be d0             	movsbl %al,%edx
  101d05:	8b 45 ec             	mov    -0x14(%ebp),%eax
  101d08:	01 d0                	add    %edx,%eax
  101d0a:	3d ff 00 00 00       	cmp    $0xff,%eax
  101d0f:	7f 49                	jg     101d5a <_ZN14ring_history_t17hist_restore_lineEPci+0x160>
  101d11:	c7 44 24 08 32 00 00 	movl   $0x32,0x8(%esp)
  101d18:	00 
  101d19:	c7 44 24 04 00 00 00 	movl   $0x0,0x4(%esp)
  101d20:	00 
  101d21:	8b 45 0c             	mov    0xc(%ebp),%eax
  101d24:	89 04 24             	mov    %eax,(%esp)
  101d27:	e8 11 3a 00 00       	call   10573d <memset>
  101d2c:	8b 55 08             	mov    0x8(%ebp),%edx
  101d2f:	8b 45 ec             	mov    -0x14(%ebp),%eax
  101d32:	01 d0                	add    %edx,%eax
  101d34:	0f b6 00             	movzbl (%eax),%eax
  101d37:	0f be c0             	movsbl %al,%eax
  101d3a:	8b 55 ec             	mov    -0x14(%ebp),%edx
  101d3d:	8d 4a 01             	lea    0x1(%edx),%ecx
  101d40:	8b 55 08             	mov    0x8(%ebp),%edx
  101d43:	01 ca                	add    %ecx,%edx
  101d45:	89 44 24 08          	mov    %eax,0x8(%esp)
  101d49:	89 54 24 04          	mov    %edx,0x4(%esp)
  101d4d:	8b 45 0c             	mov    0xc(%ebp),%eax
  101d50:	89 04 24             	mov    %eax,(%esp)
  101d53:	e8 ab 3a 00 00       	call   105803 <memcpy>
  101d58:	eb 75                	jmp    101dcf <_ZN14ring_history_t17hist_restore_lineEPci+0x1d5>
  101d5a:	b8 ff 00 00 00       	mov    $0xff,%eax
  101d5f:	2b 45 ec             	sub    -0x14(%ebp),%eax
  101d62:	89 45 dc             	mov    %eax,-0x24(%ebp)
  101d65:	c7 44 24 08 32 00 00 	movl   $0x32,0x8(%esp)
  101d6c:	00 
  101d6d:	c7 44 24 04 00 00 00 	movl   $0x0,0x4(%esp)
  101d74:	00 
  101d75:	8b 45 0c             	mov    0xc(%ebp),%eax
  101d78:	89 04 24             	mov    %eax,(%esp)
  101d7b:	e8 bd 39 00 00       	call   10573d <memset>
  101d80:	8b 45 dc             	mov    -0x24(%ebp),%eax
  101d83:	8b 55 ec             	mov    -0x14(%ebp),%edx
  101d86:	8d 4a 01             	lea    0x1(%edx),%ecx
  101d89:	8b 55 08             	mov    0x8(%ebp),%edx
  101d8c:	01 ca                	add    %ecx,%edx
  101d8e:	89 44 24 08          	mov    %eax,0x8(%esp)
  101d92:	89 54 24 04          	mov    %edx,0x4(%esp)
  101d96:	8b 45 0c             	mov    0xc(%ebp),%eax
  101d99:	89 04 24             	mov    %eax,(%esp)
  101d9c:	e8 62 3a 00 00       	call   105803 <memcpy>
  101da1:	8b 55 08             	mov    0x8(%ebp),%edx
  101da4:	8b 45 ec             	mov    -0x14(%ebp),%eax
  101da7:	01 d0                	add    %edx,%eax
  101da9:	0f b6 00             	movzbl (%eax),%eax
  101dac:	0f be c0             	movsbl %al,%eax
  101daf:	2b 45 dc             	sub    -0x24(%ebp),%eax
  101db2:	89 c2                	mov    %eax,%edx
  101db4:	8b 45 08             	mov    0x8(%ebp),%eax
  101db7:	8b 5d dc             	mov    -0x24(%ebp),%ebx
  101dba:	8b 4d 0c             	mov    0xc(%ebp),%ecx
  101dbd:	01 d9                	add    %ebx,%ecx
  101dbf:	89 54 24 08          	mov    %edx,0x8(%esp)
  101dc3:	89 44 24 04          	mov    %eax,0x4(%esp)
  101dc7:	89 0c 24             	mov    %ecx,(%esp)
  101dca:	e8 34 3a 00 00       	call   105803 <memcpy>
  101dcf:	8b 55 08             	mov    0x8(%ebp),%edx
  101dd2:	8b 45 ec             	mov    -0x14(%ebp),%eax
  101dd5:	01 d0                	add    %edx,%eax
  101dd7:	0f b6 00             	movzbl (%eax),%eax
  101dda:	0f be c0             	movsbl %al,%eax
  101ddd:	e9 48 01 00 00       	jmp    101f2a <_ZN14ring_history_t17hist_restore_lineEPci+0x330>
  101de2:	b8 ff ff ff ff       	mov    $0xffffffff,%eax
  101de7:	e9 3e 01 00 00       	jmp    101f2a <_ZN14ring_history_t17hist_restore_lineEPci+0x330>
  101dec:	8b 45 08             	mov    0x8(%ebp),%eax
  101def:	8b 80 08 01 00 00    	mov    0x108(%eax),%eax
  101df5:	85 c0                	test   %eax,%eax
  101df7:	0f 8e 28 01 00 00    	jle    101f25 <_ZN14ring_history_t17hist_restore_lineEPci+0x32b>
  101dfd:	8b 45 08             	mov    0x8(%ebp),%eax
  101e00:	8b 80 08 01 00 00    	mov    0x108(%eax),%eax
  101e06:	8d 50 ff             	lea    -0x1(%eax),%edx
  101e09:	8b 45 08             	mov    0x8(%ebp),%eax
  101e0c:	89 90 08 01 00 00    	mov    %edx,0x108(%eax)
  101e12:	8b 45 08             	mov    0x8(%ebp),%eax
  101e15:	8b 80 00 01 00 00    	mov    0x100(%eax),%eax
  101e1b:	89 45 e4             	mov    %eax,-0x1c(%ebp)
  101e1e:	c7 45 e0 00 00 00 00 	movl   $0x0,-0x20(%ebp)
  101e25:	eb 28                	jmp    101e4f <_ZN14ring_history_t17hist_restore_lineEPci+0x255>
  101e27:	8b 55 08             	mov    0x8(%ebp),%edx
  101e2a:	8b 45 e4             	mov    -0x1c(%ebp),%eax
  101e2d:	01 d0                	add    %edx,%eax
  101e2f:	0f b6 00             	movzbl (%eax),%eax
  101e32:	0f be c0             	movsbl %al,%eax
  101e35:	83 c0 01             	add    $0x1,%eax
  101e38:	01 45 e4             	add    %eax,-0x1c(%ebp)
  101e3b:	81 7d e4 ff 00 00 00 	cmpl   $0xff,-0x1c(%ebp)
  101e42:	7e 07                	jle    101e4b <_ZN14ring_history_t17hist_restore_lineEPci+0x251>
  101e44:	81 6d e4 00 01 00 00 	subl   $0x100,-0x1c(%ebp)
  101e4b:	83 45 e0 01          	addl   $0x1,-0x20(%ebp)
  101e4f:	8b 55 08             	mov    0x8(%ebp),%edx
  101e52:	8b 45 e4             	mov    -0x1c(%ebp),%eax
  101e55:	01 d0                	add    %edx,%eax
  101e57:	0f b6 00             	movzbl (%eax),%eax
  101e5a:	84 c0                	test   %al,%al
  101e5c:	74 15                	je     101e73 <_ZN14ring_history_t17hist_restore_lineEPci+0x279>
  101e5e:	8b 45 e0             	mov    -0x20(%ebp),%eax
  101e61:	8b 55 f4             	mov    -0xc(%ebp),%edx
  101e64:	29 c2                	sub    %eax,%edx
  101e66:	8b 45 08             	mov    0x8(%ebp),%eax
  101e69:	8b 80 08 01 00 00    	mov    0x108(%eax),%eax
  101e6f:	39 c2                	cmp    %eax,%edx
  101e71:	75 b4                	jne    101e27 <_ZN14ring_history_t17hist_restore_lineEPci+0x22d>
  101e73:	8b 55 08             	mov    0x8(%ebp),%edx
  101e76:	8b 45 e4             	mov    -0x1c(%ebp),%eax
  101e79:	01 d0                	add    %edx,%eax
  101e7b:	0f b6 00             	movzbl (%eax),%eax
  101e7e:	0f be d0             	movsbl %al,%edx
  101e81:	8b 45 e4             	mov    -0x1c(%ebp),%eax
  101e84:	01 d0                	add    %edx,%eax
  101e86:	3d ff 00 00 00       	cmp    $0xff,%eax
  101e8b:	7f 2e                	jg     101ebb <_ZN14ring_history_t17hist_restore_lineEPci+0x2c1>
  101e8d:	8b 55 08             	mov    0x8(%ebp),%edx
  101e90:	8b 45 e4             	mov    -0x1c(%ebp),%eax
  101e93:	01 d0                	add    %edx,%eax
  101e95:	0f b6 00             	movzbl (%eax),%eax
  101e98:	0f be c0             	movsbl %al,%eax
  101e9b:	8b 55 e4             	mov    -0x1c(%ebp),%edx
  101e9e:	8d 4a 01             	lea    0x1(%edx),%ecx
  101ea1:	8b 55 08             	mov    0x8(%ebp),%edx
  101ea4:	01 ca                	add    %ecx,%edx
  101ea6:	89 44 24 08          	mov    %eax,0x8(%esp)
  101eaa:	89 54 24 04          	mov    %edx,0x4(%esp)
  101eae:	8b 45 0c             	mov    0xc(%ebp),%eax
  101eb1:	89 04 24             	mov    %eax,(%esp)
  101eb4:	e8 4a 39 00 00       	call   105803 <memcpy>
  101eb9:	eb 5a                	jmp    101f15 <_ZN14ring_history_t17hist_restore_lineEPci+0x31b>
  101ebb:	b8 ff 00 00 00       	mov    $0xff,%eax
  101ec0:	2b 45 e4             	sub    -0x1c(%ebp),%eax
  101ec3:	89 45 d8             	mov    %eax,-0x28(%ebp)
  101ec6:	8b 45 d8             	mov    -0x28(%ebp),%eax
  101ec9:	8b 55 e4             	mov    -0x1c(%ebp),%edx
  101ecc:	8d 4a 01             	lea    0x1(%edx),%ecx
  101ecf:	8b 55 08             	mov    0x8(%ebp),%edx
  101ed2:	01 ca                	add    %ecx,%edx
  101ed4:	89 44 24 08          	mov    %eax,0x8(%esp)
  101ed8:	89 54 24 04          	mov    %edx,0x4(%esp)
  101edc:	8b 45 0c             	mov    0xc(%ebp),%eax
  101edf:	89 04 24             	mov    %eax,(%esp)
  101ee2:	e8 1c 39 00 00       	call   105803 <memcpy>
  101ee7:	8b 55 08             	mov    0x8(%ebp),%edx
  101eea:	8b 45 e4             	mov    -0x1c(%ebp),%eax
  101eed:	01 d0                	add    %edx,%eax
  101eef:	0f b6 00             	movzbl (%eax),%eax
  101ef2:	0f be c0             	movsbl %al,%eax
  101ef5:	2b 45 d8             	sub    -0x28(%ebp),%eax
  101ef8:	89 c2                	mov    %eax,%edx
  101efa:	8b 45 08             	mov    0x8(%ebp),%eax
  101efd:	8b 5d d8             	mov    -0x28(%ebp),%ebx
  101f00:	8b 4d 0c             	mov    0xc(%ebp),%ecx
  101f03:	01 d9                	add    %ebx,%ecx
  101f05:	89 54 24 08          	mov    %edx,0x8(%esp)
  101f09:	89 44 24 04          	mov    %eax,0x4(%esp)
  101f0d:	89 0c 24             	mov    %ecx,(%esp)
  101f10:	e8 ee 38 00 00       	call   105803 <memcpy>
  101f15:	8b 55 08             	mov    0x8(%ebp),%edx
  101f18:	8b 45 e4             	mov    -0x1c(%ebp),%eax
  101f1b:	01 d0                	add    %edx,%eax
  101f1d:	0f b6 00             	movzbl (%eax),%eax
  101f20:	0f be c0             	movsbl %al,%eax
  101f23:	eb 05                	jmp    101f2a <_ZN14ring_history_t17hist_restore_lineEPci+0x330>
  101f25:	b8 00 00 00 00       	mov    $0x0,%eax
  101f2a:	83 c4 34             	add    $0x34,%esp
  101f2d:	5b                   	pop    %ebx
  101f2e:	5d                   	pop    %ebp
  101f2f:	c3                   	ret    

00101f30 <_ZN11rl_terminal12print_promptEv>:
  101f30:	55                   	push   %ebp
  101f31:	89 e5                	mov    %esp,%ebp
  101f33:	83 ec 18             	sub    $0x18,%esp
  101f36:	8b 45 08             	mov    0x8(%ebp),%eax
  101f39:	8b 40 0c             	mov    0xc(%eax),%eax
  101f3c:	c7 44 24 04 f6 87 10 	movl   $0x1087f6,0x4(%esp)
  101f43:	00 
  101f44:	89 04 24             	mov    %eax,(%esp)
  101f47:	e8 94 ec ff ff       	call   100be0 <_ZN5Print5printEPKc>
  101f4c:	8b 45 08             	mov    0x8(%ebp),%eax
  101f4f:	8b 40 0c             	mov    0xc(%eax),%eax
  101f52:	c7 44 24 04 fe 87 10 	movl   $0x1087fe,0x4(%esp)
  101f59:	00 
  101f5a:	89 04 24             	mov    %eax,(%esp)
  101f5d:	e8 7e ec ff ff       	call   100be0 <_ZN5Print5printEPKc>
  101f62:	c9                   	leave  
  101f63:	c3                   	ret    

00101f64 <_ZN11rl_terminalC1EP10readline_tP6KeyCom>:
  101f64:	55                   	push   %ebp
  101f65:	89 e5                	mov    %esp,%ebp
  101f67:	83 ec 18             	sub    $0x18,%esp
  101f6a:	8b 45 08             	mov    0x8(%ebp),%eax
  101f6d:	89 04 24             	mov    %eax,(%esp)
  101f70:	e8 59 04 00 00       	call   1023ce <_ZN6KeyComC1Ev>
  101f75:	8b 45 08             	mov    0x8(%ebp),%eax
  101f78:	c7 00 08 88 10 00    	movl   $0x108808,(%eax)
  101f7e:	8b 45 10             	mov    0x10(%ebp),%eax
  101f81:	89 44 24 08          	mov    %eax,0x8(%esp)
  101f85:	8b 45 0c             	mov    0xc(%ebp),%eax
  101f88:	89 44 24 04          	mov    %eax,0x4(%esp)
  101f8c:	8b 45 08             	mov    0x8(%ebp),%eax
  101f8f:	89 04 24             	mov    %eax,(%esp)
  101f92:	e8 03 00 00 00       	call   101f9a <_ZN11rl_terminal4initEP10readline_tP6KeyCom>
  101f97:	c9                   	leave  
  101f98:	c3                   	ret    
  101f99:	90                   	nop

00101f9a <_ZN11rl_terminal4initEP10readline_tP6KeyCom>:
  101f9a:	55                   	push   %ebp
  101f9b:	89 e5                	mov    %esp,%ebp
  101f9d:	8b 45 08             	mov    0x8(%ebp),%eax
  101fa0:	8b 55 10             	mov    0x10(%ebp),%edx
  101fa3:	89 50 0c             	mov    %edx,0xc(%eax)
  101fa6:	8b 45 08             	mov    0x8(%ebp),%eax
  101fa9:	8b 55 0c             	mov    0xc(%ebp),%edx
  101fac:	89 50 08             	mov    %edx,0x8(%eax)
  101faf:	8b 45 08             	mov    0x8(%ebp),%eax
  101fb2:	c7 40 10 00 00 00 00 	movl   $0x0,0x10(%eax)
  101fb9:	5d                   	pop    %ebp
  101fba:	c3                   	ret    

00101fbb <_ZL4outbth>:
  101fbb:	55                   	push   %ebp
  101fbc:	89 e5                	mov    %esp,%ebp
  101fbe:	83 ec 08             	sub    $0x8,%esp
  101fc1:	8b 55 08             	mov    0x8(%ebp),%edx
  101fc4:	8b 45 0c             	mov    0xc(%ebp),%eax
  101fc7:	66 89 55 fc          	mov    %dx,-0x4(%ebp)
  101fcb:	88 45 f8             	mov    %al,-0x8(%ebp)
  101fce:	0f b7 55 fc          	movzwl -0x4(%ebp),%edx
  101fd2:	0f b6 45 f8          	movzbl -0x8(%ebp),%eax
  101fd6:	ee                   	out    %al,(%dx)
  101fd7:	c9                   	leave  
  101fd8:	c3                   	ret    

00101fd9 <_ZL3inbt>:
  101fd9:	55                   	push   %ebp
  101fda:	89 e5                	mov    %esp,%ebp
  101fdc:	83 ec 14             	sub    $0x14,%esp
  101fdf:	8b 45 08             	mov    0x8(%ebp),%eax
  101fe2:	66 89 45 ec          	mov    %ax,-0x14(%ebp)
  101fe6:	0f b7 45 ec          	movzwl -0x14(%ebp),%eax
  101fea:	89 c2                	mov    %eax,%edx
  101fec:	ec                   	in     (%dx),%al
  101fed:	88 45 ff             	mov    %al,-0x1(%ebp)
  101ff0:	0f b6 45 ff          	movzbl -0x1(%ebp),%eax
  101ff4:	c9                   	leave  
  101ff5:	c3                   	ret    

00101ff6 <_ZL29platform_abstract_irq_handlerP14interrupt_info>:
  101ff6:	55                   	push   %ebp
  101ff7:	89 e5                	mov    %esp,%ebp
  101ff9:	83 ec 08             	sub    $0x8,%esp
  101ffc:	8b 45 08             	mov    0x8(%ebp),%eax
  101fff:	8b 40 24             	mov    0x24(%eax),%eax
  102002:	83 f8 27             	cmp    $0x27,%eax
  102005:	76 14                	jbe    10201b <_ZL29platform_abstract_irq_handlerP14interrupt_info+0x25>
  102007:	c7 44 24 04 20 00 00 	movl   $0x20,0x4(%esp)
  10200e:	00 
  10200f:	c7 04 24 a0 00 00 00 	movl   $0xa0,(%esp)
  102016:	e8 a0 ff ff ff       	call   101fbb <_ZL4outbth>
  10201b:	8b 45 08             	mov    0x8(%ebp),%eax
  10201e:	8b 40 24             	mov    0x24(%eax),%eax
  102021:	83 f8 1f             	cmp    $0x1f,%eax
  102024:	76 14                	jbe    10203a <_ZL29platform_abstract_irq_handlerP14interrupt_info+0x44>
  102026:	c7 44 24 04 20 00 00 	movl   $0x20,0x4(%esp)
  10202d:	00 
  10202e:	c7 04 24 20 00 00 00 	movl   $0x20,(%esp)
  102035:	e8 81 ff ff ff       	call   101fbb <_ZL4outbth>
  10203a:	c9                   	leave  
  10203b:	c3                   	ret    

0010203c <_ZN11rl_terminal5writeEh>:
  10203c:	55                   	push   %ebp
  10203d:	89 e5                	mov    %esp,%ebp
  10203f:	53                   	push   %ebx
  102040:	83 ec 14             	sub    $0x14,%esp
  102043:	8b 45 0c             	mov    0xc(%ebp),%eax
  102046:	88 45 f4             	mov    %al,-0xc(%ebp)
  102049:	0f b6 45 f4          	movzbl -0xc(%ebp),%eax
  10204d:	83 f8 0a             	cmp    $0xa,%eax
  102050:	74 54                	je     1020a6 <_ZN11rl_terminal5writeEh+0x6a>
  102052:	83 f8 0d             	cmp    $0xd,%eax
  102055:	0f 84 9b 01 00 00    	je     1021f6 <_ZN11rl_terminal5writeEh+0x1ba>
  10205b:	83 f8 08             	cmp    $0x8,%eax
  10205e:	0f 85 bc 00 00 00    	jne    102120 <_ZN11rl_terminal5writeEh+0xe4>
  102064:	8b 45 08             	mov    0x8(%ebp),%eax
  102067:	8b 00                	mov    (%eax),%eax
  102069:	83 c0 1c             	add    $0x1c,%eax
  10206c:	8b 00                	mov    (%eax),%eax
  10206e:	c7 44 24 04 01 00 00 	movl   $0x1,0x4(%esp)
  102075:	00 
  102076:	8b 55 08             	mov    0x8(%ebp),%edx
  102079:	89 14 24             	mov    %edx,(%esp)
  10207c:	ff d0                	call   *%eax
  10207e:	85 c0                	test   %eax,%eax
  102080:	0f 95 c0             	setne  %al
  102083:	84 c0                	test   %al,%al
  102085:	74 1a                	je     1020a1 <_ZN11rl_terminal5writeEh+0x65>
  102087:	8b 45 08             	mov    0x8(%ebp),%eax
  10208a:	8b 00                	mov    (%eax),%eax
  10208c:	83 c0 08             	add    $0x8,%eax
  10208f:	8b 00                	mov    (%eax),%eax
  102091:	c7 44 24 04 01 00 00 	movl   $0x1,0x4(%esp)
  102098:	00 
  102099:	8b 55 08             	mov    0x8(%ebp),%edx
  10209c:	89 14 24             	mov    %edx,(%esp)
  10209f:	ff d0                	call   *%eax
  1020a1:	e9 51 01 00 00       	jmp    1021f7 <_ZN11rl_terminal5writeEh+0x1bb>
  1020a6:	8b 45 08             	mov    0x8(%ebp),%eax
  1020a9:	8b 40 08             	mov    0x8(%eax),%eax
  1020ac:	8b 98 ac 00 00 00    	mov    0xac(%eax),%ebx
  1020b2:	8b 45 08             	mov    0x8(%ebp),%eax
  1020b5:	8b 40 08             	mov    0x8(%eax),%eax
  1020b8:	89 04 24             	mov    %eax,(%esp)
  1020bb:	e8 f4 03 00 00       	call   1024b4 <_ZN10readline_t8get_lineEv>
  1020c0:	8b 55 08             	mov    0x8(%ebp),%edx
  1020c3:	83 c2 14             	add    $0x14,%edx
  1020c6:	89 5c 24 08          	mov    %ebx,0x8(%esp)
  1020ca:	89 44 24 04          	mov    %eax,0x4(%esp)
  1020ce:	89 14 24             	mov    %edx,(%esp)
  1020d1:	e8 e0 f8 ff ff       	call   1019b6 <_ZN14ring_history_t14hist_save_lineEPci>
  1020d6:	8b 45 08             	mov    0x8(%ebp),%eax
  1020d9:	8b 40 0c             	mov    0xc(%eax),%eax
  1020dc:	8b 00                	mov    (%eax),%eax
  1020de:	8b 00                	mov    (%eax),%eax
  1020e0:	0f b6 4d f4          	movzbl -0xc(%ebp),%ecx
  1020e4:	8b 55 08             	mov    0x8(%ebp),%edx
  1020e7:	8b 52 0c             	mov    0xc(%edx),%edx
  1020ea:	89 4c 24 04          	mov    %ecx,0x4(%esp)
  1020ee:	89 14 24             	mov    %edx,(%esp)
  1020f1:	ff d0                	call   *%eax
  1020f3:	8b 45 08             	mov    0x8(%ebp),%eax
  1020f6:	8b 40 08             	mov    0x8(%eax),%eax
  1020f9:	8b 00                	mov    (%eax),%eax
  1020fb:	8b 00                	mov    (%eax),%eax
  1020fd:	0f b6 4d f4          	movzbl -0xc(%ebp),%ecx
  102101:	8b 55 08             	mov    0x8(%ebp),%edx
  102104:	8b 52 08             	mov    0x8(%edx),%edx
  102107:	89 4c 24 04          	mov    %ecx,0x4(%esp)
  10210b:	89 14 24             	mov    %edx,(%esp)
  10210e:	ff d0                	call   *%eax
  102110:	8b 45 08             	mov    0x8(%ebp),%eax
  102113:	89 04 24             	mov    %eax,(%esp)
  102116:	e8 15 fe ff ff       	call   101f30 <_ZN11rl_terminal12print_promptEv>
  10211b:	e9 d7 00 00 00       	jmp    1021f7 <_ZN11rl_terminal5writeEh+0x1bb>
  102120:	8b 45 08             	mov    0x8(%ebp),%eax
  102123:	8b 40 08             	mov    0x8(%eax),%eax
  102126:	8b 00                	mov    (%eax),%eax
  102128:	8b 00                	mov    (%eax),%eax
  10212a:	0f b6 4d f4          	movzbl -0xc(%ebp),%ecx
  10212e:	8b 55 08             	mov    0x8(%ebp),%edx
  102131:	8b 52 08             	mov    0x8(%edx),%edx
  102134:	89 4c 24 04          	mov    %ecx,0x4(%esp)
  102138:	89 14 24             	mov    %edx,(%esp)
  10213b:	ff d0                	call   *%eax
  10213d:	85 c0                	test   %eax,%eax
  10213f:	0f 95 c0             	setne  %al
  102142:	84 c0                	test   %al,%al
  102144:	0f 84 ad 00 00 00    	je     1021f7 <_ZN11rl_terminal5writeEh+0x1bb>
  10214a:	8b 45 08             	mov    0x8(%ebp),%eax
  10214d:	8b 40 08             	mov    0x8(%eax),%eax
  102150:	8b 90 ac 00 00 00    	mov    0xac(%eax),%edx
  102156:	8b 45 08             	mov    0x8(%ebp),%eax
  102159:	8b 40 08             	mov    0x8(%eax),%eax
  10215c:	8b 80 a8 00 00 00    	mov    0xa8(%eax),%eax
  102162:	29 c2                	sub    %eax,%edx
  102164:	89 d0                	mov    %edx,%eax
  102166:	85 c0                	test   %eax,%eax
  102168:	7e 6d                	jle    1021d7 <_ZN11rl_terminal5writeEh+0x19b>
  10216a:	8b 45 08             	mov    0x8(%ebp),%eax
  10216d:	8b 40 08             	mov    0x8(%eax),%eax
  102170:	8b 00                	mov    (%eax),%eax
  102172:	83 c0 1c             	add    $0x1c,%eax
  102175:	8b 00                	mov    (%eax),%eax
  102177:	8b 55 08             	mov    0x8(%ebp),%edx
  10217a:	8b 52 08             	mov    0x8(%edx),%edx
  10217d:	c7 44 24 04 01 00 00 	movl   $0x1,0x4(%esp)
  102184:	00 
  102185:	89 14 24             	mov    %edx,(%esp)
  102188:	ff d0                	call   *%eax
  10218a:	8b 45 08             	mov    0x8(%ebp),%eax
  10218d:	89 04 24             	mov    %eax,(%esp)
  102190:	e8 75 01 00 00       	call   10230a <_ZN11rl_terminal10rl_rewriteEv>
  102195:	8b 45 08             	mov    0x8(%ebp),%eax
  102198:	8b 40 08             	mov    0x8(%eax),%eax
  10219b:	8b 00                	mov    (%eax),%eax
  10219d:	83 c0 20             	add    $0x20,%eax
  1021a0:	8b 00                	mov    (%eax),%eax
  1021a2:	8b 55 08             	mov    0x8(%ebp),%edx
  1021a5:	8b 52 08             	mov    0x8(%edx),%edx
  1021a8:	c7 44 24 04 01 00 00 	movl   $0x1,0x4(%esp)
  1021af:	00 
  1021b0:	89 14 24             	mov    %edx,(%esp)
  1021b3:	ff d0                	call   *%eax
  1021b5:	8b 45 08             	mov    0x8(%ebp),%eax
  1021b8:	8b 40 0c             	mov    0xc(%eax),%eax
  1021bb:	8b 00                	mov    (%eax),%eax
  1021bd:	83 c0 20             	add    $0x20,%eax
  1021c0:	8b 00                	mov    (%eax),%eax
  1021c2:	8b 55 08             	mov    0x8(%ebp),%edx
  1021c5:	8b 52 0c             	mov    0xc(%edx),%edx
  1021c8:	c7 44 24 04 01 00 00 	movl   $0x1,0x4(%esp)
  1021cf:	00 
  1021d0:	89 14 24             	mov    %edx,(%esp)
  1021d3:	ff d0                	call   *%eax
  1021d5:	eb 20                	jmp    1021f7 <_ZN11rl_terminal5writeEh+0x1bb>
  1021d7:	8b 45 08             	mov    0x8(%ebp),%eax
  1021da:	8b 40 0c             	mov    0xc(%eax),%eax
  1021dd:	8b 00                	mov    (%eax),%eax
  1021df:	8b 00                	mov    (%eax),%eax
  1021e1:	0f b6 4d f4          	movzbl -0xc(%ebp),%ecx
  1021e5:	8b 55 08             	mov    0x8(%ebp),%edx
  1021e8:	8b 52 0c             	mov    0xc(%edx),%edx
  1021eb:	89 4c 24 04          	mov    %ecx,0x4(%esp)
  1021ef:	89 14 24             	mov    %edx,(%esp)
  1021f2:	ff d0                	call   *%eax
  1021f4:	eb 01                	jmp    1021f7 <_ZN11rl_terminal5writeEh+0x1bb>
  1021f6:	90                   	nop
  1021f7:	83 c4 14             	add    $0x14,%esp
  1021fa:	5b                   	pop    %ebx
  1021fb:	5d                   	pop    %ebp
  1021fc:	c3                   	ret    
  1021fd:	90                   	nop

001021fe <_ZN11rl_terminal4leftEi>:
  1021fe:	55                   	push   %ebp
  1021ff:	89 e5                	mov    %esp,%ebp
  102201:	83 ec 28             	sub    $0x28,%esp
  102204:	8b 45 08             	mov    0x8(%ebp),%eax
  102207:	8b 40 08             	mov    0x8(%eax),%eax
  10220a:	8b 00                	mov    (%eax),%eax
  10220c:	83 c0 1c             	add    $0x1c,%eax
  10220f:	8b 00                	mov    (%eax),%eax
  102211:	8b 55 08             	mov    0x8(%ebp),%edx
  102214:	8b 52 08             	mov    0x8(%edx),%edx
  102217:	c7 44 24 04 01 00 00 	movl   $0x1,0x4(%esp)
  10221e:	00 
  10221f:	89 14 24             	mov    %edx,(%esp)
  102222:	ff d0                	call   *%eax
  102224:	89 45 f4             	mov    %eax,-0xc(%ebp)
  102227:	8b 45 08             	mov    0x8(%ebp),%eax
  10222a:	8b 40 0c             	mov    0xc(%eax),%eax
  10222d:	8b 00                	mov    (%eax),%eax
  10222f:	83 c0 1c             	add    $0x1c,%eax
  102232:	8b 00                	mov    (%eax),%eax
  102234:	8b 55 08             	mov    0x8(%ebp),%edx
  102237:	8b 52 0c             	mov    0xc(%edx),%edx
  10223a:	8b 4d f4             	mov    -0xc(%ebp),%ecx
  10223d:	89 4c 24 04          	mov    %ecx,0x4(%esp)
  102241:	89 14 24             	mov    %edx,(%esp)
  102244:	ff d0                	call   *%eax
  102246:	8b 45 f4             	mov    -0xc(%ebp),%eax
  102249:	c9                   	leave  
  10224a:	c3                   	ret    
  10224b:	90                   	nop

0010224c <_ZN11rl_terminal5rightEi>:
  10224c:	55                   	push   %ebp
  10224d:	89 e5                	mov    %esp,%ebp
  10224f:	53                   	push   %ebx
  102250:	83 ec 14             	sub    $0x14,%esp
  102253:	8b 45 08             	mov    0x8(%ebp),%eax
  102256:	8b 40 0c             	mov    0xc(%eax),%eax
  102259:	8b 00                	mov    (%eax),%eax
  10225b:	83 c0 20             	add    $0x20,%eax
  10225e:	8b 18                	mov    (%eax),%ebx
  102260:	8b 45 08             	mov    0x8(%ebp),%eax
  102263:	8b 40 08             	mov    0x8(%eax),%eax
  102266:	8b 00                	mov    (%eax),%eax
  102268:	83 c0 20             	add    $0x20,%eax
  10226b:	8b 00                	mov    (%eax),%eax
  10226d:	8b 55 08             	mov    0x8(%ebp),%edx
  102270:	8b 52 08             	mov    0x8(%edx),%edx
  102273:	c7 44 24 04 01 00 00 	movl   $0x1,0x4(%esp)
  10227a:	00 
  10227b:	89 14 24             	mov    %edx,(%esp)
  10227e:	ff d0                	call   *%eax
  102280:	8b 55 08             	mov    0x8(%ebp),%edx
  102283:	8b 52 0c             	mov    0xc(%edx),%edx
  102286:	89 44 24 04          	mov    %eax,0x4(%esp)
  10228a:	89 14 24             	mov    %edx,(%esp)
  10228d:	ff d3                	call   *%ebx
  10228f:	83 c4 14             	add    $0x14,%esp
  102292:	5b                   	pop    %ebx
  102293:	5d                   	pop    %ebp
  102294:	c3                   	ret    
  102295:	90                   	nop

00102296 <_ZN11rl_terminal3delEi>:
  102296:	55                   	push   %ebp
  102297:	89 e5                	mov    %esp,%ebp
  102299:	83 ec 18             	sub    $0x18,%esp
  10229c:	8b 45 08             	mov    0x8(%ebp),%eax
  10229f:	8b 40 08             	mov    0x8(%eax),%eax
  1022a2:	8b 00                	mov    (%eax),%eax
  1022a4:	83 c0 08             	add    $0x8,%eax
  1022a7:	8b 00                	mov    (%eax),%eax
  1022a9:	8b 55 08             	mov    0x8(%ebp),%edx
  1022ac:	8b 52 08             	mov    0x8(%edx),%edx
  1022af:	c7 44 24 04 01 00 00 	movl   $0x1,0x4(%esp)
  1022b6:	00 
  1022b7:	89 14 24             	mov    %edx,(%esp)
  1022ba:	ff d0                	call   *%eax
  1022bc:	85 c0                	test   %eax,%eax
  1022be:	0f 95 c0             	setne  %al
  1022c1:	84 c0                	test   %al,%al
  1022c3:	74 0b                	je     1022d0 <_ZN11rl_terminal3delEi+0x3a>
  1022c5:	8b 45 08             	mov    0x8(%ebp),%eax
  1022c8:	89 04 24             	mov    %eax,(%esp)
  1022cb:	e8 3a 00 00 00       	call   10230a <_ZN11rl_terminal10rl_rewriteEv>
  1022d0:	c9                   	leave  
  1022d1:	c3                   	ret    

001022d2 <_ZN11rl_terminal2upEi>:
  1022d2:	55                   	push   %ebp
  1022d3:	89 e5                	mov    %esp,%ebp
  1022d5:	83 ec 18             	sub    $0x18,%esp
  1022d8:	c7 44 24 04 00 00 00 	movl   $0x0,0x4(%esp)
  1022df:	00 
  1022e0:	8b 45 08             	mov    0x8(%ebp),%eax
  1022e3:	89 04 24             	mov    %eax,(%esp)
  1022e6:	e8 47 f8 ff ff       	call   101b32 <_ZN11rl_terminal11hist_searchEi>
  1022eb:	c9                   	leave  
  1022ec:	c3                   	ret    
  1022ed:	90                   	nop

001022ee <_ZN11rl_terminal4downEi>:
  1022ee:	55                   	push   %ebp
  1022ef:	89 e5                	mov    %esp,%ebp
  1022f1:	83 ec 18             	sub    $0x18,%esp
  1022f4:	c7 44 24 04 01 00 00 	movl   $0x1,0x4(%esp)
  1022fb:	00 
  1022fc:	8b 45 08             	mov    0x8(%ebp),%eax
  1022ff:	89 04 24             	mov    %eax,(%esp)
  102302:	e8 2b f8 ff ff       	call   101b32 <_ZN11rl_terminal11hist_searchEi>
  102307:	c9                   	leave  
  102308:	c3                   	ret    
  102309:	90                   	nop

0010230a <_ZN11rl_terminal10rl_rewriteEv>:
  10230a:	55                   	push   %ebp
  10230b:	89 e5                	mov    %esp,%ebp
  10230d:	83 ec 18             	sub    $0x18,%esp
  102310:	8b 45 08             	mov    0x8(%ebp),%eax
  102313:	8b 40 0c             	mov    0xc(%eax),%eax
  102316:	8b 00                	mov    (%eax),%eax
  102318:	83 c0 08             	add    $0x8,%eax
  10231b:	8b 00                	mov    (%eax),%eax
  10231d:	8b 55 08             	mov    0x8(%ebp),%edx
  102320:	8b 52 08             	mov    0x8(%edx),%edx
  102323:	8b 8a ac 00 00 00    	mov    0xac(%edx),%ecx
  102329:	8b 55 08             	mov    0x8(%ebp),%edx
  10232c:	8b 52 08             	mov    0x8(%edx),%edx
  10232f:	8b 92 a8 00 00 00    	mov    0xa8(%edx),%edx
  102335:	29 d1                	sub    %edx,%ecx
  102337:	8b 55 08             	mov    0x8(%ebp),%edx
  10233a:	8b 52 0c             	mov    0xc(%edx),%edx
  10233d:	89 4c 24 04          	mov    %ecx,0x4(%esp)
  102341:	89 14 24             	mov    %edx,(%esp)
  102344:	ff d0                	call   *%eax
  102346:	8b 45 08             	mov    0x8(%ebp),%eax
  102349:	8b 40 08             	mov    0x8(%eax),%eax
  10234c:	89 04 24             	mov    %eax,(%esp)
  10234f:	e8 60 01 00 00       	call   1024b4 <_ZN10readline_t8get_lineEv>
  102354:	8b 45 08             	mov    0x8(%ebp),%eax
  102357:	8b 50 08             	mov    0x8(%eax),%edx
  10235a:	8b 45 08             	mov    0x8(%ebp),%eax
  10235d:	8b 40 08             	mov    0x8(%eax),%eax
  102360:	8b 80 a8 00 00 00    	mov    0xa8(%eax),%eax
  102366:	01 d0                	add    %edx,%eax
  102368:	8d 50 08             	lea    0x8(%eax),%edx
  10236b:	8b 45 08             	mov    0x8(%ebp),%eax
  10236e:	8b 40 0c             	mov    0xc(%eax),%eax
  102371:	89 54 24 04          	mov    %edx,0x4(%esp)
  102375:	89 04 24             	mov    %eax,(%esp)
  102378:	e8 63 e8 ff ff       	call   100be0 <_ZN5Print5printEPKc>
  10237d:	8b 45 08             	mov    0x8(%ebp),%eax
  102380:	8b 40 0c             	mov    0xc(%eax),%eax
  102383:	8b 00                	mov    (%eax),%eax
  102385:	83 c0 1c             	add    $0x1c,%eax
  102388:	8b 00                	mov    (%eax),%eax
  10238a:	8b 55 08             	mov    0x8(%ebp),%edx
  10238d:	8b 52 08             	mov    0x8(%edx),%edx
  102390:	8b 8a ac 00 00 00    	mov    0xac(%edx),%ecx
  102396:	8b 55 08             	mov    0x8(%ebp),%edx
  102399:	8b 52 08             	mov    0x8(%edx),%edx
  10239c:	8b 92 a8 00 00 00    	mov    0xa8(%edx),%edx
  1023a2:	29 d1                	sub    %edx,%ecx
  1023a4:	8b 55 08             	mov    0x8(%ebp),%edx
  1023a7:	8b 52 0c             	mov    0xc(%edx),%edx
  1023aa:	89 4c 24 04          	mov    %ecx,0x4(%esp)
  1023ae:	89 14 24             	mov    %edx,(%esp)
  1023b1:	ff d0                	call   *%eax
  1023b3:	c9                   	leave  
  1023b4:	c3                   	ret    
  1023b5:	90                   	nop

001023b6 <_ZN5PrintC1Ev>:
  1023b6:	55                   	push   %ebp
  1023b7:	89 e5                	mov    %esp,%ebp
  1023b9:	8b 45 08             	mov    0x8(%ebp),%eax
  1023bc:	c7 00 28 85 10 00    	movl   $0x108528,(%eax)
  1023c2:	8b 45 08             	mov    0x8(%ebp),%eax
  1023c5:	c7 40 04 00 00 00 00 	movl   $0x0,0x4(%eax)
  1023cc:	5d                   	pop    %ebp
  1023cd:	c3                   	ret    

001023ce <_ZN6KeyComC1Ev>:
  1023ce:	55                   	push   %ebp
  1023cf:	89 e5                	mov    %esp,%ebp
  1023d1:	83 ec 18             	sub    $0x18,%esp
  1023d4:	8b 45 08             	mov    0x8(%ebp),%eax
  1023d7:	89 04 24             	mov    %eax,(%esp)
  1023da:	e8 d7 ff ff ff       	call   1023b6 <_ZN5PrintC1Ev>
  1023df:	8b 45 08             	mov    0x8(%ebp),%eax
  1023e2:	c7 00 e8 8a 10 00    	movl   $0x108ae8,(%eax)
  1023e8:	c9                   	leave  
  1023e9:	c3                   	ret    

001023ea <_ZL4outbth>:
  1023ea:	55                   	push   %ebp
  1023eb:	89 e5                	mov    %esp,%ebp
  1023ed:	83 ec 08             	sub    $0x8,%esp
  1023f0:	8b 55 08             	mov    0x8(%ebp),%edx
  1023f3:	8b 45 0c             	mov    0xc(%ebp),%eax
  1023f6:	66 89 55 fc          	mov    %dx,-0x4(%ebp)
  1023fa:	88 45 f8             	mov    %al,-0x8(%ebp)
  1023fd:	0f b7 55 fc          	movzwl -0x4(%ebp),%edx
  102401:	0f b6 45 f8          	movzbl -0x8(%ebp),%eax
  102405:	ee                   	out    %al,(%dx)
  102406:	c9                   	leave  
  102407:	c3                   	ret    

00102408 <_ZL3inbt>:
  102408:	55                   	push   %ebp
  102409:	89 e5                	mov    %esp,%ebp
  10240b:	83 ec 14             	sub    $0x14,%esp
  10240e:	8b 45 08             	mov    0x8(%ebp),%eax
  102411:	66 89 45 ec          	mov    %ax,-0x14(%ebp)
  102415:	0f b7 45 ec          	movzwl -0x14(%ebp),%eax
  102419:	89 c2                	mov    %eax,%edx
  10241b:	ec                   	in     (%dx),%al
  10241c:	88 45 ff             	mov    %al,-0x1(%ebp)
  10241f:	0f b6 45 ff          	movzbl -0x1(%ebp),%eax
  102423:	c9                   	leave  
  102424:	c3                   	ret    

00102425 <_ZL29platform_abstract_irq_handlerP14interrupt_info>:
  102425:	55                   	push   %ebp
  102426:	89 e5                	mov    %esp,%ebp
  102428:	83 ec 08             	sub    $0x8,%esp
  10242b:	8b 45 08             	mov    0x8(%ebp),%eax
  10242e:	8b 40 24             	mov    0x24(%eax),%eax
  102431:	83 f8 27             	cmp    $0x27,%eax
  102434:	76 14                	jbe    10244a <_ZL29platform_abstract_irq_handlerP14interrupt_info+0x25>
  102436:	c7 44 24 04 20 00 00 	movl   $0x20,0x4(%esp)
  10243d:	00 
  10243e:	c7 04 24 a0 00 00 00 	movl   $0xa0,(%esp)
  102445:	e8 a0 ff ff ff       	call   1023ea <_ZL4outbth>
  10244a:	8b 45 08             	mov    0x8(%ebp),%eax
  10244d:	8b 40 24             	mov    0x24(%eax),%eax
  102450:	83 f8 1f             	cmp    $0x1f,%eax
  102453:	76 14                	jbe    102469 <_ZL29platform_abstract_irq_handlerP14interrupt_info+0x44>
  102455:	c7 44 24 04 20 00 00 	movl   $0x20,0x4(%esp)
  10245c:	00 
  10245d:	c7 04 24 20 00 00 00 	movl   $0x20,(%esp)
  102464:	e8 81 ff ff ff       	call   1023ea <_ZL4outbth>
  102469:	c9                   	leave  
  10246a:	c3                   	ret    
  10246b:	90                   	nop

0010246c <_ZN10readline_tC1Ev>:
  10246c:	55                   	push   %ebp
  10246d:	89 e5                	mov    %esp,%ebp
  10246f:	83 ec 18             	sub    $0x18,%esp
  102472:	8b 45 08             	mov    0x8(%ebp),%eax
  102475:	89 04 24             	mov    %eax,(%esp)
  102478:	e8 51 ff ff ff       	call   1023ce <_ZN6KeyComC1Ev>
  10247d:	8b 45 08             	mov    0x8(%ebp),%eax
  102480:	c7 00 48 88 10 00    	movl   $0x108848,(%eax)
  102486:	8b 45 08             	mov    0x8(%ebp),%eax
  102489:	89 04 24             	mov    %eax,(%esp)
  10248c:	e8 03 00 00 00       	call   102494 <_ZN10readline_t4initEv>
  102491:	c9                   	leave  
  102492:	c3                   	ret    
  102493:	90                   	nop

00102494 <_ZN10readline_t4initEv>:
  102494:	55                   	push   %ebp
  102495:	89 e5                	mov    %esp,%ebp
  102497:	8b 45 08             	mov    0x8(%ebp),%eax
  10249a:	c7 80 a8 00 00 00 00 	movl   $0x0,0xa8(%eax)
  1024a1:	00 00 00 
  1024a4:	8b 45 08             	mov    0x8(%ebp),%eax
  1024a7:	c7 80 ac 00 00 00 00 	movl   $0x0,0xac(%eax)
  1024ae:	00 00 00 
  1024b1:	5d                   	pop    %ebp
  1024b2:	c3                   	ret    
  1024b3:	90                   	nop

001024b4 <_ZN10readline_t8get_lineEv>:
  1024b4:	55                   	push   %ebp
  1024b5:	89 e5                	mov    %esp,%ebp
  1024b7:	8b 45 08             	mov    0x8(%ebp),%eax
  1024ba:	8b 80 ac 00 00 00    	mov    0xac(%eax),%eax
  1024c0:	8b 55 08             	mov    0x8(%ebp),%edx
  1024c3:	c6 44 02 08 00       	movb   $0x0,0x8(%edx,%eax,1)
  1024c8:	8b 45 08             	mov    0x8(%ebp),%eax
  1024cb:	83 c0 08             	add    $0x8,%eax
  1024ce:	5d                   	pop    %ebp
  1024cf:	c3                   	ret    

001024d0 <_ZN10readline_t5writeEh>:
  1024d0:	55                   	push   %ebp
  1024d1:	89 e5                	mov    %esp,%ebp
  1024d3:	53                   	push   %ebx
  1024d4:	83 ec 14             	sub    $0x14,%esp
  1024d7:	8b 45 0c             	mov    0xc(%ebp),%eax
  1024da:	88 45 f4             	mov    %al,-0xc(%ebp)
  1024dd:	0f b6 45 f4          	movzbl -0xc(%ebp),%eax
  1024e1:	83 f8 08             	cmp    $0x8,%eax
  1024e4:	74 07                	je     1024ed <_ZN10readline_t5writeEh+0x1d>
  1024e6:	83 f8 0a             	cmp    $0xa,%eax
  1024e9:	74 12                	je     1024fd <_ZN10readline_t5writeEh+0x2d>
  1024eb:	eb 46                	jmp    102533 <_ZN10readline_t5writeEh+0x63>
  1024ed:	8b 45 08             	mov    0x8(%ebp),%eax
  1024f0:	89 04 24             	mov    %eax,(%esp)
  1024f3:	e8 ee 00 00 00       	call   1025e6 <_ZN10readline_t9backspaceEv>
  1024f8:	e9 dd 00 00 00       	jmp    1025da <_ZN10readline_t5writeEh+0x10a>
  1024fd:	8b 45 08             	mov    0x8(%ebp),%eax
  102500:	8b 80 ac 00 00 00    	mov    0xac(%eax),%eax
  102506:	85 c0                	test   %eax,%eax
  102508:	74 19                	je     102523 <_ZN10readline_t5writeEh+0x53>
  10250a:	8b 45 08             	mov    0x8(%ebp),%eax
  10250d:	89 04 24             	mov    %eax,(%esp)
  102510:	e8 9f ff ff ff       	call   1024b4 <_ZN10readline_t8get_lineEv>
  102515:	8b 45 08             	mov    0x8(%ebp),%eax
  102518:	83 c0 08             	add    $0x8,%eax
  10251b:	89 04 24             	mov    %eax,(%esp)
  10251e:	e8 5e 05 00 00       	call   102a81 <_Z7executePc>
  102523:	8b 45 08             	mov    0x8(%ebp),%eax
  102526:	89 04 24             	mov    %eax,(%esp)
  102529:	e8 66 ff ff ff       	call   102494 <_ZN10readline_t4initEv>
  10252e:	e9 a7 00 00 00       	jmp    1025da <_ZN10readline_t5writeEh+0x10a>
  102533:	8b 45 08             	mov    0x8(%ebp),%eax
  102536:	8b 80 ac 00 00 00    	mov    0xac(%eax),%eax
  10253c:	8d 50 01             	lea    0x1(%eax),%edx
  10253f:	8b 45 08             	mov    0x8(%ebp),%eax
  102542:	89 90 ac 00 00 00    	mov    %edx,0xac(%eax)
  102548:	8b 45 08             	mov    0x8(%ebp),%eax
  10254b:	8b 90 a8 00 00 00    	mov    0xa8(%eax),%edx
  102551:	8b 45 08             	mov    0x8(%ebp),%eax
  102554:	8b 80 ac 00 00 00    	mov    0xac(%eax),%eax
  10255a:	83 e8 01             	sub    $0x1,%eax
  10255d:	39 c2                	cmp    %eax,%edx
  10255f:	74 50                	je     1025b1 <_ZN10readline_t5writeEh+0xe1>
  102561:	8b 45 08             	mov    0x8(%ebp),%eax
  102564:	8b 90 ac 00 00 00    	mov    0xac(%eax),%edx
  10256a:	8b 45 08             	mov    0x8(%ebp),%eax
  10256d:	8b 80 a8 00 00 00    	mov    0xa8(%eax),%eax
  102573:	29 c2                	sub    %eax,%edx
  102575:	89 d0                	mov    %edx,%eax
  102577:	83 e8 01             	sub    $0x1,%eax
  10257a:	8b 55 08             	mov    0x8(%ebp),%edx
  10257d:	8b 92 a8 00 00 00    	mov    0xa8(%edx),%edx
  102583:	89 d1                	mov    %edx,%ecx
  102585:	8b 55 08             	mov    0x8(%ebp),%edx
  102588:	01 ca                	add    %ecx,%edx
  10258a:	8d 4a 08             	lea    0x8(%edx),%ecx
  10258d:	8b 55 08             	mov    0x8(%ebp),%edx
  102590:	8b 92 a8 00 00 00    	mov    0xa8(%edx),%edx
  102596:	8d 5a 01             	lea    0x1(%edx),%ebx
  102599:	8b 55 08             	mov    0x8(%ebp),%edx
  10259c:	01 da                	add    %ebx,%edx
  10259e:	83 c2 08             	add    $0x8,%edx
  1025a1:	89 44 24 08          	mov    %eax,0x8(%esp)
  1025a5:	89 4c 24 04          	mov    %ecx,0x4(%esp)
  1025a9:	89 14 24             	mov    %edx,(%esp)
  1025ac:	e8 e2 32 00 00       	call   105893 <memmove>
  1025b1:	8b 45 08             	mov    0x8(%ebp),%eax
  1025b4:	8b 80 a8 00 00 00    	mov    0xa8(%eax),%eax
  1025ba:	0f b6 4d f4          	movzbl -0xc(%ebp),%ecx
  1025be:	8b 55 08             	mov    0x8(%ebp),%edx
  1025c1:	88 4c 02 08          	mov    %cl,0x8(%edx,%eax,1)
  1025c5:	8b 45 08             	mov    0x8(%ebp),%eax
  1025c8:	8b 80 a8 00 00 00    	mov    0xa8(%eax),%eax
  1025ce:	8d 50 01             	lea    0x1(%eax),%edx
  1025d1:	8b 45 08             	mov    0x8(%ebp),%eax
  1025d4:	89 90 a8 00 00 00    	mov    %edx,0xa8(%eax)
  1025da:	b8 01 00 00 00       	mov    $0x1,%eax
  1025df:	83 c4 14             	add    $0x14,%esp
  1025e2:	5b                   	pop    %ebx
  1025e3:	5d                   	pop    %ebp
  1025e4:	c3                   	ret    
  1025e5:	90                   	nop

001025e6 <_ZN10readline_t9backspaceEv>:
  1025e6:	55                   	push   %ebp
  1025e7:	89 e5                	mov    %esp,%ebp
  1025e9:	53                   	push   %ebx
  1025ea:	83 ec 14             	sub    $0x14,%esp
  1025ed:	8b 45 08             	mov    0x8(%ebp),%eax
  1025f0:	8b 80 a8 00 00 00    	mov    0xa8(%eax),%eax
  1025f6:	85 c0                	test   %eax,%eax
  1025f8:	0f 8e 81 00 00 00    	jle    10267f <_ZN10readline_t9backspaceEv+0x99>
  1025fe:	8b 45 08             	mov    0x8(%ebp),%eax
  102601:	8b 90 ac 00 00 00    	mov    0xac(%eax),%edx
  102607:	8b 45 08             	mov    0x8(%ebp),%eax
  10260a:	8b 80 a8 00 00 00    	mov    0xa8(%eax),%eax
  102610:	29 c2                	sub    %eax,%edx
  102612:	89 d0                	mov    %edx,%eax
  102614:	83 c0 01             	add    $0x1,%eax
  102617:	8b 55 08             	mov    0x8(%ebp),%edx
  10261a:	8b 92 a8 00 00 00    	mov    0xa8(%edx),%edx
  102620:	89 d1                	mov    %edx,%ecx
  102622:	8b 55 08             	mov    0x8(%ebp),%edx
  102625:	01 ca                	add    %ecx,%edx
  102627:	8d 4a 08             	lea    0x8(%edx),%ecx
  10262a:	8b 55 08             	mov    0x8(%ebp),%edx
  10262d:	8b 92 a8 00 00 00    	mov    0xa8(%edx),%edx
  102633:	8d 5a ff             	lea    -0x1(%edx),%ebx
  102636:	8b 55 08             	mov    0x8(%ebp),%edx
  102639:	01 da                	add    %ebx,%edx
  10263b:	83 c2 08             	add    $0x8,%edx
  10263e:	89 44 24 08          	mov    %eax,0x8(%esp)
  102642:	89 4c 24 04          	mov    %ecx,0x4(%esp)
  102646:	89 14 24             	mov    %edx,(%esp)
  102649:	e8 45 32 00 00       	call   105893 <memmove>
  10264e:	8b 45 08             	mov    0x8(%ebp),%eax
  102651:	8b 80 a8 00 00 00    	mov    0xa8(%eax),%eax
  102657:	8d 50 ff             	lea    -0x1(%eax),%edx
  10265a:	8b 45 08             	mov    0x8(%ebp),%eax
  10265d:	89 90 a8 00 00 00    	mov    %edx,0xa8(%eax)
  102663:	8b 45 08             	mov    0x8(%ebp),%eax
  102666:	8b 80 ac 00 00 00    	mov    0xac(%eax),%eax
  10266c:	8d 50 ff             	lea    -0x1(%eax),%edx
  10266f:	8b 45 08             	mov    0x8(%ebp),%eax
  102672:	89 90 ac 00 00 00    	mov    %edx,0xac(%eax)
  102678:	b8 01 00 00 00       	mov    $0x1,%eax
  10267d:	eb 05                	jmp    102684 <_ZN10readline_t9backspaceEv+0x9e>
  10267f:	b8 00 00 00 00       	mov    $0x0,%eax
  102684:	83 c4 14             	add    $0x14,%esp
  102687:	5b                   	pop    %ebx
  102688:	5d                   	pop    %ebp
  102689:	c3                   	ret    

0010268a <_ZN10readline_t11move_cursorEi>:
  10268a:	55                   	push   %ebp
  10268b:	89 e5                	mov    %esp,%ebp
  10268d:	83 ec 10             	sub    $0x10,%esp
  102690:	8b 45 08             	mov    0x8(%ebp),%eax
  102693:	8b 80 a8 00 00 00    	mov    0xa8(%eax),%eax
  102699:	89 45 fc             	mov    %eax,-0x4(%ebp)
  10269c:	8b 45 08             	mov    0x8(%ebp),%eax
  10269f:	8b 90 a8 00 00 00    	mov    0xa8(%eax),%edx
  1026a5:	8b 45 0c             	mov    0xc(%ebp),%eax
  1026a8:	01 c2                	add    %eax,%edx
  1026aa:	8b 45 08             	mov    0x8(%ebp),%eax
  1026ad:	89 90 a8 00 00 00    	mov    %edx,0xa8(%eax)
  1026b3:	8b 45 08             	mov    0x8(%ebp),%eax
  1026b6:	8b 80 a8 00 00 00    	mov    0xa8(%eax),%eax
  1026bc:	85 c0                	test   %eax,%eax
  1026be:	79 0d                	jns    1026cd <_ZN10readline_t11move_cursorEi+0x43>
  1026c0:	8b 45 08             	mov    0x8(%ebp),%eax
  1026c3:	c7 80 a8 00 00 00 00 	movl   $0x0,0xa8(%eax)
  1026ca:	00 00 00 
  1026cd:	8b 45 08             	mov    0x8(%ebp),%eax
  1026d0:	8b 90 a8 00 00 00    	mov    0xa8(%eax),%edx
  1026d6:	8b 45 08             	mov    0x8(%ebp),%eax
  1026d9:	8b 80 ac 00 00 00    	mov    0xac(%eax),%eax
  1026df:	39 c2                	cmp    %eax,%edx
  1026e1:	7e 12                	jle    1026f5 <_ZN10readline_t11move_cursorEi+0x6b>
  1026e3:	8b 45 08             	mov    0x8(%ebp),%eax
  1026e6:	8b 90 ac 00 00 00    	mov    0xac(%eax),%edx
  1026ec:	8b 45 08             	mov    0x8(%ebp),%eax
  1026ef:	89 90 a8 00 00 00    	mov    %edx,0xa8(%eax)
  1026f5:	8b 45 08             	mov    0x8(%ebp),%eax
  1026f8:	8b 80 a8 00 00 00    	mov    0xa8(%eax),%eax
  1026fe:	2b 45 fc             	sub    -0x4(%ebp),%eax
  102701:	c9                   	leave  
  102702:	c3                   	ret    
  102703:	90                   	nop

00102704 <_ZN10readline_t5rightEi>:
  102704:	55                   	push   %ebp
  102705:	89 e5                	mov    %esp,%ebp
  102707:	83 ec 08             	sub    $0x8,%esp
  10270a:	8b 45 0c             	mov    0xc(%ebp),%eax
  10270d:	89 44 24 04          	mov    %eax,0x4(%esp)
  102711:	8b 45 08             	mov    0x8(%ebp),%eax
  102714:	89 04 24             	mov    %eax,(%esp)
  102717:	e8 6e ff ff ff       	call   10268a <_ZN10readline_t11move_cursorEi>
  10271c:	c9                   	leave  
  10271d:	c3                   	ret    

0010271e <_ZN10readline_t4leftEi>:
  10271e:	55                   	push   %ebp
  10271f:	89 e5                	mov    %esp,%ebp
  102721:	83 ec 08             	sub    $0x8,%esp
  102724:	8b 45 0c             	mov    0xc(%ebp),%eax
  102727:	f7 d8                	neg    %eax
  102729:	89 44 24 04          	mov    %eax,0x4(%esp)
  10272d:	8b 45 08             	mov    0x8(%ebp),%eax
  102730:	89 04 24             	mov    %eax,(%esp)
  102733:	e8 52 ff ff ff       	call   10268a <_ZN10readline_t11move_cursorEi>
  102738:	f7 d8                	neg    %eax
  10273a:	c9                   	leave  
  10273b:	c3                   	ret    

0010273c <_ZN10readline_t3delEi>:
  10273c:	55                   	push   %ebp
  10273d:	89 e5                	mov    %esp,%ebp
  10273f:	53                   	push   %ebx
  102740:	83 ec 14             	sub    $0x14,%esp
  102743:	8b 45 08             	mov    0x8(%ebp),%eax
  102746:	8b 90 ac 00 00 00    	mov    0xac(%eax),%edx
  10274c:	8b 45 08             	mov    0x8(%ebp),%eax
  10274f:	8b 80 a8 00 00 00    	mov    0xa8(%eax),%eax
  102755:	29 c2                	sub    %eax,%edx
  102757:	89 d0                	mov    %edx,%eax
  102759:	85 c0                	test   %eax,%eax
  10275b:	7e 6c                	jle    1027c9 <_ZN10readline_t3delEi+0x8d>
  10275d:	8b 45 08             	mov    0x8(%ebp),%eax
  102760:	8b 90 ac 00 00 00    	mov    0xac(%eax),%edx
  102766:	8b 45 08             	mov    0x8(%ebp),%eax
  102769:	8b 80 a8 00 00 00    	mov    0xa8(%eax),%eax
  10276f:	29 c2                	sub    %eax,%edx
  102771:	89 d0                	mov    %edx,%eax
  102773:	83 e8 01             	sub    $0x1,%eax
  102776:	8b 55 08             	mov    0x8(%ebp),%edx
  102779:	8b 92 a8 00 00 00    	mov    0xa8(%edx),%edx
  10277f:	8d 4a 01             	lea    0x1(%edx),%ecx
  102782:	8b 55 08             	mov    0x8(%ebp),%edx
  102785:	01 ca                	add    %ecx,%edx
  102787:	8d 4a 08             	lea    0x8(%edx),%ecx
  10278a:	8b 55 08             	mov    0x8(%ebp),%edx
  10278d:	8b 92 a8 00 00 00    	mov    0xa8(%edx),%edx
  102793:	89 d3                	mov    %edx,%ebx
  102795:	8b 55 08             	mov    0x8(%ebp),%edx
  102798:	01 da                	add    %ebx,%edx
  10279a:	83 c2 08             	add    $0x8,%edx
  10279d:	89 44 24 08          	mov    %eax,0x8(%esp)
  1027a1:	89 4c 24 04          	mov    %ecx,0x4(%esp)
  1027a5:	89 14 24             	mov    %edx,(%esp)
  1027a8:	e8 e6 30 00 00       	call   105893 <memmove>
  1027ad:	8b 45 08             	mov    0x8(%ebp),%eax
  1027b0:	8b 80 ac 00 00 00    	mov    0xac(%eax),%eax
  1027b6:	8d 50 ff             	lea    -0x1(%eax),%edx
  1027b9:	8b 45 08             	mov    0x8(%ebp),%eax
  1027bc:	89 90 ac 00 00 00    	mov    %edx,0xac(%eax)
  1027c2:	b8 01 00 00 00       	mov    $0x1,%eax
  1027c7:	eb 05                	jmp    1027ce <_ZN10readline_t3delEi+0x92>
  1027c9:	b8 00 00 00 00       	mov    $0x0,%eax
  1027ce:	83 c4 14             	add    $0x14,%esp
  1027d1:	5b                   	pop    %ebx
  1027d2:	5d                   	pop    %ebp
  1027d3:	c3                   	ret    

001027d4 <_ZL10__list_addP9list_headS0_S0_>:
  1027d4:	55                   	push   %ebp
  1027d5:	89 e5                	mov    %esp,%ebp
  1027d7:	8b 45 10             	mov    0x10(%ebp),%eax
  1027da:	8b 55 08             	mov    0x8(%ebp),%edx
  1027dd:	89 50 04             	mov    %edx,0x4(%eax)
  1027e0:	8b 45 08             	mov    0x8(%ebp),%eax
  1027e3:	8b 55 10             	mov    0x10(%ebp),%edx
  1027e6:	89 10                	mov    %edx,(%eax)
  1027e8:	8b 45 08             	mov    0x8(%ebp),%eax
  1027eb:	8b 55 0c             	mov    0xc(%ebp),%edx
  1027ee:	89 50 04             	mov    %edx,0x4(%eax)
  1027f1:	8b 45 0c             	mov    0xc(%ebp),%eax
  1027f4:	8b 55 08             	mov    0x8(%ebp),%edx
  1027f7:	89 10                	mov    %edx,(%eax)
  1027f9:	5d                   	pop    %ebp
  1027fa:	c3                   	ret    

001027fb <_ZL13list_add_tailP9list_headS0_>:
  1027fb:	55                   	push   %ebp
  1027fc:	89 e5                	mov    %esp,%ebp
  1027fe:	83 ec 0c             	sub    $0xc,%esp
  102801:	8b 45 0c             	mov    0xc(%ebp),%eax
  102804:	8b 40 04             	mov    0x4(%eax),%eax
  102807:	8b 55 0c             	mov    0xc(%ebp),%edx
  10280a:	89 54 24 08          	mov    %edx,0x8(%esp)
  10280e:	89 44 24 04          	mov    %eax,0x4(%esp)
  102812:	8b 45 08             	mov    0x8(%ebp),%eax
  102815:	89 04 24             	mov    %eax,(%esp)
  102818:	e8 b7 ff ff ff       	call   1027d4 <_ZL10__list_addP9list_headS0_S0_>
  10281d:	c9                   	leave  
  10281e:	c3                   	ret    

0010281f <_ZL4outbth>:
  10281f:	55                   	push   %ebp
  102820:	89 e5                	mov    %esp,%ebp
  102822:	83 ec 08             	sub    $0x8,%esp
  102825:	8b 55 08             	mov    0x8(%ebp),%edx
  102828:	8b 45 0c             	mov    0xc(%ebp),%eax
  10282b:	66 89 55 fc          	mov    %dx,-0x4(%ebp)
  10282f:	88 45 f8             	mov    %al,-0x8(%ebp)
  102832:	0f b7 55 fc          	movzwl -0x4(%ebp),%edx
  102836:	0f b6 45 f8          	movzbl -0x8(%ebp),%eax
  10283a:	ee                   	out    %al,(%dx)
  10283b:	c9                   	leave  
  10283c:	c3                   	ret    

0010283d <_ZL3inbt>:
  10283d:	55                   	push   %ebp
  10283e:	89 e5                	mov    %esp,%ebp
  102840:	83 ec 14             	sub    $0x14,%esp
  102843:	8b 45 08             	mov    0x8(%ebp),%eax
  102846:	66 89 45 ec          	mov    %ax,-0x14(%ebp)
  10284a:	0f b7 45 ec          	movzwl -0x14(%ebp),%eax
  10284e:	89 c2                	mov    %eax,%edx
  102850:	ec                   	in     (%dx),%al
  102851:	88 45 ff             	mov    %al,-0x1(%ebp)
  102854:	0f b6 45 ff          	movzbl -0x1(%ebp),%eax
  102858:	c9                   	leave  
  102859:	c3                   	ret    

0010285a <_ZL29platform_abstract_irq_handlerP14interrupt_info>:
  10285a:	55                   	push   %ebp
  10285b:	89 e5                	mov    %esp,%ebp
  10285d:	83 ec 08             	sub    $0x8,%esp
  102860:	8b 45 08             	mov    0x8(%ebp),%eax
  102863:	8b 40 24             	mov    0x24(%eax),%eax
  102866:	83 f8 27             	cmp    $0x27,%eax
  102869:	76 14                	jbe    10287f <_ZL29platform_abstract_irq_handlerP14interrupt_info+0x25>
  10286b:	c7 44 24 04 20 00 00 	movl   $0x20,0x4(%esp)
  102872:	00 
  102873:	c7 04 24 a0 00 00 00 	movl   $0xa0,(%esp)
  10287a:	e8 a0 ff ff ff       	call   10281f <_ZL4outbth>
  10287f:	8b 45 08             	mov    0x8(%ebp),%eax
  102882:	8b 40 24             	mov    0x24(%eax),%eax
  102885:	83 f8 1f             	cmp    $0x1f,%eax
  102888:	76 14                	jbe    10289e <_ZL29platform_abstract_irq_handlerP14interrupt_info+0x44>
  10288a:	c7 44 24 04 20 00 00 	movl   $0x20,0x4(%esp)
  102891:	00 
  102892:	c7 04 24 20 00 00 00 	movl   $0x20,(%esp)
  102899:	e8 81 ff ff ff       	call   10281f <_ZL4outbth>
  10289e:	c9                   	leave  
  10289f:	c3                   	ret    

001028a0 <_Z11command_addPcj>:
  1028a0:	55                   	push   %ebp
  1028a1:	89 e5                	mov    %esp,%ebp
  1028a3:	83 ec 28             	sub    $0x28,%esp
  1028a6:	c7 04 24 10 00 00 00 	movl   $0x10,(%esp)
  1028ad:	e8 83 1b 00 00       	call   104435 <_Znwj>
  1028b2:	89 45 f4             	mov    %eax,-0xc(%ebp)
  1028b5:	8b 45 f4             	mov    -0xc(%ebp),%eax
  1028b8:	83 c0 04             	add    $0x4,%eax
  1028bb:	c7 44 24 04 84 92 10 	movl   $0x109284,0x4(%esp)
  1028c2:	00 
  1028c3:	89 04 24             	mov    %eax,(%esp)
  1028c6:	e8 30 ff ff ff       	call   1027fb <_ZL13list_add_tailP9list_headS0_>
  1028cb:	8b 45 f4             	mov    -0xc(%ebp),%eax
  1028ce:	8b 55 08             	mov    0x8(%ebp),%edx
  1028d1:	89 10                	mov    %edx,(%eax)
  1028d3:	8b 45 f4             	mov    -0xc(%ebp),%eax
  1028d6:	8b 55 0c             	mov    0xc(%ebp),%edx
  1028d9:	89 50 0c             	mov    %edx,0xc(%eax)
  1028dc:	c9                   	leave  
  1028dd:	c3                   	ret    

001028de <_Z13command_printv>:
  1028de:	55                   	push   %ebp
  1028df:	89 e5                	mov    %esp,%ebp
  1028e1:	83 ec 28             	sub    $0x28,%esp
  1028e4:	a1 84 92 10 00       	mov    0x109284,%eax
  1028e9:	89 45 f0             	mov    %eax,-0x10(%ebp)
  1028ec:	8b 45 f0             	mov    -0x10(%ebp),%eax
  1028ef:	83 e8 04             	sub    $0x4,%eax
  1028f2:	89 45 f4             	mov    %eax,-0xc(%ebp)
  1028f5:	eb 35                	jmp    10292c <_Z13command_printv+0x4e>
  1028f7:	8b 45 f4             	mov    -0xc(%ebp),%eax
  1028fa:	8b 10                	mov    (%eax),%edx
  1028fc:	a1 80 92 10 00       	mov    0x109280,%eax
  102901:	89 54 24 04          	mov    %edx,0x4(%esp)
  102905:	89 04 24             	mov    %eax,(%esp)
  102908:	e8 d3 e2 ff ff       	call   100be0 <_ZN5Print5printEPKc>
  10290d:	a1 80 92 10 00       	mov    0x109280,%eax
  102912:	89 04 24             	mov    %eax,(%esp)
  102915:	e8 92 e4 ff ff       	call   100dac <_ZN5Print7printlnEv>
  10291a:	8b 45 f4             	mov    -0xc(%ebp),%eax
  10291d:	8b 40 04             	mov    0x4(%eax),%eax
  102920:	89 45 ec             	mov    %eax,-0x14(%ebp)
  102923:	8b 45 ec             	mov    -0x14(%ebp),%eax
  102926:	83 e8 04             	sub    $0x4,%eax
  102929:	89 45 f4             	mov    %eax,-0xc(%ebp)
  10292c:	8b 45 f4             	mov    -0xc(%ebp),%eax
  10292f:	83 c0 04             	add    $0x4,%eax
  102932:	3d 84 92 10 00       	cmp    $0x109284,%eax
  102937:	75 be                	jne    1028f7 <_Z13command_printv+0x19>
  102939:	c9                   	leave  
  10293a:	c3                   	ret    

0010293b <_Z11interpreteriPKPKc>:
  10293b:	55                   	push   %ebp
  10293c:	89 e5                	mov    %esp,%ebp
  10293e:	83 ec 28             	sub    $0x28,%esp
  102941:	a1 84 92 10 00       	mov    0x109284,%eax
  102946:	89 45 f0             	mov    %eax,-0x10(%ebp)
  102949:	8b 45 f0             	mov    -0x10(%ebp),%eax
  10294c:	83 e8 04             	sub    $0x4,%eax
  10294f:	89 45 f4             	mov    %eax,-0xc(%ebp)
  102952:	eb 48                	jmp    10299c <_Z11interpreteriPKPKc+0x61>
  102954:	8b 45 f4             	mov    -0xc(%ebp),%eax
  102957:	8b 10                	mov    (%eax),%edx
  102959:	8b 45 0c             	mov    0xc(%ebp),%eax
  10295c:	8b 00                	mov    (%eax),%eax
  10295e:	89 54 24 04          	mov    %edx,0x4(%esp)
  102962:	89 04 24             	mov    %eax,(%esp)
  102965:	e8 50 2a 00 00       	call   1053ba <strcmp>
  10296a:	85 c0                	test   %eax,%eax
  10296c:	75 1c                	jne    10298a <_Z11interpreteriPKPKc+0x4f>
  10296e:	8b 45 f4             	mov    -0xc(%ebp),%eax
  102971:	8b 40 0c             	mov    0xc(%eax),%eax
  102974:	8b 55 0c             	mov    0xc(%ebp),%edx
  102977:	89 54 24 04          	mov    %edx,0x4(%esp)
  10297b:	8b 55 08             	mov    0x8(%ebp),%edx
  10297e:	89 14 24             	mov    %edx,(%esp)
  102981:	ff d0                	call   *%eax
  102983:	b8 00 00 00 00       	mov    $0x0,%eax
  102988:	eb 64                	jmp    1029ee <_Z11interpreteriPKPKc+0xb3>
  10298a:	8b 45 f4             	mov    -0xc(%ebp),%eax
  10298d:	8b 40 04             	mov    0x4(%eax),%eax
  102990:	89 45 ec             	mov    %eax,-0x14(%ebp)
  102993:	8b 45 ec             	mov    -0x14(%ebp),%eax
  102996:	83 e8 04             	sub    $0x4,%eax
  102999:	89 45 f4             	mov    %eax,-0xc(%ebp)
  10299c:	8b 45 f4             	mov    -0xc(%ebp),%eax
  10299f:	83 c0 04             	add    $0x4,%eax
  1029a2:	3d 84 92 10 00       	cmp    $0x109284,%eax
  1029a7:	75 ab                	jne    102954 <_Z11interpreteriPKPKc+0x19>
  1029a9:	a1 80 92 10 00       	mov    0x109280,%eax
  1029ae:	c7 44 24 04 6c 88 10 	movl   $0x10886c,0x4(%esp)
  1029b5:	00 
  1029b6:	89 04 24             	mov    %eax,(%esp)
  1029b9:	e8 22 e2 ff ff       	call   100be0 <_ZN5Print5printEPKc>
  1029be:	8b 45 0c             	mov    0xc(%ebp),%eax
  1029c1:	8b 10                	mov    (%eax),%edx
  1029c3:	a1 80 92 10 00       	mov    0x109280,%eax
  1029c8:	89 54 24 04          	mov    %edx,0x4(%esp)
  1029cc:	89 04 24             	mov    %eax,(%esp)
  1029cf:	e8 0c e2 ff ff       	call   100be0 <_ZN5Print5printEPKc>
  1029d4:	a1 80 92 10 00       	mov    0x109280,%eax
  1029d9:	c7 44 24 04 78 88 10 	movl   $0x108878,0x4(%esp)
  1029e0:	00 
  1029e1:	89 04 24             	mov    %eax,(%esp)
  1029e4:	e8 fb e3 ff ff       	call   100de4 <_ZN5Print7printlnEPKc>
  1029e9:	b8 00 00 00 00       	mov    $0x0,%eax
  1029ee:	c9                   	leave  
  1029ef:	c3                   	ret    

001029f0 <_Z5splitPcR7argvc_t>:
  1029f0:	55                   	push   %ebp
  1029f1:	89 e5                	mov    %esp,%ebp
  1029f3:	8b 45 0c             	mov    0xc(%ebp),%eax
  1029f6:	c7 40 04 00 00 00 00 	movl   $0x0,0x4(%eax)
  1029fd:	eb 76                	jmp    102a75 <_Z5splitPcR7argvc_t+0x85>
  1029ff:	eb 04                	jmp    102a05 <_Z5splitPcR7argvc_t+0x15>
  102a01:	83 45 08 01          	addl   $0x1,0x8(%ebp)
  102a05:	8b 45 08             	mov    0x8(%ebp),%eax
  102a08:	0f b6 00             	movzbl (%eax),%eax
  102a0b:	84 c0                	test   %al,%al
  102a0d:	74 0a                	je     102a19 <_Z5splitPcR7argvc_t+0x29>
  102a0f:	8b 45 08             	mov    0x8(%ebp),%eax
  102a12:	0f b6 00             	movzbl (%eax),%eax
  102a15:	3c 20                	cmp    $0x20,%al
  102a17:	74 e8                	je     102a01 <_Z5splitPcR7argvc_t+0x11>
  102a19:	8b 45 08             	mov    0x8(%ebp),%eax
  102a1c:	0f b6 00             	movzbl (%eax),%eax
  102a1f:	84 c0                	test   %al,%al
  102a21:	74 24                	je     102a47 <_Z5splitPcR7argvc_t+0x57>
  102a23:	8b 45 0c             	mov    0xc(%ebp),%eax
  102a26:	8b 10                	mov    (%eax),%edx
  102a28:	8b 45 0c             	mov    0xc(%ebp),%eax
  102a2b:	8b 40 04             	mov    0x4(%eax),%eax
  102a2e:	c1 e0 02             	shl    $0x2,%eax
  102a31:	01 c2                	add    %eax,%edx
  102a33:	8b 45 08             	mov    0x8(%ebp),%eax
  102a36:	89 02                	mov    %eax,(%edx)
  102a38:	8b 45 0c             	mov    0xc(%ebp),%eax
  102a3b:	8b 40 04             	mov    0x4(%eax),%eax
  102a3e:	8d 50 01             	lea    0x1(%eax),%edx
  102a41:	8b 45 0c             	mov    0xc(%ebp),%eax
  102a44:	89 50 04             	mov    %edx,0x4(%eax)
  102a47:	eb 04                	jmp    102a4d <_Z5splitPcR7argvc_t+0x5d>
  102a49:	83 45 08 01          	addl   $0x1,0x8(%ebp)
  102a4d:	8b 45 08             	mov    0x8(%ebp),%eax
  102a50:	0f b6 00             	movzbl (%eax),%eax
  102a53:	84 c0                	test   %al,%al
  102a55:	74 0a                	je     102a61 <_Z5splitPcR7argvc_t+0x71>
  102a57:	8b 45 08             	mov    0x8(%ebp),%eax
  102a5a:	0f b6 00             	movzbl (%eax),%eax
  102a5d:	3c 20                	cmp    $0x20,%al
  102a5f:	75 e8                	jne    102a49 <_Z5splitPcR7argvc_t+0x59>
  102a61:	8b 45 08             	mov    0x8(%ebp),%eax
  102a64:	0f b6 00             	movzbl (%eax),%eax
  102a67:	84 c0                	test   %al,%al
  102a69:	74 0a                	je     102a75 <_Z5splitPcR7argvc_t+0x85>
  102a6b:	8b 45 08             	mov    0x8(%ebp),%eax
  102a6e:	c6 00 00             	movb   $0x0,(%eax)
  102a71:	83 45 08 01          	addl   $0x1,0x8(%ebp)
  102a75:	8b 45 08             	mov    0x8(%ebp),%eax
  102a78:	0f b6 00             	movzbl (%eax),%eax
  102a7b:	84 c0                	test   %al,%al
  102a7d:	75 80                	jne    1029ff <_Z5splitPcR7argvc_t+0xf>
  102a7f:	5d                   	pop    %ebp
  102a80:	c3                   	ret    

00102a81 <_Z7executePc>:
  102a81:	55                   	push   %ebp
  102a82:	89 e5                	mov    %esp,%ebp
  102a84:	83 ec 48             	sub    $0x48,%esp
  102a87:	8d 45 c8             	lea    -0x38(%ebp),%eax
  102a8a:	89 45 f0             	mov    %eax,-0x10(%ebp)
  102a8d:	8d 45 f0             	lea    -0x10(%ebp),%eax
  102a90:	89 44 24 04          	mov    %eax,0x4(%esp)
  102a94:	8b 45 08             	mov    0x8(%ebp),%eax
  102a97:	89 04 24             	mov    %eax,(%esp)
  102a9a:	e8 51 ff ff ff       	call   1029f0 <_Z5splitPcR7argvc_t>
  102a9f:	8b 55 f0             	mov    -0x10(%ebp),%edx
  102aa2:	8b 45 f4             	mov    -0xc(%ebp),%eax
  102aa5:	89 54 24 04          	mov    %edx,0x4(%esp)
  102aa9:	89 04 24             	mov    %eax,(%esp)
  102aac:	e8 8a fe ff ff       	call   10293b <_Z11interpreteriPKPKc>
  102ab1:	c9                   	leave  
  102ab2:	c3                   	ret    

00102ab3 <_ZL4outbth>:
  102ab3:	55                   	push   %ebp
  102ab4:	89 e5                	mov    %esp,%ebp
  102ab6:	83 ec 08             	sub    $0x8,%esp
  102ab9:	8b 55 08             	mov    0x8(%ebp),%edx
  102abc:	8b 45 0c             	mov    0xc(%ebp),%eax
  102abf:	66 89 55 fc          	mov    %dx,-0x4(%ebp)
  102ac3:	88 45 f8             	mov    %al,-0x8(%ebp)
  102ac6:	0f b7 55 fc          	movzwl -0x4(%ebp),%edx
  102aca:	0f b6 45 f8          	movzbl -0x8(%ebp),%eax
  102ace:	ee                   	out    %al,(%dx)
  102acf:	c9                   	leave  
  102ad0:	c3                   	ret    

00102ad1 <_ZL3inbt>:
  102ad1:	55                   	push   %ebp
  102ad2:	89 e5                	mov    %esp,%ebp
  102ad4:	83 ec 14             	sub    $0x14,%esp
  102ad7:	8b 45 08             	mov    0x8(%ebp),%eax
  102ada:	66 89 45 ec          	mov    %ax,-0x14(%ebp)
  102ade:	0f b7 45 ec          	movzwl -0x14(%ebp),%eax
  102ae2:	89 c2                	mov    %eax,%edx
  102ae4:	ec                   	in     (%dx),%al
  102ae5:	88 45 ff             	mov    %al,-0x1(%ebp)
  102ae8:	0f b6 45 ff          	movzbl -0x1(%ebp),%eax
  102aec:	c9                   	leave  
  102aed:	c3                   	ret    

00102aee <_ZL29platform_abstract_irq_handlerP14interrupt_info>:
  102aee:	55                   	push   %ebp
  102aef:	89 e5                	mov    %esp,%ebp
  102af1:	83 ec 08             	sub    $0x8,%esp
  102af4:	8b 45 08             	mov    0x8(%ebp),%eax
  102af7:	8b 40 24             	mov    0x24(%eax),%eax
  102afa:	83 f8 27             	cmp    $0x27,%eax
  102afd:	76 14                	jbe    102b13 <_ZL29platform_abstract_irq_handlerP14interrupt_info+0x25>
  102aff:	c7 44 24 04 20 00 00 	movl   $0x20,0x4(%esp)
  102b06:	00 
  102b07:	c7 04 24 a0 00 00 00 	movl   $0xa0,(%esp)
  102b0e:	e8 a0 ff ff ff       	call   102ab3 <_ZL4outbth>
  102b13:	8b 45 08             	mov    0x8(%ebp),%eax
  102b16:	8b 40 24             	mov    0x24(%eax),%eax
  102b19:	83 f8 1f             	cmp    $0x1f,%eax
  102b1c:	76 14                	jbe    102b32 <_ZL29platform_abstract_irq_handlerP14interrupt_info+0x44>
  102b1e:	c7 44 24 04 20 00 00 	movl   $0x20,0x4(%esp)
  102b25:	00 
  102b26:	c7 04 24 20 00 00 00 	movl   $0x20,(%esp)
  102b2d:	e8 81 ff ff ff       	call   102ab3 <_ZL4outbth>
  102b32:	c9                   	leave  
  102b33:	c3                   	ret    

00102b34 <_Z5aboutv>:
  102b34:	55                   	push   %ebp
  102b35:	89 e5                	mov    %esp,%ebp
  102b37:	83 ec 18             	sub    $0x18,%esp
  102b3a:	a1 80 92 10 00       	mov    0x109280,%eax
  102b3f:	c7 44 24 04 9d 88 10 	movl   $0x10889d,0x4(%esp)
  102b46:	00 
  102b47:	89 04 24             	mov    %eax,(%esp)
  102b4a:	e8 91 e0 ff ff       	call   100be0 <_ZN5Print5printEPKc>
  102b4f:	a1 80 92 10 00       	mov    0x109280,%eax
  102b54:	c7 44 24 04 a3 88 10 	movl   $0x1088a3,0x4(%esp)
  102b5b:	00 
  102b5c:	89 04 24             	mov    %eax,(%esp)
  102b5f:	e8 80 e2 ff ff       	call   100de4 <_ZN5Print7printlnEPKc>
  102b64:	c9                   	leave  
  102b65:	c3                   	ret    

00102b66 <_Z5ptestiPPc>:
  102b66:	55                   	push   %ebp
  102b67:	89 e5                	mov    %esp,%ebp
  102b69:	83 ec 28             	sub    $0x28,%esp
  102b6c:	c7 45 f4 00 00 00 00 	movl   $0x0,-0xc(%ebp)
  102b73:	eb 26                	jmp    102b9b <_Z5ptestiPPc+0x35>
  102b75:	8b 45 f4             	mov    -0xc(%ebp),%eax
  102b78:	8d 14 85 00 00 00 00 	lea    0x0(,%eax,4),%edx
  102b7f:	8b 45 0c             	mov    0xc(%ebp),%eax
  102b82:	01 d0                	add    %edx,%eax
  102b84:	8b 10                	mov    (%eax),%edx
  102b86:	a1 80 92 10 00       	mov    0x109280,%eax
  102b8b:	89 54 24 04          	mov    %edx,0x4(%esp)
  102b8f:	89 04 24             	mov    %eax,(%esp)
  102b92:	e8 4d e2 ff ff       	call   100de4 <_ZN5Print7printlnEPKc>
  102b97:	83 45 f4 01          	addl   $0x1,-0xc(%ebp)
  102b9b:	8b 45 f4             	mov    -0xc(%ebp),%eax
  102b9e:	3b 45 08             	cmp    0x8(%ebp),%eax
  102ba1:	7c d2                	jl     102b75 <_Z5ptestiPPc+0xf>
  102ba3:	c9                   	leave  
  102ba4:	c3                   	ret    

00102ba5 <_Z7meminfoiPPc>:
  102ba5:	55                   	push   %ebp
  102ba6:	89 e5                	mov    %esp,%ebp
  102ba8:	83 ec 18             	sub    $0x18,%esp
  102bab:	a1 20 96 10 00       	mov    0x109620,%eax
  102bb0:	8b 00                	mov    (%eax),%eax
  102bb2:	83 c0 08             	add    $0x8,%eax
  102bb5:	8b 00                	mov    (%eax),%eax
  102bb7:	8b 15 20 96 10 00    	mov    0x109620,%edx
  102bbd:	89 14 24             	mov    %edx,(%esp)
  102bc0:	ff d0                	call   *%eax
  102bc2:	8b 15 80 92 10 00    	mov    0x109280,%edx
  102bc8:	c7 44 24 08 0a 00 00 	movl   $0xa,0x8(%esp)
  102bcf:	00 
  102bd0:	89 44 24 04          	mov    %eax,0x4(%esp)
  102bd4:	89 14 24             	mov    %edx,(%esp)
  102bd7:	e8 90 e0 ff ff       	call   100c6c <_ZN5Print5printEji>
  102bdc:	c9                   	leave  
  102bdd:	c3                   	ret    

00102bde <_Z25registry_standart_utilityv>:
  102bde:	55                   	push   %ebp
  102bdf:	89 e5                	mov    %esp,%ebp
  102be1:	83 ec 18             	sub    $0x18,%esp
  102be4:	b8 34 2b 10 00       	mov    $0x102b34,%eax
  102be9:	89 44 24 04          	mov    %eax,0x4(%esp)
  102bed:	c7 04 24 a7 88 10 00 	movl   $0x1088a7,(%esp)
  102bf4:	e8 a7 fc ff ff       	call   1028a0 <_Z11command_addPcj>
  102bf9:	b8 66 2b 10 00       	mov    $0x102b66,%eax
  102bfe:	89 44 24 04          	mov    %eax,0x4(%esp)
  102c02:	c7 04 24 ad 88 10 00 	movl   $0x1088ad,(%esp)
  102c09:	e8 92 fc ff ff       	call   1028a0 <_Z11command_addPcj>
  102c0e:	b8 de 28 10 00       	mov    $0x1028de,%eax
  102c13:	89 44 24 04          	mov    %eax,0x4(%esp)
  102c17:	c7 04 24 b3 88 10 00 	movl   $0x1088b3,(%esp)
  102c1e:	e8 7d fc ff ff       	call   1028a0 <_Z11command_addPcj>
  102c23:	c9                   	leave  
  102c24:	c3                   	ret    

00102c25 <_Z22registry_alloc_utilityv>:
  102c25:	55                   	push   %ebp
  102c26:	89 e5                	mov    %esp,%ebp
  102c28:	83 ec 18             	sub    $0x18,%esp
  102c2b:	b8 a5 2b 10 00       	mov    $0x102ba5,%eax
  102c30:	89 44 24 04          	mov    %eax,0x4(%esp)
  102c34:	c7 04 24 b8 88 10 00 	movl   $0x1088b8,(%esp)
  102c3b:	e8 60 fc ff ff       	call   1028a0 <_Z11command_addPcj>
  102c40:	c9                   	leave  
  102c41:	c3                   	ret    

00102c42 <_ZL4outbth>:
  102c42:	55                   	push   %ebp
  102c43:	89 e5                	mov    %esp,%ebp
  102c45:	83 ec 08             	sub    $0x8,%esp
  102c48:	8b 55 08             	mov    0x8(%ebp),%edx
  102c4b:	8b 45 0c             	mov    0xc(%ebp),%eax
  102c4e:	66 89 55 fc          	mov    %dx,-0x4(%ebp)
  102c52:	88 45 f8             	mov    %al,-0x8(%ebp)
  102c55:	0f b7 55 fc          	movzwl -0x4(%ebp),%edx
  102c59:	0f b6 45 f8          	movzbl -0x8(%ebp),%eax
  102c5d:	ee                   	out    %al,(%dx)
  102c5e:	c9                   	leave  
  102c5f:	c3                   	ret    

00102c60 <_ZL3inbt>:
  102c60:	55                   	push   %ebp
  102c61:	89 e5                	mov    %esp,%ebp
  102c63:	83 ec 14             	sub    $0x14,%esp
  102c66:	8b 45 08             	mov    0x8(%ebp),%eax
  102c69:	66 89 45 ec          	mov    %ax,-0x14(%ebp)
  102c6d:	0f b7 45 ec          	movzwl -0x14(%ebp),%eax
  102c71:	89 c2                	mov    %eax,%edx
  102c73:	ec                   	in     (%dx),%al
  102c74:	88 45 ff             	mov    %al,-0x1(%ebp)
  102c77:	0f b6 45 ff          	movzbl -0x1(%ebp),%eax
  102c7b:	c9                   	leave  
  102c7c:	c3                   	ret    

00102c7d <_ZL29platform_abstract_irq_handlerP14interrupt_info>:
  102c7d:	55                   	push   %ebp
  102c7e:	89 e5                	mov    %esp,%ebp
  102c80:	83 ec 08             	sub    $0x8,%esp
  102c83:	8b 45 08             	mov    0x8(%ebp),%eax
  102c86:	8b 40 24             	mov    0x24(%eax),%eax
  102c89:	83 f8 27             	cmp    $0x27,%eax
  102c8c:	76 14                	jbe    102ca2 <_ZL29platform_abstract_irq_handlerP14interrupt_info+0x25>
  102c8e:	c7 44 24 04 20 00 00 	movl   $0x20,0x4(%esp)
  102c95:	00 
  102c96:	c7 04 24 a0 00 00 00 	movl   $0xa0,(%esp)
  102c9d:	e8 a0 ff ff ff       	call   102c42 <_ZL4outbth>
  102ca2:	8b 45 08             	mov    0x8(%ebp),%eax
  102ca5:	8b 40 24             	mov    0x24(%eax),%eax
  102ca8:	83 f8 1f             	cmp    $0x1f,%eax
  102cab:	76 14                	jbe    102cc1 <_ZL29platform_abstract_irq_handlerP14interrupt_info+0x44>
  102cad:	c7 44 24 04 20 00 00 	movl   $0x20,0x4(%esp)
  102cb4:	00 
  102cb5:	c7 04 24 20 00 00 00 	movl   $0x20,(%esp)
  102cbc:	e8 81 ff ff ff       	call   102c42 <_ZL4outbth>
  102cc1:	c9                   	leave  
  102cc2:	c3                   	ret    
  102cc3:	90                   	nop

00102cc4 <_ZN7KeyscanC1Ev>:
  102cc4:	55                   	push   %ebp
  102cc5:	89 e5                	mov    %esp,%ebp
  102cc7:	83 ec 18             	sub    $0x18,%esp
  102cca:	8b 45 08             	mov    0x8(%ebp),%eax
  102ccd:	89 04 24             	mov    %eax,(%esp)
  102cd0:	e8 03 00 00 00       	call   102cd8 <_ZN7Keyscan4initEv>
  102cd5:	c9                   	leave  
  102cd6:	c3                   	ret    
  102cd7:	90                   	nop

00102cd8 <_ZN7Keyscan4initEv>:
  102cd8:	55                   	push   %ebp
  102cd9:	89 e5                	mov    %esp,%ebp
  102cdb:	8b 45 08             	mov    0x8(%ebp),%eax
  102cde:	c7 00 00 00 00 00    	movl   $0x0,(%eax)
  102ce4:	8b 45 08             	mov    0x8(%ebp),%eax
  102ce7:	c7 40 04 00 00 00 00 	movl   $0x0,0x4(%eax)
  102cee:	8b 45 08             	mov    0x8(%ebp),%eax
  102cf1:	c7 40 08 00 00 00 00 	movl   $0x0,0x8(%eax)
  102cf8:	5d                   	pop    %ebp
  102cf9:	c3                   	ret    

00102cfa <_ZN7Keyscan10scan2asciiEv>:
  102cfa:	55                   	push   %ebp
  102cfb:	89 e5                	mov    %esp,%ebp
  102cfd:	83 ec 28             	sub    $0x28,%esp
  102d00:	8b 45 08             	mov    0x8(%ebp),%eax
  102d03:	8b 40 04             	mov    0x4(%eax),%eax
  102d06:	85 c0                	test   %eax,%eax
  102d08:	75 07                	jne    102d11 <_ZN7Keyscan10scan2asciiEv+0x17>
  102d0a:	b8 00 00 00 00       	mov    $0x0,%eax
  102d0f:	eb 3a                	jmp    102d4b <_ZN7Keyscan10scan2asciiEv+0x51>
  102d11:	8b 45 08             	mov    0x8(%ebp),%eax
  102d14:	8b 40 04             	mov    0x4(%eax),%eax
  102d17:	8b 00                	mov    (%eax),%eax
  102d19:	83 c0 0c             	add    $0xc,%eax
  102d1c:	8b 00                	mov    (%eax),%eax
  102d1e:	8b 55 08             	mov    0x8(%ebp),%edx
  102d21:	8b 52 04             	mov    0x4(%edx),%edx
  102d24:	89 14 24             	mov    %edx,(%esp)
  102d27:	ff d0                	call   *%eax
  102d29:	88 45 f7             	mov    %al,-0x9(%ebp)
  102d2c:	80 7d f7 00          	cmpb   $0x0,-0x9(%ebp)
  102d30:	74 19                	je     102d4b <_ZN7Keyscan10scan2asciiEv+0x51>
  102d32:	80 7d f7 ff          	cmpb   $0xff,-0x9(%ebp)
  102d36:	74 13                	je     102d4b <_ZN7Keyscan10scan2asciiEv+0x51>
  102d38:	0f be 45 f7          	movsbl -0x9(%ebp),%eax
  102d3c:	89 44 24 04          	mov    %eax,0x4(%esp)
  102d40:	8b 45 08             	mov    0x8(%ebp),%eax
  102d43:	89 04 24             	mov    %eax,(%esp)
  102d46:	e8 2b 00 00 00       	call   102d76 <_ZN7Keyscan10scan2asciiEc>
  102d4b:	c9                   	leave  
  102d4c:	c3                   	ret    
  102d4d:	90                   	nop

00102d4e <_ZN7Keyscan4strmEPKc>:
  102d4e:	55                   	push   %ebp
  102d4f:	89 e5                	mov    %esp,%ebp
  102d51:	83 ec 18             	sub    $0x18,%esp
  102d54:	8b 45 08             	mov    0x8(%ebp),%eax
  102d57:	8b 40 08             	mov    0x8(%eax),%eax
  102d5a:	85 c0                	test   %eax,%eax
  102d5c:	74 15                	je     102d73 <_ZN7Keyscan4strmEPKc+0x25>
  102d5e:	8b 45 08             	mov    0x8(%ebp),%eax
  102d61:	8b 40 08             	mov    0x8(%eax),%eax
  102d64:	8b 55 0c             	mov    0xc(%ebp),%edx
  102d67:	89 54 24 04          	mov    %edx,0x4(%esp)
  102d6b:	89 04 24             	mov    %eax,(%esp)
  102d6e:	e8 6d de ff ff       	call   100be0 <_ZN5Print5printEPKc>
  102d73:	c9                   	leave  
  102d74:	c3                   	ret    
  102d75:	90                   	nop

00102d76 <_ZN7Keyscan10scan2asciiEc>:
  102d76:	55                   	push   %ebp
  102d77:	89 e5                	mov    %esp,%ebp
  102d79:	83 ec 28             	sub    $0x28,%esp
  102d7c:	8b 45 0c             	mov    0xc(%ebp),%eax
  102d7f:	88 45 e4             	mov    %al,-0x1c(%ebp)
  102d82:	c7 45 ec 00 00 00 00 	movl   $0x0,-0x14(%ebp)
  102d89:	c7 45 f4 00 00 00 00 	movl   $0x0,-0xc(%ebp)
  102d90:	c7 45 e8 00 00 00 00 	movl   $0x0,-0x18(%ebp)
  102d97:	c7 45 f0 00 00 00 00 	movl   $0x0,-0x10(%ebp)
  102d9e:	80 7d e4 00          	cmpb   $0x0,-0x1c(%ebp)
  102da2:	79 0b                	jns    102daf <_ZN7Keyscan10scan2asciiEc+0x39>
  102da4:	c7 45 f4 01 00 00 00 	movl   $0x1,-0xc(%ebp)
  102dab:	80 65 e4 7f          	andb   $0x7f,-0x1c(%ebp)
  102daf:	0f be 55 e4          	movsbl -0x1c(%ebp),%edx
  102db3:	b8 58 00 00 00       	mov    $0x58,%eax
  102db8:	39 c2                	cmp    %eax,%edx
  102dba:	72 0a                	jb     102dc6 <_ZN7Keyscan10scan2asciiEc+0x50>
  102dbc:	b8 ff ff ff ff       	mov    $0xffffffff,%eax
  102dc1:	e9 df 02 00 00       	jmp    1030a5 <_ZN7Keyscan10scan2asciiEc+0x32f>
  102dc6:	8b 45 08             	mov    0x8(%ebp),%eax
  102dc9:	8b 00                	mov    (%eax),%eax
  102dcb:	83 e0 03             	and    $0x3,%eax
  102dce:	85 c0                	test   %eax,%eax
  102dd0:	0f 95 c0             	setne  %al
  102dd3:	0f b6 c0             	movzbl %al,%eax
  102dd6:	89 45 ec             	mov    %eax,-0x14(%ebp)
  102dd9:	83 7d ec 00          	cmpl   $0x0,-0x14(%ebp)
  102ddd:	74 11                	je     102df0 <_ZN7Keyscan10scan2asciiEc+0x7a>
  102ddf:	0f be 45 e4          	movsbl -0x1c(%ebp),%eax
  102de3:	0f b7 84 00 e0 89 10 	movzwl 0x1089e0(%eax,%eax,1),%eax
  102dea:	00 
  102deb:	0f b7 c0             	movzwl %ax,%eax
  102dee:	eb 0f                	jmp    102dff <_ZN7Keyscan10scan2asciiEc+0x89>
  102df0:	0f be 45 e4          	movsbl -0x1c(%ebp),%eax
  102df4:	0f b7 84 00 20 89 10 	movzwl 0x108920(%eax,%eax,1),%eax
  102dfb:	00 
  102dfc:	0f b7 c0             	movzwl %ax,%eax
  102dff:	89 45 e8             	mov    %eax,-0x18(%ebp)
  102e02:	8b 45 e8             	mov    -0x18(%ebp),%eax
  102e05:	2d 0d 01 00 00       	sub    $0x10d,%eax
  102e0a:	83 f8 05             	cmp    $0x5,%eax
  102e0d:	77 70                	ja     102e7f <_ZN7Keyscan10scan2asciiEc+0x109>
  102e0f:	8b 04 85 c0 88 10 00 	mov    0x1088c0(,%eax,4),%eax
  102e16:	ff e0                	jmp    *%eax
  102e18:	c7 45 f0 01 00 00 00 	movl   $0x1,-0x10(%ebp)
  102e1f:	eb 2c                	jmp    102e4d <_ZN7Keyscan10scan2asciiEc+0xd7>
  102e21:	c7 45 f0 02 00 00 00 	movl   $0x2,-0x10(%ebp)
  102e28:	eb 23                	jmp    102e4d <_ZN7Keyscan10scan2asciiEc+0xd7>
  102e2a:	c7 45 f0 04 00 00 00 	movl   $0x4,-0x10(%ebp)
  102e31:	eb 1a                	jmp    102e4d <_ZN7Keyscan10scan2asciiEc+0xd7>
  102e33:	c7 45 f0 08 00 00 00 	movl   $0x8,-0x10(%ebp)
  102e3a:	eb 11                	jmp    102e4d <_ZN7Keyscan10scan2asciiEc+0xd7>
  102e3c:	c7 45 f0 10 00 00 00 	movl   $0x10,-0x10(%ebp)
  102e43:	eb 08                	jmp    102e4d <_ZN7Keyscan10scan2asciiEc+0xd7>
  102e45:	c7 45 f0 20 00 00 00 	movl   $0x20,-0x10(%ebp)
  102e4c:	90                   	nop
  102e4d:	83 7d f4 00          	cmpl   $0x0,-0xc(%ebp)
  102e51:	74 13                	je     102e66 <_ZN7Keyscan10scan2asciiEc+0xf0>
  102e53:	8b 45 08             	mov    0x8(%ebp),%eax
  102e56:	8b 00                	mov    (%eax),%eax
  102e58:	8b 55 f0             	mov    -0x10(%ebp),%edx
  102e5b:	f7 d2                	not    %edx
  102e5d:	21 c2                	and    %eax,%edx
  102e5f:	8b 45 08             	mov    0x8(%ebp),%eax
  102e62:	89 10                	mov    %edx,(%eax)
  102e64:	eb 0f                	jmp    102e75 <_ZN7Keyscan10scan2asciiEc+0xff>
  102e66:	8b 45 08             	mov    0x8(%ebp),%eax
  102e69:	8b 00                	mov    (%eax),%eax
  102e6b:	0b 45 f0             	or     -0x10(%ebp),%eax
  102e6e:	89 c2                	mov    %eax,%edx
  102e70:	8b 45 08             	mov    0x8(%ebp),%eax
  102e73:	89 10                	mov    %edx,(%eax)
  102e75:	b8 00 00 00 00       	mov    $0x0,%eax
  102e7a:	e9 26 02 00 00       	jmp    1030a5 <_ZN7Keyscan10scan2asciiEc+0x32f>
  102e7f:	90                   	nop
  102e80:	83 7d e8 00          	cmpl   $0x0,-0x18(%ebp)
  102e84:	75 0a                	jne    102e90 <_ZN7Keyscan10scan2asciiEc+0x11a>
  102e86:	b8 00 00 00 00       	mov    $0x0,%eax
  102e8b:	e9 15 02 00 00       	jmp    1030a5 <_ZN7Keyscan10scan2asciiEc+0x32f>
  102e90:	83 7d f4 00          	cmpl   $0x0,-0xc(%ebp)
  102e94:	0f 85 06 02 00 00    	jne    1030a0 <_ZN7Keyscan10scan2asciiEc+0x32a>
  102e9a:	8b 45 e8             	mov    -0x18(%ebp),%eax
  102e9d:	2d 80 03 00 00       	sub    $0x380,%eax
  102ea2:	83 f8 0c             	cmp    $0xc,%eax
  102ea5:	0f 87 c7 01 00 00    	ja     103072 <_ZN7Keyscan10scan2asciiEc+0x2fc>
  102eab:	8b 04 85 d8 88 10 00 	mov    0x1088d8(,%eax,4),%eax
  102eb2:	ff e0                	jmp    *%eax
  102eb4:	8b 45 08             	mov    0x8(%ebp),%eax
  102eb7:	8b 40 08             	mov    0x8(%eax),%eax
  102eba:	85 c0                	test   %eax,%eax
  102ebc:	74 57                	je     102f15 <_ZN7Keyscan10scan2asciiEc+0x19f>
  102ebe:	8b 45 08             	mov    0x8(%ebp),%eax
  102ec1:	8b 40 08             	mov    0x8(%eax),%eax
  102ec4:	8b 00                	mov    (%eax),%eax
  102ec6:	8b 00                	mov    (%eax),%eax
  102ec8:	8b 55 08             	mov    0x8(%ebp),%edx
  102ecb:	8b 52 08             	mov    0x8(%edx),%edx
  102ece:	c7 44 24 04 1b 00 00 	movl   $0x1b,0x4(%esp)
  102ed5:	00 
  102ed6:	89 14 24             	mov    %edx,(%esp)
  102ed9:	ff d0                	call   *%eax
  102edb:	8b 45 08             	mov    0x8(%ebp),%eax
  102ede:	8b 40 08             	mov    0x8(%eax),%eax
  102ee1:	8b 00                	mov    (%eax),%eax
  102ee3:	8b 00                	mov    (%eax),%eax
  102ee5:	8b 55 08             	mov    0x8(%ebp),%edx
  102ee8:	8b 52 08             	mov    0x8(%edx),%edx
  102eeb:	c7 44 24 04 5b 00 00 	movl   $0x5b,0x4(%esp)
  102ef2:	00 
  102ef3:	89 14 24             	mov    %edx,(%esp)
  102ef6:	ff d0                	call   *%eax
  102ef8:	8b 45 08             	mov    0x8(%ebp),%eax
  102efb:	8b 40 08             	mov    0x8(%eax),%eax
  102efe:	8b 00                	mov    (%eax),%eax
  102f00:	8b 00                	mov    (%eax),%eax
  102f02:	8b 55 08             	mov    0x8(%ebp),%edx
  102f05:	8b 52 08             	mov    0x8(%edx),%edx
  102f08:	c7 44 24 04 41 00 00 	movl   $0x41,0x4(%esp)
  102f0f:	00 
  102f10:	89 14 24             	mov    %edx,(%esp)
  102f13:	ff d0                	call   *%eax
  102f15:	b8 00 00 00 00       	mov    $0x0,%eax
  102f1a:	e9 86 01 00 00       	jmp    1030a5 <_ZN7Keyscan10scan2asciiEc+0x32f>
  102f1f:	8b 45 08             	mov    0x8(%ebp),%eax
  102f22:	8b 40 08             	mov    0x8(%eax),%eax
  102f25:	85 c0                	test   %eax,%eax
  102f27:	74 57                	je     102f80 <_ZN7Keyscan10scan2asciiEc+0x20a>
  102f29:	8b 45 08             	mov    0x8(%ebp),%eax
  102f2c:	8b 40 08             	mov    0x8(%eax),%eax
  102f2f:	8b 00                	mov    (%eax),%eax
  102f31:	8b 00                	mov    (%eax),%eax
  102f33:	8b 55 08             	mov    0x8(%ebp),%edx
  102f36:	8b 52 08             	mov    0x8(%edx),%edx
  102f39:	c7 44 24 04 1b 00 00 	movl   $0x1b,0x4(%esp)
  102f40:	00 
  102f41:	89 14 24             	mov    %edx,(%esp)
  102f44:	ff d0                	call   *%eax
  102f46:	8b 45 08             	mov    0x8(%ebp),%eax
  102f49:	8b 40 08             	mov    0x8(%eax),%eax
  102f4c:	8b 00                	mov    (%eax),%eax
  102f4e:	8b 00                	mov    (%eax),%eax
  102f50:	8b 55 08             	mov    0x8(%ebp),%edx
  102f53:	8b 52 08             	mov    0x8(%edx),%edx
  102f56:	c7 44 24 04 5b 00 00 	movl   $0x5b,0x4(%esp)
  102f5d:	00 
  102f5e:	89 14 24             	mov    %edx,(%esp)
  102f61:	ff d0                	call   *%eax
  102f63:	8b 45 08             	mov    0x8(%ebp),%eax
  102f66:	8b 40 08             	mov    0x8(%eax),%eax
  102f69:	8b 00                	mov    (%eax),%eax
  102f6b:	8b 00                	mov    (%eax),%eax
  102f6d:	8b 55 08             	mov    0x8(%ebp),%edx
  102f70:	8b 52 08             	mov    0x8(%edx),%edx
  102f73:	c7 44 24 04 44 00 00 	movl   $0x44,0x4(%esp)
  102f7a:	00 
  102f7b:	89 14 24             	mov    %edx,(%esp)
  102f7e:	ff d0                	call   *%eax
  102f80:	b8 00 00 00 00       	mov    $0x0,%eax
  102f85:	e9 1b 01 00 00       	jmp    1030a5 <_ZN7Keyscan10scan2asciiEc+0x32f>
  102f8a:	8b 45 08             	mov    0x8(%ebp),%eax
  102f8d:	8b 40 08             	mov    0x8(%eax),%eax
  102f90:	85 c0                	test   %eax,%eax
  102f92:	74 57                	je     102feb <_ZN7Keyscan10scan2asciiEc+0x275>
  102f94:	8b 45 08             	mov    0x8(%ebp),%eax
  102f97:	8b 40 08             	mov    0x8(%eax),%eax
  102f9a:	8b 00                	mov    (%eax),%eax
  102f9c:	8b 00                	mov    (%eax),%eax
  102f9e:	8b 55 08             	mov    0x8(%ebp),%edx
  102fa1:	8b 52 08             	mov    0x8(%edx),%edx
  102fa4:	c7 44 24 04 1b 00 00 	movl   $0x1b,0x4(%esp)
  102fab:	00 
  102fac:	89 14 24             	mov    %edx,(%esp)
  102faf:	ff d0                	call   *%eax
  102fb1:	8b 45 08             	mov    0x8(%ebp),%eax
  102fb4:	8b 40 08             	mov    0x8(%eax),%eax
  102fb7:	8b 00                	mov    (%eax),%eax
  102fb9:	8b 00                	mov    (%eax),%eax
  102fbb:	8b 55 08             	mov    0x8(%ebp),%edx
  102fbe:	8b 52 08             	mov    0x8(%edx),%edx
  102fc1:	c7 44 24 04 5b 00 00 	movl   $0x5b,0x4(%esp)
  102fc8:	00 
  102fc9:	89 14 24             	mov    %edx,(%esp)
  102fcc:	ff d0                	call   *%eax
  102fce:	8b 45 08             	mov    0x8(%ebp),%eax
  102fd1:	8b 40 08             	mov    0x8(%eax),%eax
  102fd4:	8b 00                	mov    (%eax),%eax
  102fd6:	8b 00                	mov    (%eax),%eax
  102fd8:	8b 55 08             	mov    0x8(%ebp),%edx
  102fdb:	8b 52 08             	mov    0x8(%edx),%edx
  102fde:	c7 44 24 04 42 00 00 	movl   $0x42,0x4(%esp)
  102fe5:	00 
  102fe6:	89 14 24             	mov    %edx,(%esp)
  102fe9:	ff d0                	call   *%eax
  102feb:	b8 00 00 00 00       	mov    $0x0,%eax
  102ff0:	e9 b0 00 00 00       	jmp    1030a5 <_ZN7Keyscan10scan2asciiEc+0x32f>
  102ff5:	8b 45 08             	mov    0x8(%ebp),%eax
  102ff8:	8b 40 08             	mov    0x8(%eax),%eax
  102ffb:	85 c0                	test   %eax,%eax
  102ffd:	74 57                	je     103056 <_ZN7Keyscan10scan2asciiEc+0x2e0>
  102fff:	8b 45 08             	mov    0x8(%ebp),%eax
  103002:	8b 40 08             	mov    0x8(%eax),%eax
  103005:	8b 00                	mov    (%eax),%eax
  103007:	8b 00                	mov    (%eax),%eax
  103009:	8b 55 08             	mov    0x8(%ebp),%edx
  10300c:	8b 52 08             	mov    0x8(%edx),%edx
  10300f:	c7 44 24 04 1b 00 00 	movl   $0x1b,0x4(%esp)
  103016:	00 
  103017:	89 14 24             	mov    %edx,(%esp)
  10301a:	ff d0                	call   *%eax
  10301c:	8b 45 08             	mov    0x8(%ebp),%eax
  10301f:	8b 40 08             	mov    0x8(%eax),%eax
  103022:	8b 00                	mov    (%eax),%eax
  103024:	8b 00                	mov    (%eax),%eax
  103026:	8b 55 08             	mov    0x8(%ebp),%edx
  103029:	8b 52 08             	mov    0x8(%edx),%edx
  10302c:	c7 44 24 04 5b 00 00 	movl   $0x5b,0x4(%esp)
  103033:	00 
  103034:	89 14 24             	mov    %edx,(%esp)
  103037:	ff d0                	call   *%eax
  103039:	8b 45 08             	mov    0x8(%ebp),%eax
  10303c:	8b 40 08             	mov    0x8(%eax),%eax
  10303f:	8b 00                	mov    (%eax),%eax
  103041:	8b 00                	mov    (%eax),%eax
  103043:	8b 55 08             	mov    0x8(%ebp),%edx
  103046:	8b 52 08             	mov    0x8(%edx),%edx
  103049:	c7 44 24 04 43 00 00 	movl   $0x43,0x4(%esp)
  103050:	00 
  103051:	89 14 24             	mov    %edx,(%esp)
  103054:	ff d0                	call   *%eax
  103056:	b8 00 00 00 00       	mov    $0x0,%eax
  10305b:	eb 48                	jmp    1030a5 <_ZN7Keyscan10scan2asciiEc+0x32f>
  10305d:	b8 00 00 00 00       	mov    $0x0,%eax
  103062:	eb 41                	jmp    1030a5 <_ZN7Keyscan10scan2asciiEc+0x32f>
  103064:	b8 00 00 00 00       	mov    $0x0,%eax
  103069:	eb 3a                	jmp    1030a5 <_ZN7Keyscan10scan2asciiEc+0x32f>
  10306b:	b8 00 00 00 00       	mov    $0x0,%eax
  103070:	eb 33                	jmp    1030a5 <_ZN7Keyscan10scan2asciiEc+0x32f>
  103072:	8b 45 08             	mov    0x8(%ebp),%eax
  103075:	8b 40 08             	mov    0x8(%eax),%eax
  103078:	85 c0                	test   %eax,%eax
  10307a:	74 1f                	je     10309b <_ZN7Keyscan10scan2asciiEc+0x325>
  10307c:	8b 45 08             	mov    0x8(%ebp),%eax
  10307f:	8b 40 08             	mov    0x8(%eax),%eax
  103082:	8b 00                	mov    (%eax),%eax
  103084:	8b 00                	mov    (%eax),%eax
  103086:	8b 55 e8             	mov    -0x18(%ebp),%edx
  103089:	0f b6 ca             	movzbl %dl,%ecx
  10308c:	8b 55 08             	mov    0x8(%ebp),%edx
  10308f:	8b 52 08             	mov    0x8(%edx),%edx
  103092:	89 4c 24 04          	mov    %ecx,0x4(%esp)
  103096:	89 14 24             	mov    %edx,(%esp)
  103099:	ff d0                	call   *%eax
  10309b:	8b 45 e8             	mov    -0x18(%ebp),%eax
  10309e:	eb 05                	jmp    1030a5 <_ZN7Keyscan10scan2asciiEc+0x32f>
  1030a0:	b8 00 00 00 00       	mov    $0x0,%eax
  1030a5:	c9                   	leave  
  1030a6:	c3                   	ret    
  1030a7:	90                   	nop

001030a8 <_ZL4outbth>:
  1030a8:	55                   	push   %ebp
  1030a9:	89 e5                	mov    %esp,%ebp
  1030ab:	83 ec 08             	sub    $0x8,%esp
  1030ae:	8b 55 08             	mov    0x8(%ebp),%edx
  1030b1:	8b 45 0c             	mov    0xc(%ebp),%eax
  1030b4:	66 89 55 fc          	mov    %dx,-0x4(%ebp)
  1030b8:	88 45 f8             	mov    %al,-0x8(%ebp)
  1030bb:	0f b7 55 fc          	movzwl -0x4(%ebp),%edx
  1030bf:	0f b6 45 f8          	movzbl -0x8(%ebp),%eax
  1030c3:	ee                   	out    %al,(%dx)
  1030c4:	c9                   	leave  
  1030c5:	c3                   	ret    

001030c6 <_ZL3inbt>:
  1030c6:	55                   	push   %ebp
  1030c7:	89 e5                	mov    %esp,%ebp
  1030c9:	83 ec 14             	sub    $0x14,%esp
  1030cc:	8b 45 08             	mov    0x8(%ebp),%eax
  1030cf:	66 89 45 ec          	mov    %ax,-0x14(%ebp)
  1030d3:	0f b7 45 ec          	movzwl -0x14(%ebp),%eax
  1030d7:	89 c2                	mov    %eax,%edx
  1030d9:	ec                   	in     (%dx),%al
  1030da:	88 45 ff             	mov    %al,-0x1(%ebp)
  1030dd:	0f b6 45 ff          	movzbl -0x1(%ebp),%eax
  1030e1:	c9                   	leave  
  1030e2:	c3                   	ret    

001030e3 <_ZL29platform_abstract_irq_handlerP14interrupt_info>:
  1030e3:	55                   	push   %ebp
  1030e4:	89 e5                	mov    %esp,%ebp
  1030e6:	83 ec 08             	sub    $0x8,%esp
  1030e9:	8b 45 08             	mov    0x8(%ebp),%eax
  1030ec:	8b 40 24             	mov    0x24(%eax),%eax
  1030ef:	83 f8 27             	cmp    $0x27,%eax
  1030f2:	76 14                	jbe    103108 <_ZL29platform_abstract_irq_handlerP14interrupt_info+0x25>
  1030f4:	c7 44 24 04 20 00 00 	movl   $0x20,0x4(%esp)
  1030fb:	00 
  1030fc:	c7 04 24 a0 00 00 00 	movl   $0xa0,(%esp)
  103103:	e8 a0 ff ff ff       	call   1030a8 <_ZL4outbth>
  103108:	8b 45 08             	mov    0x8(%ebp),%eax
  10310b:	8b 40 24             	mov    0x24(%eax),%eax
  10310e:	83 f8 1f             	cmp    $0x1f,%eax
  103111:	76 14                	jbe    103127 <_ZL29platform_abstract_irq_handlerP14interrupt_info+0x44>
  103113:	c7 44 24 04 20 00 00 	movl   $0x20,0x4(%esp)
  10311a:	00 
  10311b:	c7 04 24 20 00 00 00 	movl   $0x20,(%esp)
  103122:	e8 81 ff ff ff       	call   1030a8 <_ZL4outbth>
  103127:	c9                   	leave  
  103128:	c3                   	ret    
  103129:	90                   	nop

0010312a <_ZN9VideoPageC1Ejjj>:
  10312a:	55                   	push   %ebp
  10312b:	89 e5                	mov    %esp,%ebp
  10312d:	83 ec 18             	sub    $0x18,%esp
  103130:	8b 45 14             	mov    0x14(%ebp),%eax
  103133:	89 44 24 0c          	mov    %eax,0xc(%esp)
  103137:	8b 45 10             	mov    0x10(%ebp),%eax
  10313a:	89 44 24 08          	mov    %eax,0x8(%esp)
  10313e:	8b 45 0c             	mov    0xc(%ebp),%eax
  103141:	89 44 24 04          	mov    %eax,0x4(%esp)
  103145:	8b 45 08             	mov    0x8(%ebp),%eax
  103148:	89 04 24             	mov    %eax,(%esp)
  10314b:	e8 02 00 00 00       	call   103152 <_ZN9VideoPage4initEjjj>
  103150:	c9                   	leave  
  103151:	c3                   	ret    

00103152 <_ZN9VideoPage4initEjjj>:
  103152:	55                   	push   %ebp
  103153:	89 e5                	mov    %esp,%ebp
  103155:	8b 55 0c             	mov    0xc(%ebp),%edx
  103158:	8b 45 08             	mov    0x8(%ebp),%eax
  10315b:	89 10                	mov    %edx,(%eax)
  10315d:	8b 45 08             	mov    0x8(%ebp),%eax
  103160:	8b 55 10             	mov    0x10(%ebp),%edx
  103163:	89 50 04             	mov    %edx,0x4(%eax)
  103166:	8b 45 08             	mov    0x8(%ebp),%eax
  103169:	8b 55 14             	mov    0x14(%ebp),%edx
  10316c:	89 50 08             	mov    %edx,0x8(%eax)
  10316f:	5d                   	pop    %ebp
  103170:	c3                   	ret    
  103171:	90                   	nop

00103172 <_ZN9VideoPage7putcharEjjc>:
  103172:	55                   	push   %ebp
  103173:	89 e5                	mov    %esp,%ebp
  103175:	83 ec 04             	sub    $0x4,%esp
  103178:	8b 45 14             	mov    0x14(%ebp),%eax
  10317b:	88 45 fc             	mov    %al,-0x4(%ebp)
  10317e:	8b 45 08             	mov    0x8(%ebp),%eax
  103181:	8b 40 04             	mov    0x4(%eax),%eax
  103184:	3b 45 0c             	cmp    0xc(%ebp),%eax
  103187:	76 2b                	jbe    1031b4 <_ZN9VideoPage7putcharEjjc+0x42>
  103189:	8b 45 08             	mov    0x8(%ebp),%eax
  10318c:	8b 40 08             	mov    0x8(%eax),%eax
  10318f:	3b 45 10             	cmp    0x10(%ebp),%eax
  103192:	76 20                	jbe    1031b4 <_ZN9VideoPage7putcharEjjc+0x42>
  103194:	8b 45 08             	mov    0x8(%ebp),%eax
  103197:	8b 10                	mov    (%eax),%edx
  103199:	8b 45 08             	mov    0x8(%ebp),%eax
  10319c:	8b 40 04             	mov    0x4(%eax),%eax
  10319f:	0f af 45 10          	imul   0x10(%ebp),%eax
  1031a3:	89 c1                	mov    %eax,%ecx
  1031a5:	8b 45 0c             	mov    0xc(%ebp),%eax
  1031a8:	01 c8                	add    %ecx,%eax
  1031aa:	01 c0                	add    %eax,%eax
  1031ac:	01 c2                	add    %eax,%edx
  1031ae:	0f b6 45 fc          	movzbl -0x4(%ebp),%eax
  1031b2:	88 02                	mov    %al,(%edx)
  1031b4:	c9                   	leave  
  1031b5:	c3                   	ret    

001031b6 <_ZN9VideoPage7putcharEjjcc>:
  1031b6:	55                   	push   %ebp
  1031b7:	89 e5                	mov    %esp,%ebp
  1031b9:	83 ec 08             	sub    $0x8,%esp
  1031bc:	8b 55 14             	mov    0x14(%ebp),%edx
  1031bf:	8b 45 18             	mov    0x18(%ebp),%eax
  1031c2:	88 55 fc             	mov    %dl,-0x4(%ebp)
  1031c5:	88 45 f8             	mov    %al,-0x8(%ebp)
  1031c8:	8b 45 08             	mov    0x8(%ebp),%eax
  1031cb:	8b 40 04             	mov    0x4(%eax),%eax
  1031ce:	3b 45 0c             	cmp    0xc(%ebp),%eax
  1031d1:	76 4c                	jbe    10321f <_ZN9VideoPage7putcharEjjcc+0x69>
  1031d3:	8b 45 08             	mov    0x8(%ebp),%eax
  1031d6:	8b 40 08             	mov    0x8(%eax),%eax
  1031d9:	3b 45 10             	cmp    0x10(%ebp),%eax
  1031dc:	76 41                	jbe    10321f <_ZN9VideoPage7putcharEjjcc+0x69>
  1031de:	8b 45 08             	mov    0x8(%ebp),%eax
  1031e1:	8b 10                	mov    (%eax),%edx
  1031e3:	8b 45 08             	mov    0x8(%ebp),%eax
  1031e6:	8b 40 04             	mov    0x4(%eax),%eax
  1031e9:	0f af 45 10          	imul   0x10(%ebp),%eax
  1031ed:	89 c1                	mov    %eax,%ecx
  1031ef:	8b 45 0c             	mov    0xc(%ebp),%eax
  1031f2:	01 c8                	add    %ecx,%eax
  1031f4:	01 c0                	add    %eax,%eax
  1031f6:	01 c2                	add    %eax,%edx
  1031f8:	0f b6 45 fc          	movzbl -0x4(%ebp),%eax
  1031fc:	88 02                	mov    %al,(%edx)
  1031fe:	8b 45 08             	mov    0x8(%ebp),%eax
  103201:	8b 10                	mov    (%eax),%edx
  103203:	8b 45 08             	mov    0x8(%ebp),%eax
  103206:	8b 40 04             	mov    0x4(%eax),%eax
  103209:	0f af 45 10          	imul   0x10(%ebp),%eax
  10320d:	89 c1                	mov    %eax,%ecx
  10320f:	8b 45 0c             	mov    0xc(%ebp),%eax
  103212:	01 c8                	add    %ecx,%eax
  103214:	01 c0                	add    %eax,%eax
  103216:	01 c2                	add    %eax,%edx
  103218:	0f b6 45 f8          	movzbl -0x8(%ebp),%eax
  10321c:	88 42 01             	mov    %al,0x1(%edx)
  10321f:	c9                   	leave  
  103220:	c3                   	ret    
  103221:	90                   	nop

00103222 <_ZN9VideoPage8putcolorEjjc>:
  103222:	55                   	push   %ebp
  103223:	89 e5                	mov    %esp,%ebp
  103225:	83 ec 04             	sub    $0x4,%esp
  103228:	8b 45 14             	mov    0x14(%ebp),%eax
  10322b:	88 45 fc             	mov    %al,-0x4(%ebp)
  10322e:	8b 45 08             	mov    0x8(%ebp),%eax
  103231:	8b 40 04             	mov    0x4(%eax),%eax
  103234:	3b 45 0c             	cmp    0xc(%ebp),%eax
  103237:	76 2c                	jbe    103265 <_ZN9VideoPage8putcolorEjjc+0x43>
  103239:	8b 45 08             	mov    0x8(%ebp),%eax
  10323c:	8b 40 08             	mov    0x8(%eax),%eax
  10323f:	3b 45 10             	cmp    0x10(%ebp),%eax
  103242:	76 21                	jbe    103265 <_ZN9VideoPage8putcolorEjjc+0x43>
  103244:	8b 45 08             	mov    0x8(%ebp),%eax
  103247:	8b 10                	mov    (%eax),%edx
  103249:	8b 45 08             	mov    0x8(%ebp),%eax
  10324c:	8b 40 04             	mov    0x4(%eax),%eax
  10324f:	0f af 45 10          	imul   0x10(%ebp),%eax
  103253:	89 c1                	mov    %eax,%ecx
  103255:	8b 45 0c             	mov    0xc(%ebp),%eax
  103258:	01 c8                	add    %ecx,%eax
  10325a:	01 c0                	add    %eax,%eax
  10325c:	01 c2                	add    %eax,%edx
  10325e:	0f b6 45 fc          	movzbl -0x4(%ebp),%eax
  103262:	88 42 01             	mov    %al,0x1(%edx)
  103265:	c9                   	leave  
  103266:	c3                   	ret    
  103267:	90                   	nop

00103268 <_ZN9VideoPage7charcpyEiiii>:
  103268:	55                   	push   %ebp
  103269:	89 e5                	mov    %esp,%ebp
  10326b:	53                   	push   %ebx
  10326c:	83 ec 10             	sub    $0x10,%esp
  10326f:	c6 45 fa 00          	movb   $0x0,-0x6(%ebp)
  103273:	c6 45 fb 00          	movb   $0x0,-0x5(%ebp)
  103277:	8b 55 0c             	mov    0xc(%ebp),%edx
  10327a:	8b 45 08             	mov    0x8(%ebp),%eax
  10327d:	8b 40 04             	mov    0x4(%eax),%eax
  103280:	39 c2                	cmp    %eax,%edx
  103282:	73 3a                	jae    1032be <_ZN9VideoPage7charcpyEiiii+0x56>
  103284:	8b 55 10             	mov    0x10(%ebp),%edx
  103287:	8b 45 08             	mov    0x8(%ebp),%eax
  10328a:	8b 40 08             	mov    0x8(%eax),%eax
  10328d:	39 c2                	cmp    %eax,%edx
  10328f:	73 2d                	jae    1032be <_ZN9VideoPage7charcpyEiiii+0x56>
  103291:	83 7d 0c 00          	cmpl   $0x0,0xc(%ebp)
  103295:	78 27                	js     1032be <_ZN9VideoPage7charcpyEiiii+0x56>
  103297:	83 7d 10 00          	cmpl   $0x0,0x10(%ebp)
  10329b:	78 21                	js     1032be <_ZN9VideoPage7charcpyEiiii+0x56>
  10329d:	8b 45 08             	mov    0x8(%ebp),%eax
  1032a0:	8b 10                	mov    (%eax),%edx
  1032a2:	8b 45 08             	mov    0x8(%ebp),%eax
  1032a5:	8b 48 04             	mov    0x4(%eax),%ecx
  1032a8:	8b 45 10             	mov    0x10(%ebp),%eax
  1032ab:	0f af c8             	imul   %eax,%ecx
  1032ae:	8b 45 0c             	mov    0xc(%ebp),%eax
  1032b1:	01 c8                	add    %ecx,%eax
  1032b3:	01 c0                	add    %eax,%eax
  1032b5:	01 d0                	add    %edx,%eax
  1032b7:	0f b7 00             	movzwl (%eax),%eax
  1032ba:	66 89 45 fa          	mov    %ax,-0x6(%ebp)
  1032be:	8b 45 14             	mov    0x14(%ebp),%eax
  1032c1:	8b 55 0c             	mov    0xc(%ebp),%edx
  1032c4:	01 d0                	add    %edx,%eax
  1032c6:	89 c2                	mov    %eax,%edx
  1032c8:	8b 45 08             	mov    0x8(%ebp),%eax
  1032cb:	8b 40 04             	mov    0x4(%eax),%eax
  1032ce:	39 c2                	cmp    %eax,%edx
  1032d0:	73 5a                	jae    10332c <_ZN9VideoPage7charcpyEiiii+0xc4>
  1032d2:	8b 45 18             	mov    0x18(%ebp),%eax
  1032d5:	8b 55 10             	mov    0x10(%ebp),%edx
  1032d8:	01 d0                	add    %edx,%eax
  1032da:	89 c2                	mov    %eax,%edx
  1032dc:	8b 45 08             	mov    0x8(%ebp),%eax
  1032df:	8b 40 08             	mov    0x8(%eax),%eax
  1032e2:	39 c2                	cmp    %eax,%edx
  1032e4:	73 46                	jae    10332c <_ZN9VideoPage7charcpyEiiii+0xc4>
  1032e6:	8b 45 14             	mov    0x14(%ebp),%eax
  1032e9:	8b 55 0c             	mov    0xc(%ebp),%edx
  1032ec:	01 d0                	add    %edx,%eax
  1032ee:	85 c0                	test   %eax,%eax
  1032f0:	78 3a                	js     10332c <_ZN9VideoPage7charcpyEiiii+0xc4>
  1032f2:	8b 45 18             	mov    0x18(%ebp),%eax
  1032f5:	8b 55 10             	mov    0x10(%ebp),%edx
  1032f8:	01 d0                	add    %edx,%eax
  1032fa:	85 c0                	test   %eax,%eax
  1032fc:	78 2e                	js     10332c <_ZN9VideoPage7charcpyEiiii+0xc4>
  1032fe:	8b 45 08             	mov    0x8(%ebp),%eax
  103301:	8b 10                	mov    (%eax),%edx
  103303:	8b 4d 0c             	mov    0xc(%ebp),%ecx
  103306:	8b 45 14             	mov    0x14(%ebp),%eax
  103309:	8d 1c 01             	lea    (%ecx,%eax,1),%ebx
  10330c:	8b 45 18             	mov    0x18(%ebp),%eax
  10330f:	8b 4d 10             	mov    0x10(%ebp),%ecx
  103312:	01 c8                	add    %ecx,%eax
  103314:	89 c1                	mov    %eax,%ecx
  103316:	8b 45 08             	mov    0x8(%ebp),%eax
  103319:	8b 40 04             	mov    0x4(%eax),%eax
  10331c:	0f af c1             	imul   %ecx,%eax
  10331f:	01 d8                	add    %ebx,%eax
  103321:	01 c0                	add    %eax,%eax
  103323:	01 c2                	add    %eax,%edx
  103325:	0f b7 45 fa          	movzwl -0x6(%ebp),%eax
  103329:	66 89 02             	mov    %ax,(%edx)
  10332c:	83 c4 10             	add    $0x10,%esp
  10332f:	5b                   	pop    %ebx
  103330:	5d                   	pop    %ebp
  103331:	c3                   	ret    

00103332 <_ZN9VideoPage6boxcpyEiiiiii>:
  103332:	55                   	push   %ebp
  103333:	89 e5                	mov    %esp,%ebp
  103335:	83 ec 34             	sub    $0x34,%esp
  103338:	83 7d 20 00          	cmpl   $0x0,0x20(%ebp)
  10333c:	0f 88 aa 00 00 00    	js     1033ec <_ZN9VideoPage6boxcpyEiiiiii+0xba>
  103342:	83 7d 1c 00          	cmpl   $0x0,0x1c(%ebp)
  103346:	78 4f                	js     103397 <_ZN9VideoPage6boxcpyEiiiiii+0x65>
  103348:	8b 45 14             	mov    0x14(%ebp),%eax
  10334b:	89 45 fc             	mov    %eax,-0x4(%ebp)
  10334e:	eb 3f                	jmp    10338f <_ZN9VideoPage6boxcpyEiiiiii+0x5d>
  103350:	8b 45 18             	mov    0x18(%ebp),%eax
  103353:	89 45 f8             	mov    %eax,-0x8(%ebp)
  103356:	eb 2b                	jmp    103383 <_ZN9VideoPage6boxcpyEiiiiii+0x51>
  103358:	8b 45 20             	mov    0x20(%ebp),%eax
  10335b:	89 44 24 10          	mov    %eax,0x10(%esp)
  10335f:	8b 45 1c             	mov    0x1c(%ebp),%eax
  103362:	89 44 24 0c          	mov    %eax,0xc(%esp)
  103366:	8b 45 f8             	mov    -0x8(%ebp),%eax
  103369:	89 44 24 08          	mov    %eax,0x8(%esp)
  10336d:	8b 45 fc             	mov    -0x4(%ebp),%eax
  103370:	89 44 24 04          	mov    %eax,0x4(%esp)
  103374:	8b 45 08             	mov    0x8(%ebp),%eax
  103377:	89 04 24             	mov    %eax,(%esp)
  10337a:	e8 e9 fe ff ff       	call   103268 <_ZN9VideoPage7charcpyEiiii>
  10337f:	83 6d f8 01          	subl   $0x1,-0x8(%ebp)
  103383:	8b 45 f8             	mov    -0x8(%ebp),%eax
  103386:	3b 45 10             	cmp    0x10(%ebp),%eax
  103389:	7d cd                	jge    103358 <_ZN9VideoPage6boxcpyEiiiiii+0x26>
  10338b:	83 6d fc 01          	subl   $0x1,-0x4(%ebp)
  10338f:	8b 45 fc             	mov    -0x4(%ebp),%eax
  103392:	3b 45 0c             	cmp    0xc(%ebp),%eax
  103395:	7d b9                	jge    103350 <_ZN9VideoPage6boxcpyEiiiiii+0x1e>
  103397:	83 7d 1c 00          	cmpl   $0x0,0x1c(%ebp)
  10339b:	79 4f                	jns    1033ec <_ZN9VideoPage6boxcpyEiiiiii+0xba>
  10339d:	8b 45 0c             	mov    0xc(%ebp),%eax
  1033a0:	89 45 f4             	mov    %eax,-0xc(%ebp)
  1033a3:	eb 3f                	jmp    1033e4 <_ZN9VideoPage6boxcpyEiiiiii+0xb2>
  1033a5:	8b 45 18             	mov    0x18(%ebp),%eax
  1033a8:	89 45 f0             	mov    %eax,-0x10(%ebp)
  1033ab:	eb 2b                	jmp    1033d8 <_ZN9VideoPage6boxcpyEiiiiii+0xa6>
  1033ad:	8b 45 20             	mov    0x20(%ebp),%eax
  1033b0:	89 44 24 10          	mov    %eax,0x10(%esp)
  1033b4:	8b 45 1c             	mov    0x1c(%ebp),%eax
  1033b7:	89 44 24 0c          	mov    %eax,0xc(%esp)
  1033bb:	8b 45 f0             	mov    -0x10(%ebp),%eax
  1033be:	89 44 24 08          	mov    %eax,0x8(%esp)
  1033c2:	8b 45 f4             	mov    -0xc(%ebp),%eax
  1033c5:	89 44 24 04          	mov    %eax,0x4(%esp)
  1033c9:	8b 45 08             	mov    0x8(%ebp),%eax
  1033cc:	89 04 24             	mov    %eax,(%esp)
  1033cf:	e8 94 fe ff ff       	call   103268 <_ZN9VideoPage7charcpyEiiii>
  1033d4:	83 6d f0 01          	subl   $0x1,-0x10(%ebp)
  1033d8:	8b 45 f0             	mov    -0x10(%ebp),%eax
  1033db:	3b 45 10             	cmp    0x10(%ebp),%eax
  1033de:	7d cd                	jge    1033ad <_ZN9VideoPage6boxcpyEiiiiii+0x7b>
  1033e0:	83 45 f4 01          	addl   $0x1,-0xc(%ebp)
  1033e4:	8b 45 f4             	mov    -0xc(%ebp),%eax
  1033e7:	3b 45 14             	cmp    0x14(%ebp),%eax
  1033ea:	7e b9                	jle    1033a5 <_ZN9VideoPage6boxcpyEiiiiii+0x73>
  1033ec:	83 7d 20 00          	cmpl   $0x0,0x20(%ebp)
  1033f0:	0f 89 aa 00 00 00    	jns    1034a0 <_ZN9VideoPage6boxcpyEiiiiii+0x16e>
  1033f6:	83 7d 1c 00          	cmpl   $0x0,0x1c(%ebp)
  1033fa:	78 4f                	js     10344b <_ZN9VideoPage6boxcpyEiiiiii+0x119>
  1033fc:	8b 45 14             	mov    0x14(%ebp),%eax
  1033ff:	89 45 ec             	mov    %eax,-0x14(%ebp)
  103402:	eb 3f                	jmp    103443 <_ZN9VideoPage6boxcpyEiiiiii+0x111>
  103404:	8b 45 10             	mov    0x10(%ebp),%eax
  103407:	89 45 e8             	mov    %eax,-0x18(%ebp)
  10340a:	eb 2b                	jmp    103437 <_ZN9VideoPage6boxcpyEiiiiii+0x105>
  10340c:	8b 45 20             	mov    0x20(%ebp),%eax
  10340f:	89 44 24 10          	mov    %eax,0x10(%esp)
  103413:	8b 45 1c             	mov    0x1c(%ebp),%eax
  103416:	89 44 24 0c          	mov    %eax,0xc(%esp)
  10341a:	8b 45 e8             	mov    -0x18(%ebp),%eax
  10341d:	89 44 24 08          	mov    %eax,0x8(%esp)
  103421:	8b 45 ec             	mov    -0x14(%ebp),%eax
  103424:	89 44 24 04          	mov    %eax,0x4(%esp)
  103428:	8b 45 08             	mov    0x8(%ebp),%eax
  10342b:	89 04 24             	mov    %eax,(%esp)
  10342e:	e8 35 fe ff ff       	call   103268 <_ZN9VideoPage7charcpyEiiii>
  103433:	83 45 e8 01          	addl   $0x1,-0x18(%ebp)
  103437:	8b 45 e8             	mov    -0x18(%ebp),%eax
  10343a:	3b 45 18             	cmp    0x18(%ebp),%eax
  10343d:	7e cd                	jle    10340c <_ZN9VideoPage6boxcpyEiiiiii+0xda>
  10343f:	83 6d ec 01          	subl   $0x1,-0x14(%ebp)
  103443:	8b 45 ec             	mov    -0x14(%ebp),%eax
  103446:	3b 45 0c             	cmp    0xc(%ebp),%eax
  103449:	7d b9                	jge    103404 <_ZN9VideoPage6boxcpyEiiiiii+0xd2>
  10344b:	83 7d 1c 00          	cmpl   $0x0,0x1c(%ebp)
  10344f:	79 4f                	jns    1034a0 <_ZN9VideoPage6boxcpyEiiiiii+0x16e>
  103451:	8b 45 0c             	mov    0xc(%ebp),%eax
  103454:	89 45 e4             	mov    %eax,-0x1c(%ebp)
  103457:	eb 3f                	jmp    103498 <_ZN9VideoPage6boxcpyEiiiiii+0x166>
  103459:	8b 45 10             	mov    0x10(%ebp),%eax
  10345c:	89 45 e0             	mov    %eax,-0x20(%ebp)
  10345f:	eb 2b                	jmp    10348c <_ZN9VideoPage6boxcpyEiiiiii+0x15a>
  103461:	8b 45 20             	mov    0x20(%ebp),%eax
  103464:	89 44 24 10          	mov    %eax,0x10(%esp)
  103468:	8b 45 1c             	mov    0x1c(%ebp),%eax
  10346b:	89 44 24 0c          	mov    %eax,0xc(%esp)
  10346f:	8b 45 e0             	mov    -0x20(%ebp),%eax
  103472:	89 44 24 08          	mov    %eax,0x8(%esp)
  103476:	8b 45 e4             	mov    -0x1c(%ebp),%eax
  103479:	89 44 24 04          	mov    %eax,0x4(%esp)
  10347d:	8b 45 08             	mov    0x8(%ebp),%eax
  103480:	89 04 24             	mov    %eax,(%esp)
  103483:	e8 e0 fd ff ff       	call   103268 <_ZN9VideoPage7charcpyEiiii>
  103488:	83 45 e0 01          	addl   $0x1,-0x20(%ebp)
  10348c:	8b 45 e0             	mov    -0x20(%ebp),%eax
  10348f:	3b 45 18             	cmp    0x18(%ebp),%eax
  103492:	7e cd                	jle    103461 <_ZN9VideoPage6boxcpyEiiiiii+0x12f>
  103494:	83 45 e4 01          	addl   $0x1,-0x1c(%ebp)
  103498:	8b 45 e4             	mov    -0x1c(%ebp),%eax
  10349b:	3b 45 14             	cmp    0x14(%ebp),%eax
  10349e:	7e b9                	jle    103459 <_ZN9VideoPage6boxcpyEiiiiii+0x127>
  1034a0:	c9                   	leave  
  1034a1:	c3                   	ret    

001034a2 <_ZN9VideoPage6setboxEjjjjcc>:
  1034a2:	55                   	push   %ebp
  1034a3:	89 e5                	mov    %esp,%ebp
  1034a5:	53                   	push   %ebx
  1034a6:	83 ec 2c             	sub    $0x2c,%esp
  1034a9:	8b 55 1c             	mov    0x1c(%ebp),%edx
  1034ac:	8b 45 20             	mov    0x20(%ebp),%eax
  1034af:	88 55 e8             	mov    %dl,-0x18(%ebp)
  1034b2:	88 45 e4             	mov    %al,-0x1c(%ebp)
  1034b5:	8b 45 0c             	mov    0xc(%ebp),%eax
  1034b8:	89 45 f8             	mov    %eax,-0x8(%ebp)
  1034bb:	eb 4e                	jmp    10350b <_ZN9VideoPage6setboxEjjjjcc+0x69>
  1034bd:	8b 45 10             	mov    0x10(%ebp),%eax
  1034c0:	89 45 f4             	mov    %eax,-0xc(%ebp)
  1034c3:	eb 2d                	jmp    1034f2 <_ZN9VideoPage6setboxEjjjjcc+0x50>
  1034c5:	0f be 5d e4          	movsbl -0x1c(%ebp),%ebx
  1034c9:	0f be 4d e8          	movsbl -0x18(%ebp),%ecx
  1034cd:	8b 55 f4             	mov    -0xc(%ebp),%edx
  1034d0:	8b 45 f8             	mov    -0x8(%ebp),%eax
  1034d3:	89 5c 24 10          	mov    %ebx,0x10(%esp)
  1034d7:	89 4c 24 0c          	mov    %ecx,0xc(%esp)
  1034db:	89 54 24 08          	mov    %edx,0x8(%esp)
  1034df:	89 44 24 04          	mov    %eax,0x4(%esp)
  1034e3:	8b 45 08             	mov    0x8(%ebp),%eax
  1034e6:	89 04 24             	mov    %eax,(%esp)
  1034e9:	e8 c8 fc ff ff       	call   1031b6 <_ZN9VideoPage7putcharEjjcc>
  1034ee:	83 45 f4 01          	addl   $0x1,-0xc(%ebp)
  1034f2:	8b 45 f4             	mov    -0xc(%ebp),%eax
  1034f5:	3b 45 18             	cmp    0x18(%ebp),%eax
  1034f8:	77 0d                	ja     103507 <_ZN9VideoPage6setboxEjjjjcc+0x65>
  1034fa:	8b 55 f4             	mov    -0xc(%ebp),%edx
  1034fd:	8b 45 08             	mov    0x8(%ebp),%eax
  103500:	8b 40 08             	mov    0x8(%eax),%eax
  103503:	39 c2                	cmp    %eax,%edx
  103505:	72 be                	jb     1034c5 <_ZN9VideoPage6setboxEjjjjcc+0x23>
  103507:	83 45 f8 01          	addl   $0x1,-0x8(%ebp)
  10350b:	8b 45 f8             	mov    -0x8(%ebp),%eax
  10350e:	3b 45 14             	cmp    0x14(%ebp),%eax
  103511:	77 0d                	ja     103520 <_ZN9VideoPage6setboxEjjjjcc+0x7e>
  103513:	8b 55 f8             	mov    -0x8(%ebp),%edx
  103516:	8b 45 08             	mov    0x8(%ebp),%eax
  103519:	8b 40 04             	mov    0x4(%eax),%eax
  10351c:	39 c2                	cmp    %eax,%edx
  10351e:	72 9d                	jb     1034bd <_ZN9VideoPage6setboxEjjjjcc+0x1b>
  103520:	83 c4 2c             	add    $0x2c,%esp
  103523:	5b                   	pop    %ebx
  103524:	5d                   	pop    %ebp
  103525:	c3                   	ret    

00103526 <_ZN9VideoPage5cleanEv>:
  103526:	55                   	push   %ebp
  103527:	89 e5                	mov    %esp,%ebp
  103529:	83 ec 1c             	sub    $0x1c,%esp
  10352c:	8b 45 08             	mov    0x8(%ebp),%eax
  10352f:	8b 40 08             	mov    0x8(%eax),%eax
  103532:	8d 50 ff             	lea    -0x1(%eax),%edx
  103535:	8b 45 08             	mov    0x8(%ebp),%eax
  103538:	8b 40 04             	mov    0x4(%eax),%eax
  10353b:	83 e8 01             	sub    $0x1,%eax
  10353e:	c7 44 24 18 0a 00 00 	movl   $0xa,0x18(%esp)
  103545:	00 
  103546:	c7 44 24 14 20 00 00 	movl   $0x20,0x14(%esp)
  10354d:	00 
  10354e:	89 54 24 10          	mov    %edx,0x10(%esp)
  103552:	89 44 24 0c          	mov    %eax,0xc(%esp)
  103556:	c7 44 24 08 00 00 00 	movl   $0x0,0x8(%esp)
  10355d:	00 
  10355e:	c7 44 24 04 00 00 00 	movl   $0x0,0x4(%esp)
  103565:	00 
  103566:	8b 45 08             	mov    0x8(%ebp),%eax
  103569:	89 04 24             	mov    %eax,(%esp)
  10356c:	e8 31 ff ff ff       	call   1034a2 <_ZN9VideoPage6setboxEjjjjcc>
  103571:	c9                   	leave  
  103572:	c3                   	ret    
  103573:	90                   	nop

00103574 <_ZN9VideoPage9clean_strEj>:
  103574:	55                   	push   %ebp
  103575:	89 e5                	mov    %esp,%ebp
  103577:	83 ec 1c             	sub    $0x1c,%esp
  10357a:	8b 45 08             	mov    0x8(%ebp),%eax
  10357d:	8b 40 08             	mov    0x8(%eax),%eax
  103580:	3b 45 0c             	cmp    0xc(%ebp),%eax
  103583:	76 3e                	jbe    1035c3 <_ZN9VideoPage9clean_strEj+0x4f>
  103585:	8b 45 08             	mov    0x8(%ebp),%eax
  103588:	8b 40 04             	mov    0x4(%eax),%eax
  10358b:	8d 50 ff             	lea    -0x1(%eax),%edx
  10358e:	c7 44 24 18 0a 00 00 	movl   $0xa,0x18(%esp)
  103595:	00 
  103596:	c7 44 24 14 20 00 00 	movl   $0x20,0x14(%esp)
  10359d:	00 
  10359e:	8b 45 0c             	mov    0xc(%ebp),%eax
  1035a1:	89 44 24 10          	mov    %eax,0x10(%esp)
  1035a5:	89 54 24 0c          	mov    %edx,0xc(%esp)
  1035a9:	8b 45 0c             	mov    0xc(%ebp),%eax
  1035ac:	89 44 24 08          	mov    %eax,0x8(%esp)
  1035b0:	c7 44 24 04 00 00 00 	movl   $0x0,0x4(%esp)
  1035b7:	00 
  1035b8:	8b 45 08             	mov    0x8(%ebp),%eax
  1035bb:	89 04 24             	mov    %eax,(%esp)
  1035be:	e8 df fe ff ff       	call   1034a2 <_ZN9VideoPage6setboxEjjjjcc>
  1035c3:	c9                   	leave  
  1035c4:	c3                   	ret    
  1035c5:	90                   	nop

001035c6 <_ZN9VideoPage6scrollEii>:
  1035c6:	55                   	push   %ebp
  1035c7:	89 e5                	mov    %esp,%ebp
  1035c9:	56                   	push   %esi
  1035ca:	53                   	push   %ebx
  1035cb:	83 ec 1c             	sub    $0x1c,%esp
  1035ce:	8b 45 08             	mov    0x8(%ebp),%eax
  1035d1:	8b 50 08             	mov    0x8(%eax),%edx
  1035d4:	8b 45 10             	mov    0x10(%ebp),%eax
  1035d7:	29 c2                	sub    %eax,%edx
  1035d9:	89 d0                	mov    %edx,%eax
  1035db:	83 e8 01             	sub    $0x1,%eax
  1035de:	89 c2                	mov    %eax,%edx
  1035e0:	8b 45 08             	mov    0x8(%ebp),%eax
  1035e3:	8b 48 04             	mov    0x4(%eax),%ecx
  1035e6:	8b 45 0c             	mov    0xc(%ebp),%eax
  1035e9:	29 c1                	sub    %eax,%ecx
  1035eb:	89 c8                	mov    %ecx,%eax
  1035ed:	83 e8 01             	sub    $0x1,%eax
  1035f0:	8b 4d 10             	mov    0x10(%ebp),%ecx
  1035f3:	89 ce                	mov    %ecx,%esi
  1035f5:	f7 de                	neg    %esi
  1035f7:	8b 4d 0c             	mov    0xc(%ebp),%ecx
  1035fa:	89 cb                	mov    %ecx,%ebx
  1035fc:	f7 db                	neg    %ebx
  1035fe:	8b 4d 10             	mov    0x10(%ebp),%ecx
  103601:	89 4c 24 18          	mov    %ecx,0x18(%esp)
  103605:	8b 4d 0c             	mov    0xc(%ebp),%ecx
  103608:	89 4c 24 14          	mov    %ecx,0x14(%esp)
  10360c:	89 54 24 10          	mov    %edx,0x10(%esp)
  103610:	89 44 24 0c          	mov    %eax,0xc(%esp)
  103614:	89 74 24 08          	mov    %esi,0x8(%esp)
  103618:	89 5c 24 04          	mov    %ebx,0x4(%esp)
  10361c:	8b 45 08             	mov    0x8(%ebp),%eax
  10361f:	89 04 24             	mov    %eax,(%esp)
  103622:	e8 0b fd ff ff       	call   103332 <_ZN9VideoPage6boxcpyEiiiiii>
  103627:	83 c4 1c             	add    $0x1c,%esp
  10362a:	5b                   	pop    %ebx
  10362b:	5e                   	pop    %esi
  10362c:	5d                   	pop    %ebp
  10362d:	c3                   	ret    

0010362e <_ZN9VideoPage9setcursorEjj>:
  10362e:	55                   	push   %ebp
  10362f:	89 e5                	mov    %esp,%ebp
  103631:	83 ec 08             	sub    $0x8,%esp
  103634:	8b 45 08             	mov    0x8(%ebp),%eax
  103637:	8b 40 04             	mov    0x4(%eax),%eax
  10363a:	3b 45 0c             	cmp    0xc(%ebp),%eax
  10363d:	0f 86 85 00 00 00    	jbe    1036c8 <_ZN9VideoPage9setcursorEjj+0x9a>
  103643:	8b 45 08             	mov    0x8(%ebp),%eax
  103646:	8b 40 08             	mov    0x8(%eax),%eax
  103649:	3b 45 10             	cmp    0x10(%ebp),%eax
  10364c:	76 7a                	jbe    1036c8 <_ZN9VideoPage9setcursorEjj+0x9a>
  10364e:	c7 44 24 04 0e 00 00 	movl   $0xe,0x4(%esp)
  103655:	00 
  103656:	c7 04 24 d4 03 00 00 	movl   $0x3d4,(%esp)
  10365d:	e8 46 fa ff ff       	call   1030a8 <_ZL4outbth>
  103662:	8b 45 08             	mov    0x8(%ebp),%eax
  103665:	8b 40 04             	mov    0x4(%eax),%eax
  103668:	89 c2                	mov    %eax,%edx
  10366a:	8b 45 10             	mov    0x10(%ebp),%eax
  10366d:	0f af d0             	imul   %eax,%edx
  103670:	8b 45 0c             	mov    0xc(%ebp),%eax
  103673:	01 d0                	add    %edx,%eax
  103675:	0f b7 c0             	movzwl %ax,%eax
  103678:	c1 f8 08             	sar    $0x8,%eax
  10367b:	0f b6 c0             	movzbl %al,%eax
  10367e:	89 44 24 04          	mov    %eax,0x4(%esp)
  103682:	c7 04 24 d5 03 00 00 	movl   $0x3d5,(%esp)
  103689:	e8 1a fa ff ff       	call   1030a8 <_ZL4outbth>
  10368e:	c7 44 24 04 0f 00 00 	movl   $0xf,0x4(%esp)
  103695:	00 
  103696:	c7 04 24 d4 03 00 00 	movl   $0x3d4,(%esp)
  10369d:	e8 06 fa ff ff       	call   1030a8 <_ZL4outbth>
  1036a2:	8b 45 08             	mov    0x8(%ebp),%eax
  1036a5:	8b 40 04             	mov    0x4(%eax),%eax
  1036a8:	8b 55 10             	mov    0x10(%ebp),%edx
  1036ab:	0f af c2             	imul   %edx,%eax
  1036ae:	89 c2                	mov    %eax,%edx
  1036b0:	8b 45 0c             	mov    0xc(%ebp),%eax
  1036b3:	01 d0                	add    %edx,%eax
  1036b5:	0f b6 c0             	movzbl %al,%eax
  1036b8:	89 44 24 04          	mov    %eax,0x4(%esp)
  1036bc:	c7 04 24 d5 03 00 00 	movl   $0x3d5,(%esp)
  1036c3:	e8 e0 f9 ff ff       	call   1030a8 <_ZL4outbth>
  1036c8:	c9                   	leave  
  1036c9:	c3                   	ret    

001036ca <_ZN14VideoPagePrintC1EP9VideoPage>:
  1036ca:	55                   	push   %ebp
  1036cb:	89 e5                	mov    %esp,%ebp
  1036cd:	83 ec 18             	sub    $0x18,%esp
  1036d0:	8b 45 08             	mov    0x8(%ebp),%eax
  1036d3:	89 04 24             	mov    %eax,(%esp)
  1036d6:	e8 f3 ec ff ff       	call   1023ce <_ZN6KeyComC1Ev>
  1036db:	8b 45 08             	mov    0x8(%ebp),%eax
  1036de:	c7 00 a8 8a 10 00    	movl   $0x108aa8,(%eax)
  1036e4:	8b 45 08             	mov    0x8(%ebp),%eax
  1036e7:	8b 55 0c             	mov    0xc(%ebp),%edx
  1036ea:	89 50 08             	mov    %edx,0x8(%eax)
  1036ed:	8b 45 08             	mov    0x8(%ebp),%eax
  1036f0:	c7 40 0c 00 00 00 00 	movl   $0x0,0xc(%eax)
  1036f7:	8b 45 08             	mov    0x8(%ebp),%eax
  1036fa:	c7 40 10 00 00 00 00 	movl   $0x0,0x10(%eax)
  103701:	c9                   	leave  
  103702:	c3                   	ret    
  103703:	90                   	nop

00103704 <_ZN14VideoPagePrint4initEv>:
  103704:	55                   	push   %ebp
  103705:	89 e5                	mov    %esp,%ebp
  103707:	83 ec 18             	sub    $0x18,%esp
  10370a:	8b 45 08             	mov    0x8(%ebp),%eax
  10370d:	c7 40 0c 00 00 00 00 	movl   $0x0,0xc(%eax)
  103714:	8b 45 08             	mov    0x8(%ebp),%eax
  103717:	c7 40 10 00 00 00 00 	movl   $0x0,0x10(%eax)
  10371e:	8b 45 08             	mov    0x8(%ebp),%eax
  103721:	8b 40 08             	mov    0x8(%eax),%eax
  103724:	c7 44 24 08 00 00 00 	movl   $0x0,0x8(%esp)
  10372b:	00 
  10372c:	c7 44 24 04 00 00 00 	movl   $0x0,0x4(%esp)
  103733:	00 
  103734:	89 04 24             	mov    %eax,(%esp)
  103737:	e8 f2 fe ff ff       	call   10362e <_ZN9VideoPage9setcursorEjj>
  10373c:	8b 45 08             	mov    0x8(%ebp),%eax
  10373f:	8b 40 08             	mov    0x8(%eax),%eax
  103742:	89 04 24             	mov    %eax,(%esp)
  103745:	e8 dc fd ff ff       	call   103526 <_ZN9VideoPage5cleanEv>
  10374a:	c9                   	leave  
  10374b:	c3                   	ret    

0010374c <_ZN14VideoPagePrint1dEv>:
  10374c:	55                   	push   %ebp
  10374d:	89 e5                	mov    %esp,%ebp
  10374f:	56                   	push   %esi
  103750:	53                   	push   %ebx
  103751:	83 ec 40             	sub    $0x40,%esp
  103754:	c7 45 e5 20 20 20 20 	movl   $0x20202020,-0x1b(%ebp)
  10375b:	c7 45 e9 20 20 20 20 	movl   $0x20202020,-0x17(%ebp)
  103762:	66 c7 45 ed 20 20    	movw   $0x2020,-0x13(%ebp)
  103768:	c6 45 ef 00          	movb   $0x0,-0x11(%ebp)
  10376c:	8b 45 08             	mov    0x8(%ebp),%eax
  10376f:	8b 40 08             	mov    0x8(%eax),%eax
  103772:	8b 40 08             	mov    0x8(%eax),%eax
  103775:	8d 70 ff             	lea    -0x1(%eax),%esi
  103778:	8b 45 08             	mov    0x8(%ebp),%eax
  10377b:	8b 40 08             	mov    0x8(%eax),%eax
  10377e:	8b 40 04             	mov    0x4(%eax),%eax
  103781:	8d 58 ff             	lea    -0x1(%eax),%ebx
  103784:	8b 45 08             	mov    0x8(%ebp),%eax
  103787:	8b 40 08             	mov    0x8(%eax),%eax
  10378a:	8b 40 08             	mov    0x8(%eax),%eax
  10378d:	8d 48 fd             	lea    -0x3(%eax),%ecx
  103790:	8b 45 08             	mov    0x8(%ebp),%eax
  103793:	8b 40 08             	mov    0x8(%eax),%eax
  103796:	8b 40 04             	mov    0x4(%eax),%eax
  103799:	8d 50 f6             	lea    -0xa(%eax),%edx
  10379c:	8b 45 08             	mov    0x8(%ebp),%eax
  10379f:	8b 40 08             	mov    0x8(%eax),%eax
  1037a2:	c7 44 24 18 03 00 00 	movl   $0x3,0x18(%esp)
  1037a9:	00 
  1037aa:	c7 44 24 14 23 00 00 	movl   $0x23,0x14(%esp)
  1037b1:	00 
  1037b2:	89 74 24 10          	mov    %esi,0x10(%esp)
  1037b6:	89 5c 24 0c          	mov    %ebx,0xc(%esp)
  1037ba:	89 4c 24 08          	mov    %ecx,0x8(%esp)
  1037be:	89 54 24 04          	mov    %edx,0x4(%esp)
  1037c2:	89 04 24             	mov    %eax,(%esp)
  1037c5:	e8 d8 fc ff ff       	call   1034a2 <_ZN9VideoPage6setboxEjjjjcc>
  1037ca:	8b 45 08             	mov    0x8(%ebp),%eax
  1037cd:	8b 40 08             	mov    0x8(%eax),%eax
  1037d0:	8b 40 08             	mov    0x8(%eax),%eax
  1037d3:	8d 70 ff             	lea    -0x1(%eax),%esi
  1037d6:	8b 45 08             	mov    0x8(%ebp),%eax
  1037d9:	8b 40 08             	mov    0x8(%eax),%eax
  1037dc:	8b 40 04             	mov    0x4(%eax),%eax
  1037df:	8d 58 ff             	lea    -0x1(%eax),%ebx
  1037e2:	8b 45 08             	mov    0x8(%ebp),%eax
  1037e5:	8b 40 08             	mov    0x8(%eax),%eax
  1037e8:	8b 40 08             	mov    0x8(%eax),%eax
  1037eb:	8d 48 fe             	lea    -0x2(%eax),%ecx
  1037ee:	8b 45 08             	mov    0x8(%ebp),%eax
  1037f1:	8b 40 08             	mov    0x8(%eax),%eax
  1037f4:	8b 40 04             	mov    0x4(%eax),%eax
  1037f7:	8d 50 f7             	lea    -0x9(%eax),%edx
  1037fa:	8b 45 08             	mov    0x8(%ebp),%eax
  1037fd:	8b 40 08             	mov    0x8(%eax),%eax
  103800:	c7 44 24 18 03 00 00 	movl   $0x3,0x18(%esp)
  103807:	00 
  103808:	c7 44 24 14 20 00 00 	movl   $0x20,0x14(%esp)
  10380f:	00 
  103810:	89 74 24 10          	mov    %esi,0x10(%esp)
  103814:	89 5c 24 0c          	mov    %ebx,0xc(%esp)
  103818:	89 4c 24 08          	mov    %ecx,0x8(%esp)
  10381c:	89 54 24 04          	mov    %edx,0x4(%esp)
  103820:	89 04 24             	mov    %eax,(%esp)
  103823:	e8 7a fc ff ff       	call   1034a2 <_ZN9VideoPage6setboxEjjjjcc>
  103828:	8b 45 08             	mov    0x8(%ebp),%eax
  10382b:	8b 40 0c             	mov    0xc(%eax),%eax
  10382e:	c7 44 24 08 0a 00 00 	movl   $0xa,0x8(%esp)
  103835:	00 
  103836:	89 44 24 04          	mov    %eax,0x4(%esp)
  10383a:	8d 45 e5             	lea    -0x1b(%ebp),%eax
  10383d:	89 04 24             	mov    %eax,(%esp)
  103840:	e8 fd 16 00 00       	call   104f42 <num2base_str>
  103845:	c7 45 f4 00 00 00 00 	movl   $0x0,-0xc(%ebp)
  10384c:	eb 51                	jmp    10389f <_ZN14VideoPagePrint1dEv+0x153>
  10384e:	8d 55 e5             	lea    -0x1b(%ebp),%edx
  103851:	8b 45 f4             	mov    -0xc(%ebp),%eax
  103854:	01 d0                	add    %edx,%eax
  103856:	0f b6 00             	movzbl (%eax),%eax
  103859:	0f be d0             	movsbl %al,%edx
  10385c:	8b 45 08             	mov    0x8(%ebp),%eax
  10385f:	8b 40 08             	mov    0x8(%eax),%eax
  103862:	8b 40 08             	mov    0x8(%eax),%eax
  103865:	8d 58 fe             	lea    -0x2(%eax),%ebx
  103868:	8b 45 08             	mov    0x8(%ebp),%eax
  10386b:	8b 40 08             	mov    0x8(%eax),%eax
  10386e:	8b 48 04             	mov    0x4(%eax),%ecx
  103871:	8b 45 f4             	mov    -0xc(%ebp),%eax
  103874:	01 c8                	add    %ecx,%eax
  103876:	8d 48 f7             	lea    -0x9(%eax),%ecx
  103879:	8b 45 08             	mov    0x8(%ebp),%eax
  10387c:	8b 40 08             	mov    0x8(%eax),%eax
  10387f:	c7 44 24 10 0a 00 00 	movl   $0xa,0x10(%esp)
  103886:	00 
  103887:	89 54 24 0c          	mov    %edx,0xc(%esp)
  10388b:	89 5c 24 08          	mov    %ebx,0x8(%esp)
  10388f:	89 4c 24 04          	mov    %ecx,0x4(%esp)
  103893:	89 04 24             	mov    %eax,(%esp)
  103896:	e8 1b f9 ff ff       	call   1031b6 <_ZN9VideoPage7putcharEjjcc>
  10389b:	83 45 f4 01          	addl   $0x1,-0xc(%ebp)
  10389f:	83 7d f4 07          	cmpl   $0x7,-0xc(%ebp)
  1038a3:	7e a9                	jle    10384e <_ZN14VideoPagePrint1dEv+0x102>
  1038a5:	8b 45 08             	mov    0x8(%ebp),%eax
  1038a8:	8b 40 10             	mov    0x10(%eax),%eax
  1038ab:	c7 44 24 08 0a 00 00 	movl   $0xa,0x8(%esp)
  1038b2:	00 
  1038b3:	89 44 24 04          	mov    %eax,0x4(%esp)
  1038b7:	8d 45 e5             	lea    -0x1b(%ebp),%eax
  1038ba:	89 04 24             	mov    %eax,(%esp)
  1038bd:	e8 80 16 00 00       	call   104f42 <num2base_str>
  1038c2:	c7 45 f0 00 00 00 00 	movl   $0x0,-0x10(%ebp)
  1038c9:	eb 51                	jmp    10391c <_ZN14VideoPagePrint1dEv+0x1d0>
  1038cb:	8d 55 e5             	lea    -0x1b(%ebp),%edx
  1038ce:	8b 45 f0             	mov    -0x10(%ebp),%eax
  1038d1:	01 d0                	add    %edx,%eax
  1038d3:	0f b6 00             	movzbl (%eax),%eax
  1038d6:	0f be d0             	movsbl %al,%edx
  1038d9:	8b 45 08             	mov    0x8(%ebp),%eax
  1038dc:	8b 40 08             	mov    0x8(%eax),%eax
  1038df:	8b 40 08             	mov    0x8(%eax),%eax
  1038e2:	8d 58 ff             	lea    -0x1(%eax),%ebx
  1038e5:	8b 45 08             	mov    0x8(%ebp),%eax
  1038e8:	8b 40 08             	mov    0x8(%eax),%eax
  1038eb:	8b 48 04             	mov    0x4(%eax),%ecx
  1038ee:	8b 45 f0             	mov    -0x10(%ebp),%eax
  1038f1:	01 c8                	add    %ecx,%eax
  1038f3:	8d 48 f7             	lea    -0x9(%eax),%ecx
  1038f6:	8b 45 08             	mov    0x8(%ebp),%eax
  1038f9:	8b 40 08             	mov    0x8(%eax),%eax
  1038fc:	c7 44 24 10 0a 00 00 	movl   $0xa,0x10(%esp)
  103903:	00 
  103904:	89 54 24 0c          	mov    %edx,0xc(%esp)
  103908:	89 5c 24 08          	mov    %ebx,0x8(%esp)
  10390c:	89 4c 24 04          	mov    %ecx,0x4(%esp)
  103910:	89 04 24             	mov    %eax,(%esp)
  103913:	e8 9e f8 ff ff       	call   1031b6 <_ZN9VideoPage7putcharEjjcc>
  103918:	83 45 f0 01          	addl   $0x1,-0x10(%ebp)
  10391c:	83 7d f0 07          	cmpl   $0x7,-0x10(%ebp)
  103920:	7e a9                	jle    1038cb <_ZN14VideoPagePrint1dEv+0x17f>
  103922:	83 c4 40             	add    $0x40,%esp
  103925:	5b                   	pop    %ebx
  103926:	5e                   	pop    %esi
  103927:	5d                   	pop    %ebp
  103928:	c3                   	ret    
  103929:	90                   	nop

0010392a <_ZN14VideoPagePrint5shiftEi>:
  10392a:	55                   	push   %ebp
  10392b:	89 e5                	mov    %esp,%ebp
  10392d:	56                   	push   %esi
  10392e:	53                   	push   %ebx
  10392f:	8b 45 08             	mov    0x8(%ebp),%eax
  103932:	8b 50 0c             	mov    0xc(%eax),%edx
  103935:	8b 45 0c             	mov    0xc(%ebp),%eax
  103938:	01 c2                	add    %eax,%edx
  10393a:	8b 45 08             	mov    0x8(%ebp),%eax
  10393d:	89 50 0c             	mov    %edx,0xc(%eax)
  103940:	8b 45 08             	mov    0x8(%ebp),%eax
  103943:	8b 40 10             	mov    0x10(%eax),%eax
  103946:	89 c1                	mov    %eax,%ecx
  103948:	8b 45 08             	mov    0x8(%ebp),%eax
  10394b:	8b 40 0c             	mov    0xc(%eax),%eax
  10394e:	85 c0                	test   %eax,%eax
  103950:	78 18                	js     10396a <_ZN14VideoPagePrint5shiftEi+0x40>
  103952:	8b 45 08             	mov    0x8(%ebp),%eax
  103955:	8b 40 0c             	mov    0xc(%eax),%eax
  103958:	8b 55 08             	mov    0x8(%ebp),%edx
  10395b:	8b 52 08             	mov    0x8(%edx),%edx
  10395e:	8b 5a 04             	mov    0x4(%edx),%ebx
  103961:	ba 00 00 00 00       	mov    $0x0,%edx
  103966:	f7 f3                	div    %ebx
  103968:	eb 1a                	jmp    103984 <_ZN14VideoPagePrint5shiftEi+0x5a>
  10396a:	8b 45 08             	mov    0x8(%ebp),%eax
  10396d:	8b 40 0c             	mov    0xc(%eax),%eax
  103970:	f7 d8                	neg    %eax
  103972:	8b 55 08             	mov    0x8(%ebp),%edx
  103975:	8b 52 08             	mov    0x8(%edx),%edx
  103978:	8b 72 04             	mov    0x4(%edx),%esi
  10397b:	ba 00 00 00 00       	mov    $0x0,%edx
  103980:	f7 f6                	div    %esi
  103982:	f7 d0                	not    %eax
  103984:	01 c8                	add    %ecx,%eax
  103986:	89 c2                	mov    %eax,%edx
  103988:	8b 45 08             	mov    0x8(%ebp),%eax
  10398b:	89 50 10             	mov    %edx,0x10(%eax)
  10398e:	8b 45 08             	mov    0x8(%ebp),%eax
  103991:	8b 40 0c             	mov    0xc(%eax),%eax
  103994:	89 c2                	mov    %eax,%edx
  103996:	8b 45 08             	mov    0x8(%ebp),%eax
  103999:	8b 40 08             	mov    0x8(%eax),%eax
  10399c:	8b 40 04             	mov    0x4(%eax),%eax
  10399f:	01 c2                	add    %eax,%edx
  1039a1:	8b 45 08             	mov    0x8(%ebp),%eax
  1039a4:	8b 40 08             	mov    0x8(%eax),%eax
  1039a7:	8b 48 04             	mov    0x4(%eax),%ecx
  1039aa:	89 d0                	mov    %edx,%eax
  1039ac:	ba 00 00 00 00       	mov    $0x0,%edx
  1039b1:	f7 f1                	div    %ecx
  1039b3:	89 d0                	mov    %edx,%eax
  1039b5:	89 c2                	mov    %eax,%edx
  1039b7:	8b 45 08             	mov    0x8(%ebp),%eax
  1039ba:	89 50 0c             	mov    %edx,0xc(%eax)
  1039bd:	5b                   	pop    %ebx
  1039be:	5e                   	pop    %esi
  1039bf:	5d                   	pop    %ebp
  1039c0:	c3                   	ret    
  1039c1:	90                   	nop

001039c2 <_ZN14VideoPagePrint13needly_scrollEv>:
  1039c2:	55                   	push   %ebp
  1039c3:	89 e5                	mov    %esp,%ebp
  1039c5:	83 ec 28             	sub    $0x28,%esp
  1039c8:	8b 45 08             	mov    0x8(%ebp),%eax
  1039cb:	8b 40 10             	mov    0x10(%eax),%eax
  1039ce:	89 c2                	mov    %eax,%edx
  1039d0:	8b 45 08             	mov    0x8(%ebp),%eax
  1039d3:	8b 40 08             	mov    0x8(%eax),%eax
  1039d6:	8b 40 08             	mov    0x8(%eax),%eax
  1039d9:	39 c2                	cmp    %eax,%edx
  1039db:	72 4d                	jb     103a2a <_ZN14VideoPagePrint13needly_scrollEv+0x68>
  1039dd:	8b 45 08             	mov    0x8(%ebp),%eax
  1039e0:	8b 40 10             	mov    0x10(%eax),%eax
  1039e3:	89 c2                	mov    %eax,%edx
  1039e5:	8b 45 08             	mov    0x8(%ebp),%eax
  1039e8:	8b 40 08             	mov    0x8(%eax),%eax
  1039eb:	8b 40 08             	mov    0x8(%eax),%eax
  1039ee:	29 c2                	sub    %eax,%edx
  1039f0:	89 d0                	mov    %edx,%eax
  1039f2:	83 c0 01             	add    $0x1,%eax
  1039f5:	89 45 f4             	mov    %eax,-0xc(%ebp)
  1039f8:	8b 45 f4             	mov    -0xc(%ebp),%eax
  1039fb:	f7 d8                	neg    %eax
  1039fd:	89 c2                	mov    %eax,%edx
  1039ff:	8b 45 08             	mov    0x8(%ebp),%eax
  103a02:	8b 40 08             	mov    0x8(%eax),%eax
  103a05:	89 54 24 08          	mov    %edx,0x8(%esp)
  103a09:	c7 44 24 04 00 00 00 	movl   $0x0,0x4(%esp)
  103a10:	00 
  103a11:	89 04 24             	mov    %eax,(%esp)
  103a14:	e8 ad fb ff ff       	call   1035c6 <_ZN9VideoPage6scrollEii>
  103a19:	8b 45 08             	mov    0x8(%ebp),%eax
  103a1c:	8b 40 10             	mov    0x10(%eax),%eax
  103a1f:	2b 45 f4             	sub    -0xc(%ebp),%eax
  103a22:	89 c2                	mov    %eax,%edx
  103a24:	8b 45 08             	mov    0x8(%ebp),%eax
  103a27:	89 50 10             	mov    %edx,0x10(%eax)
  103a2a:	c9                   	leave  
  103a2b:	c3                   	ret    

00103a2c <_ZN14VideoPagePrint5writeEh>:
  103a2c:	55                   	push   %ebp
  103a2d:	89 e5                	mov    %esp,%ebp
  103a2f:	53                   	push   %ebx
  103a30:	83 ec 24             	sub    $0x24,%esp
  103a33:	8b 45 0c             	mov    0xc(%ebp),%eax
  103a36:	88 45 f4             	mov    %al,-0xc(%ebp)
  103a39:	0f b6 45 f4          	movzbl -0xc(%ebp),%eax
  103a3d:	83 f8 09             	cmp    $0x9,%eax
  103a40:	74 4b                	je     103a8d <_ZN14VideoPagePrint5writeEh+0x61>
  103a42:	83 f8 09             	cmp    $0x9,%eax
  103a45:	7f 0a                	jg     103a51 <_ZN14VideoPagePrint5writeEh+0x25>
  103a47:	83 f8 08             	cmp    $0x8,%eax
  103a4a:	74 6f                	je     103abb <_ZN14VideoPagePrint5writeEh+0x8f>
  103a4c:	e9 b5 00 00 00       	jmp    103b06 <_ZN14VideoPagePrint5writeEh+0xda>
  103a51:	83 f8 0a             	cmp    $0xa,%eax
  103a54:	74 0a                	je     103a60 <_ZN14VideoPagePrint5writeEh+0x34>
  103a56:	83 f8 0d             	cmp    $0xd,%eax
  103a59:	74 23                	je     103a7e <_ZN14VideoPagePrint5writeEh+0x52>
  103a5b:	e9 a6 00 00 00       	jmp    103b06 <_ZN14VideoPagePrint5writeEh+0xda>
  103a60:	8b 45 08             	mov    0x8(%ebp),%eax
  103a63:	c7 40 0c 00 00 00 00 	movl   $0x0,0xc(%eax)
  103a6a:	8b 45 08             	mov    0x8(%ebp),%eax
  103a6d:	8b 40 10             	mov    0x10(%eax),%eax
  103a70:	8d 50 01             	lea    0x1(%eax),%edx
  103a73:	8b 45 08             	mov    0x8(%ebp),%eax
  103a76:	89 50 10             	mov    %edx,0x10(%eax)
  103a79:	e9 d5 00 00 00       	jmp    103b53 <_ZN14VideoPagePrint5writeEh+0x127>
  103a7e:	8b 45 08             	mov    0x8(%ebp),%eax
  103a81:	c7 40 0c 00 00 00 00 	movl   $0x0,0xc(%eax)
  103a88:	e9 c6 00 00 00       	jmp    103b53 <_ZN14VideoPagePrint5writeEh+0x127>
  103a8d:	8b 45 08             	mov    0x8(%ebp),%eax
  103a90:	8b 40 0c             	mov    0xc(%eax),%eax
  103a93:	99                   	cltd   
  103a94:	c1 ea 1d             	shr    $0x1d,%edx
  103a97:	01 d0                	add    %edx,%eax
  103a99:	83 e0 07             	and    $0x7,%eax
  103a9c:	29 d0                	sub    %edx,%eax
  103a9e:	ba 08 00 00 00       	mov    $0x8,%edx
  103aa3:	29 c2                	sub    %eax,%edx
  103aa5:	89 d0                	mov    %edx,%eax
  103aa7:	89 44 24 04          	mov    %eax,0x4(%esp)
  103aab:	8b 45 08             	mov    0x8(%ebp),%eax
  103aae:	89 04 24             	mov    %eax,(%esp)
  103ab1:	e8 74 fe ff ff       	call   10392a <_ZN14VideoPagePrint5shiftEi>
  103ab6:	e9 98 00 00 00       	jmp    103b53 <_ZN14VideoPagePrint5writeEh+0x127>
  103abb:	c7 44 24 04 ff ff ff 	movl   $0xffffffff,0x4(%esp)
  103ac2:	ff 
  103ac3:	8b 45 08             	mov    0x8(%ebp),%eax
  103ac6:	89 04 24             	mov    %eax,(%esp)
  103ac9:	e8 5c fe ff ff       	call   10392a <_ZN14VideoPagePrint5shiftEi>
  103ace:	8b 45 08             	mov    0x8(%ebp),%eax
  103ad1:	8b 40 10             	mov    0x10(%eax),%eax
  103ad4:	89 c1                	mov    %eax,%ecx
  103ad6:	8b 45 08             	mov    0x8(%ebp),%eax
  103ad9:	8b 40 0c             	mov    0xc(%eax),%eax
  103adc:	89 c2                	mov    %eax,%edx
  103ade:	8b 45 08             	mov    0x8(%ebp),%eax
  103ae1:	8b 40 08             	mov    0x8(%eax),%eax
  103ae4:	c7 44 24 10 0a 00 00 	movl   $0xa,0x10(%esp)
  103aeb:	00 
  103aec:	c7 44 24 0c 20 00 00 	movl   $0x20,0xc(%esp)
  103af3:	00 
  103af4:	89 4c 24 08          	mov    %ecx,0x8(%esp)
  103af8:	89 54 24 04          	mov    %edx,0x4(%esp)
  103afc:	89 04 24             	mov    %eax,(%esp)
  103aff:	e8 b2 f6 ff ff       	call   1031b6 <_ZN9VideoPage7putcharEjjcc>
  103b04:	eb 4d                	jmp    103b53 <_ZN14VideoPagePrint5writeEh+0x127>
  103b06:	0f b6 45 f4          	movzbl -0xc(%ebp),%eax
  103b0a:	0f be d8             	movsbl %al,%ebx
  103b0d:	8b 45 08             	mov    0x8(%ebp),%eax
  103b10:	8b 40 10             	mov    0x10(%eax),%eax
  103b13:	89 c1                	mov    %eax,%ecx
  103b15:	8b 45 08             	mov    0x8(%ebp),%eax
  103b18:	8b 40 0c             	mov    0xc(%eax),%eax
  103b1b:	89 c2                	mov    %eax,%edx
  103b1d:	8b 45 08             	mov    0x8(%ebp),%eax
  103b20:	8b 40 08             	mov    0x8(%eax),%eax
  103b23:	c7 44 24 10 0a 00 00 	movl   $0xa,0x10(%esp)
  103b2a:	00 
  103b2b:	89 5c 24 0c          	mov    %ebx,0xc(%esp)
  103b2f:	89 4c 24 08          	mov    %ecx,0x8(%esp)
  103b33:	89 54 24 04          	mov    %edx,0x4(%esp)
  103b37:	89 04 24             	mov    %eax,(%esp)
  103b3a:	e8 77 f6 ff ff       	call   1031b6 <_ZN9VideoPage7putcharEjjcc>
  103b3f:	c7 44 24 04 01 00 00 	movl   $0x1,0x4(%esp)
  103b46:	00 
  103b47:	8b 45 08             	mov    0x8(%ebp),%eax
  103b4a:	89 04 24             	mov    %eax,(%esp)
  103b4d:	e8 d8 fd ff ff       	call   10392a <_ZN14VideoPagePrint5shiftEi>
  103b52:	90                   	nop
  103b53:	8b 45 08             	mov    0x8(%ebp),%eax
  103b56:	89 04 24             	mov    %eax,(%esp)
  103b59:	e8 64 fe ff ff       	call   1039c2 <_ZN14VideoPagePrint13needly_scrollEv>
  103b5e:	8b 45 08             	mov    0x8(%ebp),%eax
  103b61:	8b 40 10             	mov    0x10(%eax),%eax
  103b64:	89 c1                	mov    %eax,%ecx
  103b66:	8b 45 08             	mov    0x8(%ebp),%eax
  103b69:	8b 40 0c             	mov    0xc(%eax),%eax
  103b6c:	89 c2                	mov    %eax,%edx
  103b6e:	8b 45 08             	mov    0x8(%ebp),%eax
  103b71:	8b 40 08             	mov    0x8(%eax),%eax
  103b74:	89 4c 24 08          	mov    %ecx,0x8(%esp)
  103b78:	89 54 24 04          	mov    %edx,0x4(%esp)
  103b7c:	89 04 24             	mov    %eax,(%esp)
  103b7f:	e8 aa fa ff ff       	call   10362e <_ZN9VideoPage9setcursorEjj>
  103b84:	83 c4 24             	add    $0x24,%esp
  103b87:	5b                   	pop    %ebx
  103b88:	5d                   	pop    %ebp
  103b89:	c3                   	ret    

00103b8a <_ZN14VideoPagePrint4leftEi>:
  103b8a:	55                   	push   %ebp
  103b8b:	89 e5                	mov    %esp,%ebp
  103b8d:	83 ec 18             	sub    $0x18,%esp
  103b90:	8b 45 0c             	mov    0xc(%ebp),%eax
  103b93:	f7 d8                	neg    %eax
  103b95:	89 44 24 04          	mov    %eax,0x4(%esp)
  103b99:	8b 45 08             	mov    0x8(%ebp),%eax
  103b9c:	89 04 24             	mov    %eax,(%esp)
  103b9f:	e8 86 fd ff ff       	call   10392a <_ZN14VideoPagePrint5shiftEi>
  103ba4:	8b 45 08             	mov    0x8(%ebp),%eax
  103ba7:	8b 40 08             	mov    0x8(%eax),%eax
  103baa:	8b 40 04             	mov    0x4(%eax),%eax
  103bad:	83 e8 01             	sub    $0x1,%eax
  103bb0:	89 c2                	mov    %eax,%edx
  103bb2:	8b 45 08             	mov    0x8(%ebp),%eax
  103bb5:	8b 40 0c             	mov    0xc(%eax),%eax
  103bb8:	89 54 24 08          	mov    %edx,0x8(%esp)
  103bbc:	c7 44 24 04 00 00 00 	movl   $0x0,0x4(%esp)
  103bc3:	00 
  103bc4:	89 04 24             	mov    %eax,(%esp)
  103bc7:	e8 35 15 00 00       	call   105101 <limitation>
  103bcc:	8b 45 08             	mov    0x8(%ebp),%eax
  103bcf:	8b 40 10             	mov    0x10(%eax),%eax
  103bd2:	89 c1                	mov    %eax,%ecx
  103bd4:	8b 45 08             	mov    0x8(%ebp),%eax
  103bd7:	8b 40 0c             	mov    0xc(%eax),%eax
  103bda:	89 c2                	mov    %eax,%edx
  103bdc:	8b 45 08             	mov    0x8(%ebp),%eax
  103bdf:	8b 40 08             	mov    0x8(%eax),%eax
  103be2:	89 4c 24 08          	mov    %ecx,0x8(%esp)
  103be6:	89 54 24 04          	mov    %edx,0x4(%esp)
  103bea:	89 04 24             	mov    %eax,(%esp)
  103bed:	e8 3c fa ff ff       	call   10362e <_ZN9VideoPage9setcursorEjj>
  103bf2:	c9                   	leave  
  103bf3:	c3                   	ret    

00103bf4 <_ZN14VideoPagePrint5rightEi>:
  103bf4:	55                   	push   %ebp
  103bf5:	89 e5                	mov    %esp,%ebp
  103bf7:	83 ec 18             	sub    $0x18,%esp
  103bfa:	8b 45 0c             	mov    0xc(%ebp),%eax
  103bfd:	89 44 24 04          	mov    %eax,0x4(%esp)
  103c01:	8b 45 08             	mov    0x8(%ebp),%eax
  103c04:	89 04 24             	mov    %eax,(%esp)
  103c07:	e8 1e fd ff ff       	call   10392a <_ZN14VideoPagePrint5shiftEi>
  103c0c:	8b 45 08             	mov    0x8(%ebp),%eax
  103c0f:	8b 40 08             	mov    0x8(%eax),%eax
  103c12:	8b 40 04             	mov    0x4(%eax),%eax
  103c15:	83 e8 01             	sub    $0x1,%eax
  103c18:	89 c2                	mov    %eax,%edx
  103c1a:	8b 45 08             	mov    0x8(%ebp),%eax
  103c1d:	8b 40 0c             	mov    0xc(%eax),%eax
  103c20:	89 54 24 08          	mov    %edx,0x8(%esp)
  103c24:	c7 44 24 04 00 00 00 	movl   $0x0,0x4(%esp)
  103c2b:	00 
  103c2c:	89 04 24             	mov    %eax,(%esp)
  103c2f:	e8 cd 14 00 00       	call   105101 <limitation>
  103c34:	8b 45 08             	mov    0x8(%ebp),%eax
  103c37:	8b 40 10             	mov    0x10(%eax),%eax
  103c3a:	89 c1                	mov    %eax,%ecx
  103c3c:	8b 45 08             	mov    0x8(%ebp),%eax
  103c3f:	8b 40 0c             	mov    0xc(%eax),%eax
  103c42:	89 c2                	mov    %eax,%edx
  103c44:	8b 45 08             	mov    0x8(%ebp),%eax
  103c47:	8b 40 08             	mov    0x8(%eax),%eax
  103c4a:	89 4c 24 08          	mov    %ecx,0x8(%esp)
  103c4e:	89 54 24 04          	mov    %edx,0x4(%esp)
  103c52:	89 04 24             	mov    %eax,(%esp)
  103c55:	e8 d4 f9 ff ff       	call   10362e <_ZN9VideoPage9setcursorEjj>
  103c5a:	c9                   	leave  
  103c5b:	c3                   	ret    

00103c5c <_ZN14VideoPagePrint2upEi>:
  103c5c:	55                   	push   %ebp
  103c5d:	89 e5                	mov    %esp,%ebp
  103c5f:	83 ec 18             	sub    $0x18,%esp
  103c62:	8b 45 08             	mov    0x8(%ebp),%eax
  103c65:	8b 40 10             	mov    0x10(%eax),%eax
  103c68:	2b 45 0c             	sub    0xc(%ebp),%eax
  103c6b:	89 c2                	mov    %eax,%edx
  103c6d:	8b 45 08             	mov    0x8(%ebp),%eax
  103c70:	89 50 10             	mov    %edx,0x10(%eax)
  103c73:	8b 45 08             	mov    0x8(%ebp),%eax
  103c76:	8b 40 08             	mov    0x8(%eax),%eax
  103c79:	8b 40 08             	mov    0x8(%eax),%eax
  103c7c:	83 e8 01             	sub    $0x1,%eax
  103c7f:	89 c2                	mov    %eax,%edx
  103c81:	8b 45 08             	mov    0x8(%ebp),%eax
  103c84:	8b 40 10             	mov    0x10(%eax),%eax
  103c87:	89 54 24 08          	mov    %edx,0x8(%esp)
  103c8b:	c7 44 24 04 00 00 00 	movl   $0x0,0x4(%esp)
  103c92:	00 
  103c93:	89 04 24             	mov    %eax,(%esp)
  103c96:	e8 66 14 00 00       	call   105101 <limitation>
  103c9b:	8b 55 08             	mov    0x8(%ebp),%edx
  103c9e:	89 42 10             	mov    %eax,0x10(%edx)
  103ca1:	8b 45 08             	mov    0x8(%ebp),%eax
  103ca4:	8b 40 10             	mov    0x10(%eax),%eax
  103ca7:	89 c1                	mov    %eax,%ecx
  103ca9:	8b 45 08             	mov    0x8(%ebp),%eax
  103cac:	8b 40 0c             	mov    0xc(%eax),%eax
  103caf:	89 c2                	mov    %eax,%edx
  103cb1:	8b 45 08             	mov    0x8(%ebp),%eax
  103cb4:	8b 40 08             	mov    0x8(%eax),%eax
  103cb7:	89 4c 24 08          	mov    %ecx,0x8(%esp)
  103cbb:	89 54 24 04          	mov    %edx,0x4(%esp)
  103cbf:	89 04 24             	mov    %eax,(%esp)
  103cc2:	e8 67 f9 ff ff       	call   10362e <_ZN9VideoPage9setcursorEjj>
  103cc7:	c9                   	leave  
  103cc8:	c3                   	ret    
  103cc9:	90                   	nop

00103cca <_ZN14VideoPagePrint4downEi>:
  103cca:	55                   	push   %ebp
  103ccb:	89 e5                	mov    %esp,%ebp
  103ccd:	83 ec 18             	sub    $0x18,%esp
  103cd0:	8b 45 08             	mov    0x8(%ebp),%eax
  103cd3:	8b 50 10             	mov    0x10(%eax),%edx
  103cd6:	8b 45 0c             	mov    0xc(%ebp),%eax
  103cd9:	01 c2                	add    %eax,%edx
  103cdb:	8b 45 08             	mov    0x8(%ebp),%eax
  103cde:	89 50 10             	mov    %edx,0x10(%eax)
  103ce1:	8b 45 08             	mov    0x8(%ebp),%eax
  103ce4:	8b 40 08             	mov    0x8(%eax),%eax
  103ce7:	8b 40 08             	mov    0x8(%eax),%eax
  103cea:	83 e8 01             	sub    $0x1,%eax
  103ced:	89 c2                	mov    %eax,%edx
  103cef:	8b 45 08             	mov    0x8(%ebp),%eax
  103cf2:	8b 40 10             	mov    0x10(%eax),%eax
  103cf5:	89 54 24 08          	mov    %edx,0x8(%esp)
  103cf9:	c7 44 24 04 00 00 00 	movl   $0x0,0x4(%esp)
  103d00:	00 
  103d01:	89 04 24             	mov    %eax,(%esp)
  103d04:	e8 f8 13 00 00       	call   105101 <limitation>
  103d09:	8b 55 08             	mov    0x8(%ebp),%edx
  103d0c:	89 42 10             	mov    %eax,0x10(%edx)
  103d0f:	8b 45 08             	mov    0x8(%ebp),%eax
  103d12:	8b 40 10             	mov    0x10(%eax),%eax
  103d15:	89 c1                	mov    %eax,%ecx
  103d17:	8b 45 08             	mov    0x8(%ebp),%eax
  103d1a:	8b 40 0c             	mov    0xc(%eax),%eax
  103d1d:	89 c2                	mov    %eax,%edx
  103d1f:	8b 45 08             	mov    0x8(%ebp),%eax
  103d22:	8b 40 08             	mov    0x8(%eax),%eax
  103d25:	89 4c 24 08          	mov    %ecx,0x8(%esp)
  103d29:	89 54 24 04          	mov    %edx,0x4(%esp)
  103d2d:	89 04 24             	mov    %eax,(%esp)
  103d30:	e8 f9 f8 ff ff       	call   10362e <_ZN9VideoPage9setcursorEjj>
  103d35:	c9                   	leave  
  103d36:	c3                   	ret    
  103d37:	90                   	nop

00103d38 <_ZN14VideoPagePrint3delEi>:
  103d38:	55                   	push   %ebp
  103d39:	89 e5                	mov    %esp,%ebp
  103d3b:	83 ec 38             	sub    $0x38,%esp
  103d3e:	8b 45 08             	mov    0x8(%ebp),%eax
  103d41:	8b 40 0c             	mov    0xc(%eax),%eax
  103d44:	89 45 ec             	mov    %eax,-0x14(%ebp)
  103d47:	8b 45 08             	mov    0x8(%ebp),%eax
  103d4a:	8b 40 10             	mov    0x10(%eax),%eax
  103d4d:	89 45 e8             	mov    %eax,-0x18(%ebp)
  103d50:	8b 45 08             	mov    0x8(%ebp),%eax
  103d53:	8b 40 10             	mov    0x10(%eax),%eax
  103d56:	89 c1                	mov    %eax,%ecx
  103d58:	8b 45 08             	mov    0x8(%ebp),%eax
  103d5b:	8b 40 0c             	mov    0xc(%eax),%eax
  103d5e:	89 c2                	mov    %eax,%edx
  103d60:	8b 45 08             	mov    0x8(%ebp),%eax
  103d63:	8b 40 08             	mov    0x8(%eax),%eax
  103d66:	c7 44 24 10 0a 00 00 	movl   $0xa,0x10(%esp)
  103d6d:	00 
  103d6e:	c7 44 24 0c 20 00 00 	movl   $0x20,0xc(%esp)
  103d75:	00 
  103d76:	89 4c 24 08          	mov    %ecx,0x8(%esp)
  103d7a:	89 54 24 04          	mov    %edx,0x4(%esp)
  103d7e:	89 04 24             	mov    %eax,(%esp)
  103d81:	e8 30 f4 ff ff       	call   1031b6 <_ZN9VideoPage7putcharEjjcc>
  103d86:	83 7d 0c 00          	cmpl   $0x0,0xc(%ebp)
  103d8a:	7e 5e                	jle    103dea <_ZN14VideoPagePrint3delEi+0xb2>
  103d8c:	c7 45 f4 00 00 00 00 	movl   $0x0,-0xc(%ebp)
  103d93:	eb 4d                	jmp    103de2 <_ZN14VideoPagePrint3delEi+0xaa>
  103d95:	c7 44 24 04 01 00 00 	movl   $0x1,0x4(%esp)
  103d9c:	00 
  103d9d:	8b 45 08             	mov    0x8(%ebp),%eax
  103da0:	89 04 24             	mov    %eax,(%esp)
  103da3:	e8 82 fb ff ff       	call   10392a <_ZN14VideoPagePrint5shiftEi>
  103da8:	8b 45 08             	mov    0x8(%ebp),%eax
  103dab:	8b 40 10             	mov    0x10(%eax),%eax
  103dae:	89 c1                	mov    %eax,%ecx
  103db0:	8b 45 08             	mov    0x8(%ebp),%eax
  103db3:	8b 40 0c             	mov    0xc(%eax),%eax
  103db6:	89 c2                	mov    %eax,%edx
  103db8:	8b 45 08             	mov    0x8(%ebp),%eax
  103dbb:	8b 40 08             	mov    0x8(%eax),%eax
  103dbe:	c7 44 24 10 0a 00 00 	movl   $0xa,0x10(%esp)
  103dc5:	00 
  103dc6:	c7 44 24 0c 20 00 00 	movl   $0x20,0xc(%esp)
  103dcd:	00 
  103dce:	89 4c 24 08          	mov    %ecx,0x8(%esp)
  103dd2:	89 54 24 04          	mov    %edx,0x4(%esp)
  103dd6:	89 04 24             	mov    %eax,(%esp)
  103dd9:	e8 d8 f3 ff ff       	call   1031b6 <_ZN9VideoPage7putcharEjjcc>
  103dde:	83 45 f4 01          	addl   $0x1,-0xc(%ebp)
  103de2:	8b 45 f4             	mov    -0xc(%ebp),%eax
  103de5:	3b 45 0c             	cmp    0xc(%ebp),%eax
  103de8:	7c ab                	jl     103d95 <_ZN14VideoPagePrint3delEi+0x5d>
  103dea:	83 7d 0c 00          	cmpl   $0x0,0xc(%ebp)
  103dee:	79 5e                	jns    103e4e <_ZN14VideoPagePrint3delEi+0x116>
  103df0:	c7 45 f0 00 00 00 00 	movl   $0x0,-0x10(%ebp)
  103df7:	eb 4d                	jmp    103e46 <_ZN14VideoPagePrint3delEi+0x10e>
  103df9:	c7 44 24 04 ff ff ff 	movl   $0xffffffff,0x4(%esp)
  103e00:	ff 
  103e01:	8b 45 08             	mov    0x8(%ebp),%eax
  103e04:	89 04 24             	mov    %eax,(%esp)
  103e07:	e8 1e fb ff ff       	call   10392a <_ZN14VideoPagePrint5shiftEi>
  103e0c:	8b 45 08             	mov    0x8(%ebp),%eax
  103e0f:	8b 40 10             	mov    0x10(%eax),%eax
  103e12:	89 c1                	mov    %eax,%ecx
  103e14:	8b 45 08             	mov    0x8(%ebp),%eax
  103e17:	8b 40 0c             	mov    0xc(%eax),%eax
  103e1a:	89 c2                	mov    %eax,%edx
  103e1c:	8b 45 08             	mov    0x8(%ebp),%eax
  103e1f:	8b 40 08             	mov    0x8(%eax),%eax
  103e22:	c7 44 24 10 0a 00 00 	movl   $0xa,0x10(%esp)
  103e29:	00 
  103e2a:	c7 44 24 0c 20 00 00 	movl   $0x20,0xc(%esp)
  103e31:	00 
  103e32:	89 4c 24 08          	mov    %ecx,0x8(%esp)
  103e36:	89 54 24 04          	mov    %edx,0x4(%esp)
  103e3a:	89 04 24             	mov    %eax,(%esp)
  103e3d:	e8 74 f3 ff ff       	call   1031b6 <_ZN9VideoPage7putcharEjjcc>
  103e42:	83 6d f0 01          	subl   $0x1,-0x10(%ebp)
  103e46:	8b 45 f0             	mov    -0x10(%ebp),%eax
  103e49:	3b 45 0c             	cmp    0xc(%ebp),%eax
  103e4c:	7f ab                	jg     103df9 <_ZN14VideoPagePrint3delEi+0xc1>
  103e4e:	8b 45 08             	mov    0x8(%ebp),%eax
  103e51:	8b 55 ec             	mov    -0x14(%ebp),%edx
  103e54:	89 50 0c             	mov    %edx,0xc(%eax)
  103e57:	8b 45 08             	mov    0x8(%ebp),%eax
  103e5a:	8b 55 e8             	mov    -0x18(%ebp),%edx
  103e5d:	89 50 10             	mov    %edx,0x10(%eax)
  103e60:	c9                   	leave  
  103e61:	c3                   	ret    

00103e62 <_ZN6KeyCom3delEi>:
  103e62:	55                   	push   %ebp
  103e63:	89 e5                	mov    %esp,%ebp
  103e65:	5d                   	pop    %ebp
  103e66:	c3                   	ret    
  103e67:	90                   	nop

00103e68 <_ZN6KeyCom4homeEi>:
  103e68:	55                   	push   %ebp
  103e69:	89 e5                	mov    %esp,%ebp
  103e6b:	5d                   	pop    %ebp
  103e6c:	c3                   	ret    
  103e6d:	90                   	nop

00103e6e <_ZN6KeyCom3endEi>:
  103e6e:	55                   	push   %ebp
  103e6f:	89 e5                	mov    %esp,%ebp
  103e71:	5d                   	pop    %ebp
  103e72:	c3                   	ret    
  103e73:	90                   	nop

00103e74 <_ZN6KeyCom2upEi>:
  103e74:	55                   	push   %ebp
  103e75:	89 e5                	mov    %esp,%ebp
  103e77:	5d                   	pop    %ebp
  103e78:	c3                   	ret    
  103e79:	90                   	nop

00103e7a <_ZN6KeyCom4downEi>:
  103e7a:	55                   	push   %ebp
  103e7b:	89 e5                	mov    %esp,%ebp
  103e7d:	5d                   	pop    %ebp
  103e7e:	c3                   	ret    
  103e7f:	90                   	nop

00103e80 <_ZN6KeyCom4leftEi>:
  103e80:	55                   	push   %ebp
  103e81:	89 e5                	mov    %esp,%ebp
  103e83:	5d                   	pop    %ebp
  103e84:	c3                   	ret    
  103e85:	90                   	nop

00103e86 <_ZN6KeyCom5rightEi>:
  103e86:	55                   	push   %ebp
  103e87:	89 e5                	mov    %esp,%ebp
  103e89:	5d                   	pop    %ebp
  103e8a:	c3                   	ret    
  103e8b:	90                   	nop

00103e8c <_ZL4outbth>:
  103e8c:	55                   	push   %ebp
  103e8d:	89 e5                	mov    %esp,%ebp
  103e8f:	83 ec 08             	sub    $0x8,%esp
  103e92:	8b 55 08             	mov    0x8(%ebp),%edx
  103e95:	8b 45 0c             	mov    0xc(%ebp),%eax
  103e98:	66 89 55 fc          	mov    %dx,-0x4(%ebp)
  103e9c:	88 45 f8             	mov    %al,-0x8(%ebp)
  103e9f:	0f b7 55 fc          	movzwl -0x4(%ebp),%edx
  103ea3:	0f b6 45 f8          	movzbl -0x8(%ebp),%eax
  103ea7:	ee                   	out    %al,(%dx)
  103ea8:	c9                   	leave  
  103ea9:	c3                   	ret    

00103eaa <_ZL3inbt>:
  103eaa:	55                   	push   %ebp
  103eab:	89 e5                	mov    %esp,%ebp
  103ead:	83 ec 14             	sub    $0x14,%esp
  103eb0:	8b 45 08             	mov    0x8(%ebp),%eax
  103eb3:	66 89 45 ec          	mov    %ax,-0x14(%ebp)
  103eb7:	0f b7 45 ec          	movzwl -0x14(%ebp),%eax
  103ebb:	89 c2                	mov    %eax,%edx
  103ebd:	ec                   	in     (%dx),%al
  103ebe:	88 45 ff             	mov    %al,-0x1(%ebp)
  103ec1:	0f b6 45 ff          	movzbl -0x1(%ebp),%eax
  103ec5:	c9                   	leave  
  103ec6:	c3                   	ret    

00103ec7 <_ZL29platform_abstract_irq_handlerP14interrupt_info>:
  103ec7:	55                   	push   %ebp
  103ec8:	89 e5                	mov    %esp,%ebp
  103eca:	83 ec 08             	sub    $0x8,%esp
  103ecd:	8b 45 08             	mov    0x8(%ebp),%eax
  103ed0:	8b 40 24             	mov    0x24(%eax),%eax
  103ed3:	83 f8 27             	cmp    $0x27,%eax
  103ed6:	76 14                	jbe    103eec <_ZL29platform_abstract_irq_handlerP14interrupt_info+0x25>
  103ed8:	c7 44 24 04 20 00 00 	movl   $0x20,0x4(%esp)
  103edf:	00 
  103ee0:	c7 04 24 a0 00 00 00 	movl   $0xa0,(%esp)
  103ee7:	e8 a0 ff ff ff       	call   103e8c <_ZL4outbth>
  103eec:	8b 45 08             	mov    0x8(%ebp),%eax
  103eef:	8b 40 24             	mov    0x24(%eax),%eax
  103ef2:	83 f8 1f             	cmp    $0x1f,%eax
  103ef5:	76 14                	jbe    103f0b <_ZL29platform_abstract_irq_handlerP14interrupt_info+0x44>
  103ef7:	c7 44 24 04 20 00 00 	movl   $0x20,0x4(%esp)
  103efe:	00 
  103eff:	c7 04 24 20 00 00 00 	movl   $0x20,(%esp)
  103f06:	e8 81 ff ff ff       	call   103e8c <_ZL4outbth>
  103f0b:	c9                   	leave  
  103f0c:	c3                   	ret    
  103f0d:	90                   	nop

00103f0e <_ZN11Scan2KeyComC1EP6KeyCom>:
  103f0e:	55                   	push   %ebp
  103f0f:	89 e5                	mov    %esp,%ebp
  103f11:	83 ec 18             	sub    $0x18,%esp
  103f14:	8b 45 08             	mov    0x8(%ebp),%eax
  103f17:	89 04 24             	mov    %eax,(%esp)
  103f1a:	e8 97 e4 ff ff       	call   1023b6 <_ZN5PrintC1Ev>
  103f1f:	8b 45 08             	mov    0x8(%ebp),%eax
  103f22:	c7 00 f8 8c 10 00    	movl   $0x108cf8,(%eax)
  103f28:	8b 45 0c             	mov    0xc(%ebp),%eax
  103f2b:	89 44 24 04          	mov    %eax,0x4(%esp)
  103f2f:	8b 45 08             	mov    0x8(%ebp),%eax
  103f32:	89 04 24             	mov    %eax,(%esp)
  103f35:	e8 02 00 00 00       	call   103f3c <_ZN11Scan2KeyCom4initEP6KeyCom>
  103f3a:	c9                   	leave  
  103f3b:	c3                   	ret    

00103f3c <_ZN11Scan2KeyCom4initEP6KeyCom>:
  103f3c:	55                   	push   %ebp
  103f3d:	89 e5                	mov    %esp,%ebp
  103f3f:	8b 45 08             	mov    0x8(%ebp),%eax
  103f42:	c7 40 08 00 00 00 00 	movl   $0x0,0x8(%eax)
  103f49:	8b 45 08             	mov    0x8(%ebp),%eax
  103f4c:	8b 55 0c             	mov    0xc(%ebp),%edx
  103f4f:	89 50 0c             	mov    %edx,0xc(%eax)
  103f52:	5d                   	pop    %ebp
  103f53:	c3                   	ret    

00103f54 <_ZN11Scan2KeyCom5writeEh>:
  103f54:	55                   	push   %ebp
  103f55:	89 e5                	mov    %esp,%ebp
  103f57:	83 ec 18             	sub    $0x18,%esp
  103f5a:	8b 45 0c             	mov    0xc(%ebp),%eax
  103f5d:	88 45 f4             	mov    %al,-0xc(%ebp)
  103f60:	0f b6 45 f4          	movzbl -0xc(%ebp),%eax
  103f64:	0f be c0             	movsbl %al,%eax
  103f67:	89 44 24 04          	mov    %eax,0x4(%esp)
  103f6b:	8b 45 08             	mov    0x8(%ebp),%eax
  103f6e:	89 04 24             	mov    %eax,(%esp)
  103f71:	e8 02 00 00 00       	call   103f78 <_ZN11Scan2KeyCom10scan2asciiEc>
  103f76:	c9                   	leave  
  103f77:	c3                   	ret    

00103f78 <_ZN11Scan2KeyCom10scan2asciiEc>:
  103f78:	55                   	push   %ebp
  103f79:	89 e5                	mov    %esp,%ebp
  103f7b:	83 ec 28             	sub    $0x28,%esp
  103f7e:	8b 45 0c             	mov    0xc(%ebp),%eax
  103f81:	88 45 e4             	mov    %al,-0x1c(%ebp)
  103f84:	c7 45 ec 00 00 00 00 	movl   $0x0,-0x14(%ebp)
  103f8b:	c7 45 f4 00 00 00 00 	movl   $0x0,-0xc(%ebp)
  103f92:	c7 45 e8 00 00 00 00 	movl   $0x0,-0x18(%ebp)
  103f99:	c7 45 f0 00 00 00 00 	movl   $0x0,-0x10(%ebp)
  103fa0:	80 7d e4 00          	cmpb   $0x0,-0x1c(%ebp)
  103fa4:	79 0b                	jns    103fb1 <_ZN11Scan2KeyCom10scan2asciiEc+0x39>
  103fa6:	c7 45 f4 01 00 00 00 	movl   $0x1,-0xc(%ebp)
  103fad:	80 65 e4 7f          	andb   $0x7f,-0x1c(%ebp)
  103fb1:	0f be 55 e4          	movsbl -0x1c(%ebp),%edx
  103fb5:	b8 58 00 00 00       	mov    $0x58,%eax
  103fba:	39 c2                	cmp    %eax,%edx
  103fbc:	72 0a                	jb     103fc8 <_ZN11Scan2KeyCom10scan2asciiEc+0x50>
  103fbe:	b8 ff ff ff ff       	mov    $0xffffffff,%eax
  103fc3:	e9 56 02 00 00       	jmp    10421e <_ZN11Scan2KeyCom10scan2asciiEc+0x2a6>
  103fc8:	8b 45 08             	mov    0x8(%ebp),%eax
  103fcb:	8b 40 08             	mov    0x8(%eax),%eax
  103fce:	83 e0 03             	and    $0x3,%eax
  103fd1:	85 c0                	test   %eax,%eax
  103fd3:	0f 95 c0             	setne  %al
  103fd6:	0f b6 c0             	movzbl %al,%eax
  103fd9:	89 45 ec             	mov    %eax,-0x14(%ebp)
  103fdc:	83 7d ec 00          	cmpl   $0x0,-0x14(%ebp)
  103fe0:	74 11                	je     103ff3 <_ZN11Scan2KeyCom10scan2asciiEc+0x7b>
  103fe2:	0f be 45 e4          	movsbl -0x1c(%ebp),%eax
  103fe6:	0f b7 84 00 40 8c 10 	movzwl 0x108c40(%eax,%eax,1),%eax
  103fed:	00 
  103fee:	0f b7 c0             	movzwl %ax,%eax
  103ff1:	eb 0f                	jmp    104002 <_ZN11Scan2KeyCom10scan2asciiEc+0x8a>
  103ff3:	0f be 45 e4          	movsbl -0x1c(%ebp),%eax
  103ff7:	0f b7 84 00 80 8b 10 	movzwl 0x108b80(%eax,%eax,1),%eax
  103ffe:	00 
  103fff:	0f b7 c0             	movzwl %ax,%eax
  104002:	89 45 e8             	mov    %eax,-0x18(%ebp)
  104005:	8b 45 e8             	mov    -0x18(%ebp),%eax
  104008:	2d 0d 01 00 00       	sub    $0x10d,%eax
  10400d:	83 f8 05             	cmp    $0x5,%eax
  104010:	77 74                	ja     104086 <_ZN11Scan2KeyCom10scan2asciiEc+0x10e>
  104012:	8b 04 85 20 8b 10 00 	mov    0x108b20(,%eax,4),%eax
  104019:	ff e0                	jmp    *%eax
  10401b:	c7 45 f0 01 00 00 00 	movl   $0x1,-0x10(%ebp)
  104022:	eb 2c                	jmp    104050 <_ZN11Scan2KeyCom10scan2asciiEc+0xd8>
  104024:	c7 45 f0 02 00 00 00 	movl   $0x2,-0x10(%ebp)
  10402b:	eb 23                	jmp    104050 <_ZN11Scan2KeyCom10scan2asciiEc+0xd8>
  10402d:	c7 45 f0 04 00 00 00 	movl   $0x4,-0x10(%ebp)
  104034:	eb 1a                	jmp    104050 <_ZN11Scan2KeyCom10scan2asciiEc+0xd8>
  104036:	c7 45 f0 08 00 00 00 	movl   $0x8,-0x10(%ebp)
  10403d:	eb 11                	jmp    104050 <_ZN11Scan2KeyCom10scan2asciiEc+0xd8>
  10403f:	c7 45 f0 10 00 00 00 	movl   $0x10,-0x10(%ebp)
  104046:	eb 08                	jmp    104050 <_ZN11Scan2KeyCom10scan2asciiEc+0xd8>
  104048:	c7 45 f0 20 00 00 00 	movl   $0x20,-0x10(%ebp)
  10404f:	90                   	nop
  104050:	83 7d f4 00          	cmpl   $0x0,-0xc(%ebp)
  104054:	74 15                	je     10406b <_ZN11Scan2KeyCom10scan2asciiEc+0xf3>
  104056:	8b 45 08             	mov    0x8(%ebp),%eax
  104059:	8b 40 08             	mov    0x8(%eax),%eax
  10405c:	8b 55 f0             	mov    -0x10(%ebp),%edx
  10405f:	f7 d2                	not    %edx
  104061:	21 c2                	and    %eax,%edx
  104063:	8b 45 08             	mov    0x8(%ebp),%eax
  104066:	89 50 08             	mov    %edx,0x8(%eax)
  104069:	eb 11                	jmp    10407c <_ZN11Scan2KeyCom10scan2asciiEc+0x104>
  10406b:	8b 45 08             	mov    0x8(%ebp),%eax
  10406e:	8b 40 08             	mov    0x8(%eax),%eax
  104071:	0b 45 f0             	or     -0x10(%ebp),%eax
  104074:	89 c2                	mov    %eax,%edx
  104076:	8b 45 08             	mov    0x8(%ebp),%eax
  104079:	89 50 08             	mov    %edx,0x8(%eax)
  10407c:	b8 00 00 00 00       	mov    $0x0,%eax
  104081:	e9 98 01 00 00       	jmp    10421e <_ZN11Scan2KeyCom10scan2asciiEc+0x2a6>
  104086:	90                   	nop
  104087:	83 7d e8 00          	cmpl   $0x0,-0x18(%ebp)
  10408b:	75 0a                	jne    104097 <_ZN11Scan2KeyCom10scan2asciiEc+0x11f>
  10408d:	b8 00 00 00 00       	mov    $0x0,%eax
  104092:	e9 87 01 00 00       	jmp    10421e <_ZN11Scan2KeyCom10scan2asciiEc+0x2a6>
  104097:	8b 45 08             	mov    0x8(%ebp),%eax
  10409a:	8b 40 0c             	mov    0xc(%eax),%eax
  10409d:	85 c0                	test   %eax,%eax
  10409f:	0f 84 79 01 00 00    	je     10421e <_ZN11Scan2KeyCom10scan2asciiEc+0x2a6>
  1040a5:	83 7d f4 00          	cmpl   $0x0,-0xc(%ebp)
  1040a9:	0f 85 68 01 00 00    	jne    104217 <_ZN11Scan2KeyCom10scan2asciiEc+0x29f>
  1040af:	8b 45 e8             	mov    -0x18(%ebp),%eax
  1040b2:	2d 80 03 00 00       	sub    $0x380,%eax
  1040b7:	83 f8 0c             	cmp    $0xc,%eax
  1040ba:	0f 87 29 01 00 00    	ja     1041e9 <_ZN11Scan2KeyCom10scan2asciiEc+0x271>
  1040c0:	8b 04 85 38 8b 10 00 	mov    0x108b38(,%eax,4),%eax
  1040c7:	ff e0                	jmp    *%eax
  1040c9:	8b 45 08             	mov    0x8(%ebp),%eax
  1040cc:	8b 40 0c             	mov    0xc(%eax),%eax
  1040cf:	8b 00                	mov    (%eax),%eax
  1040d1:	83 c0 14             	add    $0x14,%eax
  1040d4:	8b 00                	mov    (%eax),%eax
  1040d6:	8b 55 08             	mov    0x8(%ebp),%edx
  1040d9:	8b 52 0c             	mov    0xc(%edx),%edx
  1040dc:	c7 44 24 04 01 00 00 	movl   $0x1,0x4(%esp)
  1040e3:	00 
  1040e4:	89 14 24             	mov    %edx,(%esp)
  1040e7:	ff d0                	call   *%eax
  1040e9:	b8 00 00 00 00       	mov    $0x0,%eax
  1040ee:	e9 2b 01 00 00       	jmp    10421e <_ZN11Scan2KeyCom10scan2asciiEc+0x2a6>
  1040f3:	8b 45 08             	mov    0x8(%ebp),%eax
  1040f6:	8b 40 0c             	mov    0xc(%eax),%eax
  1040f9:	8b 00                	mov    (%eax),%eax
  1040fb:	83 c0 1c             	add    $0x1c,%eax
  1040fe:	8b 00                	mov    (%eax),%eax
  104100:	8b 55 08             	mov    0x8(%ebp),%edx
  104103:	8b 52 0c             	mov    0xc(%edx),%edx
  104106:	c7 44 24 04 01 00 00 	movl   $0x1,0x4(%esp)
  10410d:	00 
  10410e:	89 14 24             	mov    %edx,(%esp)
  104111:	ff d0                	call   *%eax
  104113:	b8 00 00 00 00       	mov    $0x0,%eax
  104118:	e9 01 01 00 00       	jmp    10421e <_ZN11Scan2KeyCom10scan2asciiEc+0x2a6>
  10411d:	8b 45 08             	mov    0x8(%ebp),%eax
  104120:	8b 40 0c             	mov    0xc(%eax),%eax
  104123:	8b 00                	mov    (%eax),%eax
  104125:	83 c0 18             	add    $0x18,%eax
  104128:	8b 00                	mov    (%eax),%eax
  10412a:	8b 55 08             	mov    0x8(%ebp),%edx
  10412d:	8b 52 0c             	mov    0xc(%edx),%edx
  104130:	c7 44 24 04 01 00 00 	movl   $0x1,0x4(%esp)
  104137:	00 
  104138:	89 14 24             	mov    %edx,(%esp)
  10413b:	ff d0                	call   *%eax
  10413d:	b8 00 00 00 00       	mov    $0x0,%eax
  104142:	e9 d7 00 00 00       	jmp    10421e <_ZN11Scan2KeyCom10scan2asciiEc+0x2a6>
  104147:	8b 45 08             	mov    0x8(%ebp),%eax
  10414a:	8b 40 0c             	mov    0xc(%eax),%eax
  10414d:	8b 00                	mov    (%eax),%eax
  10414f:	83 c0 20             	add    $0x20,%eax
  104152:	8b 00                	mov    (%eax),%eax
  104154:	8b 55 08             	mov    0x8(%ebp),%edx
  104157:	8b 52 0c             	mov    0xc(%edx),%edx
  10415a:	c7 44 24 04 01 00 00 	movl   $0x1,0x4(%esp)
  104161:	00 
  104162:	89 14 24             	mov    %edx,(%esp)
  104165:	ff d0                	call   *%eax
  104167:	b8 00 00 00 00       	mov    $0x0,%eax
  10416c:	e9 ad 00 00 00       	jmp    10421e <_ZN11Scan2KeyCom10scan2asciiEc+0x2a6>
  104171:	8b 45 08             	mov    0x8(%ebp),%eax
  104174:	8b 40 0c             	mov    0xc(%eax),%eax
  104177:	8b 00                	mov    (%eax),%eax
  104179:	83 c0 08             	add    $0x8,%eax
  10417c:	8b 00                	mov    (%eax),%eax
  10417e:	8b 55 08             	mov    0x8(%ebp),%edx
  104181:	8b 52 0c             	mov    0xc(%edx),%edx
  104184:	c7 44 24 04 01 00 00 	movl   $0x1,0x4(%esp)
  10418b:	00 
  10418c:	89 14 24             	mov    %edx,(%esp)
  10418f:	ff d0                	call   *%eax
  104191:	b8 00 00 00 00       	mov    $0x0,%eax
  104196:	e9 83 00 00 00       	jmp    10421e <_ZN11Scan2KeyCom10scan2asciiEc+0x2a6>
  10419b:	8b 45 08             	mov    0x8(%ebp),%eax
  10419e:	8b 40 0c             	mov    0xc(%eax),%eax
  1041a1:	8b 00                	mov    (%eax),%eax
  1041a3:	83 c0 0c             	add    $0xc,%eax
  1041a6:	8b 00                	mov    (%eax),%eax
  1041a8:	8b 55 08             	mov    0x8(%ebp),%edx
  1041ab:	8b 52 0c             	mov    0xc(%edx),%edx
  1041ae:	c7 44 24 04 01 00 00 	movl   $0x1,0x4(%esp)
  1041b5:	00 
  1041b6:	89 14 24             	mov    %edx,(%esp)
  1041b9:	ff d0                	call   *%eax
  1041bb:	b8 00 00 00 00       	mov    $0x0,%eax
  1041c0:	eb 5c                	jmp    10421e <_ZN11Scan2KeyCom10scan2asciiEc+0x2a6>
  1041c2:	8b 45 08             	mov    0x8(%ebp),%eax
  1041c5:	8b 40 0c             	mov    0xc(%eax),%eax
  1041c8:	8b 00                	mov    (%eax),%eax
  1041ca:	83 c0 10             	add    $0x10,%eax
  1041cd:	8b 00                	mov    (%eax),%eax
  1041cf:	8b 55 08             	mov    0x8(%ebp),%edx
  1041d2:	8b 52 0c             	mov    0xc(%edx),%edx
  1041d5:	c7 44 24 04 01 00 00 	movl   $0x1,0x4(%esp)
  1041dc:	00 
  1041dd:	89 14 24             	mov    %edx,(%esp)
  1041e0:	ff d0                	call   *%eax
  1041e2:	b8 00 00 00 00       	mov    $0x0,%eax
  1041e7:	eb 35                	jmp    10421e <_ZN11Scan2KeyCom10scan2asciiEc+0x2a6>
  1041e9:	8b 45 08             	mov    0x8(%ebp),%eax
  1041ec:	8b 40 0c             	mov    0xc(%eax),%eax
  1041ef:	85 c0                	test   %eax,%eax
  1041f1:	74 1f                	je     104212 <_ZN11Scan2KeyCom10scan2asciiEc+0x29a>
  1041f3:	8b 45 08             	mov    0x8(%ebp),%eax
  1041f6:	8b 40 0c             	mov    0xc(%eax),%eax
  1041f9:	8b 00                	mov    (%eax),%eax
  1041fb:	8b 00                	mov    (%eax),%eax
  1041fd:	8b 55 e8             	mov    -0x18(%ebp),%edx
  104200:	0f b6 ca             	movzbl %dl,%ecx
  104203:	8b 55 08             	mov    0x8(%ebp),%edx
  104206:	8b 52 0c             	mov    0xc(%edx),%edx
  104209:	89 4c 24 04          	mov    %ecx,0x4(%esp)
  10420d:	89 14 24             	mov    %edx,(%esp)
  104210:	ff d0                	call   *%eax
  104212:	8b 45 e8             	mov    -0x18(%ebp),%eax
  104215:	eb 07                	jmp    10421e <_ZN11Scan2KeyCom10scan2asciiEc+0x2a6>
  104217:	b8 00 00 00 00       	mov    $0x0,%eax
  10421c:	eb 00                	jmp    10421e <_ZN11Scan2KeyCom10scan2asciiEc+0x2a6>
  10421e:	c9                   	leave  
  10421f:	c3                   	ret    

00104220 <_ZL4outbth>:
  104220:	55                   	push   %ebp
  104221:	89 e5                	mov    %esp,%ebp
  104223:	83 ec 08             	sub    $0x8,%esp
  104226:	8b 55 08             	mov    0x8(%ebp),%edx
  104229:	8b 45 0c             	mov    0xc(%ebp),%eax
  10422c:	66 89 55 fc          	mov    %dx,-0x4(%ebp)
  104230:	88 45 f8             	mov    %al,-0x8(%ebp)
  104233:	0f b7 55 fc          	movzwl -0x4(%ebp),%edx
  104237:	0f b6 45 f8          	movzbl -0x8(%ebp),%eax
  10423b:	ee                   	out    %al,(%dx)
  10423c:	c9                   	leave  
  10423d:	c3                   	ret    

0010423e <_ZL3inbt>:
  10423e:	55                   	push   %ebp
  10423f:	89 e5                	mov    %esp,%ebp
  104241:	83 ec 14             	sub    $0x14,%esp
  104244:	8b 45 08             	mov    0x8(%ebp),%eax
  104247:	66 89 45 ec          	mov    %ax,-0x14(%ebp)
  10424b:	0f b7 45 ec          	movzwl -0x14(%ebp),%eax
  10424f:	89 c2                	mov    %eax,%edx
  104251:	ec                   	in     (%dx),%al
  104252:	88 45 ff             	mov    %al,-0x1(%ebp)
  104255:	0f b6 45 ff          	movzbl -0x1(%ebp),%eax
  104259:	c9                   	leave  
  10425a:	c3                   	ret    

0010425b <_ZL29platform_abstract_irq_handlerP14interrupt_info>:
  10425b:	55                   	push   %ebp
  10425c:	89 e5                	mov    %esp,%ebp
  10425e:	83 ec 08             	sub    $0x8,%esp
  104261:	8b 45 08             	mov    0x8(%ebp),%eax
  104264:	8b 40 24             	mov    0x24(%eax),%eax
  104267:	83 f8 27             	cmp    $0x27,%eax
  10426a:	76 14                	jbe    104280 <_ZL29platform_abstract_irq_handlerP14interrupt_info+0x25>
  10426c:	c7 44 24 04 20 00 00 	movl   $0x20,0x4(%esp)
  104273:	00 
  104274:	c7 04 24 a0 00 00 00 	movl   $0xa0,(%esp)
  10427b:	e8 a0 ff ff ff       	call   104220 <_ZL4outbth>
  104280:	8b 45 08             	mov    0x8(%ebp),%eax
  104283:	8b 40 24             	mov    0x24(%eax),%eax
  104286:	83 f8 1f             	cmp    $0x1f,%eax
  104289:	76 14                	jbe    10429f <_ZL29platform_abstract_irq_handlerP14interrupt_info+0x44>
  10428b:	c7 44 24 04 20 00 00 	movl   $0x20,0x4(%esp)
  104292:	00 
  104293:	c7 04 24 20 00 00 00 	movl   $0x20,(%esp)
  10429a:	e8 81 ff ff ff       	call   104220 <_ZL4outbth>
  10429f:	c9                   	leave  
  1042a0:	c3                   	ret    
  1042a1:	90                   	nop

001042a2 <_ZN12Object_cacheC1EjP11Allocator_p>:
  1042a2:	55                   	push   %ebp
  1042a3:	89 e5                	mov    %esp,%ebp
  1042a5:	83 ec 18             	sub    $0x18,%esp
  1042a8:	8b 45 08             	mov    0x8(%ebp),%eax
  1042ab:	89 04 24             	mov    %eax,(%esp)
  1042ae:	e8 01 06 00 00       	call   1048b4 <_ZN11Allocator_pC1Ev>
  1042b3:	8b 45 08             	mov    0x8(%ebp),%eax
  1042b6:	c7 00 20 8d 10 00    	movl   $0x108d20,(%eax)
  1042bc:	8b 45 10             	mov    0x10(%ebp),%eax
  1042bf:	89 44 24 08          	mov    %eax,0x8(%esp)
  1042c3:	8b 45 0c             	mov    0xc(%ebp),%eax
  1042c6:	89 44 24 04          	mov    %eax,0x4(%esp)
  1042ca:	8b 45 08             	mov    0x8(%ebp),%eax
  1042cd:	89 04 24             	mov    %eax,(%esp)
  1042d0:	e8 03 00 00 00       	call   1042d8 <_ZN12Object_cache4initEjP11Allocator_p>
  1042d5:	c9                   	leave  
  1042d6:	c3                   	ret    
  1042d7:	90                   	nop

001042d8 <_ZN12Object_cache4initEjP11Allocator_p>:
  1042d8:	55                   	push   %ebp
  1042d9:	89 e5                	mov    %esp,%ebp
  1042db:	8b 45 08             	mov    0x8(%ebp),%eax
  1042de:	8b 55 0c             	mov    0xc(%ebp),%edx
  1042e1:	89 50 08             	mov    %edx,0x8(%eax)
  1042e4:	8b 45 08             	mov    0x8(%ebp),%eax
  1042e7:	8d 50 0c             	lea    0xc(%eax),%edx
  1042ea:	8b 45 08             	mov    0x8(%ebp),%eax
  1042ed:	89 50 0c             	mov    %edx,0xc(%eax)
  1042f0:	8b 45 08             	mov    0x8(%ebp),%eax
  1042f3:	8b 55 10             	mov    0x10(%ebp),%edx
  1042f6:	89 50 04             	mov    %edx,0x4(%eax)
  1042f9:	5d                   	pop    %ebp
  1042fa:	c3                   	ret    
  1042fb:	90                   	nop

001042fc <_ZN12Object_cache8allocateEj>:
  1042fc:	55                   	push   %ebp
  1042fd:	89 e5                	mov    %esp,%ebp
  1042ff:	83 ec 10             	sub    $0x10,%esp
  104302:	8b 45 08             	mov    0x8(%ebp),%eax
  104305:	8b 40 0c             	mov    0xc(%eax),%eax
  104308:	89 45 fc             	mov    %eax,-0x4(%ebp)
  10430b:	8b 45 08             	mov    0x8(%ebp),%eax
  10430e:	8b 40 0c             	mov    0xc(%eax),%eax
  104311:	8b 10                	mov    (%eax),%edx
  104313:	8b 45 08             	mov    0x8(%ebp),%eax
  104316:	89 50 0c             	mov    %edx,0xc(%eax)
  104319:	8b 45 fc             	mov    -0x4(%ebp),%eax
  10431c:	c9                   	leave  
  10431d:	c3                   	ret    

0010431e <_ZN12Object_cache10deallocateEPv>:
  10431e:	55                   	push   %ebp
  10431f:	89 e5                	mov    %esp,%ebp
  104321:	83 ec 10             	sub    $0x10,%esp
  104324:	8b 45 08             	mov    0x8(%ebp),%eax
  104327:	8b 40 0c             	mov    0xc(%eax),%eax
  10432a:	89 45 fc             	mov    %eax,-0x4(%ebp)
  10432d:	8b 45 08             	mov    0x8(%ebp),%eax
  104330:	8b 55 0c             	mov    0xc(%ebp),%edx
  104333:	89 50 0c             	mov    %edx,0xc(%eax)
  104336:	8b 45 0c             	mov    0xc(%ebp),%eax
  104339:	8b 55 fc             	mov    -0x4(%ebp),%edx
  10433c:	89 10                	mov    %edx,(%eax)
  10433e:	c9                   	leave  
  10433f:	c3                   	ret    

00104340 <_ZN12Object_cache6engageEPvj>:
  104340:	55                   	push   %ebp
  104341:	89 e5                	mov    %esp,%ebp
  104343:	53                   	push   %ebx
  104344:	83 ec 10             	sub    $0x10,%esp
  104347:	8b 45 0c             	mov    0xc(%ebp),%eax
  10434a:	89 45 f8             	mov    %eax,-0x8(%ebp)
  10434d:	c7 45 f4 00 00 00 00 	movl   $0x0,-0xc(%ebp)
  104354:	eb 24                	jmp    10437a <_ZN12Object_cache6engageEPvj+0x3a>
  104356:	8b 45 08             	mov    0x8(%ebp),%eax
  104359:	8b 50 08             	mov    0x8(%eax),%edx
  10435c:	8b 45 f4             	mov    -0xc(%ebp),%eax
  10435f:	0f af d0             	imul   %eax,%edx
  104362:	8b 45 0c             	mov    0xc(%ebp),%eax
  104365:	01 d0                	add    %edx,%eax
  104367:	89 c2                	mov    %eax,%edx
  104369:	8b 45 f8             	mov    -0x8(%ebp),%eax
  10436c:	89 10                	mov    %edx,(%eax)
  10436e:	8b 45 f8             	mov    -0x8(%ebp),%eax
  104371:	8b 00                	mov    (%eax),%eax
  104373:	89 45 f8             	mov    %eax,-0x8(%ebp)
  104376:	83 45 f4 01          	addl   $0x1,-0xc(%ebp)
  10437a:	8b 4d f4             	mov    -0xc(%ebp),%ecx
  10437d:	8b 45 08             	mov    0x8(%ebp),%eax
  104380:	8b 58 08             	mov    0x8(%eax),%ebx
  104383:	8b 45 10             	mov    0x10(%ebp),%eax
  104386:	ba 00 00 00 00       	mov    $0x0,%edx
  10438b:	f7 f3                	div    %ebx
  10438d:	39 c1                	cmp    %eax,%ecx
  10438f:	72 c5                	jb     104356 <_ZN12Object_cache6engageEPvj+0x16>
  104391:	8b 45 08             	mov    0x8(%ebp),%eax
  104394:	8b 50 0c             	mov    0xc(%eax),%edx
  104397:	8b 45 f8             	mov    -0x8(%ebp),%eax
  10439a:	89 10                	mov    %edx,(%eax)
  10439c:	8b 45 08             	mov    0x8(%ebp),%eax
  10439f:	8b 55 0c             	mov    0xc(%ebp),%edx
  1043a2:	89 50 0c             	mov    %edx,0xc(%eax)
  1043a5:	83 c4 10             	add    $0x10,%esp
  1043a8:	5b                   	pop    %ebx
  1043a9:	5d                   	pop    %ebp
  1043aa:	c3                   	ret    
  1043ab:	90                   	nop

001043ac <_ZN12Object_cache8freeinfoEv>:
  1043ac:	55                   	push   %ebp
  1043ad:	89 e5                	mov    %esp,%ebp
  1043af:	83 ec 10             	sub    $0x10,%esp
  1043b2:	c7 45 fc 00 00 00 00 	movl   $0x0,-0x4(%ebp)
  1043b9:	8b 45 08             	mov    0x8(%ebp),%eax
  1043bc:	8b 40 0c             	mov    0xc(%eax),%eax
  1043bf:	89 45 f8             	mov    %eax,-0x8(%ebp)
  1043c2:	eb 0c                	jmp    1043d0 <_ZN12Object_cache8freeinfoEv+0x24>
  1043c4:	83 45 fc 01          	addl   $0x1,-0x4(%ebp)
  1043c8:	8b 45 f8             	mov    -0x8(%ebp),%eax
  1043cb:	8b 00                	mov    (%eax),%eax
  1043cd:	89 45 f8             	mov    %eax,-0x8(%ebp)
  1043d0:	8b 45 08             	mov    0x8(%ebp),%eax
  1043d3:	83 c0 0c             	add    $0xc,%eax
  1043d6:	3b 45 f8             	cmp    -0x8(%ebp),%eax
  1043d9:	75 e9                	jne    1043c4 <_ZN12Object_cache8freeinfoEv+0x18>
  1043db:	8b 45 08             	mov    0x8(%ebp),%eax
  1043de:	8b 50 08             	mov    0x8(%eax),%edx
  1043e1:	8b 45 fc             	mov    -0x4(%ebp),%eax
  1043e4:	0f af c2             	imul   %edx,%eax
  1043e7:	c9                   	leave  
  1043e8:	c3                   	ret    

001043e9 <_ZnwjPv>:
  1043e9:	55                   	push   %ebp
  1043ea:	89 e5                	mov    %esp,%ebp
  1043ec:	8b 45 0c             	mov    0xc(%ebp),%eax
  1043ef:	5d                   	pop    %ebp
  1043f0:	c3                   	ret    

001043f1 <_ZdlPvS_>:
  1043f1:	55                   	push   %ebp
  1043f2:	89 e5                	mov    %esp,%ebp
  1043f4:	5d                   	pop    %ebp
  1043f5:	c3                   	ret    

001043f6 <_ZnwjP11Allocator_p>:
  1043f6:	55                   	push   %ebp
  1043f7:	89 e5                	mov    %esp,%ebp
  1043f9:	83 ec 18             	sub    $0x18,%esp
  1043fc:	8b 45 0c             	mov    0xc(%ebp),%eax
  1043ff:	8b 00                	mov    (%eax),%eax
  104401:	8b 00                	mov    (%eax),%eax
  104403:	8b 55 08             	mov    0x8(%ebp),%edx
  104406:	89 54 24 04          	mov    %edx,0x4(%esp)
  10440a:	8b 55 0c             	mov    0xc(%ebp),%edx
  10440d:	89 14 24             	mov    %edx,(%esp)
  104410:	ff d0                	call   *%eax
  104412:	c9                   	leave  
  104413:	c3                   	ret    

00104414 <_ZdlPvP11Allocator_p>:
  104414:	55                   	push   %ebp
  104415:	89 e5                	mov    %esp,%ebp
  104417:	83 ec 18             	sub    $0x18,%esp
  10441a:	8b 45 0c             	mov    0xc(%ebp),%eax
  10441d:	8b 00                	mov    (%eax),%eax
  10441f:	83 c0 04             	add    $0x4,%eax
  104422:	8b 00                	mov    (%eax),%eax
  104424:	8b 55 08             	mov    0x8(%ebp),%edx
  104427:	89 54 24 04          	mov    %edx,0x4(%esp)
  10442b:	8b 55 0c             	mov    0xc(%ebp),%edx
  10442e:	89 14 24             	mov    %edx,(%esp)
  104431:	ff d0                	call   *%eax
  104433:	c9                   	leave  
  104434:	c3                   	ret    

00104435 <_Znwj>:
  104435:	55                   	push   %ebp
  104436:	89 e5                	mov    %esp,%ebp
  104438:	83 ec 18             	sub    $0x18,%esp
  10443b:	a1 20 96 10 00       	mov    0x109620,%eax
  104440:	8b 00                	mov    (%eax),%eax
  104442:	8b 00                	mov    (%eax),%eax
  104444:	8b 15 20 96 10 00    	mov    0x109620,%edx
  10444a:	8b 4d 08             	mov    0x8(%ebp),%ecx
  10444d:	89 4c 24 04          	mov    %ecx,0x4(%esp)
  104451:	89 14 24             	mov    %edx,(%esp)
  104454:	ff d0                	call   *%eax
  104456:	c9                   	leave  
  104457:	c3                   	ret    

00104458 <_ZdlPv>:
  104458:	55                   	push   %ebp
  104459:	89 e5                	mov    %esp,%ebp
  10445b:	83 ec 18             	sub    $0x18,%esp
  10445e:	a1 20 96 10 00       	mov    0x109620,%eax
  104463:	8b 00                	mov    (%eax),%eax
  104465:	83 c0 04             	add    $0x4,%eax
  104468:	8b 00                	mov    (%eax),%eax
  10446a:	8b 15 20 96 10 00    	mov    0x109620,%edx
  104470:	8b 4d 08             	mov    0x8(%ebp),%ecx
  104473:	89 4c 24 04          	mov    %ecx,0x4(%esp)
  104477:	89 14 24             	mov    %edx,(%esp)
  10447a:	ff d0                	call   *%eax
  10447c:	c9                   	leave  
  10447d:	c3                   	ret    

0010447e <_ZN16Linear_allocatorC1EP11Allocator_p>:
  10447e:	55                   	push   %ebp
  10447f:	89 e5                	mov    %esp,%ebp
  104481:	83 ec 18             	sub    $0x18,%esp
  104484:	8b 45 08             	mov    0x8(%ebp),%eax
  104487:	89 04 24             	mov    %eax,(%esp)
  10448a:	e8 25 04 00 00       	call   1048b4 <_ZN11Allocator_pC1Ev>
  10448f:	8b 45 08             	mov    0x8(%ebp),%eax
  104492:	c7 00 08 8d 10 00    	movl   $0x108d08,(%eax)
  104498:	8b 45 0c             	mov    0xc(%ebp),%eax
  10449b:	89 44 24 04          	mov    %eax,0x4(%esp)
  10449f:	8b 45 08             	mov    0x8(%ebp),%eax
  1044a2:	89 04 24             	mov    %eax,(%esp)
  1044a5:	e8 02 00 00 00       	call   1044ac <_ZN16Linear_allocator4initEP11Allocator_p>
  1044aa:	c9                   	leave  
  1044ab:	c3                   	ret    

001044ac <_ZN16Linear_allocator4initEP11Allocator_p>:
  1044ac:	55                   	push   %ebp
  1044ad:	89 e5                	mov    %esp,%ebp
  1044af:	5d                   	pop    %ebp
  1044b0:	c3                   	ret    
  1044b1:	90                   	nop

001044b2 <_ZN16Linear_allocator6engageEPvj>:
  1044b2:	55                   	push   %ebp
  1044b3:	89 e5                	mov    %esp,%ebp
  1044b5:	8b 45 08             	mov    0x8(%ebp),%eax
  1044b8:	c7 40 08 00 00 00 00 	movl   $0x0,0x8(%eax)
  1044bf:	8b 45 08             	mov    0x8(%ebp),%eax
  1044c2:	8b 55 0c             	mov    0xc(%ebp),%edx
  1044c5:	89 50 10             	mov    %edx,0x10(%eax)
  1044c8:	8b 45 10             	mov    0x10(%ebp),%eax
  1044cb:	8b 55 0c             	mov    0xc(%ebp),%edx
  1044ce:	01 c2                	add    %eax,%edx
  1044d0:	8b 45 08             	mov    0x8(%ebp),%eax
  1044d3:	89 50 0c             	mov    %edx,0xc(%eax)
  1044d6:	5d                   	pop    %ebp
  1044d7:	c3                   	ret    

001044d8 <_ZN16Linear_allocator8freeinfoEv>:
  1044d8:	55                   	push   %ebp
  1044d9:	89 e5                	mov    %esp,%ebp
  1044db:	83 ec 28             	sub    $0x28,%esp
  1044de:	c7 45 f4 00 00 00 00 	movl   $0x0,-0xc(%ebp)
  1044e5:	8b 45 08             	mov    0x8(%ebp),%eax
  1044e8:	8b 40 08             	mov    0x8(%eax),%eax
  1044eb:	89 45 f0             	mov    %eax,-0x10(%ebp)
  1044ee:	eb 6e                	jmp    10455e <_ZN16Linear_allocator8freeinfoEv+0x86>
  1044f0:	8b 45 f0             	mov    -0x10(%ebp),%eax
  1044f3:	8b 40 04             	mov    0x4(%eax),%eax
  1044f6:	89 45 f0             	mov    %eax,-0x10(%ebp)
  1044f9:	8b 45 f0             	mov    -0x10(%ebp),%eax
  1044fc:	8b 40 04             	mov    0x4(%eax),%eax
  1044ff:	89 c2                	mov    %eax,%edx
  104501:	a1 80 92 10 00       	mov    0x109280,%eax
  104506:	c7 44 24 08 10 00 00 	movl   $0x10,0x8(%esp)
  10450d:	00 
  10450e:	89 54 24 04          	mov    %edx,0x4(%esp)
  104512:	89 04 24             	mov    %eax,(%esp)
  104515:	e8 30 c7 ff ff       	call   100c4a <_ZN5Print5printEii>
  10451a:	a1 80 92 10 00       	mov    0x109280,%eax
  10451f:	8b 00                	mov    (%eax),%eax
  104521:	8b 00                	mov    (%eax),%eax
  104523:	8b 15 80 92 10 00    	mov    0x109280,%edx
  104529:	c7 44 24 04 09 00 00 	movl   $0x9,0x4(%esp)
  104530:	00 
  104531:	89 14 24             	mov    %edx,(%esp)
  104534:	ff d0                	call   *%eax
  104536:	8b 45 f0             	mov    -0x10(%ebp),%eax
  104539:	8b 00                	mov    (%eax),%eax
  10453b:	89 c2                	mov    %eax,%edx
  10453d:	a1 80 92 10 00       	mov    0x109280,%eax
  104542:	c7 44 24 08 10 00 00 	movl   $0x10,0x8(%esp)
  104549:	00 
  10454a:	89 54 24 04          	mov    %edx,0x4(%esp)
  10454e:	89 04 24             	mov    %eax,(%esp)
  104551:	e8 2e c9 ff ff       	call   100e84 <_ZN5Print7printlnEii>
  104556:	8b 45 f0             	mov    -0x10(%ebp),%eax
  104559:	8b 00                	mov    (%eax),%eax
  10455b:	01 45 f4             	add    %eax,-0xc(%ebp)
  10455e:	83 7d f0 00          	cmpl   $0x0,-0x10(%ebp)
  104562:	75 8c                	jne    1044f0 <_ZN16Linear_allocator8freeinfoEv+0x18>
  104564:	8b 45 08             	mov    0x8(%ebp),%eax
  104567:	8b 40 10             	mov    0x10(%eax),%eax
  10456a:	8b 55 f4             	mov    -0xc(%ebp),%edx
  10456d:	29 c2                	sub    %eax,%edx
  10456f:	8b 45 08             	mov    0x8(%ebp),%eax
  104572:	8b 40 0c             	mov    0xc(%eax),%eax
  104575:	01 d0                	add    %edx,%eax
  104577:	c9                   	leave  
  104578:	c3                   	ret    
  104579:	90                   	nop

0010457a <_ZN16Linear_allocator8allocateEj>:
  10457a:	55                   	push   %ebp
  10457b:	89 e5                	mov    %esp,%ebp
  10457d:	83 ec 20             	sub    $0x20,%esp
  104580:	b8 04 00 00 00       	mov    $0x4,%eax
  104585:	3b 45 0c             	cmp    0xc(%ebp),%eax
  104588:	76 07                	jbe    104591 <_ZN16Linear_allocator8allocateEj+0x17>
  10458a:	c7 45 0c 04 00 00 00 	movl   $0x4,0xc(%ebp)
  104591:	c7 45 ec 00 00 00 00 	movl   $0x0,-0x14(%ebp)
  104598:	8b 45 08             	mov    0x8(%ebp),%eax
  10459b:	8b 40 08             	mov    0x8(%eax),%eax
  10459e:	89 45 fc             	mov    %eax,-0x4(%ebp)
  1045a1:	c7 45 f8 00 00 00 00 	movl   $0x0,-0x8(%ebp)
  1045a8:	eb 74                	jmp    10461e <_ZN16Linear_allocator8allocateEj+0xa4>
  1045aa:	8b 45 fc             	mov    -0x4(%ebp),%eax
  1045ad:	8b 00                	mov    (%eax),%eax
  1045af:	3b 45 0c             	cmp    0xc(%ebp),%eax
  1045b2:	73 02                	jae    1045b6 <_ZN16Linear_allocator8allocateEj+0x3c>
  1045b4:	eb 59                	jmp    10460f <_ZN16Linear_allocator8allocateEj+0x95>
  1045b6:	8b 45 fc             	mov    -0x4(%ebp),%eax
  1045b9:	8b 00                	mov    (%eax),%eax
  1045bb:	3b 45 0c             	cmp    0xc(%ebp),%eax
  1045be:	75 2b                	jne    1045eb <_ZN16Linear_allocator8allocateEj+0x71>
  1045c0:	83 7d f8 00          	cmpl   $0x0,-0x8(%ebp)
  1045c4:	74 0e                	je     1045d4 <_ZN16Linear_allocator8allocateEj+0x5a>
  1045c6:	8b 45 fc             	mov    -0x4(%ebp),%eax
  1045c9:	8b 50 04             	mov    0x4(%eax),%edx
  1045cc:	8b 45 f8             	mov    -0x8(%ebp),%eax
  1045cf:	89 50 04             	mov    %edx,0x4(%eax)
  1045d2:	eb 0c                	jmp    1045e0 <_ZN16Linear_allocator8allocateEj+0x66>
  1045d4:	8b 45 fc             	mov    -0x4(%ebp),%eax
  1045d7:	8b 50 04             	mov    0x4(%eax),%edx
  1045da:	8b 45 08             	mov    0x8(%ebp),%eax
  1045dd:	89 50 08             	mov    %edx,0x8(%eax)
  1045e0:	8b 45 fc             	mov    -0x4(%ebp),%eax
  1045e3:	83 c0 04             	add    $0x4,%eax
  1045e6:	e9 1c 01 00 00       	jmp    104707 <_ZN16Linear_allocator8allocateEj+0x18d>
  1045eb:	83 7d ec 00          	cmpl   $0x0,-0x14(%ebp)
  1045ef:	74 0a                	je     1045fb <_ZN16Linear_allocator8allocateEj+0x81>
  1045f1:	8b 45 fc             	mov    -0x4(%ebp),%eax
  1045f4:	8b 00                	mov    (%eax),%eax
  1045f6:	3b 45 ec             	cmp    -0x14(%ebp),%eax
  1045f9:	73 14                	jae    10460f <_ZN16Linear_allocator8allocateEj+0x95>
  1045fb:	8b 45 fc             	mov    -0x4(%ebp),%eax
  1045fe:	8b 00                	mov    (%eax),%eax
  104600:	89 45 ec             	mov    %eax,-0x14(%ebp)
  104603:	8b 45 fc             	mov    -0x4(%ebp),%eax
  104606:	89 45 f4             	mov    %eax,-0xc(%ebp)
  104609:	8b 45 f8             	mov    -0x8(%ebp),%eax
  10460c:	89 45 f0             	mov    %eax,-0x10(%ebp)
  10460f:	8b 45 fc             	mov    -0x4(%ebp),%eax
  104612:	89 45 f8             	mov    %eax,-0x8(%ebp)
  104615:	8b 45 fc             	mov    -0x4(%ebp),%eax
  104618:	8b 40 04             	mov    0x4(%eax),%eax
  10461b:	89 45 fc             	mov    %eax,-0x4(%ebp)
  10461e:	83 7d fc 00          	cmpl   $0x0,-0x4(%ebp)
  104622:	75 86                	jne    1045aa <_ZN16Linear_allocator8allocateEj+0x30>
  104624:	83 7d ec 00          	cmpl   $0x0,-0x14(%ebp)
  104628:	74 6d                	je     104697 <_ZN16Linear_allocator8allocateEj+0x11d>
  10462a:	8b 45 0c             	mov    0xc(%ebp),%eax
  10462d:	8b 55 ec             	mov    -0x14(%ebp),%edx
  104630:	29 c2                	sub    %eax,%edx
  104632:	89 d0                	mov    %edx,%eax
  104634:	83 f8 08             	cmp    $0x8,%eax
  104637:	73 2b                	jae    104664 <_ZN16Linear_allocator8allocateEj+0xea>
  104639:	83 7d f0 00          	cmpl   $0x0,-0x10(%ebp)
  10463d:	74 0e                	je     10464d <_ZN16Linear_allocator8allocateEj+0xd3>
  10463f:	8b 45 f4             	mov    -0xc(%ebp),%eax
  104642:	8b 50 04             	mov    0x4(%eax),%edx
  104645:	8b 45 f0             	mov    -0x10(%ebp),%eax
  104648:	89 50 04             	mov    %edx,0x4(%eax)
  10464b:	eb 0c                	jmp    104659 <_ZN16Linear_allocator8allocateEj+0xdf>
  10464d:	8b 45 f4             	mov    -0xc(%ebp),%eax
  104650:	8b 50 04             	mov    0x4(%eax),%edx
  104653:	8b 45 08             	mov    0x8(%ebp),%eax
  104656:	89 50 08             	mov    %edx,0x8(%eax)
  104659:	8b 45 f4             	mov    -0xc(%ebp),%eax
  10465c:	83 c0 04             	add    $0x4,%eax
  10465f:	e9 a3 00 00 00       	jmp    104707 <_ZN16Linear_allocator8allocateEj+0x18d>
  104664:	8b 45 f4             	mov    -0xc(%ebp),%eax
  104667:	89 45 e8             	mov    %eax,-0x18(%ebp)
  10466a:	8b 45 0c             	mov    0xc(%ebp),%eax
  10466d:	29 45 ec             	sub    %eax,-0x14(%ebp)
  104670:	8b 45 ec             	mov    -0x14(%ebp),%eax
  104673:	01 45 e8             	add    %eax,-0x18(%ebp)
  104676:	8b 45 e8             	mov    -0x18(%ebp),%eax
  104679:	89 45 f0             	mov    %eax,-0x10(%ebp)
  10467c:	8b 45 f0             	mov    -0x10(%ebp),%eax
  10467f:	8b 55 0c             	mov    0xc(%ebp),%edx
  104682:	89 10                	mov    %edx,(%eax)
  104684:	8b 45 ec             	mov    -0x14(%ebp),%eax
  104687:	8d 50 fc             	lea    -0x4(%eax),%edx
  10468a:	8b 45 f4             	mov    -0xc(%ebp),%eax
  10468d:	89 10                	mov    %edx,(%eax)
  10468f:	8b 45 f0             	mov    -0x10(%ebp),%eax
  104692:	83 c0 04             	add    $0x4,%eax
  104695:	eb 70                	jmp    104707 <_ZN16Linear_allocator8allocateEj+0x18d>
  104697:	8b 45 08             	mov    0x8(%ebp),%eax
  10469a:	8b 40 0c             	mov    0xc(%eax),%eax
  10469d:	89 45 e8             	mov    %eax,-0x18(%ebp)
  1046a0:	8b 45 08             	mov    0x8(%ebp),%eax
  1046a3:	8b 40 10             	mov    0x10(%eax),%eax
  1046a6:	3b 45 e8             	cmp    -0x18(%ebp),%eax
  1046a9:	72 07                	jb     1046b2 <_ZN16Linear_allocator8allocateEj+0x138>
  1046ab:	b8 00 00 00 00       	mov    $0x0,%eax
  1046b0:	eb 55                	jmp    104707 <_ZN16Linear_allocator8allocateEj+0x18d>
  1046b2:	8b 55 e8             	mov    -0x18(%ebp),%edx
  1046b5:	8b 45 08             	mov    0x8(%ebp),%eax
  1046b8:	8b 40 10             	mov    0x10(%eax),%eax
  1046bb:	29 c2                	sub    %eax,%edx
  1046bd:	89 d0                	mov    %edx,%eax
  1046bf:	89 45 e4             	mov    %eax,-0x1c(%ebp)
  1046c2:	8b 45 e4             	mov    -0x1c(%ebp),%eax
  1046c5:	3b 45 0c             	cmp    0xc(%ebp),%eax
  1046c8:	72 38                	jb     104702 <_ZN16Linear_allocator8allocateEj+0x188>
  1046ca:	8b 45 0c             	mov    0xc(%ebp),%eax
  1046cd:	83 c0 04             	add    $0x4,%eax
  1046d0:	3b 45 e4             	cmp    -0x1c(%ebp),%eax
  1046d3:	77 2d                	ja     104702 <_ZN16Linear_allocator8allocateEj+0x188>
  1046d5:	8b 45 08             	mov    0x8(%ebp),%eax
  1046d8:	8b 40 10             	mov    0x10(%eax),%eax
  1046db:	89 45 fc             	mov    %eax,-0x4(%ebp)
  1046de:	8b 45 08             	mov    0x8(%ebp),%eax
  1046e1:	8b 40 10             	mov    0x10(%eax),%eax
  1046e4:	8b 55 0c             	mov    0xc(%ebp),%edx
  1046e7:	83 c2 04             	add    $0x4,%edx
  1046ea:	01 c2                	add    %eax,%edx
  1046ec:	8b 45 08             	mov    0x8(%ebp),%eax
  1046ef:	89 50 10             	mov    %edx,0x10(%eax)
  1046f2:	8b 45 fc             	mov    -0x4(%ebp),%eax
  1046f5:	8b 55 0c             	mov    0xc(%ebp),%edx
  1046f8:	89 10                	mov    %edx,(%eax)
  1046fa:	8b 45 fc             	mov    -0x4(%ebp),%eax
  1046fd:	83 c0 04             	add    $0x4,%eax
  104700:	eb 05                	jmp    104707 <_ZN16Linear_allocator8allocateEj+0x18d>
  104702:	b8 00 00 00 00       	mov    $0x0,%eax
  104707:	c9                   	leave  
  104708:	c3                   	ret    
  104709:	90                   	nop

0010470a <_ZN16Linear_allocator10deallocateEPv>:
  10470a:	55                   	push   %ebp
  10470b:	89 e5                	mov    %esp,%ebp
  10470d:	83 ec 20             	sub    $0x20,%esp
  104710:	83 7d 0c 00          	cmpl   $0x0,0xc(%ebp)
  104714:	75 05                	jne    10471b <_ZN16Linear_allocator10deallocateEPv+0x11>
  104716:	e9 96 01 00 00       	jmp    1048b1 <_ZN16Linear_allocator10deallocateEPv+0x1a7>
  10471b:	8b 45 0c             	mov    0xc(%ebp),%eax
  10471e:	89 45 f4             	mov    %eax,-0xc(%ebp)
  104721:	b8 fc ff ff ff       	mov    $0xfffffffc,%eax
  104726:	01 45 f4             	add    %eax,-0xc(%ebp)
  104729:	8b 45 f4             	mov    -0xc(%ebp),%eax
  10472c:	89 45 f0             	mov    %eax,-0x10(%ebp)
  10472f:	8b 45 f0             	mov    -0x10(%ebp),%eax
  104732:	c7 40 04 00 00 00 00 	movl   $0x0,0x4(%eax)
  104739:	8b 45 08             	mov    0x8(%ebp),%eax
  10473c:	8b 40 08             	mov    0x8(%eax),%eax
  10473f:	85 c0                	test   %eax,%eax
  104741:	75 30                	jne    104773 <_ZN16Linear_allocator10deallocateEPv+0x69>
  104743:	8b 45 f0             	mov    -0x10(%ebp),%eax
  104746:	8b 10                	mov    (%eax),%edx
  104748:	8b 45 0c             	mov    0xc(%ebp),%eax
  10474b:	01 c2                	add    %eax,%edx
  10474d:	8b 45 08             	mov    0x8(%ebp),%eax
  104750:	8b 40 10             	mov    0x10(%eax),%eax
  104753:	39 c2                	cmp    %eax,%edx
  104755:	75 0e                	jne    104765 <_ZN16Linear_allocator10deallocateEPv+0x5b>
  104757:	8b 45 08             	mov    0x8(%ebp),%eax
  10475a:	8b 55 f4             	mov    -0xc(%ebp),%edx
  10475d:	89 50 10             	mov    %edx,0x10(%eax)
  104760:	e9 4c 01 00 00       	jmp    1048b1 <_ZN16Linear_allocator10deallocateEPv+0x1a7>
  104765:	8b 45 08             	mov    0x8(%ebp),%eax
  104768:	8b 55 f0             	mov    -0x10(%ebp),%edx
  10476b:	89 50 08             	mov    %edx,0x8(%eax)
  10476e:	e9 3e 01 00 00       	jmp    1048b1 <_ZN16Linear_allocator10deallocateEPv+0x1a7>
  104773:	8b 45 08             	mov    0x8(%ebp),%eax
  104776:	8b 40 08             	mov    0x8(%eax),%eax
  104779:	89 45 fc             	mov    %eax,-0x4(%ebp)
  10477c:	c7 45 f8 00 00 00 00 	movl   $0x0,-0x8(%ebp)
  104783:	eb 71                	jmp    1047f6 <_ZN16Linear_allocator10deallocateEPv+0xec>
  104785:	8b 45 fc             	mov    -0x4(%ebp),%eax
  104788:	3b 45 f0             	cmp    -0x10(%ebp),%eax
  10478b:	73 12                	jae    10479f <_ZN16Linear_allocator10deallocateEPv+0x95>
  10478d:	90                   	nop
  10478e:	8b 45 fc             	mov    -0x4(%ebp),%eax
  104791:	89 45 f8             	mov    %eax,-0x8(%ebp)
  104794:	8b 45 fc             	mov    -0x4(%ebp),%eax
  104797:	8b 40 04             	mov    0x4(%eax),%eax
  10479a:	89 45 fc             	mov    %eax,-0x4(%ebp)
  10479d:	eb 57                	jmp    1047f6 <_ZN16Linear_allocator10deallocateEPv+0xec>
  10479f:	8b 45 fc             	mov    -0x4(%ebp),%eax
  1047a2:	89 45 ec             	mov    %eax,-0x14(%ebp)
  1047a5:	8b 45 f0             	mov    -0x10(%ebp),%eax
  1047a8:	8b 55 fc             	mov    -0x4(%ebp),%edx
  1047ab:	89 50 04             	mov    %edx,0x4(%eax)
  1047ae:	8b 45 f0             	mov    -0x10(%ebp),%eax
  1047b1:	8d 50 04             	lea    0x4(%eax),%edx
  1047b4:	8b 45 f0             	mov    -0x10(%ebp),%eax
  1047b7:	8b 00                	mov    (%eax),%eax
  1047b9:	01 d0                	add    %edx,%eax
  1047bb:	3b 45 ec             	cmp    -0x14(%ebp),%eax
  1047be:	75 20                	jne    1047e0 <_ZN16Linear_allocator10deallocateEPv+0xd6>
  1047c0:	8b 45 f0             	mov    -0x10(%ebp),%eax
  1047c3:	8b 10                	mov    (%eax),%edx
  1047c5:	8b 45 fc             	mov    -0x4(%ebp),%eax
  1047c8:	8b 00                	mov    (%eax),%eax
  1047ca:	01 d0                	add    %edx,%eax
  1047cc:	8d 50 04             	lea    0x4(%eax),%edx
  1047cf:	8b 45 f0             	mov    -0x10(%ebp),%eax
  1047d2:	89 10                	mov    %edx,(%eax)
  1047d4:	8b 45 fc             	mov    -0x4(%ebp),%eax
  1047d7:	8b 50 04             	mov    0x4(%eax),%edx
  1047da:	8b 45 f0             	mov    -0x10(%ebp),%eax
  1047dd:	89 50 04             	mov    %edx,0x4(%eax)
  1047e0:	83 7d f8 00          	cmpl   $0x0,-0x8(%ebp)
  1047e4:	75 0e                	jne    1047f4 <_ZN16Linear_allocator10deallocateEPv+0xea>
  1047e6:	8b 45 08             	mov    0x8(%ebp),%eax
  1047e9:	8b 55 f0             	mov    -0x10(%ebp),%edx
  1047ec:	89 50 08             	mov    %edx,0x8(%eax)
  1047ef:	e9 bd 00 00 00       	jmp    1048b1 <_ZN16Linear_allocator10deallocateEPv+0x1a7>
  1047f4:	eb 06                	jmp    1047fc <_ZN16Linear_allocator10deallocateEPv+0xf2>
  1047f6:	83 7d fc 00          	cmpl   $0x0,-0x4(%ebp)
  1047fa:	75 89                	jne    104785 <_ZN16Linear_allocator10deallocateEPv+0x7b>
  1047fc:	8b 45 f8             	mov    -0x8(%ebp),%eax
  1047ff:	8b 55 f0             	mov    -0x10(%ebp),%edx
  104802:	89 50 04             	mov    %edx,0x4(%eax)
  104805:	8b 45 f8             	mov    -0x8(%ebp),%eax
  104808:	83 c0 04             	add    $0x4,%eax
  10480b:	89 45 e8             	mov    %eax,-0x18(%ebp)
  10480e:	8b 45 f8             	mov    -0x8(%ebp),%eax
  104811:	8b 10                	mov    (%eax),%edx
  104813:	8b 45 e8             	mov    -0x18(%ebp),%eax
  104816:	01 d0                	add    %edx,%eax
  104818:	3b 45 f4             	cmp    -0xc(%ebp),%eax
  10481b:	75 20                	jne    10483d <_ZN16Linear_allocator10deallocateEPv+0x133>
  10481d:	8b 45 f8             	mov    -0x8(%ebp),%eax
  104820:	8b 10                	mov    (%eax),%edx
  104822:	8b 45 f0             	mov    -0x10(%ebp),%eax
  104825:	8b 00                	mov    (%eax),%eax
  104827:	01 d0                	add    %edx,%eax
  104829:	8d 50 04             	lea    0x4(%eax),%edx
  10482c:	8b 45 f8             	mov    -0x8(%ebp),%eax
  10482f:	89 10                	mov    %edx,(%eax)
  104831:	8b 45 f0             	mov    -0x10(%ebp),%eax
  104834:	8b 50 04             	mov    0x4(%eax),%edx
  104837:	8b 45 f8             	mov    -0x8(%ebp),%eax
  10483a:	89 50 04             	mov    %edx,0x4(%eax)
  10483d:	8b 45 08             	mov    0x8(%ebp),%eax
  104840:	8b 40 08             	mov    0x8(%eax),%eax
  104843:	89 45 fc             	mov    %eax,-0x4(%ebp)
  104846:	c7 45 f8 00 00 00 00 	movl   $0x0,-0x8(%ebp)
  10484d:	eb 0f                	jmp    10485e <_ZN16Linear_allocator10deallocateEPv+0x154>
  10484f:	8b 45 fc             	mov    -0x4(%ebp),%eax
  104852:	89 45 f8             	mov    %eax,-0x8(%ebp)
  104855:	8b 45 fc             	mov    -0x4(%ebp),%eax
  104858:	8b 40 04             	mov    0x4(%eax),%eax
  10485b:	89 45 fc             	mov    %eax,-0x4(%ebp)
  10485e:	8b 45 fc             	mov    -0x4(%ebp),%eax
  104861:	8b 40 04             	mov    0x4(%eax),%eax
  104864:	85 c0                	test   %eax,%eax
  104866:	75 e7                	jne    10484f <_ZN16Linear_allocator10deallocateEPv+0x145>
  104868:	8b 45 fc             	mov    -0x4(%ebp),%eax
  10486b:	83 c0 04             	add    $0x4,%eax
  10486e:	89 45 e8             	mov    %eax,-0x18(%ebp)
  104871:	8b 45 fc             	mov    -0x4(%ebp),%eax
  104874:	8b 10                	mov    (%eax),%edx
  104876:	8b 45 e8             	mov    -0x18(%ebp),%eax
  104879:	01 c2                	add    %eax,%edx
  10487b:	8b 45 08             	mov    0x8(%ebp),%eax
  10487e:	8b 40 10             	mov    0x10(%eax),%eax
  104881:	39 c2                	cmp    %eax,%edx
  104883:	75 2c                	jne    1048b1 <_ZN16Linear_allocator10deallocateEPv+0x1a7>
  104885:	83 7d f8 00          	cmpl   $0x0,-0x8(%ebp)
  104889:	75 0c                	jne    104897 <_ZN16Linear_allocator10deallocateEPv+0x18d>
  10488b:	8b 45 08             	mov    0x8(%ebp),%eax
  10488e:	c7 40 08 00 00 00 00 	movl   $0x0,0x8(%eax)
  104895:	eb 0a                	jmp    1048a1 <_ZN16Linear_allocator10deallocateEPv+0x197>
  104897:	8b 45 f8             	mov    -0x8(%ebp),%eax
  10489a:	c7 40 04 00 00 00 00 	movl   $0x0,0x4(%eax)
  1048a1:	ba fc ff ff ff       	mov    $0xfffffffc,%edx
  1048a6:	8b 45 e8             	mov    -0x18(%ebp),%eax
  1048a9:	01 c2                	add    %eax,%edx
  1048ab:	8b 45 08             	mov    0x8(%ebp),%eax
  1048ae:	89 50 10             	mov    %edx,0x10(%eax)
  1048b1:	c9                   	leave  
  1048b2:	c3                   	ret    
  1048b3:	90                   	nop

001048b4 <_ZN11Allocator_pC1Ev>:
  1048b4:	55                   	push   %ebp
  1048b5:	89 e5                	mov    %esp,%ebp
  1048b7:	8b 45 08             	mov    0x8(%ebp),%eax
  1048ba:	c7 00 38 8d 10 00    	movl   $0x108d38,(%eax)
  1048c0:	5d                   	pop    %ebp
  1048c1:	c3                   	ret    

001048c2 <_ZL4outbth>:
  1048c2:	55                   	push   %ebp
  1048c3:	89 e5                	mov    %esp,%ebp
  1048c5:	83 ec 08             	sub    $0x8,%esp
  1048c8:	8b 55 08             	mov    0x8(%ebp),%edx
  1048cb:	8b 45 0c             	mov    0xc(%ebp),%eax
  1048ce:	66 89 55 fc          	mov    %dx,-0x4(%ebp)
  1048d2:	88 45 f8             	mov    %al,-0x8(%ebp)
  1048d5:	0f b7 55 fc          	movzwl -0x4(%ebp),%edx
  1048d9:	0f b6 45 f8          	movzbl -0x8(%ebp),%eax
  1048dd:	ee                   	out    %al,(%dx)
  1048de:	c9                   	leave  
  1048df:	c3                   	ret    

001048e0 <_ZL3inbt>:
  1048e0:	55                   	push   %ebp
  1048e1:	89 e5                	mov    %esp,%ebp
  1048e3:	83 ec 14             	sub    $0x14,%esp
  1048e6:	8b 45 08             	mov    0x8(%ebp),%eax
  1048e9:	66 89 45 ec          	mov    %ax,-0x14(%ebp)
  1048ed:	0f b7 45 ec          	movzwl -0x14(%ebp),%eax
  1048f1:	89 c2                	mov    %eax,%edx
  1048f3:	ec                   	in     (%dx),%al
  1048f4:	88 45 ff             	mov    %al,-0x1(%ebp)
  1048f7:	0f b6 45 ff          	movzbl -0x1(%ebp),%eax
  1048fb:	c9                   	leave  
  1048fc:	c3                   	ret    

001048fd <_ZL29platform_abstract_irq_handlerP14interrupt_info>:
  1048fd:	55                   	push   %ebp
  1048fe:	89 e5                	mov    %esp,%ebp
  104900:	83 ec 08             	sub    $0x8,%esp
  104903:	8b 45 08             	mov    0x8(%ebp),%eax
  104906:	8b 40 24             	mov    0x24(%eax),%eax
  104909:	83 f8 27             	cmp    $0x27,%eax
  10490c:	76 14                	jbe    104922 <_ZL29platform_abstract_irq_handlerP14interrupt_info+0x25>
  10490e:	c7 44 24 04 20 00 00 	movl   $0x20,0x4(%esp)
  104915:	00 
  104916:	c7 04 24 a0 00 00 00 	movl   $0xa0,(%esp)
  10491d:	e8 a0 ff ff ff       	call   1048c2 <_ZL4outbth>
  104922:	8b 45 08             	mov    0x8(%ebp),%eax
  104925:	8b 40 24             	mov    0x24(%eax),%eax
  104928:	83 f8 1f             	cmp    $0x1f,%eax
  10492b:	76 14                	jbe    104941 <_ZL29platform_abstract_irq_handlerP14interrupt_info+0x44>
  10492d:	c7 44 24 04 20 00 00 	movl   $0x20,0x4(%esp)
  104934:	00 
  104935:	c7 04 24 20 00 00 00 	movl   $0x20,(%esp)
  10493c:	e8 81 ff ff ff       	call   1048c2 <_ZL4outbth>
  104941:	c9                   	leave  
  104942:	c3                   	ret    

00104943 <_ZL14INIT_LIST_HEADP9list_head>:
  104943:	55                   	push   %ebp
  104944:	89 e5                	mov    %esp,%ebp
  104946:	8b 45 08             	mov    0x8(%ebp),%eax
  104949:	8b 55 08             	mov    0x8(%ebp),%edx
  10494c:	89 10                	mov    %edx,(%eax)
  10494e:	8b 45 08             	mov    0x8(%ebp),%eax
  104951:	8b 55 08             	mov    0x8(%ebp),%edx
  104954:	89 50 04             	mov    %edx,0x4(%eax)
  104957:	5d                   	pop    %ebp
  104958:	c3                   	ret    

00104959 <_ZL10__list_addP9list_headS0_S0_>:
  104959:	55                   	push   %ebp
  10495a:	89 e5                	mov    %esp,%ebp
  10495c:	8b 45 10             	mov    0x10(%ebp),%eax
  10495f:	8b 55 08             	mov    0x8(%ebp),%edx
  104962:	89 50 04             	mov    %edx,0x4(%eax)
  104965:	8b 45 08             	mov    0x8(%ebp),%eax
  104968:	8b 55 10             	mov    0x10(%ebp),%edx
  10496b:	89 10                	mov    %edx,(%eax)
  10496d:	8b 45 08             	mov    0x8(%ebp),%eax
  104970:	8b 55 0c             	mov    0xc(%ebp),%edx
  104973:	89 50 04             	mov    %edx,0x4(%eax)
  104976:	8b 45 0c             	mov    0xc(%ebp),%eax
  104979:	8b 55 08             	mov    0x8(%ebp),%edx
  10497c:	89 10                	mov    %edx,(%eax)
  10497e:	5d                   	pop    %ebp
  10497f:	c3                   	ret    

00104980 <_ZL8list_addP9list_headS0_>:
  104980:	55                   	push   %ebp
  104981:	89 e5                	mov    %esp,%ebp
  104983:	83 ec 0c             	sub    $0xc,%esp
  104986:	8b 45 0c             	mov    0xc(%ebp),%eax
  104989:	8b 00                	mov    (%eax),%eax
  10498b:	89 44 24 08          	mov    %eax,0x8(%esp)
  10498f:	8b 45 0c             	mov    0xc(%ebp),%eax
  104992:	89 44 24 04          	mov    %eax,0x4(%esp)
  104996:	8b 45 08             	mov    0x8(%ebp),%eax
  104999:	89 04 24             	mov    %eax,(%esp)
  10499c:	e8 b8 ff ff ff       	call   104959 <_ZL10__list_addP9list_headS0_S0_>
  1049a1:	c9                   	leave  
  1049a2:	c3                   	ret    

001049a3 <_ZL10__list_delP9list_headS0_>:
  1049a3:	55                   	push   %ebp
  1049a4:	89 e5                	mov    %esp,%ebp
  1049a6:	8b 45 0c             	mov    0xc(%ebp),%eax
  1049a9:	8b 55 08             	mov    0x8(%ebp),%edx
  1049ac:	89 50 04             	mov    %edx,0x4(%eax)
  1049af:	8b 45 08             	mov    0x8(%ebp),%eax
  1049b2:	8b 55 0c             	mov    0xc(%ebp),%edx
  1049b5:	89 10                	mov    %edx,(%eax)
  1049b7:	5d                   	pop    %ebp
  1049b8:	c3                   	ret    

001049b9 <_ZL8list_delP9list_head>:
  1049b9:	55                   	push   %ebp
  1049ba:	89 e5                	mov    %esp,%ebp
  1049bc:	83 ec 08             	sub    $0x8,%esp
  1049bf:	8b 45 08             	mov    0x8(%ebp),%eax
  1049c2:	8b 10                	mov    (%eax),%edx
  1049c4:	8b 45 08             	mov    0x8(%ebp),%eax
  1049c7:	8b 40 04             	mov    0x4(%eax),%eax
  1049ca:	89 54 24 04          	mov    %edx,0x4(%esp)
  1049ce:	89 04 24             	mov    %eax,(%esp)
  1049d1:	e8 cd ff ff ff       	call   1049a3 <_ZL10__list_delP9list_headS0_>
  1049d6:	8b 45 08             	mov    0x8(%ebp),%eax
  1049d9:	c7 00 00 00 00 00    	movl   $0x0,(%eax)
  1049df:	8b 45 08             	mov    0x8(%ebp),%eax
  1049e2:	c7 40 04 00 00 00 00 	movl   $0x0,0x4(%eax)
  1049e9:	c9                   	leave  
  1049ea:	c3                   	ret    
  1049eb:	90                   	nop

001049ec <_ZN10sh_timer_t7restartEv>:
  1049ec:	55                   	push   %ebp
  1049ed:	89 e5                	mov    %esp,%ebp
  1049ef:	83 ec 08             	sub    $0x8,%esp
  1049f2:	e8 4f 31 00 00       	call   107b46 <_Z6millisv>
  1049f7:	8b 4d 08             	mov    0x8(%ebp),%ecx
  1049fa:	89 01                	mov    %eax,(%ecx)
  1049fc:	89 51 04             	mov    %edx,0x4(%ecx)
  1049ff:	c9                   	leave  
  104a00:	c3                   	ret    
  104a01:	90                   	nop

00104a02 <_ZN3TSH5startEv>:
  104a02:	55                   	push   %ebp
  104a03:	89 e5                	mov    %esp,%ebp
  104a05:	53                   	push   %ebx
  104a06:	83 ec 34             	sub    $0x34,%esp
  104a09:	e8 38 31 00 00       	call   107b46 <_Z6millisv>
  104a0e:	89 45 e8             	mov    %eax,-0x18(%ebp)
  104a11:	89 55 ec             	mov    %edx,-0x14(%ebp)
  104a14:	8b 45 08             	mov    0x8(%ebp),%eax
  104a17:	8b 40 08             	mov    0x8(%eax),%eax
  104a1a:	89 45 e4             	mov    %eax,-0x1c(%ebp)
  104a1d:	8b 45 e4             	mov    -0x1c(%ebp),%eax
  104a20:	83 e8 18             	sub    $0x18,%eax
  104a23:	89 45 f4             	mov    %eax,-0xc(%ebp)
  104a26:	8b 45 f4             	mov    -0xc(%ebp),%eax
  104a29:	8b 40 18             	mov    0x18(%eax),%eax
  104a2c:	89 45 e0             	mov    %eax,-0x20(%ebp)
  104a2f:	8b 45 e0             	mov    -0x20(%ebp),%eax
  104a32:	83 e8 18             	sub    $0x18,%eax
  104a35:	89 45 f0             	mov    %eax,-0x10(%ebp)
  104a38:	e9 82 00 00 00       	jmp    104abf <_ZN3TSH5startEv+0xbd>
  104a3d:	8b 45 f4             	mov    -0xc(%ebp),%eax
  104a40:	8b 08                	mov    (%eax),%ecx
  104a42:	8b 58 04             	mov    0x4(%eax),%ebx
  104a45:	8b 45 e8             	mov    -0x18(%ebp),%eax
  104a48:	8b 55 ec             	mov    -0x14(%ebp),%edx
  104a4b:	29 c8                	sub    %ecx,%eax
  104a4d:	19 da                	sbb    %ebx,%edx
  104a4f:	89 c1                	mov    %eax,%ecx
  104a51:	89 d3                	mov    %edx,%ebx
  104a53:	8b 45 f4             	mov    -0xc(%ebp),%eax
  104a56:	8b 50 0c             	mov    0xc(%eax),%edx
  104a59:	8b 40 08             	mov    0x8(%eax),%eax
  104a5c:	39 d3                	cmp    %edx,%ebx
  104a5e:	72 47                	jb     104aa7 <_ZN3TSH5startEv+0xa5>
  104a60:	39 d3                	cmp    %edx,%ebx
  104a62:	77 04                	ja     104a68 <_ZN3TSH5startEv+0x66>
  104a64:	39 c1                	cmp    %eax,%ecx
  104a66:	72 3f                	jb     104aa7 <_ZN3TSH5startEv+0xa5>
  104a68:	8b 45 f4             	mov    -0xc(%ebp),%eax
  104a6b:	8b 40 14             	mov    0x14(%eax),%eax
  104a6e:	83 f8 ff             	cmp    $0xffffffff,%eax
  104a71:	75 02                	jne    104a75 <_ZN3TSH5startEv+0x73>
  104a73:	eb 5e                	jmp    104ad3 <_ZN3TSH5startEv+0xd1>
  104a75:	8b 45 f4             	mov    -0xc(%ebp),%eax
  104a78:	8b 40 14             	mov    0x14(%eax),%eax
  104a7b:	ff d0                	call   *%eax
  104a7d:	8b 45 f4             	mov    -0xc(%ebp),%eax
  104a80:	0f b6 40 10          	movzbl 0x10(%eax),%eax
  104a84:	3c 01                	cmp    $0x1,%al
  104a86:	75 0d                	jne    104a95 <_ZN3TSH5startEv+0x93>
  104a88:	8b 45 f4             	mov    -0xc(%ebp),%eax
  104a8b:	89 04 24             	mov    %eax,(%esp)
  104a8e:	e8 59 ff ff ff       	call   1049ec <_ZN10sh_timer_t7restartEv>
  104a93:	eb 12                	jmp    104aa7 <_ZN3TSH5startEv+0xa5>
  104a95:	8b 45 f4             	mov    -0xc(%ebp),%eax
  104a98:	89 44 24 04          	mov    %eax,0x4(%esp)
  104a9c:	8b 45 08             	mov    0x8(%ebp),%eax
  104a9f:	89 04 24             	mov    %eax,(%esp)
  104aa2:	e8 07 01 00 00       	call   104bae <_ZN3TSH11deleteTimerEP10sh_timer_t>
  104aa7:	8b 45 f0             	mov    -0x10(%ebp),%eax
  104aaa:	89 45 f4             	mov    %eax,-0xc(%ebp)
  104aad:	8b 45 f0             	mov    -0x10(%ebp),%eax
  104ab0:	8b 40 18             	mov    0x18(%eax),%eax
  104ab3:	89 45 dc             	mov    %eax,-0x24(%ebp)
  104ab6:	8b 45 dc             	mov    -0x24(%ebp),%eax
  104ab9:	83 e8 18             	sub    $0x18,%eax
  104abc:	89 45 f0             	mov    %eax,-0x10(%ebp)
  104abf:	8b 45 f4             	mov    -0xc(%ebp),%eax
  104ac2:	8d 50 18             	lea    0x18(%eax),%edx
  104ac5:	8b 45 08             	mov    0x8(%ebp),%eax
  104ac8:	83 c0 08             	add    $0x8,%eax
  104acb:	39 c2                	cmp    %eax,%edx
  104acd:	0f 85 6a ff ff ff    	jne    104a3d <_ZN3TSH5startEv+0x3b>
  104ad3:	83 c4 34             	add    $0x34,%esp
  104ad6:	5b                   	pop    %ebx
  104ad7:	5d                   	pop    %ebp
  104ad8:	c3                   	ret    
  104ad9:	90                   	nop

00104ada <_ZN3TSH4stopEv>:
  104ada:	55                   	push   %ebp
  104adb:	89 e5                	mov    %esp,%ebp
  104add:	83 ec 18             	sub    $0x18,%esp
  104ae0:	c7 44 24 0c 00 00 00 	movl   $0x0,0xc(%esp)
  104ae7:	00 
  104ae8:	c7 44 24 08 00 00 00 	movl   $0x0,0x8(%esp)
  104aef:	00 
  104af0:	c7 44 24 04 ff ff ff 	movl   $0xffffffff,0x4(%esp)
  104af7:	ff 
  104af8:	8b 45 08             	mov    0x8(%ebp),%eax
  104afb:	89 04 24             	mov    %eax,(%esp)
  104afe:	e8 03 00 00 00       	call   104b06 <_ZN3TSH8newTimerEPFvvEjh>
  104b03:	c9                   	leave  
  104b04:	c3                   	ret    
  104b05:	90                   	nop

00104b06 <_ZN3TSH8newTimerEPFvvEjh>:
  104b06:	55                   	push   %ebp
  104b07:	89 e5                	mov    %esp,%ebp
  104b09:	83 ec 28             	sub    $0x28,%esp
  104b0c:	8b 45 14             	mov    0x14(%ebp),%eax
  104b0f:	88 45 e4             	mov    %al,-0x1c(%ebp)
  104b12:	e8 2f 30 00 00       	call   107b46 <_Z6millisv>
  104b17:	89 45 f0             	mov    %eax,-0x10(%ebp)
  104b1a:	89 55 f4             	mov    %edx,-0xc(%ebp)
  104b1d:	8b 45 08             	mov    0x8(%ebp),%eax
  104b20:	0f b6 40 10          	movzbl 0x10(%eax),%eax
  104b24:	8d 50 01             	lea    0x1(%eax),%edx
  104b27:	8b 45 08             	mov    0x8(%ebp),%eax
  104b2a:	88 50 10             	mov    %dl,0x10(%eax)
  104b2d:	a1 20 96 10 00       	mov    0x109620,%eax
  104b32:	8b 00                	mov    (%eax),%eax
  104b34:	8b 00                	mov    (%eax),%eax
  104b36:	8b 15 20 96 10 00    	mov    0x109620,%edx
  104b3c:	c7 44 24 04 20 00 00 	movl   $0x20,0x4(%esp)
  104b43:	00 
  104b44:	89 14 24             	mov    %edx,(%esp)
  104b47:	ff d0                	call   *%eax
  104b49:	89 45 ec             	mov    %eax,-0x14(%ebp)
  104b4c:	8b 45 ec             	mov    -0x14(%ebp),%eax
  104b4f:	89 44 24 04          	mov    %eax,0x4(%esp)
  104b53:	c7 04 24 20 00 00 00 	movl   $0x20,(%esp)
  104b5a:	e8 8a f8 ff ff       	call   1043e9 <_ZnwjPv>
  104b5f:	8b 45 08             	mov    0x8(%ebp),%eax
  104b62:	8d 50 08             	lea    0x8(%eax),%edx
  104b65:	8b 45 ec             	mov    -0x14(%ebp),%eax
  104b68:	83 c0 18             	add    $0x18,%eax
  104b6b:	89 54 24 04          	mov    %edx,0x4(%esp)
  104b6f:	89 04 24             	mov    %eax,(%esp)
  104b72:	e8 09 fe ff ff       	call   104980 <_ZL8list_addP9list_headS0_>
  104b77:	8b 4d ec             	mov    -0x14(%ebp),%ecx
  104b7a:	8b 45 f0             	mov    -0x10(%ebp),%eax
  104b7d:	8b 55 f4             	mov    -0xc(%ebp),%edx
  104b80:	89 01                	mov    %eax,(%ecx)
  104b82:	89 51 04             	mov    %edx,0x4(%ecx)
  104b85:	8b 45 10             	mov    0x10(%ebp),%eax
  104b88:	ba 00 00 00 00       	mov    $0x0,%edx
  104b8d:	8b 4d ec             	mov    -0x14(%ebp),%ecx
  104b90:	89 41 08             	mov    %eax,0x8(%ecx)
  104b93:	89 51 0c             	mov    %edx,0xc(%ecx)
  104b96:	8b 45 ec             	mov    -0x14(%ebp),%eax
  104b99:	8b 55 0c             	mov    0xc(%ebp),%edx
  104b9c:	89 50 14             	mov    %edx,0x14(%eax)
  104b9f:	8b 45 ec             	mov    -0x14(%ebp),%eax
  104ba2:	0f b6 55 e4          	movzbl -0x1c(%ebp),%edx
  104ba6:	88 50 10             	mov    %dl,0x10(%eax)
  104ba9:	8b 45 ec             	mov    -0x14(%ebp),%eax
  104bac:	c9                   	leave  
  104bad:	c3                   	ret    

00104bae <_ZN3TSH11deleteTimerEP10sh_timer_t>:
  104bae:	55                   	push   %ebp
  104baf:	89 e5                	mov    %esp,%ebp
  104bb1:	83 ec 18             	sub    $0x18,%esp
  104bb4:	8b 45 0c             	mov    0xc(%ebp),%eax
  104bb7:	83 c0 18             	add    $0x18,%eax
  104bba:	89 04 24             	mov    %eax,(%esp)
  104bbd:	e8 f7 fd ff ff       	call   1049b9 <_ZL8list_delP9list_head>
  104bc2:	8b 45 08             	mov    0x8(%ebp),%eax
  104bc5:	8b 00                	mov    (%eax),%eax
  104bc7:	8b 00                	mov    (%eax),%eax
  104bc9:	83 c0 04             	add    $0x4,%eax
  104bcc:	8b 00                	mov    (%eax),%eax
  104bce:	8b 55 08             	mov    0x8(%ebp),%edx
  104bd1:	8b 12                	mov    (%edx),%edx
  104bd3:	8b 4d 0c             	mov    0xc(%ebp),%ecx
  104bd6:	89 4c 24 04          	mov    %ecx,0x4(%esp)
  104bda:	89 14 24             	mov    %edx,(%esp)
  104bdd:	ff d0                	call   *%eax
  104bdf:	c9                   	leave  
  104be0:	c3                   	ret    
  104be1:	90                   	nop

00104be2 <_ZN3TSH14deleteAllTimerEv>:
  104be2:	55                   	push   %ebp
  104be3:	89 e5                	mov    %esp,%ebp
  104be5:	83 ec 38             	sub    $0x38,%esp
  104be8:	8b 45 08             	mov    0x8(%ebp),%eax
  104beb:	8b 40 08             	mov    0x8(%eax),%eax
  104bee:	89 45 ec             	mov    %eax,-0x14(%ebp)
  104bf1:	8b 45 ec             	mov    -0x14(%ebp),%eax
  104bf4:	83 e8 18             	sub    $0x18,%eax
  104bf7:	89 45 f4             	mov    %eax,-0xc(%ebp)
  104bfa:	8b 45 f4             	mov    -0xc(%ebp),%eax
  104bfd:	8b 40 18             	mov    0x18(%eax),%eax
  104c00:	89 45 e8             	mov    %eax,-0x18(%ebp)
  104c03:	8b 45 e8             	mov    -0x18(%ebp),%eax
  104c06:	83 e8 18             	sub    $0x18,%eax
  104c09:	89 45 f0             	mov    %eax,-0x10(%ebp)
  104c0c:	eb 2a                	jmp    104c38 <_ZN3TSH14deleteAllTimerEv+0x56>
  104c0e:	8b 45 f4             	mov    -0xc(%ebp),%eax
  104c11:	89 44 24 04          	mov    %eax,0x4(%esp)
  104c15:	8b 45 08             	mov    0x8(%ebp),%eax
  104c18:	89 04 24             	mov    %eax,(%esp)
  104c1b:	e8 8e ff ff ff       	call   104bae <_ZN3TSH11deleteTimerEP10sh_timer_t>
  104c20:	8b 45 f0             	mov    -0x10(%ebp),%eax
  104c23:	89 45 f4             	mov    %eax,-0xc(%ebp)
  104c26:	8b 45 f0             	mov    -0x10(%ebp),%eax
  104c29:	8b 40 18             	mov    0x18(%eax),%eax
  104c2c:	89 45 e4             	mov    %eax,-0x1c(%ebp)
  104c2f:	8b 45 e4             	mov    -0x1c(%ebp),%eax
  104c32:	83 e8 18             	sub    $0x18,%eax
  104c35:	89 45 f0             	mov    %eax,-0x10(%ebp)
  104c38:	8b 45 f4             	mov    -0xc(%ebp),%eax
  104c3b:	8d 50 18             	lea    0x18(%eax),%edx
  104c3e:	8b 45 08             	mov    0x8(%ebp),%eax
  104c41:	83 c0 08             	add    $0x8,%eax
  104c44:	39 c2                	cmp    %eax,%edx
  104c46:	75 c6                	jne    104c0e <_ZN3TSH14deleteAllTimerEv+0x2c>
  104c48:	c9                   	leave  
  104c49:	c3                   	ret    

00104c4a <_ZN3TSHC1Ev>:
  104c4a:	55                   	push   %ebp
  104c4b:	89 e5                	mov    %esp,%ebp
  104c4d:	83 ec 04             	sub    $0x4,%esp
  104c50:	8b 45 08             	mov    0x8(%ebp),%eax
  104c53:	c6 40 10 00          	movb   $0x0,0x10(%eax)
  104c57:	8b 45 08             	mov    0x8(%ebp),%eax
  104c5a:	83 c0 08             	add    $0x8,%eax
  104c5d:	89 04 24             	mov    %eax,(%esp)
  104c60:	e8 de fc ff ff       	call   104943 <_ZL14INIT_LIST_HEADP9list_head>
  104c65:	c9                   	leave  
  104c66:	c3                   	ret    
  104c67:	90                   	nop

00104c68 <_ZN10AFS_filter4initEfff>:
  104c68:	55                   	push   %ebp
  104c69:	89 e5                	mov    %esp,%ebp
  104c6b:	83 ec 18             	sub    $0x18,%esp
  104c6e:	8b 55 08             	mov    0x8(%ebp),%edx
  104c71:	8b 45 0c             	mov    0xc(%ebp),%eax
  104c74:	89 02                	mov    %eax,(%edx)
  104c76:	d9 45 14             	flds   0x14(%ebp)
  104c79:	d9 e0                	fchs   
  104c7b:	d8 75 10             	fdivs  0x10(%ebp)
  104c7e:	c7 44 24 04 0a 00 00 	movl   $0xa,0x4(%esp)
  104c85:	00 
  104c86:	d9 1c 24             	fstps  (%esp)
  104c89:	e8 95 04 00 00       	call   105123 <exp>
  104c8e:	d9 e8                	fld1   
  104c90:	de e1                	fsubp  %st,%st(1)
  104c92:	8b 45 08             	mov    0x8(%ebp),%eax
  104c95:	d9 58 04             	fstps  0x4(%eax)
  104c98:	c9                   	leave  
  104c99:	c3                   	ret    

00104c9a <_ZN10AFS_filter9calculateEf>:
  104c9a:	55                   	push   %ebp
  104c9b:	89 e5                	mov    %esp,%ebp
  104c9d:	83 ec 04             	sub    $0x4,%esp
  104ca0:	8b 45 08             	mov    0x8(%ebp),%eax
  104ca3:	d9 00                	flds   (%eax)
  104ca5:	8b 45 08             	mov    0x8(%ebp),%eax
  104ca8:	d9 40 04             	flds   0x4(%eax)
  104cab:	8b 45 08             	mov    0x8(%ebp),%eax
  104cae:	d9 00                	flds   (%eax)
  104cb0:	d9 45 0c             	flds   0xc(%ebp)
  104cb3:	de e1                	fsubp  %st,%st(1)
  104cb5:	de c9                	fmulp  %st,%st(1)
  104cb7:	de c1                	faddp  %st,%st(1)
  104cb9:	8b 45 08             	mov    0x8(%ebp),%eax
  104cbc:	d9 18                	fstps  (%eax)
  104cbe:	8b 45 08             	mov    0x8(%ebp),%eax
  104cc1:	8b 00                	mov    (%eax),%eax
  104cc3:	89 45 fc             	mov    %eax,-0x4(%ebp)
  104cc6:	d9 45 fc             	flds   -0x4(%ebp)
  104cc9:	c9                   	leave  
  104cca:	c3                   	ret    

00104ccb <_ZL4outbth>:
  104ccb:	55                   	push   %ebp
  104ccc:	89 e5                	mov    %esp,%ebp
  104cce:	83 ec 08             	sub    $0x8,%esp
  104cd1:	8b 55 08             	mov    0x8(%ebp),%edx
  104cd4:	8b 45 0c             	mov    0xc(%ebp),%eax
  104cd7:	66 89 55 fc          	mov    %dx,-0x4(%ebp)
  104cdb:	88 45 f8             	mov    %al,-0x8(%ebp)
  104cde:	0f b7 55 fc          	movzwl -0x4(%ebp),%edx
  104ce2:	0f b6 45 f8          	movzbl -0x8(%ebp),%eax
  104ce6:	ee                   	out    %al,(%dx)
  104ce7:	c9                   	leave  
  104ce8:	c3                   	ret    

00104ce9 <_ZL3inbt>:
  104ce9:	55                   	push   %ebp
  104cea:	89 e5                	mov    %esp,%ebp
  104cec:	83 ec 14             	sub    $0x14,%esp
  104cef:	8b 45 08             	mov    0x8(%ebp),%eax
  104cf2:	66 89 45 ec          	mov    %ax,-0x14(%ebp)
  104cf6:	0f b7 45 ec          	movzwl -0x14(%ebp),%eax
  104cfa:	89 c2                	mov    %eax,%edx
  104cfc:	ec                   	in     (%dx),%al
  104cfd:	88 45 ff             	mov    %al,-0x1(%ebp)
  104d00:	0f b6 45 ff          	movzbl -0x1(%ebp),%eax
  104d04:	c9                   	leave  
  104d05:	c3                   	ret    

00104d06 <_ZL29platform_abstract_irq_handlerP14interrupt_info>:
  104d06:	55                   	push   %ebp
  104d07:	89 e5                	mov    %esp,%ebp
  104d09:	83 ec 08             	sub    $0x8,%esp
  104d0c:	8b 45 08             	mov    0x8(%ebp),%eax
  104d0f:	8b 40 24             	mov    0x24(%eax),%eax
  104d12:	83 f8 27             	cmp    $0x27,%eax
  104d15:	76 14                	jbe    104d2b <_ZL29platform_abstract_irq_handlerP14interrupt_info+0x25>
  104d17:	c7 44 24 04 20 00 00 	movl   $0x20,0x4(%esp)
  104d1e:	00 
  104d1f:	c7 04 24 a0 00 00 00 	movl   $0xa0,(%esp)
  104d26:	e8 a0 ff ff ff       	call   104ccb <_ZL4outbth>
  104d2b:	8b 45 08             	mov    0x8(%ebp),%eax
  104d2e:	8b 40 24             	mov    0x24(%eax),%eax
  104d31:	83 f8 1f             	cmp    $0x1f,%eax
  104d34:	76 14                	jbe    104d4a <_ZL29platform_abstract_irq_handlerP14interrupt_info+0x44>
  104d36:	c7 44 24 04 20 00 00 	movl   $0x20,0x4(%esp)
  104d3d:	00 
  104d3e:	c7 04 24 20 00 00 00 	movl   $0x20,(%esp)
  104d45:	e8 81 ff ff ff       	call   104ccb <_ZL4outbth>
  104d4a:	c9                   	leave  
  104d4b:	c3                   	ret    

00104d4c <_Z4putsPKc>:
  104d4c:	55                   	push   %ebp
  104d4d:	89 e5                	mov    %esp,%ebp
  104d4f:	83 ec 18             	sub    $0x18,%esp
  104d52:	a1 80 92 10 00       	mov    0x109280,%eax
  104d57:	85 c0                	test   %eax,%eax
  104d59:	75 0d                	jne    104d68 <_Z4putsPKc+0x1c>
  104d5b:	8b 45 08             	mov    0x8(%ebp),%eax
  104d5e:	89 04 24             	mov    %eax,(%esp)
  104d61:	e8 65 bb ff ff       	call   1008cb <debug_print>
  104d66:	eb 14                	jmp    104d7c <_Z4putsPKc+0x30>
  104d68:	a1 80 92 10 00       	mov    0x109280,%eax
  104d6d:	8b 55 08             	mov    0x8(%ebp),%edx
  104d70:	89 54 24 04          	mov    %edx,0x4(%esp)
  104d74:	89 04 24             	mov    %eax,(%esp)
  104d77:	e8 64 be ff ff       	call   100be0 <_ZN5Print5printEPKc>
  104d7c:	c9                   	leave  
  104d7d:	c3                   	ret    

00104d7e <_Z6printfPKcz>:
  104d7e:	55                   	push   %ebp
  104d7f:	89 e5                	mov    %esp,%ebp
  104d81:	81 ec a8 00 00 00    	sub    $0xa8,%esp
  104d87:	8d 45 0c             	lea    0xc(%ebp),%eax
  104d8a:	89 45 f0             	mov    %eax,-0x10(%ebp)
  104d8d:	8b 45 f0             	mov    -0x10(%ebp),%eax
  104d90:	89 44 24 08          	mov    %eax,0x8(%esp)
  104d94:	8b 45 08             	mov    0x8(%ebp),%eax
  104d97:	89 44 24 04          	mov    %eax,0x4(%esp)
  104d9b:	8d 85 70 ff ff ff    	lea    -0x90(%ebp),%eax
  104da1:	89 04 24             	mov    %eax,(%esp)
  104da4:	e8 24 1e 00 00       	call   106bcd <_Z8vsprintfPcPKcS_>
  104da9:	89 45 f4             	mov    %eax,-0xc(%ebp)
  104dac:	8d 85 70 ff ff ff    	lea    -0x90(%ebp),%eax
  104db2:	89 04 24             	mov    %eax,(%esp)
  104db5:	e8 92 ff ff ff       	call   104d4c <_Z4putsPKc>
  104dba:	8b 45 f4             	mov    -0xc(%ebp),%eax
  104dbd:	c9                   	leave  
  104dbe:	c3                   	ret    

00104dbf <_Z7vprintfPKcPc>:
  104dbf:	55                   	push   %ebp
  104dc0:	89 e5                	mov    %esp,%ebp
  104dc2:	81 ec a8 00 00 00    	sub    $0xa8,%esp
  104dc8:	8b 45 0c             	mov    0xc(%ebp),%eax
  104dcb:	89 44 24 08          	mov    %eax,0x8(%esp)
  104dcf:	8b 45 08             	mov    0x8(%ebp),%eax
  104dd2:	89 44 24 04          	mov    %eax,0x4(%esp)
  104dd6:	8d 85 74 ff ff ff    	lea    -0x8c(%ebp),%eax
  104ddc:	89 04 24             	mov    %eax,(%esp)
  104ddf:	e8 e9 1d 00 00       	call   106bcd <_Z8vsprintfPcPKcS_>
  104de4:	89 45 f4             	mov    %eax,-0xc(%ebp)
  104de7:	8d 85 74 ff ff ff    	lea    -0x8c(%ebp),%eax
  104ded:	89 04 24             	mov    %eax,(%esp)
  104df0:	e8 57 ff ff ff       	call   104d4c <_Z4putsPKc>
  104df5:	8b 45 f4             	mov    -0xc(%ebp),%eax
  104df8:	c9                   	leave  
  104df9:	c3                   	ret    

00104dfa <_Z10__div64_32Pyj>:
  104dfa:	55                   	push   %ebp
  104dfb:	89 e5                	mov    %esp,%ebp
  104dfd:	83 ec 30             	sub    $0x30,%esp
  104e00:	8b 45 08             	mov    0x8(%ebp),%eax
  104e03:	8b 50 04             	mov    0x4(%eax),%edx
  104e06:	8b 00                	mov    (%eax),%eax
  104e08:	89 45 f8             	mov    %eax,-0x8(%ebp)
  104e0b:	89 55 fc             	mov    %edx,-0x4(%ebp)
  104e0e:	8b 45 0c             	mov    0xc(%ebp),%eax
  104e11:	89 45 f0             	mov    %eax,-0x10(%ebp)
  104e14:	c7 45 f4 00 00 00 00 	movl   $0x0,-0xc(%ebp)
  104e1b:	c7 45 e0 01 00 00 00 	movl   $0x1,-0x20(%ebp)
  104e22:	c7 45 e4 00 00 00 00 	movl   $0x0,-0x1c(%ebp)
  104e29:	8b 45 f8             	mov    -0x8(%ebp),%eax
  104e2c:	8b 55 fc             	mov    -0x4(%ebp),%edx
  104e2f:	89 d0                	mov    %edx,%eax
  104e31:	31 d2                	xor    %edx,%edx
  104e33:	89 45 dc             	mov    %eax,-0x24(%ebp)
  104e36:	c7 45 e8 00 00 00 00 	movl   $0x0,-0x18(%ebp)
  104e3d:	c7 45 ec 00 00 00 00 	movl   $0x0,-0x14(%ebp)
  104e44:	8b 45 dc             	mov    -0x24(%ebp),%eax
  104e47:	3b 45 0c             	cmp    0xc(%ebp),%eax
  104e4a:	72 3c                	jb     104e88 <_Z10__div64_32Pyj+0x8e>
  104e4c:	8b 45 dc             	mov    -0x24(%ebp),%eax
  104e4f:	ba 00 00 00 00       	mov    $0x0,%edx
  104e54:	f7 75 0c             	divl   0xc(%ebp)
  104e57:	89 45 dc             	mov    %eax,-0x24(%ebp)
  104e5a:	8b 45 dc             	mov    -0x24(%ebp),%eax
  104e5d:	ba 00 00 00 00       	mov    $0x0,%edx
  104e62:	89 c2                	mov    %eax,%edx
  104e64:	b8 00 00 00 00       	mov    $0x0,%eax
  104e69:	89 45 e8             	mov    %eax,-0x18(%ebp)
  104e6c:	89 55 ec             	mov    %edx,-0x14(%ebp)
  104e6f:	8b 45 dc             	mov    -0x24(%ebp),%eax
  104e72:	0f af 45 0c          	imul   0xc(%ebp),%eax
  104e76:	ba 00 00 00 00       	mov    $0x0,%edx
  104e7b:	89 c2                	mov    %eax,%edx
  104e7d:	b8 00 00 00 00       	mov    $0x0,%eax
  104e82:	29 45 f8             	sub    %eax,-0x8(%ebp)
  104e85:	19 55 fc             	sbb    %edx,-0x4(%ebp)
  104e88:	eb 20                	jmp    104eaa <_Z10__div64_32Pyj+0xb0>
  104e8a:	8b 45 f0             	mov    -0x10(%ebp),%eax
  104e8d:	8b 55 f4             	mov    -0xc(%ebp),%edx
  104e90:	01 c0                	add    %eax,%eax
  104e92:	11 d2                	adc    %edx,%edx
  104e94:	89 45 f0             	mov    %eax,-0x10(%ebp)
  104e97:	89 55 f4             	mov    %edx,-0xc(%ebp)
  104e9a:	8b 45 e0             	mov    -0x20(%ebp),%eax
  104e9d:	8b 55 e4             	mov    -0x1c(%ebp),%edx
  104ea0:	01 c0                	add    %eax,%eax
  104ea2:	11 d2                	adc    %edx,%edx
  104ea4:	89 45 e0             	mov    %eax,-0x20(%ebp)
  104ea7:	89 55 e4             	mov    %edx,-0x1c(%ebp)
  104eaa:	8b 45 f0             	mov    -0x10(%ebp),%eax
  104ead:	8b 55 f4             	mov    -0xc(%ebp),%edx
  104eb0:	85 d2                	test   %edx,%edx
  104eb2:	78 1e                	js     104ed2 <_Z10__div64_32Pyj+0xd8>
  104eb4:	85 d2                	test   %edx,%edx
  104eb6:	7f 05                	jg     104ebd <_Z10__div64_32Pyj+0xc3>
  104eb8:	83 f8 00             	cmp    $0x0,%eax
  104ebb:	76 15                	jbe    104ed2 <_Z10__div64_32Pyj+0xd8>
  104ebd:	8b 45 f0             	mov    -0x10(%ebp),%eax
  104ec0:	8b 55 f4             	mov    -0xc(%ebp),%edx
  104ec3:	3b 55 fc             	cmp    -0x4(%ebp),%edx
  104ec6:	72 c2                	jb     104e8a <_Z10__div64_32Pyj+0x90>
  104ec8:	3b 55 fc             	cmp    -0x4(%ebp),%edx
  104ecb:	77 05                	ja     104ed2 <_Z10__div64_32Pyj+0xd8>
  104ecd:	3b 45 f8             	cmp    -0x8(%ebp),%eax
  104ed0:	72 b8                	jb     104e8a <_Z10__div64_32Pyj+0x90>
  104ed2:	8b 45 f8             	mov    -0x8(%ebp),%eax
  104ed5:	8b 55 fc             	mov    -0x4(%ebp),%edx
  104ed8:	3b 55 f4             	cmp    -0xc(%ebp),%edx
  104edb:	72 22                	jb     104eff <_Z10__div64_32Pyj+0x105>
  104edd:	3b 55 f4             	cmp    -0xc(%ebp),%edx
  104ee0:	77 05                	ja     104ee7 <_Z10__div64_32Pyj+0xed>
  104ee2:	3b 45 f0             	cmp    -0x10(%ebp),%eax
  104ee5:	72 18                	jb     104eff <_Z10__div64_32Pyj+0x105>
  104ee7:	8b 45 f0             	mov    -0x10(%ebp),%eax
  104eea:	8b 55 f4             	mov    -0xc(%ebp),%edx
  104eed:	29 45 f8             	sub    %eax,-0x8(%ebp)
  104ef0:	19 55 fc             	sbb    %edx,-0x4(%ebp)
  104ef3:	8b 45 e0             	mov    -0x20(%ebp),%eax
  104ef6:	8b 55 e4             	mov    -0x1c(%ebp),%edx
  104ef9:	01 45 e8             	add    %eax,-0x18(%ebp)
  104efc:	11 55 ec             	adc    %edx,-0x14(%ebp)
  104eff:	8b 45 f0             	mov    -0x10(%ebp),%eax
  104f02:	8b 55 f4             	mov    -0xc(%ebp),%edx
  104f05:	0f ac d0 01          	shrd   $0x1,%edx,%eax
  104f09:	d1 ea                	shr    %edx
  104f0b:	89 45 f0             	mov    %eax,-0x10(%ebp)
  104f0e:	89 55 f4             	mov    %edx,-0xc(%ebp)
  104f11:	8b 45 e0             	mov    -0x20(%ebp),%eax
  104f14:	8b 55 e4             	mov    -0x1c(%ebp),%edx
  104f17:	0f ac d0 01          	shrd   $0x1,%edx,%eax
  104f1b:	d1 ea                	shr    %edx
  104f1d:	89 45 e0             	mov    %eax,-0x20(%ebp)
  104f20:	89 55 e4             	mov    %edx,-0x1c(%ebp)
  104f23:	8b 45 e0             	mov    -0x20(%ebp),%eax
  104f26:	8b 55 e4             	mov    -0x1c(%ebp),%edx
  104f29:	09 d0                	or     %edx,%eax
  104f2b:	85 c0                	test   %eax,%eax
  104f2d:	75 a3                	jne    104ed2 <_Z10__div64_32Pyj+0xd8>
  104f2f:	8b 4d 08             	mov    0x8(%ebp),%ecx
  104f32:	8b 45 e8             	mov    -0x18(%ebp),%eax
  104f35:	8b 55 ec             	mov    -0x14(%ebp),%edx
  104f38:	89 01                	mov    %eax,(%ecx)
  104f3a:	89 51 04             	mov    %edx,0x4(%ecx)
  104f3d:	8b 45 f8             	mov    -0x8(%ebp),%eax
  104f40:	c9                   	leave  
  104f41:	c3                   	ret    

00104f42 <num2base_str>:
  104f42:	55                   	push   %ebp
  104f43:	89 e5                	mov    %esp,%ebp
  104f45:	53                   	push   %ebx
  104f46:	83 ec 24             	sub    $0x24,%esp
  104f49:	c7 45 ec 00 00 00 00 	movl   $0x0,-0x14(%ebp)
  104f50:	8b 45 0c             	mov    0xc(%ebp),%eax
  104f53:	89 45 f4             	mov    %eax,-0xc(%ebp)
  104f56:	c7 45 f0 00 00 00 00 	movl   $0x0,-0x10(%ebp)
  104f5d:	c7 45 e8 00 00 00 00 	movl   $0x0,-0x18(%ebp)
  104f64:	8b 4d 10             	mov    0x10(%ebp),%ecx
  104f67:	8b 45 f4             	mov    -0xc(%ebp),%eax
  104f6a:	ba 00 00 00 00       	mov    $0x0,%edx
  104f6f:	f7 f1                	div    %ecx
  104f71:	89 55 ec             	mov    %edx,-0x14(%ebp)
  104f74:	8b 5d 10             	mov    0x10(%ebp),%ebx
  104f77:	8b 45 f4             	mov    -0xc(%ebp),%eax
  104f7a:	ba 00 00 00 00       	mov    $0x0,%edx
  104f7f:	f7 f3                	div    %ebx
  104f81:	89 45 f4             	mov    %eax,-0xc(%ebp)
  104f84:	8b 55 f0             	mov    -0x10(%ebp),%edx
  104f87:	8b 45 08             	mov    0x8(%ebp),%eax
  104f8a:	01 c2                	add    %eax,%edx
  104f8c:	83 7d ec 09          	cmpl   $0x9,-0x14(%ebp)
  104f90:	77 08                	ja     104f9a <num2base_str+0x58>
  104f92:	8b 45 ec             	mov    -0x14(%ebp),%eax
  104f95:	83 c0 30             	add    $0x30,%eax
  104f98:	eb 06                	jmp    104fa0 <num2base_str+0x5e>
  104f9a:	8b 45 ec             	mov    -0x14(%ebp),%eax
  104f9d:	83 c0 37             	add    $0x37,%eax
  104fa0:	88 02                	mov    %al,(%edx)
  104fa2:	83 45 f0 01          	addl   $0x1,-0x10(%ebp)
  104fa6:	8b 45 10             	mov    0x10(%ebp),%eax
  104fa9:	3b 45 f4             	cmp    -0xc(%ebp),%eax
  104fac:	76 b6                	jbe    104f64 <num2base_str+0x22>
  104fae:	83 7d f4 00          	cmpl   $0x0,-0xc(%ebp)
  104fb2:	74 2f                	je     104fe3 <num2base_str+0xa1>
  104fb4:	8b 55 f0             	mov    -0x10(%ebp),%edx
  104fb7:	8b 45 08             	mov    0x8(%ebp),%eax
  104fba:	01 c2                	add    %eax,%edx
  104fbc:	83 7d f4 09          	cmpl   $0x9,-0xc(%ebp)
  104fc0:	77 08                	ja     104fca <num2base_str+0x88>
  104fc2:	8b 45 f4             	mov    -0xc(%ebp),%eax
  104fc5:	83 c0 30             	add    $0x30,%eax
  104fc8:	eb 06                	jmp    104fd0 <num2base_str+0x8e>
  104fca:	8b 45 f4             	mov    -0xc(%ebp),%eax
  104fcd:	83 c0 37             	add    $0x37,%eax
  104fd0:	88 02                	mov    %al,(%edx)
  104fd2:	83 45 f0 01          	addl   $0x1,-0x10(%ebp)
  104fd6:	8b 55 f0             	mov    -0x10(%ebp),%edx
  104fd9:	8b 45 08             	mov    0x8(%ebp),%eax
  104fdc:	01 d0                	add    %edx,%eax
  104fde:	c6 00 00             	movb   $0x0,(%eax)
  104fe1:	eb 0b                	jmp    104fee <num2base_str+0xac>
  104fe3:	8b 55 f0             	mov    -0x10(%ebp),%edx
  104fe6:	8b 45 08             	mov    0x8(%ebp),%eax
  104fe9:	01 d0                	add    %edx,%eax
  104feb:	c6 00 00             	movb   $0x0,(%eax)
  104fee:	8b 45 08             	mov    0x8(%ebp),%eax
  104ff1:	89 04 24             	mov    %eax,(%esp)
  104ff4:	e8 06 00 00 00       	call   104fff <str_reverse>
  104ff9:	83 c4 24             	add    $0x24,%esp
  104ffc:	5b                   	pop    %ebx
  104ffd:	5d                   	pop    %ebp
  104ffe:	c3                   	ret    

00104fff <str_reverse>:
  104fff:	55                   	push   %ebp
  105000:	89 e5                	mov    %esp,%ebp
  105002:	83 ec 28             	sub    $0x28,%esp
  105005:	8b 45 08             	mov    0x8(%ebp),%eax
  105008:	89 04 24             	mov    %eax,(%esp)
  10500b:	e8 c0 04 00 00       	call   1054d0 <strlen>
  105010:	89 45 f0             	mov    %eax,-0x10(%ebp)
  105013:	c7 45 f4 00 00 00 00 	movl   $0x0,-0xc(%ebp)
  10501a:	eb 2a                	jmp    105046 <str_reverse+0x47>
  10501c:	8b 55 f0             	mov    -0x10(%ebp),%edx
  10501f:	8b 45 f4             	mov    -0xc(%ebp),%eax
  105022:	29 c2                	sub    %eax,%edx
  105024:	89 d0                	mov    %edx,%eax
  105026:	8d 50 ff             	lea    -0x1(%eax),%edx
  105029:	8b 45 08             	mov    0x8(%ebp),%eax
  10502c:	01 c2                	add    %eax,%edx
  10502e:	8b 4d f4             	mov    -0xc(%ebp),%ecx
  105031:	8b 45 08             	mov    0x8(%ebp),%eax
  105034:	01 c8                	add    %ecx,%eax
  105036:	89 54 24 04          	mov    %edx,0x4(%esp)
  10503a:	89 04 24             	mov    %eax,(%esp)
  10503d:	e8 17 00 00 00       	call   105059 <swap_char>
  105042:	83 45 f4 01          	addl   $0x1,-0xc(%ebp)
  105046:	8b 45 f0             	mov    -0x10(%ebp),%eax
  105049:	89 c2                	mov    %eax,%edx
  10504b:	c1 ea 1f             	shr    $0x1f,%edx
  10504e:	01 d0                	add    %edx,%eax
  105050:	d1 f8                	sar    %eax
  105052:	3b 45 f4             	cmp    -0xc(%ebp),%eax
  105055:	7f c5                	jg     10501c <str_reverse+0x1d>
  105057:	c9                   	leave  
  105058:	c3                   	ret    

00105059 <swap_char>:
  105059:	55                   	push   %ebp
  10505a:	89 e5                	mov    %esp,%ebp
  10505c:	8b 45 08             	mov    0x8(%ebp),%eax
  10505f:	0f b6 10             	movzbl (%eax),%edx
  105062:	8b 45 0c             	mov    0xc(%ebp),%eax
  105065:	0f b6 00             	movzbl (%eax),%eax
  105068:	31 c2                	xor    %eax,%edx
  10506a:	8b 45 08             	mov    0x8(%ebp),%eax
  10506d:	88 10                	mov    %dl,(%eax)
  10506f:	8b 45 08             	mov    0x8(%ebp),%eax
  105072:	0f b6 10             	movzbl (%eax),%edx
  105075:	8b 45 0c             	mov    0xc(%ebp),%eax
  105078:	0f b6 00             	movzbl (%eax),%eax
  10507b:	31 c2                	xor    %eax,%edx
  10507d:	8b 45 0c             	mov    0xc(%ebp),%eax
  105080:	88 10                	mov    %dl,(%eax)
  105082:	8b 45 08             	mov    0x8(%ebp),%eax
  105085:	0f b6 10             	movzbl (%eax),%edx
  105088:	8b 45 0c             	mov    0xc(%ebp),%eax
  10508b:	0f b6 00             	movzbl (%eax),%eax
  10508e:	31 c2                	xor    %eax,%edx
  105090:	8b 45 08             	mov    0x8(%ebp),%eax
  105093:	88 10                	mov    %dl,(%eax)
  105095:	5d                   	pop    %ebp
  105096:	c3                   	ret    

00105097 <_Z9strformatPcic>:
  105097:	55                   	push   %ebp
  105098:	89 e5                	mov    %esp,%ebp
  10509a:	83 ec 28             	sub    $0x28,%esp
  10509d:	8b 45 10             	mov    0x10(%ebp),%eax
  1050a0:	88 45 e4             	mov    %al,-0x1c(%ebp)
  1050a3:	8b 45 08             	mov    0x8(%ebp),%eax
  1050a6:	89 04 24             	mov    %eax,(%esp)
  1050a9:	e8 22 04 00 00       	call   1054d0 <strlen>
  1050ae:	89 45 f0             	mov    %eax,-0x10(%ebp)
  1050b1:	8b 45 f0             	mov    -0x10(%ebp),%eax
  1050b4:	3b 45 0c             	cmp    0xc(%ebp),%eax
  1050b7:	7d 1c                	jge    1050d5 <_Z9strformatPcic+0x3e>
  1050b9:	8b 55 0c             	mov    0xc(%ebp),%edx
  1050bc:	8b 45 f0             	mov    -0x10(%ebp),%eax
  1050bf:	29 c2                	sub    %eax,%edx
  1050c1:	8b 45 08             	mov    0x8(%ebp),%eax
  1050c4:	01 c2                	add    %eax,%edx
  1050c6:	8b 45 08             	mov    0x8(%ebp),%eax
  1050c9:	89 44 24 04          	mov    %eax,0x4(%esp)
  1050cd:	89 14 24             	mov    %edx,(%esp)
  1050d0:	e8 ba 01 00 00       	call   10528f <strcpy>
  1050d5:	c7 45 f4 00 00 00 00 	movl   $0x0,-0xc(%ebp)
  1050dc:	eb 12                	jmp    1050f0 <_Z9strformatPcic+0x59>
  1050de:	8b 55 f4             	mov    -0xc(%ebp),%edx
  1050e1:	8b 45 08             	mov    0x8(%ebp),%eax
  1050e4:	01 c2                	add    %eax,%edx
  1050e6:	0f b6 45 e4          	movzbl -0x1c(%ebp),%eax
  1050ea:	88 02                	mov    %al,(%edx)
  1050ec:	83 45 f4 01          	addl   $0x1,-0xc(%ebp)
  1050f0:	8b 45 f0             	mov    -0x10(%ebp),%eax
  1050f3:	8b 55 0c             	mov    0xc(%ebp),%edx
  1050f6:	29 c2                	sub    %eax,%edx
  1050f8:	89 d0                	mov    %edx,%eax
  1050fa:	3b 45 f4             	cmp    -0xc(%ebp),%eax
  1050fd:	7f df                	jg     1050de <_Z9strformatPcic+0x47>
  1050ff:	c9                   	leave  
  105100:	c3                   	ret    

00105101 <limitation>:
  105101:	55                   	push   %ebp
  105102:	89 e5                	mov    %esp,%ebp
  105104:	8b 45 08             	mov    0x8(%ebp),%eax
  105107:	3b 45 0c             	cmp    0xc(%ebp),%eax
  10510a:	7d 05                	jge    105111 <limitation+0x10>
  10510c:	8b 45 0c             	mov    0xc(%ebp),%eax
  10510f:	eb 10                	jmp    105121 <limitation+0x20>
  105111:	8b 45 08             	mov    0x8(%ebp),%eax
  105114:	3b 45 10             	cmp    0x10(%ebp),%eax
  105117:	7e 05                	jle    10511e <limitation+0x1d>
  105119:	8b 45 10             	mov    0x10(%ebp),%eax
  10511c:	eb 03                	jmp    105121 <limitation+0x20>
  10511e:	8b 45 08             	mov    0x8(%ebp),%eax
  105121:	5d                   	pop    %ebp
  105122:	c3                   	ret    

00105123 <exp>:
  105123:	55                   	push   %ebp
  105124:	89 e5                	mov    %esp,%ebp
  105126:	83 ec 20             	sub    $0x20,%esp
  105129:	8b 45 08             	mov    0x8(%ebp),%eax
  10512c:	89 45 fc             	mov    %eax,-0x4(%ebp)
  10512f:	d9 45 08             	flds   0x8(%ebp)
  105132:	d9 e8                	fld1   
  105134:	de c1                	faddp  %st,%st(1)
  105136:	d9 5d f8             	fstps  -0x8(%ebp)
  105139:	8b 45 08             	mov    0x8(%ebp),%eax
  10513c:	89 45 f0             	mov    %eax,-0x10(%ebp)
  10513f:	c7 45 f4 01 00 00 00 	movl   $0x1,-0xc(%ebp)
  105146:	eb 4c                	jmp    105194 <exp+0x71>
  105148:	8b 45 f8             	mov    -0x8(%ebp),%eax
  10514b:	89 45 f0             	mov    %eax,-0x10(%ebp)
  10514e:	83 45 f4 01          	addl   $0x1,-0xc(%ebp)
  105152:	d9 45 fc             	flds   -0x4(%ebp)
  105155:	d8 4d 08             	fmuls  0x8(%ebp)
  105158:	d9 5d fc             	fstps  -0x4(%ebp)
  10515b:	8b 45 f4             	mov    -0xc(%ebp),%eax
  10515e:	8b 14 c5 a4 92 10 00 	mov    0x1092a4(,%eax,8),%edx
  105165:	8b 04 c5 a0 92 10 00 	mov    0x1092a0(,%eax,8),%eax
  10516c:	89 45 e0             	mov    %eax,-0x20(%ebp)
  10516f:	89 55 e4             	mov    %edx,-0x1c(%ebp)
  105172:	df 6d e0             	fildll -0x20(%ebp)
  105175:	85 d2                	test   %edx,%edx
  105177:	79 08                	jns    105181 <exp+0x5e>
  105179:	db 2d 60 8e 10 00    	fldt   0x108e60
  10517f:	de c1                	faddp  %st,%st(1)
  105181:	d9 5d ec             	fstps  -0x14(%ebp)
  105184:	d9 45 ec             	flds   -0x14(%ebp)
  105187:	d9 45 fc             	flds   -0x4(%ebp)
  10518a:	de f1                	fdivp  %st,%st(1)
  10518c:	d9 45 f8             	flds   -0x8(%ebp)
  10518f:	de c1                	faddp  %st,%st(1)
  105191:	d9 5d f8             	fstps  -0x8(%ebp)
  105194:	8b 45 0c             	mov    0xc(%ebp),%eax
  105197:	8d 50 ff             	lea    -0x1(%eax),%edx
  10519a:	89 55 0c             	mov    %edx,0xc(%ebp)
  10519d:	85 c0                	test   %eax,%eax
  10519f:	0f 95 c0             	setne  %al
  1051a2:	84 c0                	test   %al,%al
  1051a4:	75 a2                	jne    105148 <exp+0x25>
  1051a6:	8b 45 f8             	mov    -0x8(%ebp),%eax
  1051a9:	89 45 e8             	mov    %eax,-0x18(%ebp)
  1051ac:	d9 45 e8             	flds   -0x18(%ebp)
  1051af:	c9                   	leave  
  1051b0:	c3                   	ret    

001051b1 <_ZL9__tolowerh>:
  1051b1:	55                   	push   %ebp
  1051b2:	89 e5                	mov    %esp,%ebp
  1051b4:	83 ec 04             	sub    $0x4,%esp
  1051b7:	8b 45 08             	mov    0x8(%ebp),%eax
  1051ba:	88 45 fc             	mov    %al,-0x4(%ebp)
  1051bd:	0f b6 45 fc          	movzbl -0x4(%ebp),%eax
  1051c1:	0f b6 80 60 8d 10 00 	movzbl 0x108d60(%eax),%eax
  1051c8:	0f b6 c0             	movzbl %al,%eax
  1051cb:	83 e0 01             	and    $0x1,%eax
  1051ce:	85 c0                	test   %eax,%eax
  1051d0:	74 04                	je     1051d6 <_ZL9__tolowerh+0x25>
  1051d2:	80 45 fc 20          	addb   $0x20,-0x4(%ebp)
  1051d6:	0f b6 45 fc          	movzbl -0x4(%ebp),%eax
  1051da:	c9                   	leave  
  1051db:	c3                   	ret    

001051dc <strncasecmp>:
  1051dc:	55                   	push   %ebp
  1051dd:	89 e5                	mov    %esp,%ebp
  1051df:	83 ec 14             	sub    $0x14,%esp
  1051e2:	c6 45 ff 00          	movb   $0x0,-0x1(%ebp)
  1051e6:	c6 45 fe 00          	movb   $0x0,-0x2(%ebp)
  1051ea:	83 7d 10 00          	cmpl   $0x0,0x10(%ebp)
  1051ee:	74 6f                	je     10525f <strncasecmp+0x83>
  1051f0:	8b 45 08             	mov    0x8(%ebp),%eax
  1051f3:	0f b6 00             	movzbl (%eax),%eax
  1051f6:	88 45 ff             	mov    %al,-0x1(%ebp)
  1051f9:	8b 45 0c             	mov    0xc(%ebp),%eax
  1051fc:	0f b6 00             	movzbl (%eax),%eax
  1051ff:	88 45 fe             	mov    %al,-0x2(%ebp)
  105202:	83 45 08 01          	addl   $0x1,0x8(%ebp)
  105206:	83 45 0c 01          	addl   $0x1,0xc(%ebp)
  10520a:	80 7d ff 00          	cmpb   $0x0,-0x1(%ebp)
  10520e:	75 02                	jne    105212 <strncasecmp+0x36>
  105210:	eb 4d                	jmp    10525f <strncasecmp+0x83>
  105212:	80 7d fe 00          	cmpb   $0x0,-0x2(%ebp)
  105216:	75 02                	jne    10521a <strncasecmp+0x3e>
  105218:	eb 45                	jmp    10525f <strncasecmp+0x83>
  10521a:	0f b6 45 ff          	movzbl -0x1(%ebp),%eax
  10521e:	3a 45 fe             	cmp    -0x2(%ebp),%al
  105221:	75 02                	jne    105225 <strncasecmp+0x49>
  105223:	eb 29                	jmp    10524e <strncasecmp+0x72>
  105225:	0f b6 45 ff          	movzbl -0x1(%ebp),%eax
  105229:	89 04 24             	mov    %eax,(%esp)
  10522c:	e8 80 ff ff ff       	call   1051b1 <_ZL9__tolowerh>
  105231:	88 45 ff             	mov    %al,-0x1(%ebp)
  105234:	0f b6 45 fe          	movzbl -0x2(%ebp),%eax
  105238:	89 04 24             	mov    %eax,(%esp)
  10523b:	e8 71 ff ff ff       	call   1051b1 <_ZL9__tolowerh>
  105240:	88 45 fe             	mov    %al,-0x2(%ebp)
  105243:	0f b6 45 ff          	movzbl -0x1(%ebp),%eax
  105247:	3a 45 fe             	cmp    -0x2(%ebp),%al
  10524a:	74 02                	je     10524e <strncasecmp+0x72>
  10524c:	eb 11                	jmp    10525f <strncasecmp+0x83>
  10524e:	83 6d 10 01          	subl   $0x1,0x10(%ebp)
  105252:	83 7d 10 00          	cmpl   $0x0,0x10(%ebp)
  105256:	0f 95 c0             	setne  %al
  105259:	84 c0                	test   %al,%al
  10525b:	75 93                	jne    1051f0 <strncasecmp+0x14>
  10525d:	eb 00                	jmp    10525f <strncasecmp+0x83>
  10525f:	0f b6 55 ff          	movzbl -0x1(%ebp),%edx
  105263:	0f b6 45 fe          	movzbl -0x2(%ebp),%eax
  105267:	29 c2                	sub    %eax,%edx
  105269:	89 d0                	mov    %edx,%eax
  10526b:	c9                   	leave  
  10526c:	c3                   	ret    

0010526d <strcasecmp>:
  10526d:	55                   	push   %ebp
  10526e:	89 e5                	mov    %esp,%ebp
  105270:	83 ec 0c             	sub    $0xc,%esp
  105273:	c7 44 24 08 ff ff ff 	movl   $0xffffffff,0x8(%esp)
  10527a:	ff 
  10527b:	8b 45 0c             	mov    0xc(%ebp),%eax
  10527e:	89 44 24 04          	mov    %eax,0x4(%esp)
  105282:	8b 45 08             	mov    0x8(%ebp),%eax
  105285:	89 04 24             	mov    %eax,(%esp)
  105288:	e8 4f ff ff ff       	call   1051dc <strncasecmp>
  10528d:	c9                   	leave  
  10528e:	c3                   	ret    

0010528f <strcpy>:
  10528f:	55                   	push   %ebp
  105290:	89 e5                	mov    %esp,%ebp
  105292:	83 ec 10             	sub    $0x10,%esp
  105295:	8b 45 08             	mov    0x8(%ebp),%eax
  105298:	89 45 fc             	mov    %eax,-0x4(%ebp)
  10529b:	90                   	nop
  10529c:	8b 45 08             	mov    0x8(%ebp),%eax
  10529f:	8d 50 01             	lea    0x1(%eax),%edx
  1052a2:	89 55 08             	mov    %edx,0x8(%ebp)
  1052a5:	8b 55 0c             	mov    0xc(%ebp),%edx
  1052a8:	8d 4a 01             	lea    0x1(%edx),%ecx
  1052ab:	89 4d 0c             	mov    %ecx,0xc(%ebp)
  1052ae:	0f b6 12             	movzbl (%edx),%edx
  1052b1:	88 10                	mov    %dl,(%eax)
  1052b3:	0f b6 00             	movzbl (%eax),%eax
  1052b6:	84 c0                	test   %al,%al
  1052b8:	0f 95 c0             	setne  %al
  1052bb:	84 c0                	test   %al,%al
  1052bd:	75 dd                	jne    10529c <strcpy+0xd>
  1052bf:	8b 45 fc             	mov    -0x4(%ebp),%eax
  1052c2:	c9                   	leave  
  1052c3:	c3                   	ret    

001052c4 <strncpy>:
  1052c4:	55                   	push   %ebp
  1052c5:	89 e5                	mov    %esp,%ebp
  1052c7:	83 ec 10             	sub    $0x10,%esp
  1052ca:	8b 45 08             	mov    0x8(%ebp),%eax
  1052cd:	89 45 fc             	mov    %eax,-0x4(%ebp)
  1052d0:	90                   	nop
  1052d1:	8b 45 10             	mov    0x10(%ebp),%eax
  1052d4:	8d 50 ff             	lea    -0x1(%eax),%edx
  1052d7:	89 55 10             	mov    %edx,0x10(%ebp)
  1052da:	85 c0                	test   %eax,%eax
  1052dc:	74 25                	je     105303 <strncpy+0x3f>
  1052de:	8b 45 08             	mov    0x8(%ebp),%eax
  1052e1:	8d 50 01             	lea    0x1(%eax),%edx
  1052e4:	89 55 08             	mov    %edx,0x8(%ebp)
  1052e7:	8b 55 0c             	mov    0xc(%ebp),%edx
  1052ea:	8d 4a 01             	lea    0x1(%edx),%ecx
  1052ed:	89 4d 0c             	mov    %ecx,0xc(%ebp)
  1052f0:	0f b6 12             	movzbl (%edx),%edx
  1052f3:	88 10                	mov    %dl,(%eax)
  1052f5:	0f b6 00             	movzbl (%eax),%eax
  1052f8:	84 c0                	test   %al,%al
  1052fa:	74 07                	je     105303 <strncpy+0x3f>
  1052fc:	b8 01 00 00 00       	mov    $0x1,%eax
  105301:	eb 05                	jmp    105308 <strncpy+0x44>
  105303:	b8 00 00 00 00       	mov    $0x0,%eax
  105308:	84 c0                	test   %al,%al
  10530a:	75 c5                	jne    1052d1 <strncpy+0xd>
  10530c:	8b 45 fc             	mov    -0x4(%ebp),%eax
  10530f:	c9                   	leave  
  105310:	c3                   	ret    

00105311 <strcat>:
  105311:	55                   	push   %ebp
  105312:	89 e5                	mov    %esp,%ebp
  105314:	83 ec 10             	sub    $0x10,%esp
  105317:	8b 45 08             	mov    0x8(%ebp),%eax
  10531a:	89 45 fc             	mov    %eax,-0x4(%ebp)
  10531d:	eb 04                	jmp    105323 <strcat+0x12>
  10531f:	83 45 08 01          	addl   $0x1,0x8(%ebp)
  105323:	8b 45 08             	mov    0x8(%ebp),%eax
  105326:	0f b6 00             	movzbl (%eax),%eax
  105329:	84 c0                	test   %al,%al
  10532b:	75 f2                	jne    10531f <strcat+0xe>
  10532d:	90                   	nop
  10532e:	8b 45 08             	mov    0x8(%ebp),%eax
  105331:	8d 50 01             	lea    0x1(%eax),%edx
  105334:	89 55 08             	mov    %edx,0x8(%ebp)
  105337:	8b 55 0c             	mov    0xc(%ebp),%edx
  10533a:	8d 4a 01             	lea    0x1(%edx),%ecx
  10533d:	89 4d 0c             	mov    %ecx,0xc(%ebp)
  105340:	0f b6 12             	movzbl (%edx),%edx
  105343:	88 10                	mov    %dl,(%eax)
  105345:	0f b6 00             	movzbl (%eax),%eax
  105348:	84 c0                	test   %al,%al
  10534a:	0f 95 c0             	setne  %al
  10534d:	84 c0                	test   %al,%al
  10534f:	75 dd                	jne    10532e <strcat+0x1d>
  105351:	8b 45 fc             	mov    -0x4(%ebp),%eax
  105354:	c9                   	leave  
  105355:	c3                   	ret    

00105356 <strncat>:
  105356:	55                   	push   %ebp
  105357:	89 e5                	mov    %esp,%ebp
  105359:	83 ec 10             	sub    $0x10,%esp
  10535c:	8b 45 08             	mov    0x8(%ebp),%eax
  10535f:	89 45 fc             	mov    %eax,-0x4(%ebp)
  105362:	83 7d 10 00          	cmpl   $0x0,0x10(%ebp)
  105366:	74 4d                	je     1053b5 <strncat+0x5f>
  105368:	eb 04                	jmp    10536e <strncat+0x18>
  10536a:	83 45 08 01          	addl   $0x1,0x8(%ebp)
  10536e:	8b 45 08             	mov    0x8(%ebp),%eax
  105371:	0f b6 00             	movzbl (%eax),%eax
  105374:	84 c0                	test   %al,%al
  105376:	75 f2                	jne    10536a <strncat+0x14>
  105378:	eb 18                	jmp    105392 <strncat+0x3c>
  10537a:	83 6d 10 01          	subl   $0x1,0x10(%ebp)
  10537e:	83 7d 10 00          	cmpl   $0x0,0x10(%ebp)
  105382:	0f 94 c0             	sete   %al
  105385:	84 c0                	test   %al,%al
  105387:	74 09                	je     105392 <strncat+0x3c>
  105389:	8b 45 08             	mov    0x8(%ebp),%eax
  10538c:	c6 00 00             	movb   $0x0,(%eax)
  10538f:	90                   	nop
  105390:	eb 23                	jmp    1053b5 <strncat+0x5f>
  105392:	8b 45 08             	mov    0x8(%ebp),%eax
  105395:	8d 50 01             	lea    0x1(%eax),%edx
  105398:	89 55 08             	mov    %edx,0x8(%ebp)
  10539b:	8b 55 0c             	mov    0xc(%ebp),%edx
  10539e:	8d 4a 01             	lea    0x1(%edx),%ecx
  1053a1:	89 4d 0c             	mov    %ecx,0xc(%ebp)
  1053a4:	0f b6 12             	movzbl (%edx),%edx
  1053a7:	88 10                	mov    %dl,(%eax)
  1053a9:	0f b6 00             	movzbl (%eax),%eax
  1053ac:	84 c0                	test   %al,%al
  1053ae:	0f 95 c0             	setne  %al
  1053b1:	84 c0                	test   %al,%al
  1053b3:	75 c5                	jne    10537a <strncat+0x24>
  1053b5:	8b 45 fc             	mov    -0x4(%ebp),%eax
  1053b8:	c9                   	leave  
  1053b9:	c3                   	ret    

001053ba <strcmp>:
  1053ba:	55                   	push   %ebp
  1053bb:	89 e5                	mov    %esp,%ebp
  1053bd:	53                   	push   %ebx
  1053be:	8b 45 08             	mov    0x8(%ebp),%eax
  1053c1:	0f b6 00             	movzbl (%eax),%eax
  1053c4:	89 c1                	mov    %eax,%ecx
  1053c6:	8b 45 0c             	mov    0xc(%ebp),%eax
  1053c9:	8d 50 01             	lea    0x1(%eax),%edx
  1053cc:	89 55 0c             	mov    %edx,0xc(%ebp)
  1053cf:	0f b6 00             	movzbl (%eax),%eax
  1053d2:	29 c1                	sub    %eax,%ecx
  1053d4:	89 c8                	mov    %ecx,%eax
  1053d6:	89 c3                	mov    %eax,%ebx
  1053d8:	84 db                	test   %bl,%bl
  1053da:	75 10                	jne    1053ec <strcmp+0x32>
  1053dc:	8b 45 08             	mov    0x8(%ebp),%eax
  1053df:	8d 50 01             	lea    0x1(%eax),%edx
  1053e2:	89 55 08             	mov    %edx,0x8(%ebp)
  1053e5:	0f b6 00             	movzbl (%eax),%eax
  1053e8:	84 c0                	test   %al,%al
  1053ea:	75 07                	jne    1053f3 <strcmp+0x39>
  1053ec:	b8 01 00 00 00       	mov    $0x1,%eax
  1053f1:	eb 05                	jmp    1053f8 <strcmp+0x3e>
  1053f3:	b8 00 00 00 00       	mov    $0x0,%eax
  1053f8:	84 c0                	test   %al,%al
  1053fa:	74 02                	je     1053fe <strcmp+0x44>
  1053fc:	eb 02                	jmp    105400 <strcmp+0x46>
  1053fe:	eb be                	jmp    1053be <strcmp+0x4>
  105400:	0f be c3             	movsbl %bl,%eax
  105403:	5b                   	pop    %ebx
  105404:	5d                   	pop    %ebp
  105405:	c3                   	ret    

00105406 <strncmp>:
  105406:	55                   	push   %ebp
  105407:	89 e5                	mov    %esp,%ebp
  105409:	53                   	push   %ebx
  10540a:	bb 00 00 00 00       	mov    $0x0,%ebx
  10540f:	eb 44                	jmp    105455 <strncmp+0x4f>
  105411:	8b 45 08             	mov    0x8(%ebp),%eax
  105414:	0f b6 00             	movzbl (%eax),%eax
  105417:	89 c1                	mov    %eax,%ecx
  105419:	8b 45 0c             	mov    0xc(%ebp),%eax
  10541c:	8d 50 01             	lea    0x1(%eax),%edx
  10541f:	89 55 0c             	mov    %edx,0xc(%ebp)
  105422:	0f b6 00             	movzbl (%eax),%eax
  105425:	29 c1                	sub    %eax,%ecx
  105427:	89 c8                	mov    %ecx,%eax
  105429:	89 c3                	mov    %eax,%ebx
  10542b:	84 db                	test   %bl,%bl
  10542d:	75 10                	jne    10543f <strncmp+0x39>
  10542f:	8b 45 08             	mov    0x8(%ebp),%eax
  105432:	8d 50 01             	lea    0x1(%eax),%edx
  105435:	89 55 08             	mov    %edx,0x8(%ebp)
  105438:	0f b6 00             	movzbl (%eax),%eax
  10543b:	84 c0                	test   %al,%al
  10543d:	75 07                	jne    105446 <strncmp+0x40>
  10543f:	b8 01 00 00 00       	mov    $0x1,%eax
  105444:	eb 05                	jmp    10544b <strncmp+0x45>
  105446:	b8 00 00 00 00       	mov    $0x0,%eax
  10544b:	84 c0                	test   %al,%al
  10544d:	74 02                	je     105451 <strncmp+0x4b>
  10544f:	eb 0a                	jmp    10545b <strncmp+0x55>
  105451:	83 6d 10 01          	subl   $0x1,0x10(%ebp)
  105455:	83 7d 10 00          	cmpl   $0x0,0x10(%ebp)
  105459:	75 b6                	jne    105411 <strncmp+0xb>
  10545b:	0f be c3             	movsbl %bl,%eax
  10545e:	5b                   	pop    %ebx
  10545f:	5d                   	pop    %ebp
  105460:	c3                   	ret    

00105461 <strchr>:
  105461:	55                   	push   %ebp
  105462:	89 e5                	mov    %esp,%ebp
  105464:	eb 15                	jmp    10547b <strchr+0x1a>
  105466:	8b 45 08             	mov    0x8(%ebp),%eax
  105469:	0f b6 00             	movzbl (%eax),%eax
  10546c:	84 c0                	test   %al,%al
  10546e:	75 07                	jne    105477 <strchr+0x16>
  105470:	b8 00 00 00 00       	mov    $0x0,%eax
  105475:	eb 14                	jmp    10548b <strchr+0x2a>
  105477:	83 45 08 01          	addl   $0x1,0x8(%ebp)
  10547b:	8b 45 08             	mov    0x8(%ebp),%eax
  10547e:	0f b6 10             	movzbl (%eax),%edx
  105481:	8b 45 0c             	mov    0xc(%ebp),%eax
  105484:	38 c2                	cmp    %al,%dl
  105486:	75 de                	jne    105466 <strchr+0x5>
  105488:	8b 45 08             	mov    0x8(%ebp),%eax
  10548b:	5d                   	pop    %ebp
  10548c:	c3                   	ret    

0010548d <strrchr>:
  10548d:	55                   	push   %ebp
  10548e:	89 e5                	mov    %esp,%ebp
  105490:	83 ec 28             	sub    $0x28,%esp
  105493:	8b 45 08             	mov    0x8(%ebp),%eax
  105496:	89 04 24             	mov    %eax,(%esp)
  105499:	e8 32 00 00 00       	call   1054d0 <strlen>
  10549e:	8b 55 08             	mov    0x8(%ebp),%edx
  1054a1:	01 d0                	add    %edx,%eax
  1054a3:	89 45 f4             	mov    %eax,-0xc(%ebp)
  1054a6:	8b 45 f4             	mov    -0xc(%ebp),%eax
  1054a9:	0f b6 10             	movzbl (%eax),%edx
  1054ac:	8b 45 0c             	mov    0xc(%ebp),%eax
  1054af:	38 c2                	cmp    %al,%dl
  1054b1:	75 05                	jne    1054b8 <strrchr+0x2b>
  1054b3:	8b 45 f4             	mov    -0xc(%ebp),%eax
  1054b6:	eb 16                	jmp    1054ce <strrchr+0x41>
  1054b8:	83 6d f4 01          	subl   $0x1,-0xc(%ebp)
  1054bc:	8b 45 f4             	mov    -0xc(%ebp),%eax
  1054bf:	3b 45 08             	cmp    0x8(%ebp),%eax
  1054c2:	0f 93 c0             	setae  %al
  1054c5:	84 c0                	test   %al,%al
  1054c7:	75 dd                	jne    1054a6 <strrchr+0x19>
  1054c9:	b8 00 00 00 00       	mov    $0x0,%eax
  1054ce:	c9                   	leave  
  1054cf:	c3                   	ret    

001054d0 <strlen>:
  1054d0:	55                   	push   %ebp
  1054d1:	89 e5                	mov    %esp,%ebp
  1054d3:	83 ec 10             	sub    $0x10,%esp
  1054d6:	8b 45 08             	mov    0x8(%ebp),%eax
  1054d9:	89 45 fc             	mov    %eax,-0x4(%ebp)
  1054dc:	eb 04                	jmp    1054e2 <strlen+0x12>
  1054de:	83 45 fc 01          	addl   $0x1,-0x4(%ebp)
  1054e2:	8b 45 fc             	mov    -0x4(%ebp),%eax
  1054e5:	0f b6 00             	movzbl (%eax),%eax
  1054e8:	84 c0                	test   %al,%al
  1054ea:	75 f2                	jne    1054de <strlen+0xe>
  1054ec:	8b 55 fc             	mov    -0x4(%ebp),%edx
  1054ef:	8b 45 08             	mov    0x8(%ebp),%eax
  1054f2:	29 c2                	sub    %eax,%edx
  1054f4:	89 d0                	mov    %edx,%eax
  1054f6:	c9                   	leave  
  1054f7:	c3                   	ret    

001054f8 <strnlen>:
  1054f8:	55                   	push   %ebp
  1054f9:	89 e5                	mov    %esp,%ebp
  1054fb:	83 ec 10             	sub    $0x10,%esp
  1054fe:	8b 45 08             	mov    0x8(%ebp),%eax
  105501:	89 45 fc             	mov    %eax,-0x4(%ebp)
  105504:	eb 04                	jmp    10550a <strnlen+0x12>
  105506:	83 45 fc 01          	addl   $0x1,-0x4(%ebp)
  10550a:	8b 45 0c             	mov    0xc(%ebp),%eax
  10550d:	8d 50 ff             	lea    -0x1(%eax),%edx
  105510:	89 55 0c             	mov    %edx,0xc(%ebp)
  105513:	85 c0                	test   %eax,%eax
  105515:	74 11                	je     105528 <strnlen+0x30>
  105517:	8b 45 fc             	mov    -0x4(%ebp),%eax
  10551a:	0f b6 00             	movzbl (%eax),%eax
  10551d:	84 c0                	test   %al,%al
  10551f:	74 07                	je     105528 <strnlen+0x30>
  105521:	b8 01 00 00 00       	mov    $0x1,%eax
  105526:	eb 05                	jmp    10552d <strnlen+0x35>
  105528:	b8 00 00 00 00       	mov    $0x0,%eax
  10552d:	84 c0                	test   %al,%al
  10552f:	75 d5                	jne    105506 <strnlen+0xe>
  105531:	8b 55 fc             	mov    -0x4(%ebp),%edx
  105534:	8b 45 08             	mov    0x8(%ebp),%eax
  105537:	29 c2                	sub    %eax,%edx
  105539:	89 d0                	mov    %edx,%eax
  10553b:	c9                   	leave  
  10553c:	c3                   	ret    

0010553d <strspn>:
  10553d:	55                   	push   %ebp
  10553e:	89 e5                	mov    %esp,%ebp
  105540:	83 ec 10             	sub    $0x10,%esp
  105543:	c7 45 f4 00 00 00 00 	movl   $0x0,-0xc(%ebp)
  10554a:	8b 45 08             	mov    0x8(%ebp),%eax
  10554d:	89 45 fc             	mov    %eax,-0x4(%ebp)
  105550:	eb 3f                	jmp    105591 <strspn+0x54>
  105552:	8b 45 0c             	mov    0xc(%ebp),%eax
  105555:	89 45 f8             	mov    %eax,-0x8(%ebp)
  105558:	eb 16                	jmp    105570 <strspn+0x33>
  10555a:	8b 45 fc             	mov    -0x4(%ebp),%eax
  10555d:	0f b6 10             	movzbl (%eax),%edx
  105560:	8b 45 f8             	mov    -0x8(%ebp),%eax
  105563:	0f b6 00             	movzbl (%eax),%eax
  105566:	38 c2                	cmp    %al,%dl
  105568:	75 02                	jne    10556c <strspn+0x2f>
  10556a:	eb 0e                	jmp    10557a <strspn+0x3d>
  10556c:	83 45 f8 01          	addl   $0x1,-0x8(%ebp)
  105570:	8b 45 f8             	mov    -0x8(%ebp),%eax
  105573:	0f b6 00             	movzbl (%eax),%eax
  105576:	84 c0                	test   %al,%al
  105578:	75 e0                	jne    10555a <strspn+0x1d>
  10557a:	8b 45 f8             	mov    -0x8(%ebp),%eax
  10557d:	0f b6 00             	movzbl (%eax),%eax
  105580:	84 c0                	test   %al,%al
  105582:	75 05                	jne    105589 <strspn+0x4c>
  105584:	8b 45 f4             	mov    -0xc(%ebp),%eax
  105587:	eb 15                	jmp    10559e <strspn+0x61>
  105589:	83 45 f4 01          	addl   $0x1,-0xc(%ebp)
  10558d:	83 45 fc 01          	addl   $0x1,-0x4(%ebp)
  105591:	8b 45 fc             	mov    -0x4(%ebp),%eax
  105594:	0f b6 00             	movzbl (%eax),%eax
  105597:	84 c0                	test   %al,%al
  105599:	75 b7                	jne    105552 <strspn+0x15>
  10559b:	8b 45 f4             	mov    -0xc(%ebp),%eax
  10559e:	c9                   	leave  
  10559f:	c3                   	ret    

001055a0 <strpbrk>:
  1055a0:	55                   	push   %ebp
  1055a1:	89 e5                	mov    %esp,%ebp
  1055a3:	83 ec 10             	sub    $0x10,%esp
  1055a6:	8b 45 08             	mov    0x8(%ebp),%eax
  1055a9:	89 45 fc             	mov    %eax,-0x4(%ebp)
  1055ac:	eb 2f                	jmp    1055dd <strpbrk+0x3d>
  1055ae:	8b 45 0c             	mov    0xc(%ebp),%eax
  1055b1:	89 45 f8             	mov    %eax,-0x8(%ebp)
  1055b4:	eb 19                	jmp    1055cf <strpbrk+0x2f>
  1055b6:	8b 45 fc             	mov    -0x4(%ebp),%eax
  1055b9:	0f b6 10             	movzbl (%eax),%edx
  1055bc:	8b 45 f8             	mov    -0x8(%ebp),%eax
  1055bf:	0f b6 00             	movzbl (%eax),%eax
  1055c2:	38 c2                	cmp    %al,%dl
  1055c4:	75 05                	jne    1055cb <strpbrk+0x2b>
  1055c6:	8b 45 fc             	mov    -0x4(%ebp),%eax
  1055c9:	eb 21                	jmp    1055ec <strpbrk+0x4c>
  1055cb:	83 45 f8 01          	addl   $0x1,-0x8(%ebp)
  1055cf:	8b 45 f8             	mov    -0x8(%ebp),%eax
  1055d2:	0f b6 00             	movzbl (%eax),%eax
  1055d5:	84 c0                	test   %al,%al
  1055d7:	75 dd                	jne    1055b6 <strpbrk+0x16>
  1055d9:	83 45 fc 01          	addl   $0x1,-0x4(%ebp)
  1055dd:	8b 45 fc             	mov    -0x4(%ebp),%eax
  1055e0:	0f b6 00             	movzbl (%eax),%eax
  1055e3:	84 c0                	test   %al,%al
  1055e5:	75 c7                	jne    1055ae <strpbrk+0xe>
  1055e7:	b8 00 00 00 00       	mov    $0x0,%eax
  1055ec:	c9                   	leave  
  1055ed:	c3                   	ret    

001055ee <strtok>:
  1055ee:	55                   	push   %ebp
  1055ef:	89 e5                	mov    %esp,%ebp
  1055f1:	83 ec 18             	sub    $0x18,%esp
  1055f4:	83 7d 08 00          	cmpl   $0x0,0x8(%ebp)
  1055f8:	74 05                	je     1055ff <strtok+0x11>
  1055fa:	8b 45 08             	mov    0x8(%ebp),%eax
  1055fd:	eb 05                	jmp    105604 <strtok+0x16>
  1055ff:	a1 a8 c8 10 00       	mov    0x10c8a8,%eax
  105604:	89 45 f8             	mov    %eax,-0x8(%ebp)
  105607:	83 7d f8 00          	cmpl   $0x0,-0x8(%ebp)
  10560b:	75 07                	jne    105614 <strtok+0x26>
  10560d:	b8 00 00 00 00       	mov    $0x0,%eax
  105612:	eb 6c                	jmp    105680 <strtok+0x92>
  105614:	8b 45 0c             	mov    0xc(%ebp),%eax
  105617:	89 44 24 04          	mov    %eax,0x4(%esp)
  10561b:	8b 45 f8             	mov    -0x8(%ebp),%eax
  10561e:	89 04 24             	mov    %eax,(%esp)
  105621:	e8 17 ff ff ff       	call   10553d <strspn>
  105626:	01 45 f8             	add    %eax,-0x8(%ebp)
  105629:	8b 45 f8             	mov    -0x8(%ebp),%eax
  10562c:	0f b6 00             	movzbl (%eax),%eax
  10562f:	84 c0                	test   %al,%al
  105631:	75 11                	jne    105644 <strtok+0x56>
  105633:	c7 05 a8 c8 10 00 00 	movl   $0x0,0x10c8a8
  10563a:	00 00 00 
  10563d:	b8 00 00 00 00       	mov    $0x0,%eax
  105642:	eb 3c                	jmp    105680 <strtok+0x92>
  105644:	8b 45 0c             	mov    0xc(%ebp),%eax
  105647:	89 44 24 04          	mov    %eax,0x4(%esp)
  10564b:	8b 45 f8             	mov    -0x8(%ebp),%eax
  10564e:	89 04 24             	mov    %eax,(%esp)
  105651:	e8 4a ff ff ff       	call   1055a0 <strpbrk>
  105656:	89 45 fc             	mov    %eax,-0x4(%ebp)
  105659:	83 7d fc 00          	cmpl   $0x0,-0x4(%ebp)
  10565d:	74 16                	je     105675 <strtok+0x87>
  10565f:	8b 45 fc             	mov    -0x4(%ebp),%eax
  105662:	0f b6 00             	movzbl (%eax),%eax
  105665:	84 c0                	test   %al,%al
  105667:	74 0c                	je     105675 <strtok+0x87>
  105669:	8b 45 fc             	mov    -0x4(%ebp),%eax
  10566c:	8d 50 01             	lea    0x1(%eax),%edx
  10566f:	89 55 fc             	mov    %edx,-0x4(%ebp)
  105672:	c6 00 00             	movb   $0x0,(%eax)
  105675:	8b 45 fc             	mov    -0x4(%ebp),%eax
  105678:	a3 a8 c8 10 00       	mov    %eax,0x10c8a8
  10567d:	8b 45 f8             	mov    -0x8(%ebp),%eax
  105680:	c9                   	leave  
  105681:	c3                   	ret    

00105682 <strsep>:
  105682:	55                   	push   %ebp
  105683:	89 e5                	mov    %esp,%ebp
  105685:	83 ec 18             	sub    $0x18,%esp
  105688:	8b 45 08             	mov    0x8(%ebp),%eax
  10568b:	8b 00                	mov    (%eax),%eax
  10568d:	89 45 f8             	mov    %eax,-0x8(%ebp)
  105690:	83 7d f8 00          	cmpl   $0x0,-0x8(%ebp)
  105694:	75 07                	jne    10569d <strsep+0x1b>
  105696:	b8 00 00 00 00       	mov    $0x0,%eax
  10569b:	eb 32                	jmp    1056cf <strsep+0x4d>
  10569d:	8b 45 0c             	mov    0xc(%ebp),%eax
  1056a0:	89 44 24 04          	mov    %eax,0x4(%esp)
  1056a4:	8b 45 f8             	mov    -0x8(%ebp),%eax
  1056a7:	89 04 24             	mov    %eax,(%esp)
  1056aa:	e8 f1 fe ff ff       	call   1055a0 <strpbrk>
  1056af:	89 45 fc             	mov    %eax,-0x4(%ebp)
  1056b2:	83 7d fc 00          	cmpl   $0x0,-0x4(%ebp)
  1056b6:	74 0c                	je     1056c4 <strsep+0x42>
  1056b8:	8b 45 fc             	mov    -0x4(%ebp),%eax
  1056bb:	8d 50 01             	lea    0x1(%eax),%edx
  1056be:	89 55 fc             	mov    %edx,-0x4(%ebp)
  1056c1:	c6 00 00             	movb   $0x0,(%eax)
  1056c4:	8b 45 08             	mov    0x8(%ebp),%eax
  1056c7:	8b 55 fc             	mov    -0x4(%ebp),%edx
  1056ca:	89 10                	mov    %edx,(%eax)
  1056cc:	8b 45 f8             	mov    -0x8(%ebp),%eax
  1056cf:	c9                   	leave  
  1056d0:	c3                   	ret    

001056d1 <strswab>:
  1056d1:	55                   	push   %ebp
  1056d2:	89 e5                	mov    %esp,%ebp
  1056d4:	83 ec 10             	sub    $0x10,%esp
  1056d7:	83 7d 08 00          	cmpl   $0x0,0x8(%ebp)
  1056db:	74 0a                	je     1056e7 <strswab+0x16>
  1056dd:	8b 45 08             	mov    0x8(%ebp),%eax
  1056e0:	0f b6 00             	movzbl (%eax),%eax
  1056e3:	84 c0                	test   %al,%al
  1056e5:	75 07                	jne    1056ee <strswab+0x1d>
  1056e7:	b8 00 00 00 00       	mov    $0x0,%eax
  1056ec:	eb 4d                	jmp    10573b <strswab+0x6a>
  1056ee:	8b 45 08             	mov    0x8(%ebp),%eax
  1056f1:	89 45 fc             	mov    %eax,-0x4(%ebp)
  1056f4:	8b 45 fc             	mov    -0x4(%ebp),%eax
  1056f7:	83 c0 01             	add    $0x1,%eax
  1056fa:	89 45 f8             	mov    %eax,-0x8(%ebp)
  1056fd:	eb 25                	jmp    105724 <strswab+0x53>
  1056ff:	8b 45 fc             	mov    -0x4(%ebp),%eax
  105702:	0f b6 00             	movzbl (%eax),%eax
  105705:	88 45 f7             	mov    %al,-0x9(%ebp)
  105708:	8b 45 f8             	mov    -0x8(%ebp),%eax
  10570b:	0f b6 10             	movzbl (%eax),%edx
  10570e:	8b 45 fc             	mov    -0x4(%ebp),%eax
  105711:	88 10                	mov    %dl,(%eax)
  105713:	8b 45 f8             	mov    -0x8(%ebp),%eax
  105716:	0f b6 55 f7          	movzbl -0x9(%ebp),%edx
  10571a:	88 10                	mov    %dl,(%eax)
  10571c:	83 45 fc 02          	addl   $0x2,-0x4(%ebp)
  105720:	83 45 f8 02          	addl   $0x2,-0x8(%ebp)
  105724:	8b 45 fc             	mov    -0x4(%ebp),%eax
  105727:	0f b6 00             	movzbl (%eax),%eax
  10572a:	84 c0                	test   %al,%al
  10572c:	74 0a                	je     105738 <strswab+0x67>
  10572e:	8b 45 f8             	mov    -0x8(%ebp),%eax
  105731:	0f b6 00             	movzbl (%eax),%eax
  105734:	84 c0                	test   %al,%al
  105736:	75 c7                	jne    1056ff <strswab+0x2e>
  105738:	8b 45 08             	mov    0x8(%ebp),%eax
  10573b:	c9                   	leave  
  10573c:	c3                   	ret    

0010573d <memset>:
  10573d:	55                   	push   %ebp
  10573e:	89 e5                	mov    %esp,%ebp
  105740:	83 ec 10             	sub    $0x10,%esp
  105743:	8b 45 08             	mov    0x8(%ebp),%eax
  105746:	89 45 fc             	mov    %eax,-0x4(%ebp)
  105749:	c7 45 f8 00 00 00 00 	movl   $0x0,-0x8(%ebp)
  105750:	ba 03 00 00 00       	mov    $0x3,%edx
  105755:	8b 45 08             	mov    0x8(%ebp),%eax
  105758:	21 d0                	and    %edx,%eax
  10575a:	85 c0                	test   %eax,%eax
  10575c:	75 3c                	jne    10579a <memset+0x5d>
  10575e:	c7 45 f0 00 00 00 00 	movl   $0x0,-0x10(%ebp)
  105765:	eb 11                	jmp    105778 <memset+0x3b>
  105767:	c1 65 f8 08          	shll   $0x8,-0x8(%ebp)
  10576b:	8b 45 0c             	mov    0xc(%ebp),%eax
  10576e:	0f b6 c0             	movzbl %al,%eax
  105771:	09 45 f8             	or     %eax,-0x8(%ebp)
  105774:	83 45 f0 01          	addl   $0x1,-0x10(%ebp)
  105778:	8b 45 f0             	mov    -0x10(%ebp),%eax
  10577b:	83 f8 04             	cmp    $0x4,%eax
  10577e:	72 e7                	jb     105767 <memset+0x2a>
  105780:	eb 12                	jmp    105794 <memset+0x57>
  105782:	8b 45 fc             	mov    -0x4(%ebp),%eax
  105785:	8d 50 04             	lea    0x4(%eax),%edx
  105788:	89 55 fc             	mov    %edx,-0x4(%ebp)
  10578b:	8b 55 f8             	mov    -0x8(%ebp),%edx
  10578e:	89 10                	mov    %edx,(%eax)
  105790:	83 6d 10 04          	subl   $0x4,0x10(%ebp)
  105794:	83 7d 10 04          	cmpl   $0x4,0x10(%ebp)
  105798:	73 e8                	jae    105782 <memset+0x45>
  10579a:	8b 45 fc             	mov    -0x4(%ebp),%eax
  10579d:	89 45 f4             	mov    %eax,-0xc(%ebp)
  1057a0:	eb 0e                	jmp    1057b0 <memset+0x73>
  1057a2:	8b 45 f4             	mov    -0xc(%ebp),%eax
  1057a5:	8d 50 01             	lea    0x1(%eax),%edx
  1057a8:	89 55 f4             	mov    %edx,-0xc(%ebp)
  1057ab:	8b 55 0c             	mov    0xc(%ebp),%edx
  1057ae:	88 10                	mov    %dl,(%eax)
  1057b0:	8b 45 10             	mov    0x10(%ebp),%eax
  1057b3:	8d 50 ff             	lea    -0x1(%eax),%edx
  1057b6:	89 55 10             	mov    %edx,0x10(%ebp)
  1057b9:	85 c0                	test   %eax,%eax
  1057bb:	0f 95 c0             	setne  %al
  1057be:	84 c0                	test   %al,%al
  1057c0:	75 e0                	jne    1057a2 <memset+0x65>
  1057c2:	8b 45 08             	mov    0x8(%ebp),%eax
  1057c5:	c9                   	leave  
  1057c6:	c3                   	ret    

001057c7 <_Z5bcopyPKcPci>:
  1057c7:	55                   	push   %ebp
  1057c8:	89 e5                	mov    %esp,%ebp
  1057ca:	83 ec 10             	sub    $0x10,%esp
  1057cd:	8b 45 0c             	mov    0xc(%ebp),%eax
  1057d0:	89 45 fc             	mov    %eax,-0x4(%ebp)
  1057d3:	eb 17                	jmp    1057ec <_Z5bcopyPKcPci+0x25>
  1057d5:	8b 45 fc             	mov    -0x4(%ebp),%eax
  1057d8:	8d 50 01             	lea    0x1(%eax),%edx
  1057db:	89 55 fc             	mov    %edx,-0x4(%ebp)
  1057de:	8b 55 08             	mov    0x8(%ebp),%edx
  1057e1:	8d 4a 01             	lea    0x1(%edx),%ecx
  1057e4:	89 4d 08             	mov    %ecx,0x8(%ebp)
  1057e7:	0f b6 12             	movzbl (%edx),%edx
  1057ea:	88 10                	mov    %dl,(%eax)
  1057ec:	8b 45 10             	mov    0x10(%ebp),%eax
  1057ef:	8d 50 ff             	lea    -0x1(%eax),%edx
  1057f2:	89 55 10             	mov    %edx,0x10(%ebp)
  1057f5:	85 c0                	test   %eax,%eax
  1057f7:	0f 95 c0             	setne  %al
  1057fa:	84 c0                	test   %al,%al
  1057fc:	75 d7                	jne    1057d5 <_Z5bcopyPKcPci+0xe>
  1057fe:	8b 45 0c             	mov    0xc(%ebp),%eax
  105801:	c9                   	leave  
  105802:	c3                   	ret    

00105803 <memcpy>:
  105803:	55                   	push   %ebp
  105804:	89 e5                	mov    %esp,%ebp
  105806:	83 ec 10             	sub    $0x10,%esp
  105809:	8b 45 08             	mov    0x8(%ebp),%eax
  10580c:	89 45 fc             	mov    %eax,-0x4(%ebp)
  10580f:	8b 45 0c             	mov    0xc(%ebp),%eax
  105812:	89 45 f8             	mov    %eax,-0x8(%ebp)
  105815:	8b 45 0c             	mov    0xc(%ebp),%eax
  105818:	3b 45 08             	cmp    0x8(%ebp),%eax
  10581b:	75 05                	jne    105822 <memcpy+0x1f>
  10581d:	8b 45 08             	mov    0x8(%ebp),%eax
  105820:	eb 6f                	jmp    105891 <memcpy+0x8e>
  105822:	8b 55 08             	mov    0x8(%ebp),%edx
  105825:	8b 45 0c             	mov    0xc(%ebp),%eax
  105828:	09 c2                	or     %eax,%edx
  10582a:	b8 03 00 00 00       	mov    $0x3,%eax
  10582f:	21 d0                	and    %edx,%eax
  105831:	85 c0                	test   %eax,%eax
  105833:	75 22                	jne    105857 <memcpy+0x54>
  105835:	eb 1a                	jmp    105851 <memcpy+0x4e>
  105837:	8b 45 fc             	mov    -0x4(%ebp),%eax
  10583a:	8d 50 04             	lea    0x4(%eax),%edx
  10583d:	89 55 fc             	mov    %edx,-0x4(%ebp)
  105840:	8b 55 f8             	mov    -0x8(%ebp),%edx
  105843:	8d 4a 04             	lea    0x4(%edx),%ecx
  105846:	89 4d f8             	mov    %ecx,-0x8(%ebp)
  105849:	8b 12                	mov    (%edx),%edx
  10584b:	89 10                	mov    %edx,(%eax)
  10584d:	83 6d 10 04          	subl   $0x4,0x10(%ebp)
  105851:	83 7d 10 04          	cmpl   $0x4,0x10(%ebp)
  105855:	73 e0                	jae    105837 <memcpy+0x34>
  105857:	8b 45 fc             	mov    -0x4(%ebp),%eax
  10585a:	89 45 f4             	mov    %eax,-0xc(%ebp)
  10585d:	8b 45 f8             	mov    -0x8(%ebp),%eax
  105860:	89 45 f0             	mov    %eax,-0x10(%ebp)
  105863:	eb 17                	jmp    10587c <memcpy+0x79>
  105865:	8b 45 f4             	mov    -0xc(%ebp),%eax
  105868:	8d 50 01             	lea    0x1(%eax),%edx
  10586b:	89 55 f4             	mov    %edx,-0xc(%ebp)
  10586e:	8b 55 f0             	mov    -0x10(%ebp),%edx
  105871:	8d 4a 01             	lea    0x1(%edx),%ecx
  105874:	89 4d f0             	mov    %ecx,-0x10(%ebp)
  105877:	0f b6 12             	movzbl (%edx),%edx
  10587a:	88 10                	mov    %dl,(%eax)
  10587c:	8b 45 10             	mov    0x10(%ebp),%eax
  10587f:	8d 50 ff             	lea    -0x1(%eax),%edx
  105882:	89 55 10             	mov    %edx,0x10(%ebp)
  105885:	85 c0                	test   %eax,%eax
  105887:	0f 95 c0             	setne  %al
  10588a:	84 c0                	test   %al,%al
  10588c:	75 d7                	jne    105865 <memcpy+0x62>
  10588e:	8b 45 08             	mov    0x8(%ebp),%eax
  105891:	c9                   	leave  
  105892:	c3                   	ret    

00105893 <memmove>:
  105893:	55                   	push   %ebp
  105894:	89 e5                	mov    %esp,%ebp
  105896:	83 ec 10             	sub    $0x10,%esp
  105899:	8b 45 0c             	mov    0xc(%ebp),%eax
  10589c:	3b 45 08             	cmp    0x8(%ebp),%eax
  10589f:	75 08                	jne    1058a9 <memmove+0x16>
  1058a1:	8b 45 08             	mov    0x8(%ebp),%eax
  1058a4:	e9 81 00 00 00       	jmp    10592a <memmove+0x97>
  1058a9:	8b 45 08             	mov    0x8(%ebp),%eax
  1058ac:	3b 45 0c             	cmp    0xc(%ebp),%eax
  1058af:	77 39                	ja     1058ea <memmove+0x57>
  1058b1:	8b 45 08             	mov    0x8(%ebp),%eax
  1058b4:	89 45 fc             	mov    %eax,-0x4(%ebp)
  1058b7:	8b 45 0c             	mov    0xc(%ebp),%eax
  1058ba:	89 45 f8             	mov    %eax,-0x8(%ebp)
  1058bd:	eb 17                	jmp    1058d6 <memmove+0x43>
  1058bf:	8b 45 fc             	mov    -0x4(%ebp),%eax
  1058c2:	8d 50 01             	lea    0x1(%eax),%edx
  1058c5:	89 55 fc             	mov    %edx,-0x4(%ebp)
  1058c8:	8b 55 f8             	mov    -0x8(%ebp),%edx
  1058cb:	8d 4a 01             	lea    0x1(%edx),%ecx
  1058ce:	89 4d f8             	mov    %ecx,-0x8(%ebp)
  1058d1:	0f b6 12             	movzbl (%edx),%edx
  1058d4:	88 10                	mov    %dl,(%eax)
  1058d6:	8b 45 10             	mov    0x10(%ebp),%eax
  1058d9:	8d 50 ff             	lea    -0x1(%eax),%edx
  1058dc:	89 55 10             	mov    %edx,0x10(%ebp)
  1058df:	85 c0                	test   %eax,%eax
  1058e1:	0f 95 c0             	setne  %al
  1058e4:	84 c0                	test   %al,%al
  1058e6:	75 d7                	jne    1058bf <memmove+0x2c>
  1058e8:	eb 3d                	jmp    105927 <memmove+0x94>
  1058ea:	8b 45 10             	mov    0x10(%ebp),%eax
  1058ed:	8b 55 08             	mov    0x8(%ebp),%edx
  1058f0:	01 d0                	add    %edx,%eax
  1058f2:	89 45 fc             	mov    %eax,-0x4(%ebp)
  1058f5:	8b 45 10             	mov    0x10(%ebp),%eax
  1058f8:	8b 55 0c             	mov    0xc(%ebp),%edx
  1058fb:	01 d0                	add    %edx,%eax
  1058fd:	89 45 f8             	mov    %eax,-0x8(%ebp)
  105900:	eb 13                	jmp    105915 <memmove+0x82>
  105902:	83 6d fc 01          	subl   $0x1,-0x4(%ebp)
  105906:	83 6d f8 01          	subl   $0x1,-0x8(%ebp)
  10590a:	8b 45 f8             	mov    -0x8(%ebp),%eax
  10590d:	0f b6 10             	movzbl (%eax),%edx
  105910:	8b 45 fc             	mov    -0x4(%ebp),%eax
  105913:	88 10                	mov    %dl,(%eax)
  105915:	8b 45 10             	mov    0x10(%ebp),%eax
  105918:	8d 50 ff             	lea    -0x1(%eax),%edx
  10591b:	89 55 10             	mov    %edx,0x10(%ebp)
  10591e:	85 c0                	test   %eax,%eax
  105920:	0f 95 c0             	setne  %al
  105923:	84 c0                	test   %al,%al
  105925:	75 db                	jne    105902 <memmove+0x6f>
  105927:	8b 45 08             	mov    0x8(%ebp),%eax
  10592a:	c9                   	leave  
  10592b:	c3                   	ret    

0010592c <memcmp>:
  10592c:	55                   	push   %ebp
  10592d:	89 e5                	mov    %esp,%ebp
  10592f:	83 ec 10             	sub    $0x10,%esp
  105932:	c7 45 f4 00 00 00 00 	movl   $0x0,-0xc(%ebp)
  105939:	8b 45 08             	mov    0x8(%ebp),%eax
  10593c:	89 45 fc             	mov    %eax,-0x4(%ebp)
  10593f:	8b 45 0c             	mov    0xc(%ebp),%eax
  105942:	89 45 f8             	mov    %eax,-0x8(%ebp)
  105945:	eb 32                	jmp    105979 <memcmp+0x4d>
  105947:	8b 45 fc             	mov    -0x4(%ebp),%eax
  10594a:	0f b6 00             	movzbl (%eax),%eax
  10594d:	0f b6 d0             	movzbl %al,%edx
  105950:	8b 45 f8             	mov    -0x8(%ebp),%eax
  105953:	0f b6 00             	movzbl (%eax),%eax
  105956:	0f b6 c0             	movzbl %al,%eax
  105959:	29 c2                	sub    %eax,%edx
  10595b:	89 d0                	mov    %edx,%eax
  10595d:	89 45 f4             	mov    %eax,-0xc(%ebp)
  105960:	83 7d f4 00          	cmpl   $0x0,-0xc(%ebp)
  105964:	0f 95 c0             	setne  %al
  105967:	84 c0                	test   %al,%al
  105969:	74 02                	je     10596d <memcmp+0x41>
  10596b:	eb 12                	jmp    10597f <memcmp+0x53>
  10596d:	83 45 fc 01          	addl   $0x1,-0x4(%ebp)
  105971:	83 45 f8 01          	addl   $0x1,-0x8(%ebp)
  105975:	83 6d 10 01          	subl   $0x1,0x10(%ebp)
  105979:	83 7d 10 00          	cmpl   $0x0,0x10(%ebp)
  10597d:	75 c8                	jne    105947 <memcmp+0x1b>
  10597f:	8b 45 f4             	mov    -0xc(%ebp),%eax
  105982:	c9                   	leave  
  105983:	c3                   	ret    

00105984 <memscan>:
  105984:	55                   	push   %ebp
  105985:	89 e5                	mov    %esp,%ebp
  105987:	83 ec 10             	sub    $0x10,%esp
  10598a:	8b 45 08             	mov    0x8(%ebp),%eax
  10598d:	89 45 fc             	mov    %eax,-0x4(%ebp)
  105990:	eb 1b                	jmp    1059ad <memscan+0x29>
  105992:	8b 45 fc             	mov    -0x4(%ebp),%eax
  105995:	0f b6 00             	movzbl (%eax),%eax
  105998:	0f b6 c0             	movzbl %al,%eax
  10599b:	3b 45 0c             	cmp    0xc(%ebp),%eax
  10599e:	75 05                	jne    1059a5 <memscan+0x21>
  1059a0:	8b 45 fc             	mov    -0x4(%ebp),%eax
  1059a3:	eb 11                	jmp    1059b6 <memscan+0x32>
  1059a5:	83 45 fc 01          	addl   $0x1,-0x4(%ebp)
  1059a9:	83 6d 10 01          	subl   $0x1,0x10(%ebp)
  1059ad:	83 7d 10 00          	cmpl   $0x0,0x10(%ebp)
  1059b1:	75 df                	jne    105992 <memscan+0xe>
  1059b3:	8b 45 fc             	mov    -0x4(%ebp),%eax
  1059b6:	c9                   	leave  
  1059b7:	c3                   	ret    

001059b8 <strstr>:
  1059b8:	55                   	push   %ebp
  1059b9:	89 e5                	mov    %esp,%ebp
  1059bb:	83 ec 1c             	sub    $0x1c,%esp
  1059be:	8b 45 0c             	mov    0xc(%ebp),%eax
  1059c1:	89 04 24             	mov    %eax,(%esp)
  1059c4:	e8 07 fb ff ff       	call   1054d0 <strlen>
  1059c9:	89 45 f8             	mov    %eax,-0x8(%ebp)
  1059cc:	83 7d f8 00          	cmpl   $0x0,-0x8(%ebp)
  1059d0:	75 05                	jne    1059d7 <strstr+0x1f>
  1059d2:	8b 45 08             	mov    0x8(%ebp),%eax
  1059d5:	eb 47                	jmp    105a1e <strstr+0x66>
  1059d7:	8b 45 08             	mov    0x8(%ebp),%eax
  1059da:	89 04 24             	mov    %eax,(%esp)
  1059dd:	e8 ee fa ff ff       	call   1054d0 <strlen>
  1059e2:	89 45 fc             	mov    %eax,-0x4(%ebp)
  1059e5:	eb 2a                	jmp    105a11 <strstr+0x59>
  1059e7:	83 6d fc 01          	subl   $0x1,-0x4(%ebp)
  1059eb:	8b 45 f8             	mov    -0x8(%ebp),%eax
  1059ee:	89 44 24 08          	mov    %eax,0x8(%esp)
  1059f2:	8b 45 0c             	mov    0xc(%ebp),%eax
  1059f5:	89 44 24 04          	mov    %eax,0x4(%esp)
  1059f9:	8b 45 08             	mov    0x8(%ebp),%eax
  1059fc:	89 04 24             	mov    %eax,(%esp)
  1059ff:	e8 28 ff ff ff       	call   10592c <memcmp>
  105a04:	85 c0                	test   %eax,%eax
  105a06:	75 05                	jne    105a0d <strstr+0x55>
  105a08:	8b 45 08             	mov    0x8(%ebp),%eax
  105a0b:	eb 11                	jmp    105a1e <strstr+0x66>
  105a0d:	83 45 08 01          	addl   $0x1,0x8(%ebp)
  105a11:	8b 45 fc             	mov    -0x4(%ebp),%eax
  105a14:	3b 45 f8             	cmp    -0x8(%ebp),%eax
  105a17:	7d ce                	jge    1059e7 <strstr+0x2f>
  105a19:	b8 00 00 00 00       	mov    $0x0,%eax
  105a1e:	c9                   	leave  
  105a1f:	c3                   	ret    

00105a20 <_ZL9__toupperh>:
  105a20:	55                   	push   %ebp
  105a21:	89 e5                	mov    %esp,%ebp
  105a23:	83 ec 04             	sub    $0x4,%esp
  105a26:	8b 45 08             	mov    0x8(%ebp),%eax
  105a29:	88 45 fc             	mov    %al,-0x4(%ebp)
  105a2c:	0f b6 45 fc          	movzbl -0x4(%ebp),%eax
  105a30:	0f b6 80 60 8d 10 00 	movzbl 0x108d60(%eax),%eax
  105a37:	0f b6 c0             	movzbl %al,%eax
  105a3a:	83 e0 02             	and    $0x2,%eax
  105a3d:	85 c0                	test   %eax,%eax
  105a3f:	74 04                	je     105a45 <_ZL9__toupperh+0x25>
  105a41:	80 6d fc 20          	subb   $0x20,-0x4(%ebp)
  105a45:	0f b6 45 fc          	movzbl -0x4(%ebp),%eax
  105a49:	c9                   	leave  
  105a4a:	c3                   	ret    

00105a4b <_Z14simple_strtoulPKcPPcj>:
  105a4b:	55                   	push   %ebp
  105a4c:	89 e5                	mov    %esp,%ebp
  105a4e:	83 ec 14             	sub    $0x14,%esp
  105a51:	c7 45 fc 00 00 00 00 	movl   $0x0,-0x4(%ebp)
  105a58:	8b 45 08             	mov    0x8(%ebp),%eax
  105a5b:	0f b6 00             	movzbl (%eax),%eax
  105a5e:	3c 30                	cmp    $0x30,%al
  105a60:	75 43                	jne    105aa5 <_Z14simple_strtoulPKcPPcj+0x5a>
  105a62:	83 45 08 01          	addl   $0x1,0x8(%ebp)
  105a66:	8b 45 08             	mov    0x8(%ebp),%eax
  105a69:	0f b6 00             	movzbl (%eax),%eax
  105a6c:	3c 78                	cmp    $0x78,%al
  105a6e:	75 28                	jne    105a98 <_Z14simple_strtoulPKcPPcj+0x4d>
  105a70:	8b 45 08             	mov    0x8(%ebp),%eax
  105a73:	83 c0 01             	add    $0x1,%eax
  105a76:	0f b6 00             	movzbl (%eax),%eax
  105a79:	0f b6 c0             	movzbl %al,%eax
  105a7c:	0f b6 80 60 8d 10 00 	movzbl 0x108d60(%eax),%eax
  105a83:	0f b6 c0             	movzbl %al,%eax
  105a86:	83 e0 44             	and    $0x44,%eax
  105a89:	85 c0                	test   %eax,%eax
  105a8b:	74 0b                	je     105a98 <_Z14simple_strtoulPKcPPcj+0x4d>
  105a8d:	c7 45 10 10 00 00 00 	movl   $0x10,0x10(%ebp)
  105a94:	83 45 08 01          	addl   $0x1,0x8(%ebp)
  105a98:	83 7d 10 00          	cmpl   $0x0,0x10(%ebp)
  105a9c:	75 07                	jne    105aa5 <_Z14simple_strtoulPKcPPcj+0x5a>
  105a9e:	c7 45 10 08 00 00 00 	movl   $0x8,0x10(%ebp)
  105aa5:	83 7d 10 00          	cmpl   $0x0,0x10(%ebp)
  105aa9:	75 07                	jne    105ab2 <_Z14simple_strtoulPKcPPcj+0x67>
  105aab:	c7 45 10 0a 00 00 00 	movl   $0xa,0x10(%ebp)
  105ab2:	eb 15                	jmp    105ac9 <_Z14simple_strtoulPKcPPcj+0x7e>
  105ab4:	8b 45 fc             	mov    -0x4(%ebp),%eax
  105ab7:	0f af 45 10          	imul   0x10(%ebp),%eax
  105abb:	89 c2                	mov    %eax,%edx
  105abd:	8b 45 f8             	mov    -0x8(%ebp),%eax
  105ac0:	01 d0                	add    %edx,%eax
  105ac2:	89 45 fc             	mov    %eax,-0x4(%ebp)
  105ac5:	83 45 08 01          	addl   $0x1,0x8(%ebp)
  105ac9:	8b 45 08             	mov    0x8(%ebp),%eax
  105acc:	0f b6 00             	movzbl (%eax),%eax
  105acf:	0f b6 c0             	movzbl %al,%eax
  105ad2:	0f b6 80 60 8d 10 00 	movzbl 0x108d60(%eax),%eax
  105ad9:	0f b6 c0             	movzbl %al,%eax
  105adc:	83 e0 44             	and    $0x44,%eax
  105adf:	85 c0                	test   %eax,%eax
  105ae1:	74 79                	je     105b5c <_Z14simple_strtoulPKcPPcj+0x111>
  105ae3:	8b 45 08             	mov    0x8(%ebp),%eax
  105ae6:	0f b6 00             	movzbl (%eax),%eax
  105ae9:	0f b6 c0             	movzbl %al,%eax
  105aec:	0f b6 80 60 8d 10 00 	movzbl 0x108d60(%eax),%eax
  105af3:	0f b6 c0             	movzbl %al,%eax
  105af6:	83 e0 04             	and    $0x4,%eax
  105af9:	85 c0                	test   %eax,%eax
  105afb:	74 0e                	je     105b0b <_Z14simple_strtoulPKcPPcj+0xc0>
  105afd:	8b 45 08             	mov    0x8(%ebp),%eax
  105b00:	0f b6 00             	movzbl (%eax),%eax
  105b03:	0f be c0             	movsbl %al,%eax
  105b06:	83 e8 30             	sub    $0x30,%eax
  105b09:	eb 3f                	jmp    105b4a <_Z14simple_strtoulPKcPPcj+0xff>
  105b0b:	8b 45 08             	mov    0x8(%ebp),%eax
  105b0e:	0f b6 00             	movzbl (%eax),%eax
  105b11:	0f b6 c0             	movzbl %al,%eax
  105b14:	0f b6 80 60 8d 10 00 	movzbl 0x108d60(%eax),%eax
  105b1b:	0f b6 c0             	movzbl %al,%eax
  105b1e:	83 e0 02             	and    $0x2,%eax
  105b21:	85 c0                	test   %eax,%eax
  105b23:	74 19                	je     105b3e <_Z14simple_strtoulPKcPPcj+0xf3>
  105b25:	8b 45 08             	mov    0x8(%ebp),%eax
  105b28:	0f b6 00             	movzbl (%eax),%eax
  105b2b:	0f b6 c0             	movzbl %al,%eax
  105b2e:	89 04 24             	mov    %eax,(%esp)
  105b31:	e8 ea fe ff ff       	call   105a20 <_ZL9__toupperh>
  105b36:	0f b6 c0             	movzbl %al,%eax
  105b39:	83 e8 37             	sub    $0x37,%eax
  105b3c:	eb 0c                	jmp    105b4a <_Z14simple_strtoulPKcPPcj+0xff>
  105b3e:	8b 45 08             	mov    0x8(%ebp),%eax
  105b41:	0f b6 00             	movzbl (%eax),%eax
  105b44:	0f be c0             	movsbl %al,%eax
  105b47:	83 e8 37             	sub    $0x37,%eax
  105b4a:	89 45 f8             	mov    %eax,-0x8(%ebp)
  105b4d:	8b 45 f8             	mov    -0x8(%ebp),%eax
  105b50:	3b 45 10             	cmp    0x10(%ebp),%eax
  105b53:	73 07                	jae    105b5c <_Z14simple_strtoulPKcPPcj+0x111>
  105b55:	b8 01 00 00 00       	mov    $0x1,%eax
  105b5a:	eb 05                	jmp    105b61 <_Z14simple_strtoulPKcPPcj+0x116>
  105b5c:	b8 00 00 00 00       	mov    $0x0,%eax
  105b61:	84 c0                	test   %al,%al
  105b63:	0f 85 4b ff ff ff    	jne    105ab4 <_Z14simple_strtoulPKcPPcj+0x69>
  105b69:	83 7d 0c 00          	cmpl   $0x0,0xc(%ebp)
  105b6d:	74 08                	je     105b77 <_Z14simple_strtoulPKcPPcj+0x12c>
  105b6f:	8b 45 0c             	mov    0xc(%ebp),%eax
  105b72:	8b 55 08             	mov    0x8(%ebp),%edx
  105b75:	89 10                	mov    %edx,(%eax)
  105b77:	8b 45 fc             	mov    -0x4(%ebp),%eax
  105b7a:	c9                   	leave  
  105b7b:	c3                   	ret    

00105b7c <_Z14strict_strtoulPKcjPm>:
  105b7c:	55                   	push   %ebp
  105b7d:	89 e5                	mov    %esp,%ebp
  105b7f:	83 ec 28             	sub    $0x28,%esp
  105b82:	8b 45 10             	mov    0x10(%ebp),%eax
  105b85:	c7 00 00 00 00 00    	movl   $0x0,(%eax)
  105b8b:	8b 45 08             	mov    0x8(%ebp),%eax
  105b8e:	89 04 24             	mov    %eax,(%esp)
  105b91:	e8 3a f9 ff ff       	call   1054d0 <strlen>
  105b96:	89 45 f4             	mov    %eax,-0xc(%ebp)
  105b99:	83 7d f4 00          	cmpl   $0x0,-0xc(%ebp)
  105b9d:	75 07                	jne    105ba6 <_Z14strict_strtoulPKcjPm+0x2a>
  105b9f:	b8 ea ff ff ff       	mov    $0xffffffea,%eax
  105ba4:	eb 67                	jmp    105c0d <_Z14strict_strtoulPKcjPm+0x91>
  105ba6:	8b 45 0c             	mov    0xc(%ebp),%eax
  105ba9:	89 44 24 08          	mov    %eax,0x8(%esp)
  105bad:	8d 45 ec             	lea    -0x14(%ebp),%eax
  105bb0:	89 44 24 04          	mov    %eax,0x4(%esp)
  105bb4:	8b 45 08             	mov    0x8(%ebp),%eax
  105bb7:	89 04 24             	mov    %eax,(%esp)
  105bba:	e8 8c fe ff ff       	call   105a4b <_Z14simple_strtoulPKcPPcj>
  105bbf:	89 45 f0             	mov    %eax,-0x10(%ebp)
  105bc2:	8b 45 ec             	mov    -0x14(%ebp),%eax
  105bc5:	3b 45 08             	cmp    0x8(%ebp),%eax
  105bc8:	75 07                	jne    105bd1 <_Z14strict_strtoulPKcjPm+0x55>
  105bca:	b8 ea ff ff ff       	mov    $0xffffffea,%eax
  105bcf:	eb 3c                	jmp    105c0d <_Z14strict_strtoulPKcjPm+0x91>
  105bd1:	8b 45 ec             	mov    -0x14(%ebp),%eax
  105bd4:	0f b6 00             	movzbl (%eax),%eax
  105bd7:	84 c0                	test   %al,%al
  105bd9:	74 1e                	je     105bf9 <_Z14strict_strtoulPKcjPm+0x7d>
  105bdb:	8b 45 ec             	mov    -0x14(%ebp),%eax
  105bde:	89 c2                	mov    %eax,%edx
  105be0:	8b 45 08             	mov    0x8(%ebp),%eax
  105be3:	29 c2                	sub    %eax,%edx
  105be5:	89 d0                	mov    %edx,%eax
  105be7:	83 c0 01             	add    $0x1,%eax
  105bea:	3b 45 f4             	cmp    -0xc(%ebp),%eax
  105bed:	75 19                	jne    105c08 <_Z14strict_strtoulPKcjPm+0x8c>
  105bef:	8b 45 ec             	mov    -0x14(%ebp),%eax
  105bf2:	0f b6 00             	movzbl (%eax),%eax
  105bf5:	3c 0a                	cmp    $0xa,%al
  105bf7:	75 0f                	jne    105c08 <_Z14strict_strtoulPKcjPm+0x8c>
  105bf9:	8b 45 10             	mov    0x10(%ebp),%eax
  105bfc:	8b 55 f0             	mov    -0x10(%ebp),%edx
  105bff:	89 10                	mov    %edx,(%eax)
  105c01:	b8 00 00 00 00       	mov    $0x0,%eax
  105c06:	eb 05                	jmp    105c0d <_Z14strict_strtoulPKcjPm+0x91>
  105c08:	b8 ea ff ff ff       	mov    $0xffffffea,%eax
  105c0d:	c9                   	leave  
  105c0e:	c3                   	ret    

00105c0f <_Z13simple_strtolPKcPPcj>:
  105c0f:	55                   	push   %ebp
  105c10:	89 e5                	mov    %esp,%ebp
  105c12:	83 ec 0c             	sub    $0xc,%esp
  105c15:	8b 45 08             	mov    0x8(%ebp),%eax
  105c18:	0f b6 00             	movzbl (%eax),%eax
  105c1b:	3c 2d                	cmp    $0x2d,%al
  105c1d:	75 20                	jne    105c3f <_Z13simple_strtolPKcPPcj+0x30>
  105c1f:	8b 45 08             	mov    0x8(%ebp),%eax
  105c22:	8d 50 01             	lea    0x1(%eax),%edx
  105c25:	8b 45 10             	mov    0x10(%ebp),%eax
  105c28:	89 44 24 08          	mov    %eax,0x8(%esp)
  105c2c:	8b 45 0c             	mov    0xc(%ebp),%eax
  105c2f:	89 44 24 04          	mov    %eax,0x4(%esp)
  105c33:	89 14 24             	mov    %edx,(%esp)
  105c36:	e8 10 fe ff ff       	call   105a4b <_Z14simple_strtoulPKcPPcj>
  105c3b:	f7 d8                	neg    %eax
  105c3d:	eb 19                	jmp    105c58 <_Z13simple_strtolPKcPPcj+0x49>
  105c3f:	8b 45 10             	mov    0x10(%ebp),%eax
  105c42:	89 44 24 08          	mov    %eax,0x8(%esp)
  105c46:	8b 45 0c             	mov    0xc(%ebp),%eax
  105c49:	89 44 24 04          	mov    %eax,0x4(%esp)
  105c4d:	8b 45 08             	mov    0x8(%ebp),%eax
  105c50:	89 04 24             	mov    %eax,(%esp)
  105c53:	e8 f3 fd ff ff       	call   105a4b <_Z14simple_strtoulPKcPPcj>
  105c58:	c9                   	leave  
  105c59:	c3                   	ret    

00105c5a <_Z8ustrtoulPKcPPcj>:
  105c5a:	55                   	push   %ebp
  105c5b:	89 e5                	mov    %esp,%ebp
  105c5d:	83 ec 1c             	sub    $0x1c,%esp
  105c60:	8b 45 10             	mov    0x10(%ebp),%eax
  105c63:	89 44 24 08          	mov    %eax,0x8(%esp)
  105c67:	8b 45 0c             	mov    0xc(%ebp),%eax
  105c6a:	89 44 24 04          	mov    %eax,0x4(%esp)
  105c6e:	8b 45 08             	mov    0x8(%ebp),%eax
  105c71:	89 04 24             	mov    %eax,(%esp)
  105c74:	e8 d2 fd ff ff       	call   105a4b <_Z14simple_strtoulPKcPPcj>
  105c79:	89 45 fc             	mov    %eax,-0x4(%ebp)
  105c7c:	8b 45 0c             	mov    0xc(%ebp),%eax
  105c7f:	8b 00                	mov    (%eax),%eax
  105c81:	0f b6 00             	movzbl (%eax),%eax
  105c84:	0f be c0             	movsbl %al,%eax
  105c87:	83 f8 4b             	cmp    $0x4b,%eax
  105c8a:	74 20                	je     105cac <_Z8ustrtoulPKcPPcj+0x52>
  105c8c:	83 f8 4b             	cmp    $0x4b,%eax
  105c8f:	7f 07                	jg     105c98 <_Z8ustrtoulPKcPPcj+0x3e>
  105c91:	83 f8 47             	cmp    $0x47,%eax
  105c94:	74 0e                	je     105ca4 <_Z8ustrtoulPKcPPcj+0x4a>
  105c96:	eb 52                	jmp    105cea <_Z8ustrtoulPKcPPcj+0x90>
  105c98:	83 f8 4d             	cmp    $0x4d,%eax
  105c9b:	74 0b                	je     105ca8 <_Z8ustrtoulPKcPPcj+0x4e>
  105c9d:	83 f8 6b             	cmp    $0x6b,%eax
  105ca0:	74 0a                	je     105cac <_Z8ustrtoulPKcPPcj+0x52>
  105ca2:	eb 46                	jmp    105cea <_Z8ustrtoulPKcPPcj+0x90>
  105ca4:	c1 65 fc 0a          	shll   $0xa,-0x4(%ebp)
  105ca8:	c1 65 fc 0a          	shll   $0xa,-0x4(%ebp)
  105cac:	c1 65 fc 0a          	shll   $0xa,-0x4(%ebp)
  105cb0:	8b 45 0c             	mov    0xc(%ebp),%eax
  105cb3:	8b 00                	mov    (%eax),%eax
  105cb5:	83 c0 01             	add    $0x1,%eax
  105cb8:	0f b6 00             	movzbl (%eax),%eax
  105cbb:	3c 69                	cmp    $0x69,%al
  105cbd:	75 2b                	jne    105cea <_Z8ustrtoulPKcPPcj+0x90>
  105cbf:	8b 45 0c             	mov    0xc(%ebp),%eax
  105cc2:	8b 00                	mov    (%eax),%eax
  105cc4:	83 c0 02             	add    $0x2,%eax
  105cc7:	0f b6 00             	movzbl (%eax),%eax
  105cca:	3c 42                	cmp    $0x42,%al
  105ccc:	75 0f                	jne    105cdd <_Z8ustrtoulPKcPPcj+0x83>
  105cce:	8b 45 0c             	mov    0xc(%ebp),%eax
  105cd1:	8b 00                	mov    (%eax),%eax
  105cd3:	8d 50 03             	lea    0x3(%eax),%edx
  105cd6:	8b 45 0c             	mov    0xc(%ebp),%eax
  105cd9:	89 10                	mov    %edx,(%eax)
  105cdb:	eb 0d                	jmp    105cea <_Z8ustrtoulPKcPPcj+0x90>
  105cdd:	8b 45 0c             	mov    0xc(%ebp),%eax
  105ce0:	8b 00                	mov    (%eax),%eax
  105ce2:	8d 50 02             	lea    0x2(%eax),%edx
  105ce5:	8b 45 0c             	mov    0xc(%ebp),%eax
  105ce8:	89 10                	mov    %edx,(%eax)
  105cea:	8b 45 fc             	mov    -0x4(%ebp),%eax
  105ced:	c9                   	leave  
  105cee:	c3                   	ret    

00105cef <_Z15simple_strtoullPKcPPcj>:
  105cef:	55                   	push   %ebp
  105cf0:	89 e5                	mov    %esp,%ebp
  105cf2:	53                   	push   %ebx
  105cf3:	83 ec 18             	sub    $0x18,%esp
  105cf6:	c7 45 f0 00 00 00 00 	movl   $0x0,-0x10(%ebp)
  105cfd:	c7 45 f4 00 00 00 00 	movl   $0x0,-0xc(%ebp)
  105d04:	8b 45 08             	mov    0x8(%ebp),%eax
  105d07:	0f b6 00             	movzbl (%eax),%eax
  105d0a:	3c 30                	cmp    $0x30,%al
  105d0c:	75 43                	jne    105d51 <_Z15simple_strtoullPKcPPcj+0x62>
  105d0e:	83 45 08 01          	addl   $0x1,0x8(%ebp)
  105d12:	8b 45 08             	mov    0x8(%ebp),%eax
  105d15:	0f b6 00             	movzbl (%eax),%eax
  105d18:	3c 78                	cmp    $0x78,%al
  105d1a:	75 28                	jne    105d44 <_Z15simple_strtoullPKcPPcj+0x55>
  105d1c:	8b 45 08             	mov    0x8(%ebp),%eax
  105d1f:	83 c0 01             	add    $0x1,%eax
  105d22:	0f b6 00             	movzbl (%eax),%eax
  105d25:	0f b6 c0             	movzbl %al,%eax
  105d28:	0f b6 80 60 8d 10 00 	movzbl 0x108d60(%eax),%eax
  105d2f:	0f b6 c0             	movzbl %al,%eax
  105d32:	83 e0 44             	and    $0x44,%eax
  105d35:	85 c0                	test   %eax,%eax
  105d37:	74 0b                	je     105d44 <_Z15simple_strtoullPKcPPcj+0x55>
  105d39:	c7 45 10 10 00 00 00 	movl   $0x10,0x10(%ebp)
  105d40:	83 45 08 01          	addl   $0x1,0x8(%ebp)
  105d44:	83 7d 10 00          	cmpl   $0x0,0x10(%ebp)
  105d48:	75 07                	jne    105d51 <_Z15simple_strtoullPKcPPcj+0x62>
  105d4a:	c7 45 10 08 00 00 00 	movl   $0x8,0x10(%ebp)
  105d51:	83 7d 10 00          	cmpl   $0x0,0x10(%ebp)
  105d55:	75 07                	jne    105d5e <_Z15simple_strtoullPKcPPcj+0x6f>
  105d57:	c7 45 10 0a 00 00 00 	movl   $0xa,0x10(%ebp)
  105d5e:	eb 33                	jmp    105d93 <_Z15simple_strtoullPKcPPcj+0xa4>
  105d60:	8b 45 10             	mov    0x10(%ebp),%eax
  105d63:	ba 00 00 00 00       	mov    $0x0,%edx
  105d68:	8b 4d f0             	mov    -0x10(%ebp),%ecx
  105d6b:	89 cb                	mov    %ecx,%ebx
  105d6d:	0f af da             	imul   %edx,%ebx
  105d70:	8b 4d f4             	mov    -0xc(%ebp),%ecx
  105d73:	0f af c8             	imul   %eax,%ecx
  105d76:	01 d9                	add    %ebx,%ecx
  105d78:	f7 65 f0             	mull   -0x10(%ebp)
  105d7b:	01 d1                	add    %edx,%ecx
  105d7d:	89 ca                	mov    %ecx,%edx
  105d7f:	8b 4d e8             	mov    -0x18(%ebp),%ecx
  105d82:	8b 5d ec             	mov    -0x14(%ebp),%ebx
  105d85:	01 c8                	add    %ecx,%eax
  105d87:	11 da                	adc    %ebx,%edx
  105d89:	89 45 f0             	mov    %eax,-0x10(%ebp)
  105d8c:	89 55 f4             	mov    %edx,-0xc(%ebp)
  105d8f:	83 45 08 01          	addl   $0x1,0x8(%ebp)
  105d93:	8b 45 08             	mov    0x8(%ebp),%eax
  105d96:	0f b6 00             	movzbl (%eax),%eax
  105d99:	0f b6 c0             	movzbl %al,%eax
  105d9c:	0f b6 80 60 8d 10 00 	movzbl 0x108d60(%eax),%eax
  105da3:	0f b6 c0             	movzbl %al,%eax
  105da6:	83 e0 44             	and    $0x44,%eax
  105da9:	85 c0                	test   %eax,%eax
  105dab:	0f 84 8c 00 00 00    	je     105e3d <_Z15simple_strtoullPKcPPcj+0x14e>
  105db1:	8b 45 08             	mov    0x8(%ebp),%eax
  105db4:	0f b6 00             	movzbl (%eax),%eax
  105db7:	0f b6 c0             	movzbl %al,%eax
  105dba:	0f b6 80 60 8d 10 00 	movzbl 0x108d60(%eax),%eax
  105dc1:	0f b6 c0             	movzbl %al,%eax
  105dc4:	83 e0 04             	and    $0x4,%eax
  105dc7:	85 c0                	test   %eax,%eax
  105dc9:	74 0e                	je     105dd9 <_Z15simple_strtoullPKcPPcj+0xea>
  105dcb:	8b 45 08             	mov    0x8(%ebp),%eax
  105dce:	0f b6 00             	movzbl (%eax),%eax
  105dd1:	0f be c0             	movsbl %al,%eax
  105dd4:	83 e8 30             	sub    $0x30,%eax
  105dd7:	eb 3f                	jmp    105e18 <_Z15simple_strtoullPKcPPcj+0x129>
  105dd9:	8b 45 08             	mov    0x8(%ebp),%eax
  105ddc:	0f b6 00             	movzbl (%eax),%eax
  105ddf:	0f b6 c0             	movzbl %al,%eax
  105de2:	0f b6 80 60 8d 10 00 	movzbl 0x108d60(%eax),%eax
  105de9:	0f b6 c0             	movzbl %al,%eax
  105dec:	83 e0 02             	and    $0x2,%eax
  105def:	85 c0                	test   %eax,%eax
  105df1:	74 19                	je     105e0c <_Z15simple_strtoullPKcPPcj+0x11d>
  105df3:	8b 45 08             	mov    0x8(%ebp),%eax
  105df6:	0f b6 00             	movzbl (%eax),%eax
  105df9:	0f b6 c0             	movzbl %al,%eax
  105dfc:	89 04 24             	mov    %eax,(%esp)
  105dff:	e8 1c fc ff ff       	call   105a20 <_ZL9__toupperh>
  105e04:	0f b6 c0             	movzbl %al,%eax
  105e07:	83 e8 37             	sub    $0x37,%eax
  105e0a:	eb 0c                	jmp    105e18 <_Z15simple_strtoullPKcPPcj+0x129>
  105e0c:	8b 45 08             	mov    0x8(%ebp),%eax
  105e0f:	0f b6 00             	movzbl (%eax),%eax
  105e12:	0f be c0             	movsbl %al,%eax
  105e15:	83 e8 37             	sub    $0x37,%eax
  105e18:	99                   	cltd   
  105e19:	89 45 e8             	mov    %eax,-0x18(%ebp)
  105e1c:	89 55 ec             	mov    %edx,-0x14(%ebp)
  105e1f:	8b 45 10             	mov    0x10(%ebp),%eax
  105e22:	ba 00 00 00 00       	mov    $0x0,%edx
  105e27:	39 55 ec             	cmp    %edx,-0x14(%ebp)
  105e2a:	77 11                	ja     105e3d <_Z15simple_strtoullPKcPPcj+0x14e>
  105e2c:	39 55 ec             	cmp    %edx,-0x14(%ebp)
  105e2f:	72 05                	jb     105e36 <_Z15simple_strtoullPKcPPcj+0x147>
  105e31:	39 45 e8             	cmp    %eax,-0x18(%ebp)
  105e34:	73 07                	jae    105e3d <_Z15simple_strtoullPKcPPcj+0x14e>
  105e36:	b8 01 00 00 00       	mov    $0x1,%eax
  105e3b:	eb 05                	jmp    105e42 <_Z15simple_strtoullPKcPPcj+0x153>
  105e3d:	b8 00 00 00 00       	mov    $0x0,%eax
  105e42:	84 c0                	test   %al,%al
  105e44:	0f 85 16 ff ff ff    	jne    105d60 <_Z15simple_strtoullPKcPPcj+0x71>
  105e4a:	83 7d 0c 00          	cmpl   $0x0,0xc(%ebp)
  105e4e:	74 08                	je     105e58 <_Z15simple_strtoullPKcPPcj+0x169>
  105e50:	8b 45 0c             	mov    0xc(%ebp),%eax
  105e53:	8b 55 08             	mov    0x8(%ebp),%edx
  105e56:	89 10                	mov    %edx,(%eax)
  105e58:	8b 45 f0             	mov    -0x10(%ebp),%eax
  105e5b:	8b 55 f4             	mov    -0xc(%ebp),%edx
  105e5e:	83 c4 18             	add    $0x18,%esp
  105e61:	5b                   	pop    %ebx
  105e62:	5d                   	pop    %ebp
  105e63:	c3                   	ret    

00105e64 <_Z9ustrtoullPKcPPcj>:
  105e64:	55                   	push   %ebp
  105e65:	89 e5                	mov    %esp,%ebp
  105e67:	83 ec 20             	sub    $0x20,%esp
  105e6a:	8b 45 10             	mov    0x10(%ebp),%eax
  105e6d:	89 44 24 08          	mov    %eax,0x8(%esp)
  105e71:	8b 45 0c             	mov    0xc(%ebp),%eax
  105e74:	89 44 24 04          	mov    %eax,0x4(%esp)
  105e78:	8b 45 08             	mov    0x8(%ebp),%eax
  105e7b:	89 04 24             	mov    %eax,(%esp)
  105e7e:	e8 6c fe ff ff       	call   105cef <_Z15simple_strtoullPKcPPcj>
  105e83:	89 45 f8             	mov    %eax,-0x8(%ebp)
  105e86:	89 55 fc             	mov    %edx,-0x4(%ebp)
  105e89:	8b 45 0c             	mov    0xc(%ebp),%eax
  105e8c:	8b 00                	mov    (%eax),%eax
  105e8e:	0f b6 00             	movzbl (%eax),%eax
  105e91:	0f be c0             	movsbl %al,%eax
  105e94:	83 f8 4b             	cmp    $0x4b,%eax
  105e97:	74 3e                	je     105ed7 <_Z9ustrtoullPKcPPcj+0x73>
  105e99:	83 f8 4b             	cmp    $0x4b,%eax
  105e9c:	7f 07                	jg     105ea5 <_Z9ustrtoullPKcPPcj+0x41>
  105e9e:	83 f8 47             	cmp    $0x47,%eax
  105ea1:	74 0e                	je     105eb1 <_Z9ustrtoullPKcPPcj+0x4d>
  105ea3:	eb 7f                	jmp    105f24 <_Z9ustrtoullPKcPPcj+0xc0>
  105ea5:	83 f8 4d             	cmp    $0x4d,%eax
  105ea8:	74 1a                	je     105ec4 <_Z9ustrtoullPKcPPcj+0x60>
  105eaa:	83 f8 6b             	cmp    $0x6b,%eax
  105ead:	74 28                	je     105ed7 <_Z9ustrtoullPKcPPcj+0x73>
  105eaf:	eb 73                	jmp    105f24 <_Z9ustrtoullPKcPPcj+0xc0>
  105eb1:	8b 45 f8             	mov    -0x8(%ebp),%eax
  105eb4:	8b 55 fc             	mov    -0x4(%ebp),%edx
  105eb7:	0f a4 c2 0a          	shld   $0xa,%eax,%edx
  105ebb:	c1 e0 0a             	shl    $0xa,%eax
  105ebe:	89 45 f8             	mov    %eax,-0x8(%ebp)
  105ec1:	89 55 fc             	mov    %edx,-0x4(%ebp)
  105ec4:	8b 45 f8             	mov    -0x8(%ebp),%eax
  105ec7:	8b 55 fc             	mov    -0x4(%ebp),%edx
  105eca:	0f a4 c2 0a          	shld   $0xa,%eax,%edx
  105ece:	c1 e0 0a             	shl    $0xa,%eax
  105ed1:	89 45 f8             	mov    %eax,-0x8(%ebp)
  105ed4:	89 55 fc             	mov    %edx,-0x4(%ebp)
  105ed7:	8b 45 f8             	mov    -0x8(%ebp),%eax
  105eda:	8b 55 fc             	mov    -0x4(%ebp),%edx
  105edd:	0f a4 c2 0a          	shld   $0xa,%eax,%edx
  105ee1:	c1 e0 0a             	shl    $0xa,%eax
  105ee4:	89 45 f8             	mov    %eax,-0x8(%ebp)
  105ee7:	89 55 fc             	mov    %edx,-0x4(%ebp)
  105eea:	8b 45 0c             	mov    0xc(%ebp),%eax
  105eed:	8b 00                	mov    (%eax),%eax
  105eef:	83 c0 01             	add    $0x1,%eax
  105ef2:	0f b6 00             	movzbl (%eax),%eax
  105ef5:	3c 69                	cmp    $0x69,%al
  105ef7:	75 2b                	jne    105f24 <_Z9ustrtoullPKcPPcj+0xc0>
  105ef9:	8b 45 0c             	mov    0xc(%ebp),%eax
  105efc:	8b 00                	mov    (%eax),%eax
  105efe:	83 c0 02             	add    $0x2,%eax
  105f01:	0f b6 00             	movzbl (%eax),%eax
  105f04:	3c 42                	cmp    $0x42,%al
  105f06:	75 0f                	jne    105f17 <_Z9ustrtoullPKcPPcj+0xb3>
  105f08:	8b 45 0c             	mov    0xc(%ebp),%eax
  105f0b:	8b 00                	mov    (%eax),%eax
  105f0d:	8d 50 03             	lea    0x3(%eax),%edx
  105f10:	8b 45 0c             	mov    0xc(%ebp),%eax
  105f13:	89 10                	mov    %edx,(%eax)
  105f15:	eb 0d                	jmp    105f24 <_Z9ustrtoullPKcPPcj+0xc0>
  105f17:	8b 45 0c             	mov    0xc(%ebp),%eax
  105f1a:	8b 00                	mov    (%eax),%eax
  105f1c:	8d 50 02             	lea    0x2(%eax),%edx
  105f1f:	8b 45 0c             	mov    0xc(%ebp),%eax
  105f22:	89 10                	mov    %edx,(%eax)
  105f24:	8b 45 f8             	mov    -0x8(%ebp),%eax
  105f27:	8b 55 fc             	mov    -0x4(%ebp),%edx
  105f2a:	c9                   	leave  
  105f2b:	c3                   	ret    

00105f2c <_ZL9skip_atoiPPKc>:
  105f2c:	55                   	push   %ebp
  105f2d:	89 e5                	mov    %esp,%ebp
  105f2f:	53                   	push   %ebx
  105f30:	83 ec 10             	sub    $0x10,%esp
  105f33:	c7 45 f8 00 00 00 00 	movl   $0x0,-0x8(%ebp)
  105f3a:	eb 29                	jmp    105f65 <_ZL9skip_atoiPPKc+0x39>
  105f3c:	8b 55 f8             	mov    -0x8(%ebp),%edx
  105f3f:	89 d0                	mov    %edx,%eax
  105f41:	c1 e0 02             	shl    $0x2,%eax
  105f44:	01 d0                	add    %edx,%eax
  105f46:	01 c0                	add    %eax,%eax
  105f48:	89 c3                	mov    %eax,%ebx
  105f4a:	8b 45 08             	mov    0x8(%ebp),%eax
  105f4d:	8b 00                	mov    (%eax),%eax
  105f4f:	8d 48 01             	lea    0x1(%eax),%ecx
  105f52:	8b 55 08             	mov    0x8(%ebp),%edx
  105f55:	89 0a                	mov    %ecx,(%edx)
  105f57:	0f b6 00             	movzbl (%eax),%eax
  105f5a:	0f be c0             	movsbl %al,%eax
  105f5d:	01 d8                	add    %ebx,%eax
  105f5f:	83 e8 30             	sub    $0x30,%eax
  105f62:	89 45 f8             	mov    %eax,-0x8(%ebp)
  105f65:	8b 45 08             	mov    0x8(%ebp),%eax
  105f68:	8b 00                	mov    (%eax),%eax
  105f6a:	0f b6 00             	movzbl (%eax),%eax
  105f6d:	3c 2f                	cmp    $0x2f,%al
  105f6f:	7e 0c                	jle    105f7d <_ZL9skip_atoiPPKc+0x51>
  105f71:	8b 45 08             	mov    0x8(%ebp),%eax
  105f74:	8b 00                	mov    (%eax),%eax
  105f76:	0f b6 00             	movzbl (%eax),%eax
  105f79:	3c 39                	cmp    $0x39,%al
  105f7b:	7e bf                	jle    105f3c <_ZL9skip_atoiPPKc+0x10>
  105f7d:	8b 45 f8             	mov    -0x8(%ebp),%eax
  105f80:	83 c4 10             	add    $0x10,%esp
  105f83:	5b                   	pop    %ebx
  105f84:	5d                   	pop    %ebp
  105f85:	c3                   	ret    

00105f86 <_ZL13put_dec_truncPcj>:
  105f86:	55                   	push   %ebp
  105f87:	89 e5                	mov    %esp,%ebp
  105f89:	83 ec 10             	sub    $0x10,%esp
  105f8c:	8b 45 0c             	mov    0xc(%ebp),%eax
  105f8f:	c1 e8 04             	shr    $0x4,%eax
  105f92:	83 e0 0f             	and    $0xf,%eax
  105f95:	89 45 fc             	mov    %eax,-0x4(%ebp)
  105f98:	8b 45 0c             	mov    0xc(%ebp),%eax
  105f9b:	c1 e8 08             	shr    $0x8,%eax
  105f9e:	83 e0 0f             	and    $0xf,%eax
  105fa1:	89 45 f8             	mov    %eax,-0x8(%ebp)
  105fa4:	8b 45 0c             	mov    0xc(%ebp),%eax
  105fa7:	c1 e8 0c             	shr    $0xc,%eax
  105faa:	89 45 f4             	mov    %eax,-0xc(%ebp)
  105fad:	8b 45 f8             	mov    -0x8(%ebp),%eax
  105fb0:	8b 55 f4             	mov    -0xc(%ebp),%edx
  105fb3:	01 c2                	add    %eax,%edx
  105fb5:	8b 45 fc             	mov    -0x4(%ebp),%eax
  105fb8:	01 c2                	add    %eax,%edx
  105fba:	89 d0                	mov    %edx,%eax
  105fbc:	01 c0                	add    %eax,%eax
  105fbe:	01 d0                	add    %edx,%eax
  105fc0:	01 c0                	add    %eax,%eax
  105fc2:	8b 55 0c             	mov    0xc(%ebp),%edx
  105fc5:	83 e2 0f             	and    $0xf,%edx
  105fc8:	01 d0                	add    %edx,%eax
  105fca:	89 45 f0             	mov    %eax,-0x10(%ebp)
  105fcd:	8b 45 f0             	mov    -0x10(%ebp),%eax
  105fd0:	69 c0 cd 00 00 00    	imul   $0xcd,%eax,%eax
  105fd6:	c1 e8 0b             	shr    $0xb,%eax
  105fd9:	89 45 0c             	mov    %eax,0xc(%ebp)
  105fdc:	8b 55 0c             	mov    0xc(%ebp),%edx
  105fdf:	89 d0                	mov    %edx,%eax
  105fe1:	c1 e0 02             	shl    $0x2,%eax
  105fe4:	01 d0                	add    %edx,%eax
  105fe6:	01 c0                	add    %eax,%eax
  105fe8:	29 45 f0             	sub    %eax,-0x10(%ebp)
  105feb:	8b 45 08             	mov    0x8(%ebp),%eax
  105fee:	8d 50 01             	lea    0x1(%eax),%edx
  105ff1:	89 55 08             	mov    %edx,0x8(%ebp)
  105ff4:	8b 55 f0             	mov    -0x10(%ebp),%edx
  105ff7:	83 c2 30             	add    $0x30,%edx
  105ffa:	88 10                	mov    %dl,(%eax)
  105ffc:	8b 55 f4             	mov    -0xc(%ebp),%edx
  105fff:	89 d0                	mov    %edx,%eax
  106001:	c1 e0 03             	shl    $0x3,%eax
  106004:	8d 0c 10             	lea    (%eax,%edx,1),%ecx
  106007:	8b 55 f8             	mov    -0x8(%ebp),%edx
  10600a:	89 d0                	mov    %edx,%eax
  10600c:	c1 e0 02             	shl    $0x2,%eax
  10600f:	01 d0                	add    %edx,%eax
  106011:	8d 14 01             	lea    (%ecx,%eax,1),%edx
  106014:	8b 45 0c             	mov    0xc(%ebp),%eax
  106017:	01 d0                	add    %edx,%eax
  106019:	01 45 fc             	add    %eax,-0x4(%ebp)
  10601c:	83 7d fc 00          	cmpl   $0x0,-0x4(%ebp)
  106020:	0f 84 df 00 00 00    	je     106105 <_ZL13put_dec_truncPcj+0x17f>
  106026:	8b 45 fc             	mov    -0x4(%ebp),%eax
  106029:	69 c0 cd 00 00 00    	imul   $0xcd,%eax,%eax
  10602f:	c1 e8 0b             	shr    $0xb,%eax
  106032:	89 45 0c             	mov    %eax,0xc(%ebp)
  106035:	8b 55 0c             	mov    0xc(%ebp),%edx
  106038:	89 d0                	mov    %edx,%eax
  10603a:	c1 e0 02             	shl    $0x2,%eax
  10603d:	01 d0                	add    %edx,%eax
  10603f:	01 c0                	add    %eax,%eax
  106041:	29 45 fc             	sub    %eax,-0x4(%ebp)
  106044:	8b 45 08             	mov    0x8(%ebp),%eax
  106047:	8d 50 01             	lea    0x1(%eax),%edx
  10604a:	89 55 08             	mov    %edx,0x8(%ebp)
  10604d:	8b 55 fc             	mov    -0x4(%ebp),%edx
  106050:	83 c2 30             	add    $0x30,%edx
  106053:	88 10                	mov    %dl,(%eax)
  106055:	8b 45 f8             	mov    -0x8(%ebp),%eax
  106058:	8d 14 00             	lea    (%eax,%eax,1),%edx
  10605b:	8b 45 0c             	mov    0xc(%ebp),%eax
  10605e:	01 d0                	add    %edx,%eax
  106060:	89 45 f8             	mov    %eax,-0x8(%ebp)
  106063:	83 7d f8 00          	cmpl   $0x0,-0x8(%ebp)
  106067:	75 0a                	jne    106073 <_ZL13put_dec_truncPcj+0xed>
  106069:	83 7d f4 00          	cmpl   $0x0,-0xc(%ebp)
  10606d:	0f 84 92 00 00 00    	je     106105 <_ZL13put_dec_truncPcj+0x17f>
  106073:	8b 55 f8             	mov    -0x8(%ebp),%edx
  106076:	89 d0                	mov    %edx,%eax
  106078:	01 c0                	add    %eax,%eax
  10607a:	01 d0                	add    %edx,%eax
  10607c:	c1 e0 02             	shl    $0x2,%eax
  10607f:	01 d0                	add    %edx,%eax
  106081:	c1 e8 07             	shr    $0x7,%eax
  106084:	89 45 0c             	mov    %eax,0xc(%ebp)
  106087:	8b 55 0c             	mov    0xc(%ebp),%edx
  10608a:	89 d0                	mov    %edx,%eax
  10608c:	c1 e0 02             	shl    $0x2,%eax
  10608f:	01 d0                	add    %edx,%eax
  106091:	01 c0                	add    %eax,%eax
  106093:	29 45 f8             	sub    %eax,-0x8(%ebp)
  106096:	8b 45 08             	mov    0x8(%ebp),%eax
  106099:	8d 50 01             	lea    0x1(%eax),%edx
  10609c:	89 55 08             	mov    %edx,0x8(%ebp)
  10609f:	8b 55 f8             	mov    -0x8(%ebp),%edx
  1060a2:	83 c2 30             	add    $0x30,%edx
  1060a5:	88 10                	mov    %dl,(%eax)
  1060a7:	8b 45 f4             	mov    -0xc(%ebp),%eax
  1060aa:	8d 14 85 00 00 00 00 	lea    0x0(,%eax,4),%edx
  1060b1:	8b 45 0c             	mov    0xc(%ebp),%eax
  1060b4:	01 d0                	add    %edx,%eax
  1060b6:	89 45 f4             	mov    %eax,-0xc(%ebp)
  1060b9:	83 7d f4 00          	cmpl   $0x0,-0xc(%ebp)
  1060bd:	74 46                	je     106105 <_ZL13put_dec_truncPcj+0x17f>
  1060bf:	8b 45 f4             	mov    -0xc(%ebp),%eax
  1060c2:	69 c0 cd 00 00 00    	imul   $0xcd,%eax,%eax
  1060c8:	c1 e8 0b             	shr    $0xb,%eax
  1060cb:	89 45 0c             	mov    %eax,0xc(%ebp)
  1060ce:	8b 55 0c             	mov    0xc(%ebp),%edx
  1060d1:	89 d0                	mov    %edx,%eax
  1060d3:	c1 e0 02             	shl    $0x2,%eax
  1060d6:	01 d0                	add    %edx,%eax
  1060d8:	01 c0                	add    %eax,%eax
  1060da:	29 45 f4             	sub    %eax,-0xc(%ebp)
  1060dd:	8b 45 08             	mov    0x8(%ebp),%eax
  1060e0:	8d 50 01             	lea    0x1(%eax),%edx
  1060e3:	89 55 08             	mov    %edx,0x8(%ebp)
  1060e6:	8b 55 f4             	mov    -0xc(%ebp),%edx
  1060e9:	83 c2 30             	add    $0x30,%edx
  1060ec:	88 10                	mov    %dl,(%eax)
  1060ee:	83 7d 0c 00          	cmpl   $0x0,0xc(%ebp)
  1060f2:	74 11                	je     106105 <_ZL13put_dec_truncPcj+0x17f>
  1060f4:	8b 45 08             	mov    0x8(%ebp),%eax
  1060f7:	8d 50 01             	lea    0x1(%eax),%edx
  1060fa:	89 55 08             	mov    %edx,0x8(%ebp)
  1060fd:	8b 55 0c             	mov    0xc(%ebp),%edx
  106100:	83 c2 30             	add    $0x30,%edx
  106103:	88 10                	mov    %dl,(%eax)
  106105:	8b 45 08             	mov    0x8(%ebp),%eax
  106108:	c9                   	leave  
  106109:	c3                   	ret    

0010610a <_ZL12put_dec_fullPcj>:
  10610a:	55                   	push   %ebp
  10610b:	89 e5                	mov    %esp,%ebp
  10610d:	83 ec 10             	sub    $0x10,%esp
  106110:	8b 45 0c             	mov    0xc(%ebp),%eax
  106113:	c1 e8 04             	shr    $0x4,%eax
  106116:	83 e0 0f             	and    $0xf,%eax
  106119:	89 45 fc             	mov    %eax,-0x4(%ebp)
  10611c:	8b 45 0c             	mov    0xc(%ebp),%eax
  10611f:	c1 e8 08             	shr    $0x8,%eax
  106122:	83 e0 0f             	and    $0xf,%eax
  106125:	89 45 f8             	mov    %eax,-0x8(%ebp)
  106128:	8b 45 0c             	mov    0xc(%ebp),%eax
  10612b:	c1 e8 0c             	shr    $0xc,%eax
  10612e:	89 45 f4             	mov    %eax,-0xc(%ebp)
  106131:	8b 45 f8             	mov    -0x8(%ebp),%eax
  106134:	8b 55 f4             	mov    -0xc(%ebp),%edx
  106137:	01 c2                	add    %eax,%edx
  106139:	8b 45 fc             	mov    -0x4(%ebp),%eax
  10613c:	01 c2                	add    %eax,%edx
  10613e:	89 d0                	mov    %edx,%eax
  106140:	01 c0                	add    %eax,%eax
  106142:	01 d0                	add    %edx,%eax
  106144:	01 c0                	add    %eax,%eax
  106146:	8b 55 0c             	mov    0xc(%ebp),%edx
  106149:	83 e2 0f             	and    $0xf,%edx
  10614c:	01 d0                	add    %edx,%eax
  10614e:	89 45 f0             	mov    %eax,-0x10(%ebp)
  106151:	8b 45 f0             	mov    -0x10(%ebp),%eax
  106154:	69 c0 cd 00 00 00    	imul   $0xcd,%eax,%eax
  10615a:	c1 e8 0b             	shr    $0xb,%eax
  10615d:	89 45 0c             	mov    %eax,0xc(%ebp)
  106160:	8b 55 0c             	mov    0xc(%ebp),%edx
  106163:	89 d0                	mov    %edx,%eax
  106165:	c1 e0 02             	shl    $0x2,%eax
  106168:	01 d0                	add    %edx,%eax
  10616a:	01 c0                	add    %eax,%eax
  10616c:	29 45 f0             	sub    %eax,-0x10(%ebp)
  10616f:	8b 45 08             	mov    0x8(%ebp),%eax
  106172:	8d 50 01             	lea    0x1(%eax),%edx
  106175:	89 55 08             	mov    %edx,0x8(%ebp)
  106178:	8b 55 f0             	mov    -0x10(%ebp),%edx
  10617b:	83 c2 30             	add    $0x30,%edx
  10617e:	88 10                	mov    %dl,(%eax)
  106180:	8b 55 f4             	mov    -0xc(%ebp),%edx
  106183:	89 d0                	mov    %edx,%eax
  106185:	c1 e0 03             	shl    $0x3,%eax
  106188:	8d 0c 10             	lea    (%eax,%edx,1),%ecx
  10618b:	8b 55 f8             	mov    -0x8(%ebp),%edx
  10618e:	89 d0                	mov    %edx,%eax
  106190:	c1 e0 02             	shl    $0x2,%eax
  106193:	01 d0                	add    %edx,%eax
  106195:	8d 14 01             	lea    (%ecx,%eax,1),%edx
  106198:	8b 45 0c             	mov    0xc(%ebp),%eax
  10619b:	01 d0                	add    %edx,%eax
  10619d:	01 45 fc             	add    %eax,-0x4(%ebp)
  1061a0:	8b 45 fc             	mov    -0x4(%ebp),%eax
  1061a3:	69 c0 cd 00 00 00    	imul   $0xcd,%eax,%eax
  1061a9:	c1 e8 0b             	shr    $0xb,%eax
  1061ac:	89 45 0c             	mov    %eax,0xc(%ebp)
  1061af:	8b 55 0c             	mov    0xc(%ebp),%edx
  1061b2:	89 d0                	mov    %edx,%eax
  1061b4:	c1 e0 02             	shl    $0x2,%eax
  1061b7:	01 d0                	add    %edx,%eax
  1061b9:	01 c0                	add    %eax,%eax
  1061bb:	29 45 fc             	sub    %eax,-0x4(%ebp)
  1061be:	8b 45 08             	mov    0x8(%ebp),%eax
  1061c1:	8d 50 01             	lea    0x1(%eax),%edx
  1061c4:	89 55 08             	mov    %edx,0x8(%ebp)
  1061c7:	8b 55 fc             	mov    -0x4(%ebp),%edx
  1061ca:	83 c2 30             	add    $0x30,%edx
  1061cd:	88 10                	mov    %dl,(%eax)
  1061cf:	8b 45 f8             	mov    -0x8(%ebp),%eax
  1061d2:	8d 14 00             	lea    (%eax,%eax,1),%edx
  1061d5:	8b 45 0c             	mov    0xc(%ebp),%eax
  1061d8:	01 d0                	add    %edx,%eax
  1061da:	89 45 f8             	mov    %eax,-0x8(%ebp)
  1061dd:	8b 55 f8             	mov    -0x8(%ebp),%edx
  1061e0:	89 d0                	mov    %edx,%eax
  1061e2:	01 c0                	add    %eax,%eax
  1061e4:	01 d0                	add    %edx,%eax
  1061e6:	c1 e0 02             	shl    $0x2,%eax
  1061e9:	01 d0                	add    %edx,%eax
  1061eb:	c1 e8 07             	shr    $0x7,%eax
  1061ee:	89 45 0c             	mov    %eax,0xc(%ebp)
  1061f1:	8b 55 0c             	mov    0xc(%ebp),%edx
  1061f4:	89 d0                	mov    %edx,%eax
  1061f6:	c1 e0 02             	shl    $0x2,%eax
  1061f9:	01 d0                	add    %edx,%eax
  1061fb:	01 c0                	add    %eax,%eax
  1061fd:	29 45 f8             	sub    %eax,-0x8(%ebp)
  106200:	8b 45 08             	mov    0x8(%ebp),%eax
  106203:	8d 50 01             	lea    0x1(%eax),%edx
  106206:	89 55 08             	mov    %edx,0x8(%ebp)
  106209:	8b 55 f8             	mov    -0x8(%ebp),%edx
  10620c:	83 c2 30             	add    $0x30,%edx
  10620f:	88 10                	mov    %dl,(%eax)
  106211:	8b 45 f4             	mov    -0xc(%ebp),%eax
  106214:	8d 14 85 00 00 00 00 	lea    0x0(,%eax,4),%edx
  10621b:	8b 45 0c             	mov    0xc(%ebp),%eax
  10621e:	01 d0                	add    %edx,%eax
  106220:	89 45 f4             	mov    %eax,-0xc(%ebp)
  106223:	8b 45 f4             	mov    -0xc(%ebp),%eax
  106226:	69 c0 cd 00 00 00    	imul   $0xcd,%eax,%eax
  10622c:	c1 e8 0b             	shr    $0xb,%eax
  10622f:	89 45 0c             	mov    %eax,0xc(%ebp)
  106232:	8b 55 0c             	mov    0xc(%ebp),%edx
  106235:	89 d0                	mov    %edx,%eax
  106237:	c1 e0 02             	shl    $0x2,%eax
  10623a:	01 d0                	add    %edx,%eax
  10623c:	01 c0                	add    %eax,%eax
  10623e:	29 45 f4             	sub    %eax,-0xc(%ebp)
  106241:	8b 45 08             	mov    0x8(%ebp),%eax
  106244:	8d 50 01             	lea    0x1(%eax),%edx
  106247:	89 55 08             	mov    %edx,0x8(%ebp)
  10624a:	8b 55 f4             	mov    -0xc(%ebp),%edx
  10624d:	83 c2 30             	add    $0x30,%edx
  106250:	88 10                	mov    %dl,(%eax)
  106252:	8b 45 08             	mov    0x8(%ebp),%eax
  106255:	8d 50 01             	lea    0x1(%eax),%edx
  106258:	89 55 08             	mov    %edx,0x8(%ebp)
  10625b:	8b 55 0c             	mov    0xc(%ebp),%edx
  10625e:	83 c2 30             	add    $0x30,%edx
  106261:	88 10                	mov    %dl,(%eax)
  106263:	8b 45 08             	mov    0x8(%ebp),%eax
  106266:	c9                   	leave  
  106267:	c3                   	ret    

00106268 <_ZL7put_decPcy>:
  106268:	55                   	push   %ebp
  106269:	89 e5                	mov    %esp,%ebp
  10626b:	83 ec 28             	sub    $0x28,%esp
  10626e:	8b 45 0c             	mov    0xc(%ebp),%eax
  106271:	89 45 e0             	mov    %eax,-0x20(%ebp)
  106274:	8b 45 10             	mov    0x10(%ebp),%eax
  106277:	89 45 e4             	mov    %eax,-0x1c(%ebp)
  10627a:	8b 45 e0             	mov    -0x20(%ebp),%eax
  10627d:	8b 55 e4             	mov    -0x1c(%ebp),%edx
  106280:	83 fa 00             	cmp    $0x0,%edx
  106283:	77 23                	ja     1062a8 <_ZL7put_decPcy+0x40>
  106285:	83 fa 00             	cmp    $0x0,%edx
  106288:	72 07                	jb     106291 <_ZL7put_decPcy+0x29>
  10628a:	3d 9f 86 01 00       	cmp    $0x1869f,%eax
  10628f:	77 17                	ja     1062a8 <_ZL7put_decPcy+0x40>
  106291:	8b 45 e0             	mov    -0x20(%ebp),%eax
  106294:	8b 55 e4             	mov    -0x1c(%ebp),%edx
  106297:	89 44 24 04          	mov    %eax,0x4(%esp)
  10629b:	8b 45 08             	mov    0x8(%ebp),%eax
  10629e:	89 04 24             	mov    %eax,(%esp)
  1062a1:	e8 e0 fc ff ff       	call   105f86 <_ZL13put_dec_truncPcj>
  1062a6:	eb 78                	jmp    106320 <_ZL7put_decPcy+0xb8>
  1062a8:	c7 45 f0 a0 86 01 00 	movl   $0x186a0,-0x10(%ebp)
  1062af:	8b 45 e0             	mov    -0x20(%ebp),%eax
  1062b2:	8b 55 e4             	mov    -0x1c(%ebp),%edx
  1062b5:	89 d0                	mov    %edx,%eax
  1062b7:	31 d2                	xor    %edx,%edx
  1062b9:	09 d0                	or     %edx,%eax
  1062bb:	85 c0                	test   %eax,%eax
  1062bd:	75 2c                	jne    1062eb <_ZL7put_decPcy+0x83>
  1062bf:	8b 45 e0             	mov    -0x20(%ebp),%eax
  1062c2:	8b 55 e4             	mov    -0x1c(%ebp),%edx
  1062c5:	ba 00 00 00 00       	mov    $0x0,%edx
  1062ca:	f7 75 f0             	divl   -0x10(%ebp)
  1062cd:	89 55 f4             	mov    %edx,-0xc(%ebp)
  1062d0:	8b 45 e0             	mov    -0x20(%ebp),%eax
  1062d3:	8b 55 e4             	mov    -0x1c(%ebp),%edx
  1062d6:	ba 00 00 00 00       	mov    $0x0,%edx
  1062db:	f7 75 f0             	divl   -0x10(%ebp)
  1062de:	ba 00 00 00 00       	mov    $0x0,%edx
  1062e3:	89 45 e0             	mov    %eax,-0x20(%ebp)
  1062e6:	89 55 e4             	mov    %edx,-0x1c(%ebp)
  1062e9:	eb 15                	jmp    106300 <_ZL7put_decPcy+0x98>
  1062eb:	8b 45 f0             	mov    -0x10(%ebp),%eax
  1062ee:	89 44 24 04          	mov    %eax,0x4(%esp)
  1062f2:	8d 45 e0             	lea    -0x20(%ebp),%eax
  1062f5:	89 04 24             	mov    %eax,(%esp)
  1062f8:	e8 fd ea ff ff       	call   104dfa <_Z10__div64_32Pyj>
  1062fd:	89 45 f4             	mov    %eax,-0xc(%ebp)
  106300:	8b 45 f4             	mov    -0xc(%ebp),%eax
  106303:	89 45 ec             	mov    %eax,-0x14(%ebp)
  106306:	8b 45 ec             	mov    -0x14(%ebp),%eax
  106309:	89 44 24 04          	mov    %eax,0x4(%esp)
  10630d:	8b 45 08             	mov    0x8(%ebp),%eax
  106310:	89 04 24             	mov    %eax,(%esp)
  106313:	e8 f2 fd ff ff       	call   10610a <_ZL12put_dec_fullPcj>
  106318:	89 45 08             	mov    %eax,0x8(%ebp)
  10631b:	e9 5a ff ff ff       	jmp    10627a <_ZL7put_decPcy+0x12>
  106320:	c9                   	leave  
  106321:	c3                   	ret    

00106322 <_ZL6numberPcS_yiiii>:
  106322:	55                   	push   %ebp
  106323:	89 e5                	mov    %esp,%ebp
  106325:	81 ec 88 00 00 00    	sub    $0x88,%esp
  10632b:	8b 45 10             	mov    0x10(%ebp),%eax
  10632e:	89 45 90             	mov    %eax,-0x70(%ebp)
  106331:	8b 45 14             	mov    0x14(%ebp),%eax
  106334:	89 45 94             	mov    %eax,-0x6c(%ebp)
  106337:	8b 45 24             	mov    0x24(%ebp),%eax
  10633a:	83 e0 40             	and    $0x40,%eax
  10633d:	85 c0                	test   %eax,%eax
  10633f:	74 0d                	je     10634e <_ZL6numberPcS_yiiii+0x2c>
  106341:	83 7d 18 0a          	cmpl   $0xa,0x18(%ebp)
  106345:	74 07                	je     10634e <_ZL6numberPcS_yiiii+0x2c>
  106347:	b8 01 00 00 00       	mov    $0x1,%eax
  10634c:	eb 05                	jmp    106353 <_ZL6numberPcS_yiiii+0x31>
  10634e:	b8 00 00 00 00       	mov    $0x0,%eax
  106353:	0f b6 c0             	movzbl %al,%eax
  106356:	89 45 e8             	mov    %eax,-0x18(%ebp)
  106359:	8b 45 24             	mov    0x24(%ebp),%eax
  10635c:	83 e0 20             	and    $0x20,%eax
  10635f:	88 45 e7             	mov    %al,-0x19(%ebp)
  106362:	8b 45 24             	mov    0x24(%ebp),%eax
  106365:	83 e0 10             	and    $0x10,%eax
  106368:	85 c0                	test   %eax,%eax
  10636a:	74 04                	je     106370 <_ZL6numberPcS_yiiii+0x4e>
  10636c:	83 65 24 fe          	andl   $0xfffffffe,0x24(%ebp)
  106370:	c6 45 f7 00          	movb   $0x0,-0x9(%ebp)
  106374:	8b 45 24             	mov    0x24(%ebp),%eax
  106377:	83 e0 02             	and    $0x2,%eax
  10637a:	85 c0                	test   %eax,%eax
  10637c:	74 4d                	je     1063cb <_ZL6numberPcS_yiiii+0xa9>
  10637e:	8b 45 90             	mov    -0x70(%ebp),%eax
  106381:	8b 55 94             	mov    -0x6c(%ebp),%edx
  106384:	85 d2                	test   %edx,%edx
  106386:	79 1d                	jns    1063a5 <_ZL6numberPcS_yiiii+0x83>
  106388:	c6 45 f7 2d          	movb   $0x2d,-0x9(%ebp)
  10638c:	8b 45 90             	mov    -0x70(%ebp),%eax
  10638f:	8b 55 94             	mov    -0x6c(%ebp),%edx
  106392:	f7 d8                	neg    %eax
  106394:	83 d2 00             	adc    $0x0,%edx
  106397:	f7 da                	neg    %edx
  106399:	89 45 90             	mov    %eax,-0x70(%ebp)
  10639c:	89 55 94             	mov    %edx,-0x6c(%ebp)
  10639f:	83 6d 1c 01          	subl   $0x1,0x1c(%ebp)
  1063a3:	eb 26                	jmp    1063cb <_ZL6numberPcS_yiiii+0xa9>
  1063a5:	8b 45 24             	mov    0x24(%ebp),%eax
  1063a8:	83 e0 04             	and    $0x4,%eax
  1063ab:	85 c0                	test   %eax,%eax
  1063ad:	74 0a                	je     1063b9 <_ZL6numberPcS_yiiii+0x97>
  1063af:	c6 45 f7 2b          	movb   $0x2b,-0x9(%ebp)
  1063b3:	83 6d 1c 01          	subl   $0x1,0x1c(%ebp)
  1063b7:	eb 12                	jmp    1063cb <_ZL6numberPcS_yiiii+0xa9>
  1063b9:	8b 45 24             	mov    0x24(%ebp),%eax
  1063bc:	83 e0 08             	and    $0x8,%eax
  1063bf:	85 c0                	test   %eax,%eax
  1063c1:	74 08                	je     1063cb <_ZL6numberPcS_yiiii+0xa9>
  1063c3:	c6 45 f7 20          	movb   $0x20,-0x9(%ebp)
  1063c7:	83 6d 1c 01          	subl   $0x1,0x1c(%ebp)
  1063cb:	83 7d e8 00          	cmpl   $0x0,-0x18(%ebp)
  1063cf:	74 0e                	je     1063df <_ZL6numberPcS_yiiii+0xbd>
  1063d1:	83 6d 1c 01          	subl   $0x1,0x1c(%ebp)
  1063d5:	83 7d 18 10          	cmpl   $0x10,0x18(%ebp)
  1063d9:	75 04                	jne    1063df <_ZL6numberPcS_yiiii+0xbd>
  1063db:	83 6d 1c 01          	subl   $0x1,0x1c(%ebp)
  1063df:	c7 45 f0 00 00 00 00 	movl   $0x0,-0x10(%ebp)
  1063e6:	8b 45 90             	mov    -0x70(%ebp),%eax
  1063e9:	8b 55 94             	mov    -0x6c(%ebp),%edx
  1063ec:	09 d0                	or     %edx,%eax
  1063ee:	85 c0                	test   %eax,%eax
  1063f0:	75 13                	jne    106405 <_ZL6numberPcS_yiiii+0xe3>
  1063f2:	8b 45 f0             	mov    -0x10(%ebp),%eax
  1063f5:	8d 50 01             	lea    0x1(%eax),%edx
  1063f8:	89 55 f0             	mov    %edx,-0x10(%ebp)
  1063fb:	c6 44 05 9d 30       	movb   $0x30,-0x63(%ebp,%eax,1)
  106400:	e9 93 00 00 00       	jmp    106498 <_ZL6numberPcS_yiiii+0x176>
  106405:	83 7d 18 0a          	cmpl   $0xa,0x18(%ebp)
  106409:	74 68                	je     106473 <_ZL6numberPcS_yiiii+0x151>
  10640b:	8b 45 18             	mov    0x18(%ebp),%eax
  10640e:	83 e8 01             	sub    $0x1,%eax
  106411:	89 45 e0             	mov    %eax,-0x20(%ebp)
  106414:	c7 45 ec 03 00 00 00 	movl   $0x3,-0x14(%ebp)
  10641b:	83 7d 18 10          	cmpl   $0x10,0x18(%ebp)
  10641f:	75 07                	jne    106428 <_ZL6numberPcS_yiiii+0x106>
  106421:	c7 45 ec 04 00 00 00 	movl   $0x4,-0x14(%ebp)
  106428:	8b 45 f0             	mov    -0x10(%ebp),%eax
  10642b:	8d 50 01             	lea    0x1(%eax),%edx
  10642e:	89 55 f0             	mov    %edx,-0x10(%ebp)
  106431:	8b 55 90             	mov    -0x70(%ebp),%edx
  106434:	0f b6 d2             	movzbl %dl,%edx
  106437:	23 55 e0             	and    -0x20(%ebp),%edx
  10643a:	0f b6 92 11 90 10 00 	movzbl 0x109011(%edx),%edx
  106441:	0a 55 e7             	or     -0x19(%ebp),%dl
  106444:	88 54 05 9d          	mov    %dl,-0x63(%ebp,%eax,1)
  106448:	8b 4d ec             	mov    -0x14(%ebp),%ecx
  10644b:	8b 45 90             	mov    -0x70(%ebp),%eax
  10644e:	8b 55 94             	mov    -0x6c(%ebp),%edx
  106451:	0f ad d0             	shrd   %cl,%edx,%eax
  106454:	d3 ea                	shr    %cl,%edx
  106456:	f6 c1 20             	test   $0x20,%cl
  106459:	74 04                	je     10645f <_ZL6numberPcS_yiiii+0x13d>
  10645b:	89 d0                	mov    %edx,%eax
  10645d:	31 d2                	xor    %edx,%edx
  10645f:	89 45 90             	mov    %eax,-0x70(%ebp)
  106462:	89 55 94             	mov    %edx,-0x6c(%ebp)
  106465:	8b 45 90             	mov    -0x70(%ebp),%eax
  106468:	8b 55 94             	mov    -0x6c(%ebp),%edx
  10646b:	09 d0                	or     %edx,%eax
  10646d:	85 c0                	test   %eax,%eax
  10646f:	75 b7                	jne    106428 <_ZL6numberPcS_yiiii+0x106>
  106471:	eb 25                	jmp    106498 <_ZL6numberPcS_yiiii+0x176>
  106473:	8b 45 90             	mov    -0x70(%ebp),%eax
  106476:	8b 55 94             	mov    -0x6c(%ebp),%edx
  106479:	89 44 24 04          	mov    %eax,0x4(%esp)
  10647d:	89 54 24 08          	mov    %edx,0x8(%esp)
  106481:	8d 45 9d             	lea    -0x63(%ebp),%eax
  106484:	89 04 24             	mov    %eax,(%esp)
  106487:	e8 dc fd ff ff       	call   106268 <_ZL7put_decPcy>
  10648c:	89 c2                	mov    %eax,%edx
  10648e:	8d 45 9d             	lea    -0x63(%ebp),%eax
  106491:	29 c2                	sub    %eax,%edx
  106493:	89 d0                	mov    %edx,%eax
  106495:	89 45 f0             	mov    %eax,-0x10(%ebp)
  106498:	8b 45 f0             	mov    -0x10(%ebp),%eax
  10649b:	3b 45 20             	cmp    0x20(%ebp),%eax
  10649e:	7e 06                	jle    1064a6 <_ZL6numberPcS_yiiii+0x184>
  1064a0:	8b 45 f0             	mov    -0x10(%ebp),%eax
  1064a3:	89 45 20             	mov    %eax,0x20(%ebp)
  1064a6:	8b 45 20             	mov    0x20(%ebp),%eax
  1064a9:	29 45 1c             	sub    %eax,0x1c(%ebp)
  1064ac:	8b 45 24             	mov    0x24(%ebp),%eax
  1064af:	83 e0 11             	and    $0x11,%eax
  1064b2:	85 c0                	test   %eax,%eax
  1064b4:	75 1e                	jne    1064d4 <_ZL6numberPcS_yiiii+0x1b2>
  1064b6:	eb 0c                	jmp    1064c4 <_ZL6numberPcS_yiiii+0x1a2>
  1064b8:	8b 45 08             	mov    0x8(%ebp),%eax
  1064bb:	8d 50 01             	lea    0x1(%eax),%edx
  1064be:	89 55 08             	mov    %edx,0x8(%ebp)
  1064c1:	c6 00 20             	movb   $0x20,(%eax)
  1064c4:	83 6d 1c 01          	subl   $0x1,0x1c(%ebp)
  1064c8:	8b 45 1c             	mov    0x1c(%ebp),%eax
  1064cb:	f7 d0                	not    %eax
  1064cd:	c1 e8 1f             	shr    $0x1f,%eax
  1064d0:	84 c0                	test   %al,%al
  1064d2:	75 e4                	jne    1064b8 <_ZL6numberPcS_yiiii+0x196>
  1064d4:	80 7d f7 00          	cmpb   $0x0,-0x9(%ebp)
  1064d8:	74 0f                	je     1064e9 <_ZL6numberPcS_yiiii+0x1c7>
  1064da:	8b 45 08             	mov    0x8(%ebp),%eax
  1064dd:	8d 50 01             	lea    0x1(%eax),%edx
  1064e0:	89 55 08             	mov    %edx,0x8(%ebp)
  1064e3:	0f b6 55 f7          	movzbl -0x9(%ebp),%edx
  1064e7:	88 10                	mov    %dl,(%eax)
  1064e9:	83 7d e8 00          	cmpl   $0x0,-0x18(%ebp)
  1064ed:	74 24                	je     106513 <_ZL6numberPcS_yiiii+0x1f1>
  1064ef:	8b 45 08             	mov    0x8(%ebp),%eax
  1064f2:	8d 50 01             	lea    0x1(%eax),%edx
  1064f5:	89 55 08             	mov    %edx,0x8(%ebp)
  1064f8:	c6 00 30             	movb   $0x30,(%eax)
  1064fb:	83 7d 18 10          	cmpl   $0x10,0x18(%ebp)
  1064ff:	75 12                	jne    106513 <_ZL6numberPcS_yiiii+0x1f1>
  106501:	8b 45 08             	mov    0x8(%ebp),%eax
  106504:	8d 50 01             	lea    0x1(%eax),%edx
  106507:	89 55 08             	mov    %edx,0x8(%ebp)
  10650a:	0f b6 55 e7          	movzbl -0x19(%ebp),%edx
  10650e:	83 ca 58             	or     $0x58,%edx
  106511:	88 10                	mov    %dl,(%eax)
  106513:	8b 45 24             	mov    0x24(%ebp),%eax
  106516:	83 e0 10             	and    $0x10,%eax
  106519:	85 c0                	test   %eax,%eax
  10651b:	75 3a                	jne    106557 <_ZL6numberPcS_yiiii+0x235>
  10651d:	8b 45 24             	mov    0x24(%ebp),%eax
  106520:	83 e0 01             	and    $0x1,%eax
  106523:	85 c0                	test   %eax,%eax
  106525:	74 07                	je     10652e <_ZL6numberPcS_yiiii+0x20c>
  106527:	b8 30 00 00 00       	mov    $0x30,%eax
  10652c:	eb 05                	jmp    106533 <_ZL6numberPcS_yiiii+0x211>
  10652e:	b8 20 00 00 00       	mov    $0x20,%eax
  106533:	88 45 df             	mov    %al,-0x21(%ebp)
  106536:	eb 0f                	jmp    106547 <_ZL6numberPcS_yiiii+0x225>
  106538:	8b 45 08             	mov    0x8(%ebp),%eax
  10653b:	8d 50 01             	lea    0x1(%eax),%edx
  10653e:	89 55 08             	mov    %edx,0x8(%ebp)
  106541:	0f b6 55 df          	movzbl -0x21(%ebp),%edx
  106545:	88 10                	mov    %dl,(%eax)
  106547:	83 6d 1c 01          	subl   $0x1,0x1c(%ebp)
  10654b:	8b 45 1c             	mov    0x1c(%ebp),%eax
  10654e:	f7 d0                	not    %eax
  106550:	c1 e8 1f             	shr    $0x1f,%eax
  106553:	84 c0                	test   %al,%al
  106555:	75 e1                	jne    106538 <_ZL6numberPcS_yiiii+0x216>
  106557:	eb 0c                	jmp    106565 <_ZL6numberPcS_yiiii+0x243>
  106559:	8b 45 08             	mov    0x8(%ebp),%eax
  10655c:	8d 50 01             	lea    0x1(%eax),%edx
  10655f:	89 55 08             	mov    %edx,0x8(%ebp)
  106562:	c6 00 30             	movb   $0x30,(%eax)
  106565:	83 6d 20 01          	subl   $0x1,0x20(%ebp)
  106569:	8b 45 20             	mov    0x20(%ebp),%eax
  10656c:	3b 45 f0             	cmp    -0x10(%ebp),%eax
  10656f:	0f 9d c0             	setge  %al
  106572:	84 c0                	test   %al,%al
  106574:	75 e3                	jne    106559 <_ZL6numberPcS_yiiii+0x237>
  106576:	eb 16                	jmp    10658e <_ZL6numberPcS_yiiii+0x26c>
  106578:	8b 45 08             	mov    0x8(%ebp),%eax
  10657b:	8d 50 01             	lea    0x1(%eax),%edx
  10657e:	89 55 08             	mov    %edx,0x8(%ebp)
  106581:	8d 4d 9d             	lea    -0x63(%ebp),%ecx
  106584:	8b 55 f0             	mov    -0x10(%ebp),%edx
  106587:	01 ca                	add    %ecx,%edx
  106589:	0f b6 12             	movzbl (%edx),%edx
  10658c:	88 10                	mov    %dl,(%eax)
  10658e:	83 6d f0 01          	subl   $0x1,-0x10(%ebp)
  106592:	8b 45 f0             	mov    -0x10(%ebp),%eax
  106595:	f7 d0                	not    %eax
  106597:	c1 e8 1f             	shr    $0x1f,%eax
  10659a:	84 c0                	test   %al,%al
  10659c:	75 da                	jne    106578 <_ZL6numberPcS_yiiii+0x256>
  10659e:	eb 0c                	jmp    1065ac <_ZL6numberPcS_yiiii+0x28a>
  1065a0:	8b 45 08             	mov    0x8(%ebp),%eax
  1065a3:	8d 50 01             	lea    0x1(%eax),%edx
  1065a6:	89 55 08             	mov    %edx,0x8(%ebp)
  1065a9:	c6 00 20             	movb   $0x20,(%eax)
  1065ac:	83 6d 1c 01          	subl   $0x1,0x1c(%ebp)
  1065b0:	8b 45 1c             	mov    0x1c(%ebp),%eax
  1065b3:	f7 d0                	not    %eax
  1065b5:	c1 e8 1f             	shr    $0x1f,%eax
  1065b8:	84 c0                	test   %al,%al
  1065ba:	75 e4                	jne    1065a0 <_ZL6numberPcS_yiiii+0x27e>
  1065bc:	8b 45 08             	mov    0x8(%ebp),%eax
  1065bf:	c9                   	leave  
  1065c0:	c3                   	ret    

001065c1 <_ZL6stringPcS_S_iii>:
  1065c1:	55                   	push   %ebp
  1065c2:	89 e5                	mov    %esp,%ebp
  1065c4:	83 ec 28             	sub    $0x28,%esp
  1065c7:	83 7d 10 00          	cmpl   $0x0,0x10(%ebp)
  1065cb:	75 13                	jne    1065e0 <_ZL6stringPcS_S_iii+0x1f>
  1065cd:	8b 45 10             	mov    0x10(%ebp),%eax
  1065d0:	c7 00 3c 4e 55 4c    	movl   $0x4c554e3c,(%eax)
  1065d6:	66 c7 40 04 4c 3e    	movw   $0x3e4c,0x4(%eax)
  1065dc:	c6 40 06 00          	movb   $0x0,0x6(%eax)
  1065e0:	8b 45 18             	mov    0x18(%ebp),%eax
  1065e3:	89 44 24 04          	mov    %eax,0x4(%esp)
  1065e7:	8b 45 10             	mov    0x10(%ebp),%eax
  1065ea:	89 04 24             	mov    %eax,(%esp)
  1065ed:	e8 06 ef ff ff       	call   1054f8 <strnlen>
  1065f2:	89 45 f0             	mov    %eax,-0x10(%ebp)
  1065f5:	8b 45 1c             	mov    0x1c(%ebp),%eax
  1065f8:	83 e0 10             	and    $0x10,%eax
  1065fb:	85 c0                	test   %eax,%eax
  1065fd:	75 21                	jne    106620 <_ZL6stringPcS_S_iii+0x5f>
  1065ff:	eb 0c                	jmp    10660d <_ZL6stringPcS_S_iii+0x4c>
  106601:	8b 45 08             	mov    0x8(%ebp),%eax
  106604:	8d 50 01             	lea    0x1(%eax),%edx
  106607:	89 55 08             	mov    %edx,0x8(%ebp)
  10660a:	c6 00 20             	movb   $0x20,(%eax)
  10660d:	8b 45 14             	mov    0x14(%ebp),%eax
  106610:	8d 50 ff             	lea    -0x1(%eax),%edx
  106613:	89 55 14             	mov    %edx,0x14(%ebp)
  106616:	3b 45 f0             	cmp    -0x10(%ebp),%eax
  106619:	0f 9f c0             	setg   %al
  10661c:	84 c0                	test   %al,%al
  10661e:	75 e1                	jne    106601 <_ZL6stringPcS_S_iii+0x40>
  106620:	c7 45 f4 00 00 00 00 	movl   $0x0,-0xc(%ebp)
  106627:	eb 1b                	jmp    106644 <_ZL6stringPcS_S_iii+0x83>
  106629:	8b 45 08             	mov    0x8(%ebp),%eax
  10662c:	8d 50 01             	lea    0x1(%eax),%edx
  10662f:	89 55 08             	mov    %edx,0x8(%ebp)
  106632:	8b 55 10             	mov    0x10(%ebp),%edx
  106635:	8d 4a 01             	lea    0x1(%edx),%ecx
  106638:	89 4d 10             	mov    %ecx,0x10(%ebp)
  10663b:	0f b6 12             	movzbl (%edx),%edx
  10663e:	88 10                	mov    %dl,(%eax)
  106640:	83 45 f4 01          	addl   $0x1,-0xc(%ebp)
  106644:	8b 45 f4             	mov    -0xc(%ebp),%eax
  106647:	3b 45 f0             	cmp    -0x10(%ebp),%eax
  10664a:	7c dd                	jl     106629 <_ZL6stringPcS_S_iii+0x68>
  10664c:	eb 0c                	jmp    10665a <_ZL6stringPcS_S_iii+0x99>
  10664e:	8b 45 08             	mov    0x8(%ebp),%eax
  106651:	8d 50 01             	lea    0x1(%eax),%edx
  106654:	89 55 08             	mov    %edx,0x8(%ebp)
  106657:	c6 00 20             	movb   $0x20,(%eax)
  10665a:	8b 45 14             	mov    0x14(%ebp),%eax
  10665d:	8d 50 ff             	lea    -0x1(%eax),%edx
  106660:	89 55 14             	mov    %edx,0x14(%ebp)
  106663:	3b 45 f0             	cmp    -0x10(%ebp),%eax
  106666:	0f 9f c0             	setg   %al
  106669:	84 c0                	test   %al,%al
  10666b:	75 e1                	jne    10664e <_ZL6stringPcS_S_iii+0x8d>
  10666d:	8b 45 08             	mov    0x8(%ebp),%eax
  106670:	c9                   	leave  
  106671:	c3                   	ret    

00106672 <_ZL7pointerPKcPcS1_Pviii>:
  106672:	55                   	push   %ebp
  106673:	89 e5                	mov    %esp,%ebp
  106675:	83 ec 28             	sub    $0x28,%esp
  106678:	83 4d 20 20          	orl    $0x20,0x20(%ebp)
  10667c:	83 7d 18 ff          	cmpl   $0xffffffff,0x18(%ebp)
  106680:	75 0c                	jne    10668e <_ZL7pointerPKcPcS1_Pviii+0x1c>
  106682:	b8 08 00 00 00       	mov    $0x8,%eax
  106687:	89 45 18             	mov    %eax,0x18(%ebp)
  10668a:	83 4d 20 01          	orl    $0x1,0x20(%ebp)
  10668e:	8b 45 14             	mov    0x14(%ebp),%eax
  106691:	ba 00 00 00 00       	mov    $0x0,%edx
  106696:	8b 4d 20             	mov    0x20(%ebp),%ecx
  106699:	89 4c 24 1c          	mov    %ecx,0x1c(%esp)
  10669d:	8b 4d 1c             	mov    0x1c(%ebp),%ecx
  1066a0:	89 4c 24 18          	mov    %ecx,0x18(%esp)
  1066a4:	8b 4d 18             	mov    0x18(%ebp),%ecx
  1066a7:	89 4c 24 14          	mov    %ecx,0x14(%esp)
  1066ab:	c7 44 24 10 10 00 00 	movl   $0x10,0x10(%esp)
  1066b2:	00 
  1066b3:	89 44 24 08          	mov    %eax,0x8(%esp)
  1066b7:	89 54 24 0c          	mov    %edx,0xc(%esp)
  1066bb:	8b 45 10             	mov    0x10(%ebp),%eax
  1066be:	89 44 24 04          	mov    %eax,0x4(%esp)
  1066c2:	8b 45 0c             	mov    0xc(%ebp),%eax
  1066c5:	89 04 24             	mov    %eax,(%esp)
  1066c8:	e8 55 fc ff ff       	call   106322 <_ZL6numberPcS_yiiii>
  1066cd:	c9                   	leave  
  1066ce:	c3                   	ret    

001066cf <_ZL18vsnprintf_internalPcjPKcS_>:
  1066cf:	55                   	push   %ebp
  1066d0:	89 e5                	mov    %esp,%ebp
  1066d2:	83 ec 58             	sub    $0x58,%esp
  1066d5:	8b 45 0c             	mov    0xc(%ebp),%eax
  1066d8:	8b 55 08             	mov    0x8(%ebp),%edx
  1066db:	01 d0                	add    %edx,%eax
  1066dd:	89 45 d4             	mov    %eax,-0x2c(%ebp)
  1066e0:	8b 45 08             	mov    0x8(%ebp),%eax
  1066e3:	89 45 e8             	mov    %eax,-0x18(%ebp)
  1066e6:	e9 c2 04 00 00       	jmp    106bad <_ZL18vsnprintf_internalPcjPKcS_+0x4de>
  1066eb:	8b 45 10             	mov    0x10(%ebp),%eax
  1066ee:	0f b6 00             	movzbl (%eax),%eax
  1066f1:	3c 25                	cmp    $0x25,%al
  1066f3:	74 16                	je     10670b <_ZL18vsnprintf_internalPcjPKcS_+0x3c>
  1066f5:	8b 45 e8             	mov    -0x18(%ebp),%eax
  1066f8:	8d 50 01             	lea    0x1(%eax),%edx
  1066fb:	89 55 e8             	mov    %edx,-0x18(%ebp)
  1066fe:	8b 55 10             	mov    0x10(%ebp),%edx
  106701:	0f b6 12             	movzbl (%edx),%edx
  106704:	88 10                	mov    %dl,(%eax)
  106706:	e9 99 04 00 00       	jmp    106ba4 <_ZL18vsnprintf_internalPcjPKcS_+0x4d5>
  10670b:	c7 45 e4 00 00 00 00 	movl   $0x0,-0x1c(%ebp)
  106712:	8b 45 10             	mov    0x10(%ebp),%eax
  106715:	83 c0 01             	add    $0x1,%eax
  106718:	89 45 10             	mov    %eax,0x10(%ebp)
  10671b:	8b 45 10             	mov    0x10(%ebp),%eax
  10671e:	0f b6 00             	movzbl (%eax),%eax
  106721:	0f be c0             	movsbl %al,%eax
  106724:	83 e8 20             	sub    $0x20,%eax
  106727:	83 f8 10             	cmp    $0x10,%eax
  10672a:	77 27                	ja     106753 <_ZL18vsnprintf_internalPcjPKcS_+0x84>
  10672c:	8b 04 85 6c 8e 10 00 	mov    0x108e6c(,%eax,4),%eax
  106733:	ff e0                	jmp    *%eax
  106735:	83 4d e4 10          	orl    $0x10,-0x1c(%ebp)
  106739:	eb d7                	jmp    106712 <_ZL18vsnprintf_internalPcjPKcS_+0x43>
  10673b:	83 4d e4 04          	orl    $0x4,-0x1c(%ebp)
  10673f:	eb d1                	jmp    106712 <_ZL18vsnprintf_internalPcjPKcS_+0x43>
  106741:	83 4d e4 08          	orl    $0x8,-0x1c(%ebp)
  106745:	eb cb                	jmp    106712 <_ZL18vsnprintf_internalPcjPKcS_+0x43>
  106747:	83 4d e4 40          	orl    $0x40,-0x1c(%ebp)
  10674b:	eb c5                	jmp    106712 <_ZL18vsnprintf_internalPcjPKcS_+0x43>
  10674d:	83 4d e4 01          	orl    $0x1,-0x1c(%ebp)
  106751:	eb bf                	jmp    106712 <_ZL18vsnprintf_internalPcjPKcS_+0x43>
  106753:	c7 45 e0 ff ff ff ff 	movl   $0xffffffff,-0x20(%ebp)
  10675a:	8b 45 10             	mov    0x10(%ebp),%eax
  10675d:	0f b6 00             	movzbl (%eax),%eax
  106760:	3c 2f                	cmp    $0x2f,%al
  106762:	7e 1a                	jle    10677e <_ZL18vsnprintf_internalPcjPKcS_+0xaf>
  106764:	8b 45 10             	mov    0x10(%ebp),%eax
  106767:	0f b6 00             	movzbl (%eax),%eax
  10676a:	3c 39                	cmp    $0x39,%al
  10676c:	7f 10                	jg     10677e <_ZL18vsnprintf_internalPcjPKcS_+0xaf>
  10676e:	8d 45 10             	lea    0x10(%ebp),%eax
  106771:	89 04 24             	mov    %eax,(%esp)
  106774:	e8 b3 f7 ff ff       	call   105f2c <_ZL9skip_atoiPPKc>
  106779:	89 45 e0             	mov    %eax,-0x20(%ebp)
  10677c:	eb 2e                	jmp    1067ac <_ZL18vsnprintf_internalPcjPKcS_+0xdd>
  10677e:	8b 45 10             	mov    0x10(%ebp),%eax
  106781:	0f b6 00             	movzbl (%eax),%eax
  106784:	3c 2a                	cmp    $0x2a,%al
  106786:	75 24                	jne    1067ac <_ZL18vsnprintf_internalPcjPKcS_+0xdd>
  106788:	8b 45 10             	mov    0x10(%ebp),%eax
  10678b:	83 c0 01             	add    $0x1,%eax
  10678e:	89 45 10             	mov    %eax,0x10(%ebp)
  106791:	8b 45 14             	mov    0x14(%ebp),%eax
  106794:	8d 50 04             	lea    0x4(%eax),%edx
  106797:	89 55 14             	mov    %edx,0x14(%ebp)
  10679a:	8b 00                	mov    (%eax),%eax
  10679c:	89 45 e0             	mov    %eax,-0x20(%ebp)
  10679f:	83 7d e0 00          	cmpl   $0x0,-0x20(%ebp)
  1067a3:	79 07                	jns    1067ac <_ZL18vsnprintf_internalPcjPKcS_+0xdd>
  1067a5:	f7 5d e0             	negl   -0x20(%ebp)
  1067a8:	83 4d e4 10          	orl    $0x10,-0x1c(%ebp)
  1067ac:	c7 45 dc ff ff ff ff 	movl   $0xffffffff,-0x24(%ebp)
  1067b3:	8b 45 10             	mov    0x10(%ebp),%eax
  1067b6:	0f b6 00             	movzbl (%eax),%eax
  1067b9:	3c 2e                	cmp    $0x2e,%al
  1067bb:	75 5b                	jne    106818 <_ZL18vsnprintf_internalPcjPKcS_+0x149>
  1067bd:	8b 45 10             	mov    0x10(%ebp),%eax
  1067c0:	83 c0 01             	add    $0x1,%eax
  1067c3:	89 45 10             	mov    %eax,0x10(%ebp)
  1067c6:	8b 45 10             	mov    0x10(%ebp),%eax
  1067c9:	0f b6 00             	movzbl (%eax),%eax
  1067cc:	3c 2f                	cmp    $0x2f,%al
  1067ce:	7e 1a                	jle    1067ea <_ZL18vsnprintf_internalPcjPKcS_+0x11b>
  1067d0:	8b 45 10             	mov    0x10(%ebp),%eax
  1067d3:	0f b6 00             	movzbl (%eax),%eax
  1067d6:	3c 39                	cmp    $0x39,%al
  1067d8:	7f 10                	jg     1067ea <_ZL18vsnprintf_internalPcjPKcS_+0x11b>
  1067da:	8d 45 10             	lea    0x10(%ebp),%eax
  1067dd:	89 04 24             	mov    %eax,(%esp)
  1067e0:	e8 47 f7 ff ff       	call   105f2c <_ZL9skip_atoiPPKc>
  1067e5:	89 45 dc             	mov    %eax,-0x24(%ebp)
  1067e8:	eb 21                	jmp    10680b <_ZL18vsnprintf_internalPcjPKcS_+0x13c>
  1067ea:	8b 45 10             	mov    0x10(%ebp),%eax
  1067ed:	0f b6 00             	movzbl (%eax),%eax
  1067f0:	3c 2a                	cmp    $0x2a,%al
  1067f2:	75 17                	jne    10680b <_ZL18vsnprintf_internalPcjPKcS_+0x13c>
  1067f4:	8b 45 10             	mov    0x10(%ebp),%eax
  1067f7:	83 c0 01             	add    $0x1,%eax
  1067fa:	89 45 10             	mov    %eax,0x10(%ebp)
  1067fd:	8b 45 14             	mov    0x14(%ebp),%eax
  106800:	8d 50 04             	lea    0x4(%eax),%edx
  106803:	89 55 14             	mov    %edx,0x14(%ebp)
  106806:	8b 00                	mov    (%eax),%eax
  106808:	89 45 dc             	mov    %eax,-0x24(%ebp)
  10680b:	83 7d dc 00          	cmpl   $0x0,-0x24(%ebp)
  10680f:	79 07                	jns    106818 <_ZL18vsnprintf_internalPcjPKcS_+0x149>
  106811:	c7 45 dc 00 00 00 00 	movl   $0x0,-0x24(%ebp)
  106818:	c7 45 d8 ff ff ff ff 	movl   $0xffffffff,-0x28(%ebp)
  10681f:	8b 45 10             	mov    0x10(%ebp),%eax
  106822:	0f b6 00             	movzbl (%eax),%eax
  106825:	3c 68                	cmp    $0x68,%al
  106827:	74 32                	je     10685b <_ZL18vsnprintf_internalPcjPKcS_+0x18c>
  106829:	8b 45 10             	mov    0x10(%ebp),%eax
  10682c:	0f b6 00             	movzbl (%eax),%eax
  10682f:	3c 6c                	cmp    $0x6c,%al
  106831:	74 28                	je     10685b <_ZL18vsnprintf_internalPcjPKcS_+0x18c>
  106833:	8b 45 10             	mov    0x10(%ebp),%eax
  106836:	0f b6 00             	movzbl (%eax),%eax
  106839:	3c 4c                	cmp    $0x4c,%al
  10683b:	74 1e                	je     10685b <_ZL18vsnprintf_internalPcjPKcS_+0x18c>
  10683d:	8b 45 10             	mov    0x10(%ebp),%eax
  106840:	0f b6 00             	movzbl (%eax),%eax
  106843:	3c 5a                	cmp    $0x5a,%al
  106845:	74 14                	je     10685b <_ZL18vsnprintf_internalPcjPKcS_+0x18c>
  106847:	8b 45 10             	mov    0x10(%ebp),%eax
  10684a:	0f b6 00             	movzbl (%eax),%eax
  10684d:	3c 7a                	cmp    $0x7a,%al
  10684f:	74 0a                	je     10685b <_ZL18vsnprintf_internalPcjPKcS_+0x18c>
  106851:	8b 45 10             	mov    0x10(%ebp),%eax
  106854:	0f b6 00             	movzbl (%eax),%eax
  106857:	3c 74                	cmp    $0x74,%al
  106859:	75 35                	jne    106890 <_ZL18vsnprintf_internalPcjPKcS_+0x1c1>
  10685b:	8b 45 10             	mov    0x10(%ebp),%eax
  10685e:	0f b6 00             	movzbl (%eax),%eax
  106861:	0f be c0             	movsbl %al,%eax
  106864:	89 45 d8             	mov    %eax,-0x28(%ebp)
  106867:	8b 45 10             	mov    0x10(%ebp),%eax
  10686a:	83 c0 01             	add    $0x1,%eax
  10686d:	89 45 10             	mov    %eax,0x10(%ebp)
  106870:	83 7d d8 6c          	cmpl   $0x6c,-0x28(%ebp)
  106874:	75 1a                	jne    106890 <_ZL18vsnprintf_internalPcjPKcS_+0x1c1>
  106876:	8b 45 10             	mov    0x10(%ebp),%eax
  106879:	0f b6 00             	movzbl (%eax),%eax
  10687c:	3c 6c                	cmp    $0x6c,%al
  10687e:	75 10                	jne    106890 <_ZL18vsnprintf_internalPcjPKcS_+0x1c1>
  106880:	c7 45 d8 4c 00 00 00 	movl   $0x4c,-0x28(%ebp)
  106887:	8b 45 10             	mov    0x10(%ebp),%eax
  10688a:	83 c0 01             	add    $0x1,%eax
  10688d:	89 45 10             	mov    %eax,0x10(%ebp)
  106890:	c7 45 ec 0a 00 00 00 	movl   $0xa,-0x14(%ebp)
  106897:	8b 45 10             	mov    0x10(%ebp),%eax
  10689a:	0f b6 00             	movzbl (%eax),%eax
  10689d:	0f be c0             	movsbl %al,%eax
  1068a0:	83 e8 25             	sub    $0x25,%eax
  1068a3:	83 f8 53             	cmp    $0x53,%eax
  1068a6:	0f 87 89 01 00 00    	ja     106a35 <_ZL18vsnprintf_internalPcjPKcS_+0x366>
  1068ac:	8b 04 85 b0 8e 10 00 	mov    0x108eb0(,%eax,4),%eax
  1068b3:	ff e0                	jmp    *%eax
  1068b5:	8b 45 e4             	mov    -0x1c(%ebp),%eax
  1068b8:	83 e0 10             	and    $0x10,%eax
  1068bb:	85 c0                	test   %eax,%eax
  1068bd:	75 1d                	jne    1068dc <_ZL18vsnprintf_internalPcjPKcS_+0x20d>
  1068bf:	eb 0c                	jmp    1068cd <_ZL18vsnprintf_internalPcjPKcS_+0x1fe>
  1068c1:	8b 45 e8             	mov    -0x18(%ebp),%eax
  1068c4:	8d 50 01             	lea    0x1(%eax),%edx
  1068c7:	89 55 e8             	mov    %edx,-0x18(%ebp)
  1068ca:	c6 00 20             	movb   $0x20,(%eax)
  1068cd:	83 6d e0 01          	subl   $0x1,-0x20(%ebp)
  1068d1:	83 7d e0 00          	cmpl   $0x0,-0x20(%ebp)
  1068d5:	0f 9f c0             	setg   %al
  1068d8:	84 c0                	test   %al,%al
  1068da:	75 e5                	jne    1068c1 <_ZL18vsnprintf_internalPcjPKcS_+0x1f2>
  1068dc:	8b 45 e8             	mov    -0x18(%ebp),%eax
  1068df:	8d 50 01             	lea    0x1(%eax),%edx
  1068e2:	89 55 e8             	mov    %edx,-0x18(%ebp)
  1068e5:	8b 55 14             	mov    0x14(%ebp),%edx
  1068e8:	8d 4a 04             	lea    0x4(%edx),%ecx
  1068eb:	89 4d 14             	mov    %ecx,0x14(%ebp)
  1068ee:	8b 12                	mov    (%edx),%edx
  1068f0:	88 10                	mov    %dl,(%eax)
  1068f2:	eb 0c                	jmp    106900 <_ZL18vsnprintf_internalPcjPKcS_+0x231>
  1068f4:	8b 45 e8             	mov    -0x18(%ebp),%eax
  1068f7:	8d 50 01             	lea    0x1(%eax),%edx
  1068fa:	89 55 e8             	mov    %edx,-0x18(%ebp)
  1068fd:	c6 00 20             	movb   $0x20,(%eax)
  106900:	83 6d e0 01          	subl   $0x1,-0x20(%ebp)
  106904:	83 7d e0 00          	cmpl   $0x0,-0x20(%ebp)
  106908:	0f 9f c0             	setg   %al
  10690b:	84 c0                	test   %al,%al
  10690d:	75 e5                	jne    1068f4 <_ZL18vsnprintf_internalPcjPKcS_+0x225>
  10690f:	e9 90 02 00 00       	jmp    106ba4 <_ZL18vsnprintf_internalPcjPKcS_+0x4d5>
  106914:	8b 45 14             	mov    0x14(%ebp),%eax
  106917:	8d 50 04             	lea    0x4(%eax),%edx
  10691a:	89 55 14             	mov    %edx,0x14(%ebp)
  10691d:	8b 00                	mov    (%eax),%eax
  10691f:	8b 55 e4             	mov    -0x1c(%ebp),%edx
  106922:	89 54 24 14          	mov    %edx,0x14(%esp)
  106926:	8b 55 dc             	mov    -0x24(%ebp),%edx
  106929:	89 54 24 10          	mov    %edx,0x10(%esp)
  10692d:	8b 55 e0             	mov    -0x20(%ebp),%edx
  106930:	89 54 24 0c          	mov    %edx,0xc(%esp)
  106934:	89 44 24 08          	mov    %eax,0x8(%esp)
  106938:	8b 45 d4             	mov    -0x2c(%ebp),%eax
  10693b:	89 44 24 04          	mov    %eax,0x4(%esp)
  10693f:	8b 45 e8             	mov    -0x18(%ebp),%eax
  106942:	89 04 24             	mov    %eax,(%esp)
  106945:	e8 77 fc ff ff       	call   1065c1 <_ZL6stringPcS_S_iii>
  10694a:	89 45 e8             	mov    %eax,-0x18(%ebp)
  10694d:	e9 52 02 00 00       	jmp    106ba4 <_ZL18vsnprintf_internalPcjPKcS_+0x4d5>
  106952:	8b 45 14             	mov    0x14(%ebp),%eax
  106955:	8d 50 04             	lea    0x4(%eax),%edx
  106958:	89 55 14             	mov    %edx,0x14(%ebp)
  10695b:	8b 00                	mov    (%eax),%eax
  10695d:	8b 55 10             	mov    0x10(%ebp),%edx
  106960:	8d 4a 01             	lea    0x1(%edx),%ecx
  106963:	8b 55 e4             	mov    -0x1c(%ebp),%edx
  106966:	89 54 24 18          	mov    %edx,0x18(%esp)
  10696a:	8b 55 dc             	mov    -0x24(%ebp),%edx
  10696d:	89 54 24 14          	mov    %edx,0x14(%esp)
  106971:	8b 55 e0             	mov    -0x20(%ebp),%edx
  106974:	89 54 24 10          	mov    %edx,0x10(%esp)
  106978:	89 44 24 0c          	mov    %eax,0xc(%esp)
  10697c:	8b 45 d4             	mov    -0x2c(%ebp),%eax
  10697f:	89 44 24 08          	mov    %eax,0x8(%esp)
  106983:	8b 45 e8             	mov    -0x18(%ebp),%eax
  106986:	89 44 24 04          	mov    %eax,0x4(%esp)
  10698a:	89 0c 24             	mov    %ecx,(%esp)
  10698d:	e8 e0 fc ff ff       	call   106672 <_ZL7pointerPKcPcS1_Pviii>
  106992:	89 45 e8             	mov    %eax,-0x18(%ebp)
  106995:	eb 09                	jmp    1069a0 <_ZL18vsnprintf_internalPcjPKcS_+0x2d1>
  106997:	8b 45 10             	mov    0x10(%ebp),%eax
  10699a:	83 c0 01             	add    $0x1,%eax
  10699d:	89 45 10             	mov    %eax,0x10(%ebp)
  1069a0:	8b 45 10             	mov    0x10(%ebp),%eax
  1069a3:	83 c0 01             	add    $0x1,%eax
  1069a6:	0f b6 00             	movzbl (%eax),%eax
  1069a9:	0f b6 c0             	movzbl %al,%eax
  1069ac:	0f b6 80 60 8d 10 00 	movzbl 0x108d60(%eax),%eax
  1069b3:	0f b6 c0             	movzbl %al,%eax
  1069b6:	83 e0 07             	and    $0x7,%eax
  1069b9:	85 c0                	test   %eax,%eax
  1069bb:	75 da                	jne    106997 <_ZL18vsnprintf_internalPcjPKcS_+0x2c8>
  1069bd:	e9 e2 01 00 00       	jmp    106ba4 <_ZL18vsnprintf_internalPcjPKcS_+0x4d5>
  1069c2:	83 7d d8 6c          	cmpl   $0x6c,-0x28(%ebp)
  1069c6:	75 20                	jne    1069e8 <_ZL18vsnprintf_internalPcjPKcS_+0x319>
  1069c8:	8b 45 14             	mov    0x14(%ebp),%eax
  1069cb:	8d 50 04             	lea    0x4(%eax),%edx
  1069ce:	89 55 14             	mov    %edx,0x14(%ebp)
  1069d1:	8b 00                	mov    (%eax),%eax
  1069d3:	89 45 d0             	mov    %eax,-0x30(%ebp)
  1069d6:	8b 55 e8             	mov    -0x18(%ebp),%edx
  1069d9:	8b 45 08             	mov    0x8(%ebp),%eax
  1069dc:	29 c2                	sub    %eax,%edx
  1069de:	8b 45 d0             	mov    -0x30(%ebp),%eax
  1069e1:	89 10                	mov    %edx,(%eax)
  1069e3:	e9 bc 01 00 00       	jmp    106ba4 <_ZL18vsnprintf_internalPcjPKcS_+0x4d5>
  1069e8:	8b 45 14             	mov    0x14(%ebp),%eax
  1069eb:	8d 50 04             	lea    0x4(%eax),%edx
  1069ee:	89 55 14             	mov    %edx,0x14(%ebp)
  1069f1:	8b 00                	mov    (%eax),%eax
  1069f3:	89 45 cc             	mov    %eax,-0x34(%ebp)
  1069f6:	8b 55 e8             	mov    -0x18(%ebp),%edx
  1069f9:	8b 45 08             	mov    0x8(%ebp),%eax
  1069fc:	29 c2                	sub    %eax,%edx
  1069fe:	8b 45 cc             	mov    -0x34(%ebp),%eax
  106a01:	89 10                	mov    %edx,(%eax)
  106a03:	e9 9c 01 00 00       	jmp    106ba4 <_ZL18vsnprintf_internalPcjPKcS_+0x4d5>
  106a08:	8b 45 e8             	mov    -0x18(%ebp),%eax
  106a0b:	8d 50 01             	lea    0x1(%eax),%edx
  106a0e:	89 55 e8             	mov    %edx,-0x18(%ebp)
  106a11:	c6 00 25             	movb   $0x25,(%eax)
  106a14:	e9 8b 01 00 00       	jmp    106ba4 <_ZL18vsnprintf_internalPcjPKcS_+0x4d5>
  106a19:	c7 45 ec 08 00 00 00 	movl   $0x8,-0x14(%ebp)
  106a20:	eb 4e                	jmp    106a70 <_ZL18vsnprintf_internalPcjPKcS_+0x3a1>
  106a22:	83 4d e4 20          	orl    $0x20,-0x1c(%ebp)
  106a26:	c7 45 ec 10 00 00 00 	movl   $0x10,-0x14(%ebp)
  106a2d:	eb 41                	jmp    106a70 <_ZL18vsnprintf_internalPcjPKcS_+0x3a1>
  106a2f:	83 4d e4 02          	orl    $0x2,-0x1c(%ebp)
  106a33:	eb 3a                	jmp    106a6f <_ZL18vsnprintf_internalPcjPKcS_+0x3a0>
  106a35:	8b 45 e8             	mov    -0x18(%ebp),%eax
  106a38:	8d 50 01             	lea    0x1(%eax),%edx
  106a3b:	89 55 e8             	mov    %edx,-0x18(%ebp)
  106a3e:	c6 00 25             	movb   $0x25,(%eax)
  106a41:	8b 45 10             	mov    0x10(%ebp),%eax
  106a44:	0f b6 00             	movzbl (%eax),%eax
  106a47:	84 c0                	test   %al,%al
  106a49:	74 16                	je     106a61 <_ZL18vsnprintf_internalPcjPKcS_+0x392>
  106a4b:	8b 45 e8             	mov    -0x18(%ebp),%eax
  106a4e:	8d 50 01             	lea    0x1(%eax),%edx
  106a51:	89 55 e8             	mov    %edx,-0x18(%ebp)
  106a54:	8b 55 10             	mov    0x10(%ebp),%edx
  106a57:	0f b6 12             	movzbl (%edx),%edx
  106a5a:	88 10                	mov    %dl,(%eax)
  106a5c:	e9 43 01 00 00       	jmp    106ba4 <_ZL18vsnprintf_internalPcjPKcS_+0x4d5>
  106a61:	8b 45 10             	mov    0x10(%ebp),%eax
  106a64:	83 e8 01             	sub    $0x1,%eax
  106a67:	89 45 10             	mov    %eax,0x10(%ebp)
  106a6a:	e9 35 01 00 00       	jmp    106ba4 <_ZL18vsnprintf_internalPcjPKcS_+0x4d5>
  106a6f:	90                   	nop
  106a70:	83 7d d8 4c          	cmpl   $0x4c,-0x28(%ebp)
  106a74:	75 19                	jne    106a8f <_ZL18vsnprintf_internalPcjPKcS_+0x3c0>
  106a76:	8b 45 14             	mov    0x14(%ebp),%eax
  106a79:	8d 50 08             	lea    0x8(%eax),%edx
  106a7c:	89 55 14             	mov    %edx,0x14(%ebp)
  106a7f:	8b 50 04             	mov    0x4(%eax),%edx
  106a82:	8b 00                	mov    (%eax),%eax
  106a84:	89 45 f0             	mov    %eax,-0x10(%ebp)
  106a87:	89 55 f4             	mov    %edx,-0xc(%ebp)
  106a8a:	e9 d6 00 00 00       	jmp    106b65 <_ZL18vsnprintf_internalPcjPKcS_+0x496>
  106a8f:	83 7d d8 6c          	cmpl   $0x6c,-0x28(%ebp)
  106a93:	75 32                	jne    106ac7 <_ZL18vsnprintf_internalPcjPKcS_+0x3f8>
  106a95:	8b 45 14             	mov    0x14(%ebp),%eax
  106a98:	8d 50 04             	lea    0x4(%eax),%edx
  106a9b:	89 55 14             	mov    %edx,0x14(%ebp)
  106a9e:	8b 00                	mov    (%eax),%eax
  106aa0:	89 45 f0             	mov    %eax,-0x10(%ebp)
  106aa3:	c7 45 f4 00 00 00 00 	movl   $0x0,-0xc(%ebp)
  106aaa:	8b 45 e4             	mov    -0x1c(%ebp),%eax
  106aad:	83 e0 02             	and    $0x2,%eax
  106ab0:	85 c0                	test   %eax,%eax
  106ab2:	0f 84 ad 00 00 00    	je     106b65 <_ZL18vsnprintf_internalPcjPKcS_+0x496>
  106ab8:	8b 45 f0             	mov    -0x10(%ebp),%eax
  106abb:	99                   	cltd   
  106abc:	89 45 f0             	mov    %eax,-0x10(%ebp)
  106abf:	89 55 f4             	mov    %edx,-0xc(%ebp)
  106ac2:	e9 9e 00 00 00       	jmp    106b65 <_ZL18vsnprintf_internalPcjPKcS_+0x496>
  106ac7:	83 7d d8 5a          	cmpl   $0x5a,-0x28(%ebp)
  106acb:	74 06                	je     106ad3 <_ZL18vsnprintf_internalPcjPKcS_+0x404>
  106acd:	83 7d d8 7a          	cmpl   $0x7a,-0x28(%ebp)
  106ad1:	75 17                	jne    106aea <_ZL18vsnprintf_internalPcjPKcS_+0x41b>
  106ad3:	8b 45 14             	mov    0x14(%ebp),%eax
  106ad6:	8d 50 04             	lea    0x4(%eax),%edx
  106ad9:	89 55 14             	mov    %edx,0x14(%ebp)
  106adc:	8b 00                	mov    (%eax),%eax
  106ade:	89 45 f0             	mov    %eax,-0x10(%ebp)
  106ae1:	c7 45 f4 00 00 00 00 	movl   $0x0,-0xc(%ebp)
  106ae8:	eb 7b                	jmp    106b65 <_ZL18vsnprintf_internalPcjPKcS_+0x496>
  106aea:	83 7d d8 74          	cmpl   $0x74,-0x28(%ebp)
  106aee:	75 17                	jne    106b07 <_ZL18vsnprintf_internalPcjPKcS_+0x438>
  106af0:	8b 45 14             	mov    0x14(%ebp),%eax
  106af3:	8d 50 04             	lea    0x4(%eax),%edx
  106af6:	89 55 14             	mov    %edx,0x14(%ebp)
  106af9:	8b 00                	mov    (%eax),%eax
  106afb:	89 45 f0             	mov    %eax,-0x10(%ebp)
  106afe:	c7 45 f4 00 00 00 00 	movl   $0x0,-0xc(%ebp)
  106b05:	eb 5e                	jmp    106b65 <_ZL18vsnprintf_internalPcjPKcS_+0x496>
  106b07:	83 7d d8 68          	cmpl   $0x68,-0x28(%ebp)
  106b0b:	75 2f                	jne    106b3c <_ZL18vsnprintf_internalPcjPKcS_+0x46d>
  106b0d:	8b 45 14             	mov    0x14(%ebp),%eax
  106b10:	8d 50 04             	lea    0x4(%eax),%edx
  106b13:	89 55 14             	mov    %edx,0x14(%ebp)
  106b16:	8b 00                	mov    (%eax),%eax
  106b18:	0f b7 c0             	movzwl %ax,%eax
  106b1b:	89 45 f0             	mov    %eax,-0x10(%ebp)
  106b1e:	c7 45 f4 00 00 00 00 	movl   $0x0,-0xc(%ebp)
  106b25:	8b 45 e4             	mov    -0x1c(%ebp),%eax
  106b28:	83 e0 02             	and    $0x2,%eax
  106b2b:	85 c0                	test   %eax,%eax
  106b2d:	74 36                	je     106b65 <_ZL18vsnprintf_internalPcjPKcS_+0x496>
  106b2f:	8b 45 f0             	mov    -0x10(%ebp),%eax
  106b32:	98                   	cwtl   
  106b33:	99                   	cltd   
  106b34:	89 45 f0             	mov    %eax,-0x10(%ebp)
  106b37:	89 55 f4             	mov    %edx,-0xc(%ebp)
  106b3a:	eb 29                	jmp    106b65 <_ZL18vsnprintf_internalPcjPKcS_+0x496>
  106b3c:	8b 45 14             	mov    0x14(%ebp),%eax
  106b3f:	8d 50 04             	lea    0x4(%eax),%edx
  106b42:	89 55 14             	mov    %edx,0x14(%ebp)
  106b45:	8b 00                	mov    (%eax),%eax
  106b47:	89 45 f0             	mov    %eax,-0x10(%ebp)
  106b4a:	c7 45 f4 00 00 00 00 	movl   $0x0,-0xc(%ebp)
  106b51:	8b 45 e4             	mov    -0x1c(%ebp),%eax
  106b54:	83 e0 02             	and    $0x2,%eax
  106b57:	85 c0                	test   %eax,%eax
  106b59:	74 0a                	je     106b65 <_ZL18vsnprintf_internalPcjPKcS_+0x496>
  106b5b:	8b 45 f0             	mov    -0x10(%ebp),%eax
  106b5e:	99                   	cltd   
  106b5f:	89 45 f0             	mov    %eax,-0x10(%ebp)
  106b62:	89 55 f4             	mov    %edx,-0xc(%ebp)
  106b65:	8b 45 e4             	mov    -0x1c(%ebp),%eax
  106b68:	89 44 24 1c          	mov    %eax,0x1c(%esp)
  106b6c:	8b 45 dc             	mov    -0x24(%ebp),%eax
  106b6f:	89 44 24 18          	mov    %eax,0x18(%esp)
  106b73:	8b 45 e0             	mov    -0x20(%ebp),%eax
  106b76:	89 44 24 14          	mov    %eax,0x14(%esp)
  106b7a:	8b 45 ec             	mov    -0x14(%ebp),%eax
  106b7d:	89 44 24 10          	mov    %eax,0x10(%esp)
  106b81:	8b 45 f0             	mov    -0x10(%ebp),%eax
  106b84:	8b 55 f4             	mov    -0xc(%ebp),%edx
  106b87:	89 44 24 08          	mov    %eax,0x8(%esp)
  106b8b:	89 54 24 0c          	mov    %edx,0xc(%esp)
  106b8f:	8b 45 d4             	mov    -0x2c(%ebp),%eax
  106b92:	89 44 24 04          	mov    %eax,0x4(%esp)
  106b96:	8b 45 e8             	mov    -0x18(%ebp),%eax
  106b99:	89 04 24             	mov    %eax,(%esp)
  106b9c:	e8 81 f7 ff ff       	call   106322 <_ZL6numberPcS_yiiii>
  106ba1:	89 45 e8             	mov    %eax,-0x18(%ebp)
  106ba4:	8b 45 10             	mov    0x10(%ebp),%eax
  106ba7:	83 c0 01             	add    $0x1,%eax
  106baa:	89 45 10             	mov    %eax,0x10(%ebp)
  106bad:	8b 45 10             	mov    0x10(%ebp),%eax
  106bb0:	0f b6 00             	movzbl (%eax),%eax
  106bb3:	84 c0                	test   %al,%al
  106bb5:	0f 85 30 fb ff ff    	jne    1066eb <_ZL18vsnprintf_internalPcjPKcS_+0x1c>
  106bbb:	8b 45 e8             	mov    -0x18(%ebp),%eax
  106bbe:	c6 00 00             	movb   $0x0,(%eax)
  106bc1:	8b 55 e8             	mov    -0x18(%ebp),%edx
  106bc4:	8b 45 08             	mov    0x8(%ebp),%eax
  106bc7:	29 c2                	sub    %eax,%edx
  106bc9:	89 d0                	mov    %edx,%eax
  106bcb:	c9                   	leave  
  106bcc:	c3                   	ret    

00106bcd <_Z8vsprintfPcPKcS_>:
  106bcd:	55                   	push   %ebp
  106bce:	89 e5                	mov    %esp,%ebp
  106bd0:	83 ec 18             	sub    $0x18,%esp
  106bd3:	8b 45 10             	mov    0x10(%ebp),%eax
  106bd6:	89 44 24 0c          	mov    %eax,0xc(%esp)
  106bda:	8b 45 0c             	mov    0xc(%ebp),%eax
  106bdd:	89 44 24 08          	mov    %eax,0x8(%esp)
  106be1:	c7 44 24 04 ff ff ff 	movl   $0x7fffffff,0x4(%esp)
  106be8:	7f 
  106be9:	8b 45 08             	mov    0x8(%ebp),%eax
  106bec:	89 04 24             	mov    %eax,(%esp)
  106bef:	e8 db fa ff ff       	call   1066cf <_ZL18vsnprintf_internalPcjPKcS_>
  106bf4:	c9                   	leave  
  106bf5:	c3                   	ret    

00106bf6 <_Z7sprintfPcPKcz>:
  106bf6:	55                   	push   %ebp
  106bf7:	89 e5                	mov    %esp,%ebp
  106bf9:	83 ec 28             	sub    $0x28,%esp
  106bfc:	8d 45 10             	lea    0x10(%ebp),%eax
  106bff:	89 45 f0             	mov    %eax,-0x10(%ebp)
  106c02:	8b 45 f0             	mov    -0x10(%ebp),%eax
  106c05:	89 44 24 08          	mov    %eax,0x8(%esp)
  106c09:	8b 45 0c             	mov    0xc(%ebp),%eax
  106c0c:	89 44 24 04          	mov    %eax,0x4(%esp)
  106c10:	8b 45 08             	mov    0x8(%ebp),%eax
  106c13:	89 04 24             	mov    %eax,(%esp)
  106c16:	e8 b2 ff ff ff       	call   106bcd <_Z8vsprintfPcPKcS_>
  106c1b:	89 45 f4             	mov    %eax,-0xc(%ebp)
  106c1e:	8b 45 f4             	mov    -0xc(%ebp),%eax
  106c21:	c9                   	leave  
  106c22:	c3                   	ret    

00106c23 <_Z11simple_itoam>:
  106c23:	55                   	push   %ebp
  106c24:	89 e5                	mov    %esp,%ebp
  106c26:	53                   	push   %ebx
  106c27:	83 ec 10             	sub    $0x10,%esp
  106c2a:	c7 45 f8 c1 c8 10 00 	movl   $0x10c8c1,-0x8(%ebp)
  106c31:	8b 45 f8             	mov    -0x8(%ebp),%eax
  106c34:	8d 50 ff             	lea    -0x1(%eax),%edx
  106c37:	89 55 f8             	mov    %edx,-0x8(%ebp)
  106c3a:	c6 00 00             	movb   $0x0,(%eax)
  106c3d:	8b 4d f8             	mov    -0x8(%ebp),%ecx
  106c40:	8d 41 ff             	lea    -0x1(%ecx),%eax
  106c43:	89 45 f8             	mov    %eax,-0x8(%ebp)
  106c46:	8b 5d 08             	mov    0x8(%ebp),%ebx
  106c49:	ba cd cc cc cc       	mov    $0xcccccccd,%edx
  106c4e:	89 d8                	mov    %ebx,%eax
  106c50:	f7 e2                	mul    %edx
  106c52:	c1 ea 03             	shr    $0x3,%edx
  106c55:	89 d0                	mov    %edx,%eax
  106c57:	c1 e0 02             	shl    $0x2,%eax
  106c5a:	01 d0                	add    %edx,%eax
  106c5c:	01 c0                	add    %eax,%eax
  106c5e:	29 c3                	sub    %eax,%ebx
  106c60:	89 da                	mov    %ebx,%edx
  106c62:	89 d0                	mov    %edx,%eax
  106c64:	83 c0 30             	add    $0x30,%eax
  106c67:	88 01                	mov    %al,(%ecx)
  106c69:	8b 45 08             	mov    0x8(%ebp),%eax
  106c6c:	ba cd cc cc cc       	mov    $0xcccccccd,%edx
  106c71:	f7 e2                	mul    %edx
  106c73:	89 d0                	mov    %edx,%eax
  106c75:	c1 e8 03             	shr    $0x3,%eax
  106c78:	89 45 08             	mov    %eax,0x8(%ebp)
  106c7b:	83 7d 08 00          	cmpl   $0x0,0x8(%ebp)
  106c7f:	75 bc                	jne    106c3d <_Z11simple_itoam+0x1a>
  106c81:	8b 45 f8             	mov    -0x8(%ebp),%eax
  106c84:	83 c0 01             	add    $0x1,%eax
  106c87:	83 c4 10             	add    $0x10,%esp
  106c8a:	5b                   	pop    %ebx
  106c8b:	5d                   	pop    %ebp
  106c8c:	c3                   	ret    

00106c8d <_ZL4outbth>:
  106c8d:	55                   	push   %ebp
  106c8e:	89 e5                	mov    %esp,%ebp
  106c90:	83 ec 08             	sub    $0x8,%esp
  106c93:	8b 55 08             	mov    0x8(%ebp),%edx
  106c96:	8b 45 0c             	mov    0xc(%ebp),%eax
  106c99:	66 89 55 fc          	mov    %dx,-0x4(%ebp)
  106c9d:	88 45 f8             	mov    %al,-0x8(%ebp)
  106ca0:	0f b7 55 fc          	movzwl -0x4(%ebp),%edx
  106ca4:	0f b6 45 f8          	movzbl -0x8(%ebp),%eax
  106ca8:	ee                   	out    %al,(%dx)
  106ca9:	c9                   	leave  
  106caa:	c3                   	ret    

00106cab <_ZL3inbt>:
  106cab:	55                   	push   %ebp
  106cac:	89 e5                	mov    %esp,%ebp
  106cae:	83 ec 14             	sub    $0x14,%esp
  106cb1:	8b 45 08             	mov    0x8(%ebp),%eax
  106cb4:	66 89 45 ec          	mov    %ax,-0x14(%ebp)
  106cb8:	0f b7 45 ec          	movzwl -0x14(%ebp),%eax
  106cbc:	89 c2                	mov    %eax,%edx
  106cbe:	ec                   	in     (%dx),%al
  106cbf:	88 45 ff             	mov    %al,-0x1(%ebp)
  106cc2:	0f b6 45 ff          	movzbl -0x1(%ebp),%eax
  106cc6:	c9                   	leave  
  106cc7:	c3                   	ret    

00106cc8 <_ZL29platform_abstract_irq_handlerP14interrupt_info>:
  106cc8:	55                   	push   %ebp
  106cc9:	89 e5                	mov    %esp,%ebp
  106ccb:	83 ec 08             	sub    $0x8,%esp
  106cce:	8b 45 08             	mov    0x8(%ebp),%eax
  106cd1:	8b 40 24             	mov    0x24(%eax),%eax
  106cd4:	83 f8 27             	cmp    $0x27,%eax
  106cd7:	76 14                	jbe    106ced <_ZL29platform_abstract_irq_handlerP14interrupt_info+0x25>
  106cd9:	c7 44 24 04 20 00 00 	movl   $0x20,0x4(%esp)
  106ce0:	00 
  106ce1:	c7 04 24 a0 00 00 00 	movl   $0xa0,(%esp)
  106ce8:	e8 a0 ff ff ff       	call   106c8d <_ZL4outbth>
  106ced:	8b 45 08             	mov    0x8(%ebp),%eax
  106cf0:	8b 40 24             	mov    0x24(%eax),%eax
  106cf3:	83 f8 1f             	cmp    $0x1f,%eax
  106cf6:	76 14                	jbe    106d0c <_ZL29platform_abstract_irq_handlerP14interrupt_info+0x44>
  106cf8:	c7 44 24 04 20 00 00 	movl   $0x20,0x4(%esp)
  106cff:	00 
  106d00:	c7 04 24 20 00 00 00 	movl   $0x20,(%esp)
  106d07:	e8 81 ff ff ff       	call   106c8d <_ZL4outbth>
  106d0c:	c9                   	leave  
  106d0d:	c3                   	ret    

00106d0e <debug_putchar>:
  106d0e:	55                   	push   %ebp
  106d0f:	89 e5                	mov    %esp,%ebp
  106d11:	53                   	push   %ebx
  106d12:	83 ec 24             	sub    $0x24,%esp
  106d15:	8b 45 08             	mov    0x8(%ebp),%eax
  106d18:	88 45 e4             	mov    %al,-0x1c(%ebp)
  106d1b:	0f be 45 e4          	movsbl -0x1c(%ebp),%eax
  106d1f:	83 f8 0a             	cmp    $0xa,%eax
  106d22:	74 07                	je     106d2b <debug_putchar+0x1d>
  106d24:	83 f8 0d             	cmp    $0xd,%eax
  106d27:	74 3d                	je     106d66 <debug_putchar+0x58>
  106d29:	eb 73                	jmp    106d9e <debug_putchar+0x90>
  106d2b:	8b 1d 20 93 10 00    	mov    0x109320,%ebx
  106d31:	8b 0d 20 93 10 00    	mov    0x109320,%ecx
  106d37:	ba 67 66 66 66       	mov    $0x66666667,%edx
  106d3c:	89 c8                	mov    %ecx,%eax
  106d3e:	f7 ea                	imul   %edx
  106d40:	c1 fa 05             	sar    $0x5,%edx
  106d43:	89 c8                	mov    %ecx,%eax
  106d45:	c1 f8 1f             	sar    $0x1f,%eax
  106d48:	29 c2                	sub    %eax,%edx
  106d4a:	89 d0                	mov    %edx,%eax
  106d4c:	c1 e0 02             	shl    $0x2,%eax
  106d4f:	01 d0                	add    %edx,%eax
  106d51:	c1 e0 04             	shl    $0x4,%eax
  106d54:	29 c1                	sub    %eax,%ecx
  106d56:	89 ca                	mov    %ecx,%edx
  106d58:	89 d8                	mov    %ebx,%eax
  106d5a:	29 d0                	sub    %edx,%eax
  106d5c:	83 c0 50             	add    $0x50,%eax
  106d5f:	a3 20 93 10 00       	mov    %eax,0x109320
  106d64:	eb 70                	jmp    106dd6 <debug_putchar+0xc8>
  106d66:	8b 1d 20 93 10 00    	mov    0x109320,%ebx
  106d6c:	8b 0d 20 93 10 00    	mov    0x109320,%ecx
  106d72:	ba 67 66 66 66       	mov    $0x66666667,%edx
  106d77:	89 c8                	mov    %ecx,%eax
  106d79:	f7 ea                	imul   %edx
  106d7b:	c1 fa 05             	sar    $0x5,%edx
  106d7e:	89 c8                	mov    %ecx,%eax
  106d80:	c1 f8 1f             	sar    $0x1f,%eax
  106d83:	29 c2                	sub    %eax,%edx
  106d85:	89 d0                	mov    %edx,%eax
  106d87:	c1 e0 02             	shl    $0x2,%eax
  106d8a:	01 d0                	add    %edx,%eax
  106d8c:	c1 e0 04             	shl    $0x4,%eax
  106d8f:	29 c1                	sub    %eax,%ecx
  106d91:	89 ca                	mov    %ecx,%edx
  106d93:	89 d8                	mov    %ebx,%eax
  106d95:	29 d0                	sub    %edx,%eax
  106d97:	a3 20 93 10 00       	mov    %eax,0x109320
  106d9c:	eb 38                	jmp    106dd6 <debug_putchar+0xc8>
  106d9e:	8b 15 24 93 10 00    	mov    0x109324,%edx
  106da4:	a1 20 93 10 00       	mov    0x109320,%eax
  106da9:	01 c0                	add    %eax,%eax
  106dab:	01 c2                	add    %eax,%edx
  106dad:	0f b6 45 e4          	movzbl -0x1c(%ebp),%eax
  106db1:	88 02                	mov    %al,(%edx)
  106db3:	a1 24 93 10 00       	mov    0x109324,%eax
  106db8:	8b 15 20 93 10 00    	mov    0x109320,%edx
  106dbe:	01 d2                	add    %edx,%edx
  106dc0:	83 c2 01             	add    $0x1,%edx
  106dc3:	01 d0                	add    %edx,%eax
  106dc5:	c6 00 0a             	movb   $0xa,(%eax)
  106dc8:	a1 20 93 10 00       	mov    0x109320,%eax
  106dcd:	83 c0 01             	add    $0x1,%eax
  106dd0:	a3 20 93 10 00       	mov    %eax,0x109320
  106dd5:	90                   	nop
  106dd6:	a1 20 93 10 00       	mov    0x109320,%eax
  106ddb:	3d cf 07 00 00       	cmp    $0x7cf,%eax
  106de0:	7e 66                	jle    106e48 <debug_putchar+0x13a>
  106de2:	a1 24 93 10 00       	mov    0x109324,%eax
  106de7:	8d 90 a0 00 00 00    	lea    0xa0(%eax),%edx
  106ded:	a1 24 93 10 00       	mov    0x109324,%eax
  106df2:	c7 44 24 08 00 0f 00 	movl   $0xf00,0x8(%esp)
  106df9:	00 
  106dfa:	89 54 24 04          	mov    %edx,0x4(%esp)
  106dfe:	89 04 24             	mov    %eax,(%esp)
  106e01:	e8 8d ea ff ff       	call   105893 <memmove>
  106e06:	c7 45 f4 80 07 00 00 	movl   $0x780,-0xc(%ebp)
  106e0d:	eb 26                	jmp    106e35 <debug_putchar+0x127>
  106e0f:	8b 15 24 93 10 00    	mov    0x109324,%edx
  106e15:	8b 45 f4             	mov    -0xc(%ebp),%eax
  106e18:	01 c0                	add    %eax,%eax
  106e1a:	01 d0                	add    %edx,%eax
  106e1c:	c6 00 20             	movb   $0x20,(%eax)
  106e1f:	a1 24 93 10 00       	mov    0x109324,%eax
  106e24:	8b 55 f4             	mov    -0xc(%ebp),%edx
  106e27:	01 d2                	add    %edx,%edx
  106e29:	83 c2 01             	add    $0x1,%edx
  106e2c:	01 d0                	add    %edx,%eax
  106e2e:	c6 00 0a             	movb   $0xa,(%eax)
  106e31:	83 45 f4 01          	addl   $0x1,-0xc(%ebp)
  106e35:	81 7d f4 cf 07 00 00 	cmpl   $0x7cf,-0xc(%ebp)
  106e3c:	7e d1                	jle    106e0f <debug_putchar+0x101>
  106e3e:	c7 05 20 93 10 00 80 	movl   $0x780,0x109320
  106e45:	07 00 00 
  106e48:	83 c4 24             	add    $0x24,%esp
  106e4b:	5b                   	pop    %ebx
  106e4c:	5d                   	pop    %ebp
  106e4d:	c3                   	ret    

00106e4e <_ZL4outbth>:
  106e4e:	55                   	push   %ebp
  106e4f:	89 e5                	mov    %esp,%ebp
  106e51:	83 ec 08             	sub    $0x8,%esp
  106e54:	8b 55 08             	mov    0x8(%ebp),%edx
  106e57:	8b 45 0c             	mov    0xc(%ebp),%eax
  106e5a:	66 89 55 fc          	mov    %dx,-0x4(%ebp)
  106e5e:	88 45 f8             	mov    %al,-0x8(%ebp)
  106e61:	0f b7 55 fc          	movzwl -0x4(%ebp),%edx
  106e65:	0f b6 45 f8          	movzbl -0x8(%ebp),%eax
  106e69:	ee                   	out    %al,(%dx)
  106e6a:	c9                   	leave  
  106e6b:	c3                   	ret    

00106e6c <_ZL3inbt>:
  106e6c:	55                   	push   %ebp
  106e6d:	89 e5                	mov    %esp,%ebp
  106e6f:	83 ec 14             	sub    $0x14,%esp
  106e72:	8b 45 08             	mov    0x8(%ebp),%eax
  106e75:	66 89 45 ec          	mov    %ax,-0x14(%ebp)
  106e79:	0f b7 45 ec          	movzwl -0x14(%ebp),%eax
  106e7d:	89 c2                	mov    %eax,%edx
  106e7f:	ec                   	in     (%dx),%al
  106e80:	88 45 ff             	mov    %al,-0x1(%ebp)
  106e83:	0f b6 45 ff          	movzbl -0x1(%ebp),%eax
  106e87:	c9                   	leave  
  106e88:	c3                   	ret    

00106e89 <_ZL29platform_abstract_irq_handlerP14interrupt_info>:
  106e89:	55                   	push   %ebp
  106e8a:	89 e5                	mov    %esp,%ebp
  106e8c:	83 ec 08             	sub    $0x8,%esp
  106e8f:	8b 45 08             	mov    0x8(%ebp),%eax
  106e92:	8b 40 24             	mov    0x24(%eax),%eax
  106e95:	83 f8 27             	cmp    $0x27,%eax
  106e98:	76 14                	jbe    106eae <_ZL29platform_abstract_irq_handlerP14interrupt_info+0x25>
  106e9a:	c7 44 24 04 20 00 00 	movl   $0x20,0x4(%esp)
  106ea1:	00 
  106ea2:	c7 04 24 a0 00 00 00 	movl   $0xa0,(%esp)
  106ea9:	e8 a0 ff ff ff       	call   106e4e <_ZL4outbth>
  106eae:	8b 45 08             	mov    0x8(%ebp),%eax
  106eb1:	8b 40 24             	mov    0x24(%eax),%eax
  106eb4:	83 f8 1f             	cmp    $0x1f,%eax
  106eb7:	76 14                	jbe    106ecd <_ZL29platform_abstract_irq_handlerP14interrupt_info+0x44>
  106eb9:	c7 44 24 04 20 00 00 	movl   $0x20,0x4(%esp)
  106ec0:	00 
  106ec1:	c7 04 24 20 00 00 00 	movl   $0x20,(%esp)
  106ec8:	e8 81 ff ff ff       	call   106e4e <_ZL4outbth>
  106ecd:	c9                   	leave  
  106ece:	c3                   	ret    

00106ecf <_Z13platform_initv>:
  106ecf:	55                   	push   %ebp
  106ed0:	89 e5                	mov    %esp,%ebp
  106ed2:	83 ec 18             	sub    $0x18,%esp
  106ed5:	c7 04 24 21 90 10 00 	movl   $0x109021,(%esp)
  106edc:	e8 ea 99 ff ff       	call   1008cb <debug_print>
  106ee1:	c7 04 24 33 90 10 00 	movl   $0x109033,(%esp)
  106ee8:	e8 de 99 ff ff       	call   1008cb <debug_print>
  106eed:	c7 04 24 3d 90 10 00 	movl   $0x10903d,(%esp)
  106ef4:	e8 d2 99 ff ff       	call   1008cb <debug_print>
  106ef9:	c7 44 24 04 02 00 00 	movl   $0x2,0x4(%esp)
  106f00:	00 
  106f01:	c7 04 24 4a 90 10 00 	movl   $0x10904a,(%esp)
  106f08:	e8 e0 97 ff ff       	call   1006ed <debug_write>
  106f0d:	c7 04 24 4d 90 10 00 	movl   $0x10904d,(%esp)
  106f14:	e8 b2 99 ff ff       	call   1008cb <debug_print>
  106f19:	c7 04 24 52 90 10 00 	movl   $0x109052,(%esp)
  106f20:	e8 a6 99 ff ff       	call   1008cb <debug_print>
  106f25:	c7 44 24 04 02 00 00 	movl   $0x2,0x4(%esp)
  106f2c:	00 
  106f2d:	c7 04 24 4a 90 10 00 	movl   $0x10904a,(%esp)
  106f34:	e8 b4 97 ff ff       	call   1006ed <debug_write>
  106f39:	e8 f0 0a 00 00       	call   107a2e <_Z22init_descriptor_tablesv>
  106f3e:	c9                   	leave  
  106f3f:	c3                   	ret    

00106f40 <_Z20systemError_platformv>:
  106f40:	55                   	push   %ebp
  106f41:	89 e5                	mov    %esp,%ebp
  106f43:	5d                   	pop    %ebp
  106f44:	c3                   	ret    

00106f45 <_ZL4outbth>:
  106f45:	55                   	push   %ebp
  106f46:	89 e5                	mov    %esp,%ebp
  106f48:	83 ec 08             	sub    $0x8,%esp
  106f4b:	8b 55 08             	mov    0x8(%ebp),%edx
  106f4e:	8b 45 0c             	mov    0xc(%ebp),%eax
  106f51:	66 89 55 fc          	mov    %dx,-0x4(%ebp)
  106f55:	88 45 f8             	mov    %al,-0x8(%ebp)
  106f58:	0f b7 55 fc          	movzwl -0x4(%ebp),%edx
  106f5c:	0f b6 45 f8          	movzbl -0x8(%ebp),%eax
  106f60:	ee                   	out    %al,(%dx)
  106f61:	c9                   	leave  
  106f62:	c3                   	ret    

00106f63 <_ZL3inbt>:
  106f63:	55                   	push   %ebp
  106f64:	89 e5                	mov    %esp,%ebp
  106f66:	83 ec 14             	sub    $0x14,%esp
  106f69:	8b 45 08             	mov    0x8(%ebp),%eax
  106f6c:	66 89 45 ec          	mov    %ax,-0x14(%ebp)
  106f70:	0f b7 45 ec          	movzwl -0x14(%ebp),%eax
  106f74:	89 c2                	mov    %eax,%edx
  106f76:	ec                   	in     (%dx),%al
  106f77:	88 45 ff             	mov    %al,-0x1(%ebp)
  106f7a:	0f b6 45 ff          	movzbl -0x1(%ebp),%eax
  106f7e:	c9                   	leave  
  106f7f:	c3                   	ret    

00106f80 <_ZL29platform_abstract_irq_handlerP14interrupt_info>:
  106f80:	55                   	push   %ebp
  106f81:	89 e5                	mov    %esp,%ebp
  106f83:	83 ec 08             	sub    $0x8,%esp
  106f86:	8b 45 08             	mov    0x8(%ebp),%eax
  106f89:	8b 40 24             	mov    0x24(%eax),%eax
  106f8c:	83 f8 27             	cmp    $0x27,%eax
  106f8f:	76 14                	jbe    106fa5 <_ZL29platform_abstract_irq_handlerP14interrupt_info+0x25>
  106f91:	c7 44 24 04 20 00 00 	movl   $0x20,0x4(%esp)
  106f98:	00 
  106f99:	c7 04 24 a0 00 00 00 	movl   $0xa0,(%esp)
  106fa0:	e8 a0 ff ff ff       	call   106f45 <_ZL4outbth>
  106fa5:	8b 45 08             	mov    0x8(%ebp),%eax
  106fa8:	8b 40 24             	mov    0x24(%eax),%eax
  106fab:	83 f8 1f             	cmp    $0x1f,%eax
  106fae:	76 14                	jbe    106fc4 <_ZL29platform_abstract_irq_handlerP14interrupt_info+0x44>
  106fb0:	c7 44 24 04 20 00 00 	movl   $0x20,0x4(%esp)
  106fb7:	00 
  106fb8:	c7 04 24 20 00 00 00 	movl   $0x20,(%esp)
  106fbf:	e8 81 ff ff ff       	call   106f45 <_ZL4outbth>
  106fc4:	c9                   	leave  
  106fc5:	c3                   	ret    

00106fc6 <_ZL12gdt_set_gatejjjhh>:
  106fc6:	55                   	push   %ebp
  106fc7:	89 e5                	mov    %esp,%ebp
  106fc9:	83 ec 08             	sub    $0x8,%esp
  106fcc:	8b 55 14             	mov    0x14(%ebp),%edx
  106fcf:	8b 45 18             	mov    0x18(%ebp),%eax
  106fd2:	88 55 fc             	mov    %dl,-0x4(%ebp)
  106fd5:	88 45 f8             	mov    %al,-0x8(%ebp)
  106fd8:	8b 45 0c             	mov    0xc(%ebp),%eax
  106fdb:	89 c2                	mov    %eax,%edx
  106fdd:	8b 45 08             	mov    0x8(%ebp),%eax
  106fe0:	66 89 14 c5 e2 c8 10 	mov    %dx,0x10c8e2(,%eax,8)
  106fe7:	00 
  106fe8:	8b 45 0c             	mov    0xc(%ebp),%eax
  106feb:	c1 e8 10             	shr    $0x10,%eax
  106fee:	89 c2                	mov    %eax,%edx
  106ff0:	8b 45 08             	mov    0x8(%ebp),%eax
  106ff3:	88 14 c5 e4 c8 10 00 	mov    %dl,0x10c8e4(,%eax,8)
  106ffa:	8b 45 0c             	mov    0xc(%ebp),%eax
  106ffd:	c1 e8 18             	shr    $0x18,%eax
  107000:	89 c2                	mov    %eax,%edx
  107002:	8b 45 08             	mov    0x8(%ebp),%eax
  107005:	88 14 c5 e7 c8 10 00 	mov    %dl,0x10c8e7(,%eax,8)
  10700c:	8b 45 10             	mov    0x10(%ebp),%eax
  10700f:	89 c2                	mov    %eax,%edx
  107011:	8b 45 08             	mov    0x8(%ebp),%eax
  107014:	66 89 14 c5 e0 c8 10 	mov    %dx,0x10c8e0(,%eax,8)
  10701b:	00 
  10701c:	8b 45 10             	mov    0x10(%ebp),%eax
  10701f:	c1 e8 10             	shr    $0x10,%eax
  107022:	83 e0 0f             	and    $0xf,%eax
  107025:	89 c2                	mov    %eax,%edx
  107027:	8b 45 08             	mov    0x8(%ebp),%eax
  10702a:	88 14 c5 e6 c8 10 00 	mov    %dl,0x10c8e6(,%eax,8)
  107031:	8b 45 08             	mov    0x8(%ebp),%eax
  107034:	0f b6 04 c5 e6 c8 10 	movzbl 0x10c8e6(,%eax,8),%eax
  10703b:	00 
  10703c:	0f b6 55 f8          	movzbl -0x8(%ebp),%edx
  107040:	83 e2 f0             	and    $0xfffffff0,%edx
  107043:	09 d0                	or     %edx,%eax
  107045:	89 c2                	mov    %eax,%edx
  107047:	8b 45 08             	mov    0x8(%ebp),%eax
  10704a:	88 14 c5 e6 c8 10 00 	mov    %dl,0x10c8e6(,%eax,8)
  107051:	8b 45 08             	mov    0x8(%ebp),%eax
  107054:	0f b6 55 fc          	movzbl -0x4(%ebp),%edx
  107058:	88 14 c5 e5 c8 10 00 	mov    %dl,0x10c8e5(,%eax,8)
  10705f:	c9                   	leave  
  107060:	c3                   	ret    

00107061 <_ZL8init_gdtv>:
  107061:	55                   	push   %ebp
  107062:	89 e5                	mov    %esp,%ebp
  107064:	83 ec 28             	sub    $0x28,%esp
  107067:	ba 08 00 00 00       	mov    $0x8,%edx
  10706c:	89 d0                	mov    %edx,%eax
  10706e:	c1 e0 02             	shl    $0x2,%eax
  107071:	01 d0                	add    %edx,%eax
  107073:	83 e8 01             	sub    $0x1,%eax
  107076:	66 a3 08 c9 10 00    	mov    %ax,0x10c908
  10707c:	b8 e0 c8 10 00       	mov    $0x10c8e0,%eax
  107081:	a3 0a c9 10 00       	mov    %eax,0x10c90a
  107086:	c7 44 24 10 00 00 00 	movl   $0x0,0x10(%esp)
  10708d:	00 
  10708e:	c7 44 24 0c 00 00 00 	movl   $0x0,0xc(%esp)
  107095:	00 
  107096:	c7 44 24 08 00 00 00 	movl   $0x0,0x8(%esp)
  10709d:	00 
  10709e:	c7 44 24 04 00 00 00 	movl   $0x0,0x4(%esp)
  1070a5:	00 
  1070a6:	c7 04 24 00 00 00 00 	movl   $0x0,(%esp)
  1070ad:	e8 14 ff ff ff       	call   106fc6 <_ZL12gdt_set_gatejjjhh>
  1070b2:	c7 44 24 10 cf 00 00 	movl   $0xcf,0x10(%esp)
  1070b9:	00 
  1070ba:	c7 44 24 0c 9a 00 00 	movl   $0x9a,0xc(%esp)
  1070c1:	00 
  1070c2:	c7 44 24 08 ff ff ff 	movl   $0xffffffff,0x8(%esp)
  1070c9:	ff 
  1070ca:	c7 44 24 04 00 00 00 	movl   $0x0,0x4(%esp)
  1070d1:	00 
  1070d2:	c7 04 24 01 00 00 00 	movl   $0x1,(%esp)
  1070d9:	e8 e8 fe ff ff       	call   106fc6 <_ZL12gdt_set_gatejjjhh>
  1070de:	c7 44 24 10 cf 00 00 	movl   $0xcf,0x10(%esp)
  1070e5:	00 
  1070e6:	c7 44 24 0c 92 00 00 	movl   $0x92,0xc(%esp)
  1070ed:	00 
  1070ee:	c7 44 24 08 ff ff ff 	movl   $0xffffffff,0x8(%esp)
  1070f5:	ff 
  1070f6:	c7 44 24 04 00 00 00 	movl   $0x0,0x4(%esp)
  1070fd:	00 
  1070fe:	c7 04 24 02 00 00 00 	movl   $0x2,(%esp)
  107105:	e8 bc fe ff ff       	call   106fc6 <_ZL12gdt_set_gatejjjhh>
  10710a:	c7 44 24 10 cf 00 00 	movl   $0xcf,0x10(%esp)
  107111:	00 
  107112:	c7 44 24 0c fa 00 00 	movl   $0xfa,0xc(%esp)
  107119:	00 
  10711a:	c7 44 24 08 ff ff ff 	movl   $0xffffffff,0x8(%esp)
  107121:	ff 
  107122:	c7 44 24 04 00 00 00 	movl   $0x0,0x4(%esp)
  107129:	00 
  10712a:	c7 04 24 03 00 00 00 	movl   $0x3,(%esp)
  107131:	e8 90 fe ff ff       	call   106fc6 <_ZL12gdt_set_gatejjjhh>
  107136:	c7 44 24 10 cf 00 00 	movl   $0xcf,0x10(%esp)
  10713d:	00 
  10713e:	c7 44 24 0c f2 00 00 	movl   $0xf2,0xc(%esp)
  107145:	00 
  107146:	c7 44 24 08 ff ff ff 	movl   $0xffffffff,0x8(%esp)
  10714d:	ff 
  10714e:	c7 44 24 04 00 00 00 	movl   $0x0,0x4(%esp)
  107155:	00 
  107156:	c7 04 24 04 00 00 00 	movl   $0x4,(%esp)
  10715d:	e8 64 fe ff ff       	call   106fc6 <_ZL12gdt_set_gatejjjhh>
  107162:	b8 08 c9 10 00       	mov    $0x10c908,%eax
  107167:	89 04 24             	mov    %eax,(%esp)
  10716a:	e8 04 10 00 00       	call   108173 <gdt_flush>
  10716f:	c9                   	leave  
  107170:	c3                   	ret    

00107171 <_ZL12idt_set_gatehjth>:
  107171:	55                   	push   %ebp
  107172:	89 e5                	mov    %esp,%ebp
  107174:	83 ec 0c             	sub    $0xc,%esp
  107177:	8b 4d 08             	mov    0x8(%ebp),%ecx
  10717a:	8b 55 10             	mov    0x10(%ebp),%edx
  10717d:	8b 45 14             	mov    0x14(%ebp),%eax
  107180:	88 4d fc             	mov    %cl,-0x4(%ebp)
  107183:	66 89 55 f8          	mov    %dx,-0x8(%ebp)
  107187:	88 45 f4             	mov    %al,-0xc(%ebp)
  10718a:	0f b6 45 fc          	movzbl -0x4(%ebp),%eax
  10718e:	8b 55 0c             	mov    0xc(%ebp),%edx
  107191:	66 89 14 c5 20 c9 10 	mov    %dx,0x10c920(,%eax,8)
  107198:	00 
  107199:	0f b6 45 fc          	movzbl -0x4(%ebp),%eax
  10719d:	8b 55 0c             	mov    0xc(%ebp),%edx
  1071a0:	c1 ea 10             	shr    $0x10,%edx
  1071a3:	66 89 14 c5 26 c9 10 	mov    %dx,0x10c926(,%eax,8)
  1071aa:	00 
  1071ab:	0f b6 45 fc          	movzbl -0x4(%ebp),%eax
  1071af:	0f b7 55 f8          	movzwl -0x8(%ebp),%edx
  1071b3:	66 89 14 c5 22 c9 10 	mov    %dx,0x10c922(,%eax,8)
  1071ba:	00 
  1071bb:	0f b6 45 fc          	movzbl -0x4(%ebp),%eax
  1071bf:	c6 04 c5 24 c9 10 00 	movb   $0x0,0x10c924(,%eax,8)
  1071c6:	00 
  1071c7:	0f b6 45 fc          	movzbl -0x4(%ebp),%eax
  1071cb:	0f b6 55 f4          	movzbl -0xc(%ebp),%edx
  1071cf:	88 14 c5 25 c9 10 00 	mov    %dl,0x10c925(,%eax,8)
  1071d6:	c9                   	leave  
  1071d7:	c3                   	ret    

001071d8 <_Z7StubISRv>:
  1071d8:	55                   	push   %ebp
  1071d9:	89 e5                	mov    %esp,%ebp
  1071db:	83 ec 18             	sub    $0x18,%esp
  1071de:	c7 04 24 58 90 10 00 	movl   $0x109058,(%esp)
  1071e5:	e8 80 98 ff ff       	call   100a6a <_Z11systemErrorPKc>
  1071ea:	c9                   	leave  
  1071eb:	c3                   	ret    

001071ec <_ZL8init_idtv>:
  1071ec:	55                   	push   %ebp
  1071ed:	89 e5                	mov    %esp,%ebp
  1071ef:	83 ec 28             	sub    $0x28,%esp
  1071f2:	b8 08 00 00 00       	mov    $0x8,%eax
  1071f7:	c1 e0 08             	shl    $0x8,%eax
  1071fa:	83 e8 01             	sub    $0x1,%eax
  1071fd:	66 a3 20 d1 10 00    	mov    %ax,0x10d120
  107203:	b8 20 c9 10 00       	mov    $0x10c920,%eax
  107208:	a3 22 d1 10 00       	mov    %eax,0x10d122
  10720d:	b8 00 08 00 00       	mov    $0x800,%eax
  107212:	89 44 24 08          	mov    %eax,0x8(%esp)
  107216:	c7 44 24 04 00 00 00 	movl   $0x0,0x4(%esp)
  10721d:	00 
  10721e:	c7 04 24 20 c9 10 00 	movl   $0x10c920,(%esp)
  107225:	e8 13 e5 ff ff       	call   10573d <memset>
  10722a:	c7 44 24 04 11 00 00 	movl   $0x11,0x4(%esp)
  107231:	00 
  107232:	c7 04 24 20 00 00 00 	movl   $0x20,(%esp)
  107239:	e8 07 fd ff ff       	call   106f45 <_ZL4outbth>
  10723e:	c7 44 24 04 11 00 00 	movl   $0x11,0x4(%esp)
  107245:	00 
  107246:	c7 04 24 a0 00 00 00 	movl   $0xa0,(%esp)
  10724d:	e8 f3 fc ff ff       	call   106f45 <_ZL4outbth>
  107252:	c7 44 24 04 20 00 00 	movl   $0x20,0x4(%esp)
  107259:	00 
  10725a:	c7 04 24 21 00 00 00 	movl   $0x21,(%esp)
  107261:	e8 df fc ff ff       	call   106f45 <_ZL4outbth>
  107266:	c7 44 24 04 28 00 00 	movl   $0x28,0x4(%esp)
  10726d:	00 
  10726e:	c7 04 24 a1 00 00 00 	movl   $0xa1,(%esp)
  107275:	e8 cb fc ff ff       	call   106f45 <_ZL4outbth>
  10727a:	c7 44 24 04 04 00 00 	movl   $0x4,0x4(%esp)
  107281:	00 
  107282:	c7 04 24 21 00 00 00 	movl   $0x21,(%esp)
  107289:	e8 b7 fc ff ff       	call   106f45 <_ZL4outbth>
  10728e:	c7 44 24 04 02 00 00 	movl   $0x2,0x4(%esp)
  107295:	00 
  107296:	c7 04 24 a1 00 00 00 	movl   $0xa1,(%esp)
  10729d:	e8 a3 fc ff ff       	call   106f45 <_ZL4outbth>
  1072a2:	c7 44 24 04 01 00 00 	movl   $0x1,0x4(%esp)
  1072a9:	00 
  1072aa:	c7 04 24 21 00 00 00 	movl   $0x21,(%esp)
  1072b1:	e8 8f fc ff ff       	call   106f45 <_ZL4outbth>
  1072b6:	c7 44 24 04 01 00 00 	movl   $0x1,0x4(%esp)
  1072bd:	00 
  1072be:	c7 04 24 a1 00 00 00 	movl   $0xa1,(%esp)
  1072c5:	e8 7b fc ff ff       	call   106f45 <_ZL4outbth>
  1072ca:	c7 44 24 04 00 00 00 	movl   $0x0,0x4(%esp)
  1072d1:	00 
  1072d2:	c7 04 24 21 00 00 00 	movl   $0x21,(%esp)
  1072d9:	e8 67 fc ff ff       	call   106f45 <_ZL4outbth>
  1072de:	c7 44 24 04 00 00 00 	movl   $0x0,0x4(%esp)
  1072e5:	00 
  1072e6:	c7 04 24 a1 00 00 00 	movl   $0xa1,(%esp)
  1072ed:	e8 53 fc ff ff       	call   106f45 <_ZL4outbth>
  1072f2:	c7 45 f4 00 00 00 00 	movl   $0x0,-0xc(%ebp)
  1072f9:	eb 2b                	jmp    107326 <_ZL8init_idtv+0x13a>
  1072fb:	ba d8 71 10 00       	mov    $0x1071d8,%edx
  107300:	8b 45 f4             	mov    -0xc(%ebp),%eax
  107303:	0f b6 c0             	movzbl %al,%eax
  107306:	c7 44 24 0c 8e 00 00 	movl   $0x8e,0xc(%esp)
  10730d:	00 
  10730e:	c7 44 24 08 08 00 00 	movl   $0x8,0x8(%esp)
  107315:	00 
  107316:	89 54 24 04          	mov    %edx,0x4(%esp)
  10731a:	89 04 24             	mov    %eax,(%esp)
  10731d:	e8 4f fe ff ff       	call   107171 <_ZL12idt_set_gatehjth>
  107322:	83 45 f4 01          	addl   $0x1,-0xc(%ebp)
  107326:	81 7d f4 ff 00 00 00 	cmpl   $0xff,-0xc(%ebp)
  10732d:	7e cc                	jle    1072fb <_ZL8init_idtv+0x10f>
  10732f:	b8 a4 82 10 00       	mov    $0x1082a4,%eax
  107334:	c7 44 24 0c 8e 00 00 	movl   $0x8e,0xc(%esp)
  10733b:	00 
  10733c:	c7 44 24 08 08 00 00 	movl   $0x8,0x8(%esp)
  107343:	00 
  107344:	89 44 24 04          	mov    %eax,0x4(%esp)
  107348:	c7 04 24 00 00 00 00 	movl   $0x0,(%esp)
  10734f:	e8 1d fe ff ff       	call   107171 <_ZL12idt_set_gatehjth>
  107354:	b8 ae 82 10 00       	mov    $0x1082ae,%eax
  107359:	c7 44 24 0c 8e 00 00 	movl   $0x8e,0xc(%esp)
  107360:	00 
  107361:	c7 44 24 08 08 00 00 	movl   $0x8,0x8(%esp)
  107368:	00 
  107369:	89 44 24 04          	mov    %eax,0x4(%esp)
  10736d:	c7 04 24 01 00 00 00 	movl   $0x1,(%esp)
  107374:	e8 f8 fd ff ff       	call   107171 <_ZL12idt_set_gatehjth>
  107379:	b8 b8 82 10 00       	mov    $0x1082b8,%eax
  10737e:	c7 44 24 0c 8e 00 00 	movl   $0x8e,0xc(%esp)
  107385:	00 
  107386:	c7 44 24 08 08 00 00 	movl   $0x8,0x8(%esp)
  10738d:	00 
  10738e:	89 44 24 04          	mov    %eax,0x4(%esp)
  107392:	c7 04 24 02 00 00 00 	movl   $0x2,(%esp)
  107399:	e8 d3 fd ff ff       	call   107171 <_ZL12idt_set_gatehjth>
  10739e:	b8 c2 82 10 00       	mov    $0x1082c2,%eax
  1073a3:	c7 44 24 0c 8e 00 00 	movl   $0x8e,0xc(%esp)
  1073aa:	00 
  1073ab:	c7 44 24 08 08 00 00 	movl   $0x8,0x8(%esp)
  1073b2:	00 
  1073b3:	89 44 24 04          	mov    %eax,0x4(%esp)
  1073b7:	c7 04 24 03 00 00 00 	movl   $0x3,(%esp)
  1073be:	e8 ae fd ff ff       	call   107171 <_ZL12idt_set_gatehjth>
  1073c3:	b8 cc 82 10 00       	mov    $0x1082cc,%eax
  1073c8:	c7 44 24 0c 8e 00 00 	movl   $0x8e,0xc(%esp)
  1073cf:	00 
  1073d0:	c7 44 24 08 08 00 00 	movl   $0x8,0x8(%esp)
  1073d7:	00 
  1073d8:	89 44 24 04          	mov    %eax,0x4(%esp)
  1073dc:	c7 04 24 04 00 00 00 	movl   $0x4,(%esp)
  1073e3:	e8 89 fd ff ff       	call   107171 <_ZL12idt_set_gatehjth>
  1073e8:	b8 d6 82 10 00       	mov    $0x1082d6,%eax
  1073ed:	c7 44 24 0c 8e 00 00 	movl   $0x8e,0xc(%esp)
  1073f4:	00 
  1073f5:	c7 44 24 08 08 00 00 	movl   $0x8,0x8(%esp)
  1073fc:	00 
  1073fd:	89 44 24 04          	mov    %eax,0x4(%esp)
  107401:	c7 04 24 05 00 00 00 	movl   $0x5,(%esp)
  107408:	e8 64 fd ff ff       	call   107171 <_ZL12idt_set_gatehjth>
  10740d:	b8 e0 82 10 00       	mov    $0x1082e0,%eax
  107412:	c7 44 24 0c 8e 00 00 	movl   $0x8e,0xc(%esp)
  107419:	00 
  10741a:	c7 44 24 08 08 00 00 	movl   $0x8,0x8(%esp)
  107421:	00 
  107422:	89 44 24 04          	mov    %eax,0x4(%esp)
  107426:	c7 04 24 06 00 00 00 	movl   $0x6,(%esp)
  10742d:	e8 3f fd ff ff       	call   107171 <_ZL12idt_set_gatehjth>
  107432:	b8 ea 82 10 00       	mov    $0x1082ea,%eax
  107437:	c7 44 24 0c 8e 00 00 	movl   $0x8e,0xc(%esp)
  10743e:	00 
  10743f:	c7 44 24 08 08 00 00 	movl   $0x8,0x8(%esp)
  107446:	00 
  107447:	89 44 24 04          	mov    %eax,0x4(%esp)
  10744b:	c7 04 24 07 00 00 00 	movl   $0x7,(%esp)
  107452:	e8 1a fd ff ff       	call   107171 <_ZL12idt_set_gatehjth>
  107457:	b8 f4 82 10 00       	mov    $0x1082f4,%eax
  10745c:	c7 44 24 0c 8e 00 00 	movl   $0x8e,0xc(%esp)
  107463:	00 
  107464:	c7 44 24 08 08 00 00 	movl   $0x8,0x8(%esp)
  10746b:	00 
  10746c:	89 44 24 04          	mov    %eax,0x4(%esp)
  107470:	c7 04 24 08 00 00 00 	movl   $0x8,(%esp)
  107477:	e8 f5 fc ff ff       	call   107171 <_ZL12idt_set_gatehjth>
  10747c:	b8 fc 82 10 00       	mov    $0x1082fc,%eax
  107481:	c7 44 24 0c 8e 00 00 	movl   $0x8e,0xc(%esp)
  107488:	00 
  107489:	c7 44 24 08 08 00 00 	movl   $0x8,0x8(%esp)
  107490:	00 
  107491:	89 44 24 04          	mov    %eax,0x4(%esp)
  107495:	c7 04 24 09 00 00 00 	movl   $0x9,(%esp)
  10749c:	e8 d0 fc ff ff       	call   107171 <_ZL12idt_set_gatehjth>
  1074a1:	b8 a4 82 10 00       	mov    $0x1082a4,%eax
  1074a6:	c7 44 24 0c 8e 00 00 	movl   $0x8e,0xc(%esp)
  1074ad:	00 
  1074ae:	c7 44 24 08 08 00 00 	movl   $0x8,0x8(%esp)
  1074b5:	00 
  1074b6:	89 44 24 04          	mov    %eax,0x4(%esp)
  1074ba:	c7 04 24 0a 00 00 00 	movl   $0xa,(%esp)
  1074c1:	e8 ab fc ff ff       	call   107171 <_ZL12idt_set_gatehjth>
  1074c6:	b8 0e 83 10 00       	mov    $0x10830e,%eax
  1074cb:	c7 44 24 0c 8e 00 00 	movl   $0x8e,0xc(%esp)
  1074d2:	00 
  1074d3:	c7 44 24 08 08 00 00 	movl   $0x8,0x8(%esp)
  1074da:	00 
  1074db:	89 44 24 04          	mov    %eax,0x4(%esp)
  1074df:	c7 04 24 0b 00 00 00 	movl   $0xb,(%esp)
  1074e6:	e8 86 fc ff ff       	call   107171 <_ZL12idt_set_gatehjth>
  1074eb:	b8 16 83 10 00       	mov    $0x108316,%eax
  1074f0:	c7 44 24 0c 8e 00 00 	movl   $0x8e,0xc(%esp)
  1074f7:	00 
  1074f8:	c7 44 24 08 08 00 00 	movl   $0x8,0x8(%esp)
  1074ff:	00 
  107500:	89 44 24 04          	mov    %eax,0x4(%esp)
  107504:	c7 04 24 0c 00 00 00 	movl   $0xc,(%esp)
  10750b:	e8 61 fc ff ff       	call   107171 <_ZL12idt_set_gatehjth>
  107510:	b8 1e 83 10 00       	mov    $0x10831e,%eax
  107515:	c7 44 24 0c 8e 00 00 	movl   $0x8e,0xc(%esp)
  10751c:	00 
  10751d:	c7 44 24 08 08 00 00 	movl   $0x8,0x8(%esp)
  107524:	00 
  107525:	89 44 24 04          	mov    %eax,0x4(%esp)
  107529:	c7 04 24 0d 00 00 00 	movl   $0xd,(%esp)
  107530:	e8 3c fc ff ff       	call   107171 <_ZL12idt_set_gatehjth>
  107535:	b8 26 83 10 00       	mov    $0x108326,%eax
  10753a:	c7 44 24 0c 8e 00 00 	movl   $0x8e,0xc(%esp)
  107541:	00 
  107542:	c7 44 24 08 08 00 00 	movl   $0x8,0x8(%esp)
  107549:	00 
  10754a:	89 44 24 04          	mov    %eax,0x4(%esp)
  10754e:	c7 04 24 0e 00 00 00 	movl   $0xe,(%esp)
  107555:	e8 17 fc ff ff       	call   107171 <_ZL12idt_set_gatehjth>
  10755a:	b8 2e 83 10 00       	mov    $0x10832e,%eax
  10755f:	c7 44 24 0c 8e 00 00 	movl   $0x8e,0xc(%esp)
  107566:	00 
  107567:	c7 44 24 08 08 00 00 	movl   $0x8,0x8(%esp)
  10756e:	00 
  10756f:	89 44 24 04          	mov    %eax,0x4(%esp)
  107573:	c7 04 24 0f 00 00 00 	movl   $0xf,(%esp)
  10757a:	e8 f2 fb ff ff       	call   107171 <_ZL12idt_set_gatehjth>
  10757f:	b8 38 83 10 00       	mov    $0x108338,%eax
  107584:	c7 44 24 0c 8e 00 00 	movl   $0x8e,0xc(%esp)
  10758b:	00 
  10758c:	c7 44 24 08 08 00 00 	movl   $0x8,0x8(%esp)
  107593:	00 
  107594:	89 44 24 04          	mov    %eax,0x4(%esp)
  107598:	c7 04 24 10 00 00 00 	movl   $0x10,(%esp)
  10759f:	e8 cd fb ff ff       	call   107171 <_ZL12idt_set_gatehjth>
  1075a4:	b8 42 83 10 00       	mov    $0x108342,%eax
  1075a9:	c7 44 24 0c 8e 00 00 	movl   $0x8e,0xc(%esp)
  1075b0:	00 
  1075b1:	c7 44 24 08 08 00 00 	movl   $0x8,0x8(%esp)
  1075b8:	00 
  1075b9:	89 44 24 04          	mov    %eax,0x4(%esp)
  1075bd:	c7 04 24 11 00 00 00 	movl   $0x11,(%esp)
  1075c4:	e8 a8 fb ff ff       	call   107171 <_ZL12idt_set_gatehjth>
  1075c9:	b8 4c 83 10 00       	mov    $0x10834c,%eax
  1075ce:	c7 44 24 0c 8e 00 00 	movl   $0x8e,0xc(%esp)
  1075d5:	00 
  1075d6:	c7 44 24 08 08 00 00 	movl   $0x8,0x8(%esp)
  1075dd:	00 
  1075de:	89 44 24 04          	mov    %eax,0x4(%esp)
  1075e2:	c7 04 24 12 00 00 00 	movl   $0x12,(%esp)
  1075e9:	e8 83 fb ff ff       	call   107171 <_ZL12idt_set_gatehjth>
  1075ee:	b8 56 83 10 00       	mov    $0x108356,%eax
  1075f3:	c7 44 24 0c 8e 00 00 	movl   $0x8e,0xc(%esp)
  1075fa:	00 
  1075fb:	c7 44 24 08 08 00 00 	movl   $0x8,0x8(%esp)
  107602:	00 
  107603:	89 44 24 04          	mov    %eax,0x4(%esp)
  107607:	c7 04 24 13 00 00 00 	movl   $0x13,(%esp)
  10760e:	e8 5e fb ff ff       	call   107171 <_ZL12idt_set_gatehjth>
  107613:	b8 60 83 10 00       	mov    $0x108360,%eax
  107618:	c7 44 24 0c 8e 00 00 	movl   $0x8e,0xc(%esp)
  10761f:	00 
  107620:	c7 44 24 08 08 00 00 	movl   $0x8,0x8(%esp)
  107627:	00 
  107628:	89 44 24 04          	mov    %eax,0x4(%esp)
  10762c:	c7 04 24 14 00 00 00 	movl   $0x14,(%esp)
  107633:	e8 39 fb ff ff       	call   107171 <_ZL12idt_set_gatehjth>
  107638:	b8 6a 83 10 00       	mov    $0x10836a,%eax
  10763d:	c7 44 24 0c 8e 00 00 	movl   $0x8e,0xc(%esp)
  107644:	00 
  107645:	c7 44 24 08 08 00 00 	movl   $0x8,0x8(%esp)
  10764c:	00 
  10764d:	89 44 24 04          	mov    %eax,0x4(%esp)
  107651:	c7 04 24 15 00 00 00 	movl   $0x15,(%esp)
  107658:	e8 14 fb ff ff       	call   107171 <_ZL12idt_set_gatehjth>
  10765d:	b8 74 83 10 00       	mov    $0x108374,%eax
  107662:	c7 44 24 0c 8e 00 00 	movl   $0x8e,0xc(%esp)
  107669:	00 
  10766a:	c7 44 24 08 08 00 00 	movl   $0x8,0x8(%esp)
  107671:	00 
  107672:	89 44 24 04          	mov    %eax,0x4(%esp)
  107676:	c7 04 24 16 00 00 00 	movl   $0x16,(%esp)
  10767d:	e8 ef fa ff ff       	call   107171 <_ZL12idt_set_gatehjth>
  107682:	b8 7e 83 10 00       	mov    $0x10837e,%eax
  107687:	c7 44 24 0c 8e 00 00 	movl   $0x8e,0xc(%esp)
  10768e:	00 
  10768f:	c7 44 24 08 08 00 00 	movl   $0x8,0x8(%esp)
  107696:	00 
  107697:	89 44 24 04          	mov    %eax,0x4(%esp)
  10769b:	c7 04 24 17 00 00 00 	movl   $0x17,(%esp)
  1076a2:	e8 ca fa ff ff       	call   107171 <_ZL12idt_set_gatehjth>
  1076a7:	b8 88 83 10 00       	mov    $0x108388,%eax
  1076ac:	c7 44 24 0c 8e 00 00 	movl   $0x8e,0xc(%esp)
  1076b3:	00 
  1076b4:	c7 44 24 08 08 00 00 	movl   $0x8,0x8(%esp)
  1076bb:	00 
  1076bc:	89 44 24 04          	mov    %eax,0x4(%esp)
  1076c0:	c7 04 24 18 00 00 00 	movl   $0x18,(%esp)
  1076c7:	e8 a5 fa ff ff       	call   107171 <_ZL12idt_set_gatehjth>
  1076cc:	b8 92 83 10 00       	mov    $0x108392,%eax
  1076d1:	c7 44 24 0c 8e 00 00 	movl   $0x8e,0xc(%esp)
  1076d8:	00 
  1076d9:	c7 44 24 08 08 00 00 	movl   $0x8,0x8(%esp)
  1076e0:	00 
  1076e1:	89 44 24 04          	mov    %eax,0x4(%esp)
  1076e5:	c7 04 24 19 00 00 00 	movl   $0x19,(%esp)
  1076ec:	e8 80 fa ff ff       	call   107171 <_ZL12idt_set_gatehjth>
  1076f1:	b8 9c 83 10 00       	mov    $0x10839c,%eax
  1076f6:	c7 44 24 0c 8e 00 00 	movl   $0x8e,0xc(%esp)
  1076fd:	00 
  1076fe:	c7 44 24 08 08 00 00 	movl   $0x8,0x8(%esp)
  107705:	00 
  107706:	89 44 24 04          	mov    %eax,0x4(%esp)
  10770a:	c7 04 24 1a 00 00 00 	movl   $0x1a,(%esp)
  107711:	e8 5b fa ff ff       	call   107171 <_ZL12idt_set_gatehjth>
  107716:	b8 a6 83 10 00       	mov    $0x1083a6,%eax
  10771b:	c7 44 24 0c 8e 00 00 	movl   $0x8e,0xc(%esp)
  107722:	00 
  107723:	c7 44 24 08 08 00 00 	movl   $0x8,0x8(%esp)
  10772a:	00 
  10772b:	89 44 24 04          	mov    %eax,0x4(%esp)
  10772f:	c7 04 24 1b 00 00 00 	movl   $0x1b,(%esp)
  107736:	e8 36 fa ff ff       	call   107171 <_ZL12idt_set_gatehjth>
  10773b:	b8 b0 83 10 00       	mov    $0x1083b0,%eax
  107740:	c7 44 24 0c 8e 00 00 	movl   $0x8e,0xc(%esp)
  107747:	00 
  107748:	c7 44 24 08 08 00 00 	movl   $0x8,0x8(%esp)
  10774f:	00 
  107750:	89 44 24 04          	mov    %eax,0x4(%esp)
  107754:	c7 04 24 1c 00 00 00 	movl   $0x1c,(%esp)
  10775b:	e8 11 fa ff ff       	call   107171 <_ZL12idt_set_gatehjth>
  107760:	b8 ba 83 10 00       	mov    $0x1083ba,%eax
  107765:	c7 44 24 0c 8e 00 00 	movl   $0x8e,0xc(%esp)
  10776c:	00 
  10776d:	c7 44 24 08 08 00 00 	movl   $0x8,0x8(%esp)
  107774:	00 
  107775:	89 44 24 04          	mov    %eax,0x4(%esp)
  107779:	c7 04 24 1d 00 00 00 	movl   $0x1d,(%esp)
  107780:	e8 ec f9 ff ff       	call   107171 <_ZL12idt_set_gatehjth>
  107785:	b8 c1 83 10 00       	mov    $0x1083c1,%eax
  10778a:	c7 44 24 0c 8e 00 00 	movl   $0x8e,0xc(%esp)
  107791:	00 
  107792:	c7 44 24 08 08 00 00 	movl   $0x8,0x8(%esp)
  107799:	00 
  10779a:	89 44 24 04          	mov    %eax,0x4(%esp)
  10779e:	c7 04 24 1e 00 00 00 	movl   $0x1e,(%esp)
  1077a5:	e8 c7 f9 ff ff       	call   107171 <_ZL12idt_set_gatehjth>
  1077aa:	b8 c8 83 10 00       	mov    $0x1083c8,%eax
  1077af:	c7 44 24 0c 8e 00 00 	movl   $0x8e,0xc(%esp)
  1077b6:	00 
  1077b7:	c7 44 24 08 08 00 00 	movl   $0x8,0x8(%esp)
  1077be:	00 
  1077bf:	89 44 24 04          	mov    %eax,0x4(%esp)
  1077c3:	c7 04 24 1f 00 00 00 	movl   $0x1f,(%esp)
  1077ca:	e8 a2 f9 ff ff       	call   107171 <_ZL12idt_set_gatehjth>
  1077cf:	b8 cf 83 10 00       	mov    $0x1083cf,%eax
  1077d4:	c7 44 24 0c 8e 00 00 	movl   $0x8e,0xc(%esp)
  1077db:	00 
  1077dc:	c7 44 24 08 08 00 00 	movl   $0x8,0x8(%esp)
  1077e3:	00 
  1077e4:	89 44 24 04          	mov    %eax,0x4(%esp)
  1077e8:	c7 04 24 20 00 00 00 	movl   $0x20,(%esp)
  1077ef:	e8 7d f9 ff ff       	call   107171 <_ZL12idt_set_gatehjth>
  1077f4:	b8 d6 83 10 00       	mov    $0x1083d6,%eax
  1077f9:	c7 44 24 0c 8e 00 00 	movl   $0x8e,0xc(%esp)
  107800:	00 
  107801:	c7 44 24 08 08 00 00 	movl   $0x8,0x8(%esp)
  107808:	00 
  107809:	89 44 24 04          	mov    %eax,0x4(%esp)
  10780d:	c7 04 24 21 00 00 00 	movl   $0x21,(%esp)
  107814:	e8 58 f9 ff ff       	call   107171 <_ZL12idt_set_gatehjth>
  107819:	b8 dd 83 10 00       	mov    $0x1083dd,%eax
  10781e:	c7 44 24 0c 8e 00 00 	movl   $0x8e,0xc(%esp)
  107825:	00 
  107826:	c7 44 24 08 08 00 00 	movl   $0x8,0x8(%esp)
  10782d:	00 
  10782e:	89 44 24 04          	mov    %eax,0x4(%esp)
  107832:	c7 04 24 22 00 00 00 	movl   $0x22,(%esp)
  107839:	e8 33 f9 ff ff       	call   107171 <_ZL12idt_set_gatehjth>
  10783e:	b8 e4 83 10 00       	mov    $0x1083e4,%eax
  107843:	c7 44 24 0c 8e 00 00 	movl   $0x8e,0xc(%esp)
  10784a:	00 
  10784b:	c7 44 24 08 08 00 00 	movl   $0x8,0x8(%esp)
  107852:	00 
  107853:	89 44 24 04          	mov    %eax,0x4(%esp)
  107857:	c7 04 24 23 00 00 00 	movl   $0x23,(%esp)
  10785e:	e8 0e f9 ff ff       	call   107171 <_ZL12idt_set_gatehjth>
  107863:	b8 eb 83 10 00       	mov    $0x1083eb,%eax
  107868:	c7 44 24 0c 8e 00 00 	movl   $0x8e,0xc(%esp)
  10786f:	00 
  107870:	c7 44 24 08 08 00 00 	movl   $0x8,0x8(%esp)
  107877:	00 
  107878:	89 44 24 04          	mov    %eax,0x4(%esp)
  10787c:	c7 04 24 24 00 00 00 	movl   $0x24,(%esp)
  107883:	e8 e9 f8 ff ff       	call   107171 <_ZL12idt_set_gatehjth>
  107888:	b8 f2 83 10 00       	mov    $0x1083f2,%eax
  10788d:	c7 44 24 0c 8e 00 00 	movl   $0x8e,0xc(%esp)
  107894:	00 
  107895:	c7 44 24 08 08 00 00 	movl   $0x8,0x8(%esp)
  10789c:	00 
  10789d:	89 44 24 04          	mov    %eax,0x4(%esp)
  1078a1:	c7 04 24 25 00 00 00 	movl   $0x25,(%esp)
  1078a8:	e8 c4 f8 ff ff       	call   107171 <_ZL12idt_set_gatehjth>
  1078ad:	b8 f9 83 10 00       	mov    $0x1083f9,%eax
  1078b2:	c7 44 24 0c 8e 00 00 	movl   $0x8e,0xc(%esp)
  1078b9:	00 
  1078ba:	c7 44 24 08 08 00 00 	movl   $0x8,0x8(%esp)
  1078c1:	00 
  1078c2:	89 44 24 04          	mov    %eax,0x4(%esp)
  1078c6:	c7 04 24 26 00 00 00 	movl   $0x26,(%esp)
  1078cd:	e8 9f f8 ff ff       	call   107171 <_ZL12idt_set_gatehjth>
  1078d2:	b8 00 84 10 00       	mov    $0x108400,%eax
  1078d7:	c7 44 24 0c 8e 00 00 	movl   $0x8e,0xc(%esp)
  1078de:	00 
  1078df:	c7 44 24 08 08 00 00 	movl   $0x8,0x8(%esp)
  1078e6:	00 
  1078e7:	89 44 24 04          	mov    %eax,0x4(%esp)
  1078eb:	c7 04 24 27 00 00 00 	movl   $0x27,(%esp)
  1078f2:	e8 7a f8 ff ff       	call   107171 <_ZL12idt_set_gatehjth>
  1078f7:	b8 07 84 10 00       	mov    $0x108407,%eax
  1078fc:	c7 44 24 0c 8e 00 00 	movl   $0x8e,0xc(%esp)
  107903:	00 
  107904:	c7 44 24 08 08 00 00 	movl   $0x8,0x8(%esp)
  10790b:	00 
  10790c:	89 44 24 04          	mov    %eax,0x4(%esp)
  107910:	c7 04 24 28 00 00 00 	movl   $0x28,(%esp)
  107917:	e8 55 f8 ff ff       	call   107171 <_ZL12idt_set_gatehjth>
  10791c:	b8 0e 84 10 00       	mov    $0x10840e,%eax
  107921:	c7 44 24 0c 8e 00 00 	movl   $0x8e,0xc(%esp)
  107928:	00 
  107929:	c7 44 24 08 08 00 00 	movl   $0x8,0x8(%esp)
  107930:	00 
  107931:	89 44 24 04          	mov    %eax,0x4(%esp)
  107935:	c7 04 24 29 00 00 00 	movl   $0x29,(%esp)
  10793c:	e8 30 f8 ff ff       	call   107171 <_ZL12idt_set_gatehjth>
  107941:	b8 15 84 10 00       	mov    $0x108415,%eax
  107946:	c7 44 24 0c 8e 00 00 	movl   $0x8e,0xc(%esp)
  10794d:	00 
  10794e:	c7 44 24 08 08 00 00 	movl   $0x8,0x8(%esp)
  107955:	00 
  107956:	89 44 24 04          	mov    %eax,0x4(%esp)
  10795a:	c7 04 24 2a 00 00 00 	movl   $0x2a,(%esp)
  107961:	e8 0b f8 ff ff       	call   107171 <_ZL12idt_set_gatehjth>
  107966:	b8 1c 84 10 00       	mov    $0x10841c,%eax
  10796b:	c7 44 24 0c 8e 00 00 	movl   $0x8e,0xc(%esp)
  107972:	00 
  107973:	c7 44 24 08 08 00 00 	movl   $0x8,0x8(%esp)
  10797a:	00 
  10797b:	89 44 24 04          	mov    %eax,0x4(%esp)
  10797f:	c7 04 24 2b 00 00 00 	movl   $0x2b,(%esp)
  107986:	e8 e6 f7 ff ff       	call   107171 <_ZL12idt_set_gatehjth>
  10798b:	b8 23 84 10 00       	mov    $0x108423,%eax
  107990:	c7 44 24 0c 8e 00 00 	movl   $0x8e,0xc(%esp)
  107997:	00 
  107998:	c7 44 24 08 08 00 00 	movl   $0x8,0x8(%esp)
  10799f:	00 
  1079a0:	89 44 24 04          	mov    %eax,0x4(%esp)
  1079a4:	c7 04 24 2c 00 00 00 	movl   $0x2c,(%esp)
  1079ab:	e8 c1 f7 ff ff       	call   107171 <_ZL12idt_set_gatehjth>
  1079b0:	b8 2a 84 10 00       	mov    $0x10842a,%eax
  1079b5:	c7 44 24 0c 8e 00 00 	movl   $0x8e,0xc(%esp)
  1079bc:	00 
  1079bd:	c7 44 24 08 08 00 00 	movl   $0x8,0x8(%esp)
  1079c4:	00 
  1079c5:	89 44 24 04          	mov    %eax,0x4(%esp)
  1079c9:	c7 04 24 2d 00 00 00 	movl   $0x2d,(%esp)
  1079d0:	e8 9c f7 ff ff       	call   107171 <_ZL12idt_set_gatehjth>
  1079d5:	b8 31 84 10 00       	mov    $0x108431,%eax
  1079da:	c7 44 24 0c 8e 00 00 	movl   $0x8e,0xc(%esp)
  1079e1:	00 
  1079e2:	c7 44 24 08 08 00 00 	movl   $0x8,0x8(%esp)
  1079e9:	00 
  1079ea:	89 44 24 04          	mov    %eax,0x4(%esp)
  1079ee:	c7 04 24 2e 00 00 00 	movl   $0x2e,(%esp)
  1079f5:	e8 77 f7 ff ff       	call   107171 <_ZL12idt_set_gatehjth>
  1079fa:	b8 38 84 10 00       	mov    $0x108438,%eax
  1079ff:	c7 44 24 0c 8e 00 00 	movl   $0x8e,0xc(%esp)
  107a06:	00 
  107a07:	c7 44 24 08 08 00 00 	movl   $0x8,0x8(%esp)
  107a0e:	00 
  107a0f:	89 44 24 04          	mov    %eax,0x4(%esp)
  107a13:	c7 04 24 2f 00 00 00 	movl   $0x2f,(%esp)
  107a1a:	e8 52 f7 ff ff       	call   107171 <_ZL12idt_set_gatehjth>
  107a1f:	b8 20 d1 10 00       	mov    $0x10d120,%eax
  107a24:	89 04 24             	mov    %eax,(%esp)
  107a27:	e8 64 07 00 00       	call   108190 <idt_flush>
  107a2c:	c9                   	leave  
  107a2d:	c3                   	ret    

00107a2e <_Z22init_descriptor_tablesv>:
  107a2e:	55                   	push   %ebp
  107a2f:	89 e5                	mov    %esp,%ebp
  107a31:	83 ec 18             	sub    $0x18,%esp
  107a34:	e8 28 f6 ff ff       	call   107061 <_ZL8init_gdtv>
  107a39:	e8 ae f7 ff ff       	call   1071ec <_ZL8init_idtv>
  107a3e:	c7 04 24 60 90 10 00 	movl   $0x109060,(%esp)
  107a45:	e8 81 8e ff ff       	call   1008cb <debug_print>
  107a4a:	c7 44 24 04 28 00 00 	movl   $0x28,0x4(%esp)
  107a51:	00 
  107a52:	c7 04 24 e0 c8 10 00 	movl   $0x10c8e0,(%esp)
  107a59:	e8 8f 8e ff ff       	call   1008ed <debug_print_dump>
  107a5e:	c7 44 24 04 02 00 00 	movl   $0x2,0x4(%esp)
  107a65:	00 
  107a66:	c7 04 24 7f 90 10 00 	movl   $0x10907f,(%esp)
  107a6d:	e8 7b 8c ff ff       	call   1006ed <debug_write>
  107a72:	c7 04 24 84 90 10 00 	movl   $0x109084,(%esp)
  107a79:	e8 4d 8e ff ff       	call   1008cb <debug_print>
  107a7e:	c7 44 24 04 20 00 00 	movl   $0x20,0x4(%esp)
  107a85:	00 
  107a86:	c7 04 24 20 c9 10 00 	movl   $0x10c920,(%esp)
  107a8d:	e8 5b 8e ff ff       	call   1008ed <debug_print_dump>
  107a92:	c7 44 24 04 02 00 00 	movl   $0x2,0x4(%esp)
  107a99:	00 
  107a9a:	c7 04 24 7f 90 10 00 	movl   $0x10907f,(%esp)
  107aa1:	e8 47 8c ff ff       	call   1006ed <debug_write>
  107aa6:	c9                   	leave  
  107aa7:	c3                   	ret    

00107aa8 <_ZL4outbth>:
  107aa8:	55                   	push   %ebp
  107aa9:	89 e5                	mov    %esp,%ebp
  107aab:	83 ec 08             	sub    $0x8,%esp
  107aae:	8b 55 08             	mov    0x8(%ebp),%edx
  107ab1:	8b 45 0c             	mov    0xc(%ebp),%eax
  107ab4:	66 89 55 fc          	mov    %dx,-0x4(%ebp)
  107ab8:	88 45 f8             	mov    %al,-0x8(%ebp)
  107abb:	0f b7 55 fc          	movzwl -0x4(%ebp),%edx
  107abf:	0f b6 45 f8          	movzbl -0x8(%ebp),%eax
  107ac3:	ee                   	out    %al,(%dx)
  107ac4:	c9                   	leave  
  107ac5:	c3                   	ret    

00107ac6 <_ZL3inbt>:
  107ac6:	55                   	push   %ebp
  107ac7:	89 e5                	mov    %esp,%ebp
  107ac9:	83 ec 14             	sub    $0x14,%esp
  107acc:	8b 45 08             	mov    0x8(%ebp),%eax
  107acf:	66 89 45 ec          	mov    %ax,-0x14(%ebp)
  107ad3:	0f b7 45 ec          	movzwl -0x14(%ebp),%eax
  107ad7:	89 c2                	mov    %eax,%edx
  107ad9:	ec                   	in     (%dx),%al
  107ada:	88 45 ff             	mov    %al,-0x1(%ebp)
  107add:	0f b6 45 ff          	movzbl -0x1(%ebp),%eax
  107ae1:	c9                   	leave  
  107ae2:	c3                   	ret    

00107ae3 <_Z10init_timerj>:
  107ae3:	55                   	push   %ebp
  107ae4:	89 e5                	mov    %esp,%ebp
  107ae6:	83 ec 18             	sub    $0x18,%esp
  107ae9:	b8 dc 34 12 00       	mov    $0x1234dc,%eax
  107aee:	ba 00 00 00 00       	mov    $0x0,%edx
  107af3:	f7 75 08             	divl   0x8(%ebp)
  107af6:	89 45 fc             	mov    %eax,-0x4(%ebp)
  107af9:	c7 44 24 04 36 00 00 	movl   $0x36,0x4(%esp)
  107b00:	00 
  107b01:	c7 04 24 43 00 00 00 	movl   $0x43,(%esp)
  107b08:	e8 9b ff ff ff       	call   107aa8 <_ZL4outbth>
  107b0d:	8b 45 fc             	mov    -0x4(%ebp),%eax
  107b10:	88 45 fb             	mov    %al,-0x5(%ebp)
  107b13:	8b 45 fc             	mov    -0x4(%ebp),%eax
  107b16:	c1 e8 08             	shr    $0x8,%eax
  107b19:	88 45 fa             	mov    %al,-0x6(%ebp)
  107b1c:	0f b6 45 fb          	movzbl -0x5(%ebp),%eax
  107b20:	89 44 24 04          	mov    %eax,0x4(%esp)
  107b24:	c7 04 24 40 00 00 00 	movl   $0x40,(%esp)
  107b2b:	e8 78 ff ff ff       	call   107aa8 <_ZL4outbth>
  107b30:	0f b6 45 fa          	movzbl -0x6(%ebp),%eax
  107b34:	89 44 24 04          	mov    %eax,0x4(%esp)
  107b38:	c7 04 24 40 00 00 00 	movl   $0x40,(%esp)
  107b3f:	e8 64 ff ff ff       	call   107aa8 <_ZL4outbth>
  107b44:	c9                   	leave  
  107b45:	c3                   	ret    

00107b46 <_Z6millisv>:
  107b46:	55                   	push   %ebp
  107b47:	89 e5                	mov    %esp,%ebp
  107b49:	a1 30 98 10 00       	mov    0x109830,%eax
  107b4e:	8b 15 34 98 10 00    	mov    0x109834,%edx
  107b54:	5d                   	pop    %ebp
  107b55:	c3                   	ret    

00107b56 <_Z10scan2asciic>:
  107b56:	55                   	push   %ebp
  107b57:	89 e5                	mov    %esp,%ebp
  107b59:	83 ec 14             	sub    $0x14,%esp
  107b5c:	8b 45 08             	mov    0x8(%ebp),%eax
  107b5f:	88 45 ec             	mov    %al,-0x14(%ebp)
  107b62:	c7 45 f4 00 00 00 00 	movl   $0x0,-0xc(%ebp)
  107b69:	c7 45 fc 00 00 00 00 	movl   $0x0,-0x4(%ebp)
  107b70:	c7 45 f0 00 00 00 00 	movl   $0x0,-0x10(%ebp)
  107b77:	c7 45 f8 00 00 00 00 	movl   $0x0,-0x8(%ebp)
  107b7e:	80 7d ec 00          	cmpb   $0x0,-0x14(%ebp)
  107b82:	79 0b                	jns    107b8f <_Z10scan2asciic+0x39>
  107b84:	c7 45 fc 01 00 00 00 	movl   $0x1,-0x4(%ebp)
  107b8b:	80 65 ec 7f          	andb   $0x7f,-0x14(%ebp)
  107b8f:	0f be 55 ec          	movsbl -0x14(%ebp),%edx
  107b93:	b8 58 00 00 00       	mov    $0x58,%eax
  107b98:	39 c2                	cmp    %eax,%edx
  107b9a:	72 0a                	jb     107ba6 <_Z10scan2asciic+0x50>
  107b9c:	b8 ff ff ff ff       	mov    $0xffffffff,%eax
  107ba1:	e9 2a 01 00 00       	jmp    107cd0 <_Z10scan2asciic+0x17a>
  107ba6:	a1 28 d1 10 00       	mov    0x10d128,%eax
  107bab:	83 e0 03             	and    $0x3,%eax
  107bae:	85 c0                	test   %eax,%eax
  107bb0:	0f 95 c0             	setne  %al
  107bb3:	0f b6 c0             	movzbl %al,%eax
  107bb6:	89 45 f4             	mov    %eax,-0xc(%ebp)
  107bb9:	83 7d f4 00          	cmpl   $0x0,-0xc(%ebp)
  107bbd:	74 11                	je     107bd0 <_Z10scan2asciic+0x7a>
  107bbf:	0f be 45 ec          	movsbl -0x14(%ebp),%eax
  107bc3:	0f b7 84 00 80 91 10 	movzwl 0x109180(%eax,%eax,1),%eax
  107bca:	00 
  107bcb:	0f b7 c0             	movzwl %ax,%eax
  107bce:	eb 0f                	jmp    107bdf <_Z10scan2asciic+0x89>
  107bd0:	0f be 45 ec          	movsbl -0x14(%ebp),%eax
  107bd4:	0f b7 84 00 c0 90 10 	movzwl 0x1090c0(%eax,%eax,1),%eax
  107bdb:	00 
  107bdc:	0f b7 c0             	movzwl %ax,%eax
  107bdf:	89 45 f0             	mov    %eax,-0x10(%ebp)
  107be2:	8b 45 f0             	mov    -0x10(%ebp),%eax
  107be5:	3d 81 03 00 00       	cmp    $0x381,%eax
  107bea:	77 42                	ja     107c2e <_Z10scan2asciic+0xd8>
  107bec:	3d 80 03 00 00       	cmp    $0x380,%eax
  107bf1:	73 62                	jae    107c55 <_Z10scan2asciic+0xff>
  107bf3:	3d 0f 01 00 00       	cmp    $0x10f,%eax
  107bf8:	74 62                	je     107c5c <_Z10scan2asciic+0x106>
  107bfa:	3d 0f 01 00 00       	cmp    $0x10f,%eax
  107bff:	77 13                	ja     107c14 <_Z10scan2asciic+0xbe>
  107c01:	3d 0d 01 00 00       	cmp    $0x10d,%eax
  107c06:	74 66                	je     107c6e <_Z10scan2asciic+0x118>
  107c08:	3d 0e 01 00 00       	cmp    $0x10e,%eax
  107c0d:	74 68                	je     107c77 <_Z10scan2asciic+0x121>
  107c0f:	e9 ac 00 00 00       	jmp    107cc0 <_Z10scan2asciic+0x16a>
  107c14:	3d 11 01 00 00       	cmp    $0x111,%eax
  107c19:	74 65                	je     107c80 <_Z10scan2asciic+0x12a>
  107c1b:	3d 11 01 00 00       	cmp    $0x111,%eax
  107c20:	72 43                	jb     107c65 <_Z10scan2asciic+0x10f>
  107c22:	3d 12 01 00 00       	cmp    $0x112,%eax
  107c27:	74 60                	je     107c89 <_Z10scan2asciic+0x133>
  107c29:	e9 92 00 00 00       	jmp    107cc0 <_Z10scan2asciic+0x16a>
  107c2e:	3d 89 03 00 00       	cmp    $0x389,%eax
  107c33:	77 17                	ja     107c4c <_Z10scan2asciic+0xf6>
  107c35:	3d 88 03 00 00       	cmp    $0x388,%eax
  107c3a:	73 19                	jae    107c55 <_Z10scan2asciic+0xff>
  107c3c:	3d 84 03 00 00       	cmp    $0x384,%eax
  107c41:	74 12                	je     107c55 <_Z10scan2asciic+0xff>
  107c43:	3d 86 03 00 00       	cmp    $0x386,%eax
  107c48:	74 0b                	je     107c55 <_Z10scan2asciic+0xff>
  107c4a:	eb 74                	jmp    107cc0 <_Z10scan2asciic+0x16a>
  107c4c:	3d 8c 03 00 00       	cmp    $0x38c,%eax
  107c51:	74 02                	je     107c55 <_Z10scan2asciic+0xff>
  107c53:	eb 6b                	jmp    107cc0 <_Z10scan2asciic+0x16a>
  107c55:	b8 00 00 00 00       	mov    $0x0,%eax
  107c5a:	eb 74                	jmp    107cd0 <_Z10scan2asciic+0x17a>
  107c5c:	c7 45 f8 01 00 00 00 	movl   $0x1,-0x8(%ebp)
  107c63:	eb 2c                	jmp    107c91 <_Z10scan2asciic+0x13b>
  107c65:	c7 45 f8 02 00 00 00 	movl   $0x2,-0x8(%ebp)
  107c6c:	eb 23                	jmp    107c91 <_Z10scan2asciic+0x13b>
  107c6e:	c7 45 f8 04 00 00 00 	movl   $0x4,-0x8(%ebp)
  107c75:	eb 1a                	jmp    107c91 <_Z10scan2asciic+0x13b>
  107c77:	c7 45 f8 08 00 00 00 	movl   $0x8,-0x8(%ebp)
  107c7e:	eb 11                	jmp    107c91 <_Z10scan2asciic+0x13b>
  107c80:	c7 45 f8 10 00 00 00 	movl   $0x10,-0x8(%ebp)
  107c87:	eb 08                	jmp    107c91 <_Z10scan2asciic+0x13b>
  107c89:	c7 45 f8 20 00 00 00 	movl   $0x20,-0x8(%ebp)
  107c90:	90                   	nop
  107c91:	83 7d fc 00          	cmpl   $0x0,-0x4(%ebp)
  107c95:	74 15                	je     107cac <_Z10scan2asciic+0x156>
  107c97:	8b 45 f8             	mov    -0x8(%ebp),%eax
  107c9a:	f7 d0                	not    %eax
  107c9c:	89 c2                	mov    %eax,%edx
  107c9e:	a1 28 d1 10 00       	mov    0x10d128,%eax
  107ca3:	21 d0                	and    %edx,%eax
  107ca5:	a3 28 d1 10 00       	mov    %eax,0x10d128
  107caa:	eb 0d                	jmp    107cb9 <_Z10scan2asciic+0x163>
  107cac:	a1 28 d1 10 00       	mov    0x10d128,%eax
  107cb1:	0b 45 f8             	or     -0x8(%ebp),%eax
  107cb4:	a3 28 d1 10 00       	mov    %eax,0x10d128
  107cb9:	b8 00 00 00 00       	mov    $0x0,%eax
  107cbe:	eb 10                	jmp    107cd0 <_Z10scan2asciic+0x17a>
  107cc0:	83 7d fc 00          	cmpl   $0x0,-0x4(%ebp)
  107cc4:	75 05                	jne    107ccb <_Z10scan2asciic+0x175>
  107cc6:	8b 45 f0             	mov    -0x10(%ebp),%eax
  107cc9:	eb 05                	jmp    107cd0 <_Z10scan2asciic+0x17a>
  107ccb:	b8 00 00 00 00       	mov    $0x0,%eax
  107cd0:	c9                   	leave  
  107cd1:	c3                   	ret    

00107cd2 <_ZL4in32tPj>:
  107cd2:	55                   	push   %ebp
  107cd3:	89 e5                	mov    %esp,%ebp
  107cd5:	83 ec 04             	sub    $0x4,%esp
  107cd8:	8b 45 08             	mov    0x8(%ebp),%eax
  107cdb:	66 89 45 fc          	mov    %ax,-0x4(%ebp)
  107cdf:	0f b7 45 fc          	movzwl -0x4(%ebp),%eax
  107ce3:	89 c2                	mov    %eax,%edx
  107ce5:	ed                   	in     (%dx),%eax
  107ce6:	89 c2                	mov    %eax,%edx
  107ce8:	8b 45 0c             	mov    0xc(%ebp),%eax
  107ceb:	89 10                	mov    %edx,(%eax)
  107ced:	c9                   	leave  
  107cee:	c3                   	ret    

00107cef <_ZL5out32tj>:
  107cef:	55                   	push   %ebp
  107cf0:	89 e5                	mov    %esp,%ebp
  107cf2:	83 ec 04             	sub    $0x4,%esp
  107cf5:	8b 45 08             	mov    0x8(%ebp),%eax
  107cf8:	66 89 45 fc          	mov    %ax,-0x4(%ebp)
  107cfc:	8b 45 0c             	mov    0xc(%ebp),%eax
  107cff:	0f b7 55 fc          	movzwl -0x4(%ebp),%edx
  107d03:	ef                   	out    %eax,(%dx)
  107d04:	c9                   	leave  
  107d05:	c3                   	ret    

00107d06 <_Z12ReadConfig32jjjjPj>:
  107d06:	55                   	push   %ebp
  107d07:	89 e5                	mov    %esp,%ebp
  107d09:	83 ec 18             	sub    $0x18,%esp
  107d0c:	c7 45 fc 00 00 00 00 	movl   $0x0,-0x4(%ebp)
  107d13:	0f b6 45 ff          	movzbl -0x1(%ebp),%eax
  107d17:	83 c8 80             	or     $0xffffff80,%eax
  107d1a:	88 45 ff             	mov    %al,-0x1(%ebp)
  107d1d:	8b 45 14             	mov    0x14(%ebp),%eax
  107d20:	83 e0 3f             	and    $0x3f,%eax
  107d23:	8d 14 85 00 00 00 00 	lea    0x0(,%eax,4),%edx
  107d2a:	0f b6 45 fc          	movzbl -0x4(%ebp),%eax
  107d2e:	83 e0 03             	and    $0x3,%eax
  107d31:	09 d0                	or     %edx,%eax
  107d33:	88 45 fc             	mov    %al,-0x4(%ebp)
  107d36:	8b 45 10             	mov    0x10(%ebp),%eax
  107d39:	83 e0 07             	and    $0x7,%eax
  107d3c:	83 e0 07             	and    $0x7,%eax
  107d3f:	89 c2                	mov    %eax,%edx
  107d41:	0f b6 45 fd          	movzbl -0x3(%ebp),%eax
  107d45:	83 e0 f8             	and    $0xfffffff8,%eax
  107d48:	09 d0                	or     %edx,%eax
  107d4a:	88 45 fd             	mov    %al,-0x3(%ebp)
  107d4d:	8b 45 0c             	mov    0xc(%ebp),%eax
  107d50:	83 e0 1f             	and    $0x1f,%eax
  107d53:	8d 14 c5 00 00 00 00 	lea    0x0(,%eax,8),%edx
  107d5a:	0f b6 45 fd          	movzbl -0x3(%ebp),%eax
  107d5e:	83 e0 07             	and    $0x7,%eax
  107d61:	09 d0                	or     %edx,%eax
  107d63:	88 45 fd             	mov    %al,-0x3(%ebp)
  107d66:	8b 45 08             	mov    0x8(%ebp),%eax
  107d69:	88 45 fe             	mov    %al,-0x2(%ebp)
  107d6c:	8b 45 fc             	mov    -0x4(%ebp),%eax
  107d6f:	89 44 24 04          	mov    %eax,0x4(%esp)
  107d73:	c7 04 24 f8 0c 00 00 	movl   $0xcf8,(%esp)
  107d7a:	e8 70 ff ff ff       	call   107cef <_ZL5out32tj>
  107d7f:	8b 45 18             	mov    0x18(%ebp),%eax
  107d82:	89 44 24 04          	mov    %eax,0x4(%esp)
  107d86:	c7 04 24 fc 0c 00 00 	movl   $0xcfc,(%esp)
  107d8d:	e8 40 ff ff ff       	call   107cd2 <_ZL4in32tPj>
  107d92:	90                   	nop
  107d93:	c9                   	leave  
  107d94:	c3                   	ret    

00107d95 <_Z18GetPCIDevClassNamej>:
  107d95:	55                   	push   %ebp
  107d96:	89 e5                	mov    %esp,%ebp
  107d98:	83 ec 10             	sub    $0x10,%esp
  107d9b:	c7 45 fc 00 00 00 00 	movl   $0x0,-0x4(%ebp)
  107da2:	eb 34                	jmp    107dd8 <_Z18GetPCIDevClassNamej+0x43>
  107da4:	8b 55 fc             	mov    -0x4(%ebp),%edx
  107da7:	89 d0                	mov    %edx,%eax
  107da9:	c1 e0 03             	shl    $0x3,%eax
  107dac:	01 d0                	add    %edx,%eax
  107dae:	c1 e0 02             	shl    $0x2,%eax
  107db1:	05 40 93 10 00       	add    $0x109340,%eax
  107db6:	8b 00                	mov    (%eax),%eax
  107db8:	3b 45 08             	cmp    0x8(%ebp),%eax
  107dbb:	75 17                	jne    107dd4 <_Z18GetPCIDevClassNamej+0x3f>
  107dbd:	8b 55 fc             	mov    -0x4(%ebp),%edx
  107dc0:	89 d0                	mov    %edx,%eax
  107dc2:	c1 e0 03             	shl    $0x3,%eax
  107dc5:	01 d0                	add    %edx,%eax
  107dc7:	c1 e0 02             	shl    $0x2,%eax
  107dca:	05 40 93 10 00       	add    $0x109340,%eax
  107dcf:	83 c0 04             	add    $0x4,%eax
  107dd2:	eb 15                	jmp    107de9 <_Z18GetPCIDevClassNamej+0x54>
  107dd4:	83 45 fc 01          	addl   $0x1,-0x4(%ebp)
  107dd8:	8b 55 fc             	mov    -0x4(%ebp),%edx
  107ddb:	b8 13 00 00 00       	mov    $0x13,%eax
  107de0:	39 c2                	cmp    %eax,%edx
  107de2:	72 c0                	jb     107da4 <_Z18GetPCIDevClassNamej+0xf>
  107de4:	b8 00 00 00 00       	mov    $0x0,%eax
  107de9:	c9                   	leave  
  107dea:	c3                   	ret    

00107deb <_Z16ReadPCIDevHeaderjjjP12PCIDevHeader>:
  107deb:	55                   	push   %ebp
  107dec:	89 e5                	mov    %esp,%ebp
  107dee:	83 ec 24             	sub    $0x24,%esp
  107df1:	83 7d 14 00          	cmpl   $0x0,0x14(%ebp)
  107df5:	75 07                	jne    107dfe <_Z16ReadPCIDevHeaderjjjP12PCIDevHeader+0x13>
  107df7:	b8 01 00 00 00       	mov    $0x1,%eax
  107dfc:	eb 7c                	jmp    107e7a <_Z16ReadPCIDevHeaderjjjP12PCIDevHeader+0x8f>
  107dfe:	c7 45 fc 00 00 00 00 	movl   $0x0,-0x4(%ebp)
  107e05:	eb 37                	jmp    107e3e <_Z16ReadPCIDevHeaderjjjP12PCIDevHeader+0x53>
  107e07:	8b 45 fc             	mov    -0x4(%ebp),%eax
  107e0a:	8d 14 85 00 00 00 00 	lea    0x0(,%eax,4),%edx
  107e11:	8b 45 14             	mov    0x14(%ebp),%eax
  107e14:	01 c2                	add    %eax,%edx
  107e16:	8b 45 fc             	mov    -0x4(%ebp),%eax
  107e19:	89 54 24 10          	mov    %edx,0x10(%esp)
  107e1d:	89 44 24 0c          	mov    %eax,0xc(%esp)
  107e21:	8b 45 10             	mov    0x10(%ebp),%eax
  107e24:	89 44 24 08          	mov    %eax,0x8(%esp)
  107e28:	8b 45 0c             	mov    0xc(%ebp),%eax
  107e2b:	89 44 24 04          	mov    %eax,0x4(%esp)
  107e2f:	8b 45 08             	mov    0x8(%ebp),%eax
  107e32:	89 04 24             	mov    %eax,(%esp)
  107e35:	e8 cc fe ff ff       	call   107d06 <_Z12ReadConfig32jjjjPj>
  107e3a:	83 45 fc 01          	addl   $0x1,-0x4(%ebp)
  107e3e:	8b 55 fc             	mov    -0x4(%ebp),%edx
  107e41:	b8 04 00 00 00       	mov    $0x4,%eax
  107e46:	39 c2                	cmp    %eax,%edx
  107e48:	72 bd                	jb     107e07 <_Z16ReadPCIDevHeaderjjjP12PCIDevHeader+0x1c>
  107e4a:	8b 45 14             	mov    0x14(%ebp),%eax
  107e4d:	0f b7 00             	movzwl (%eax),%eax
  107e50:	66 85 c0             	test   %ax,%ax
  107e53:	74 19                	je     107e6e <_Z16ReadPCIDevHeaderjjjP12PCIDevHeader+0x83>
  107e55:	8b 45 14             	mov    0x14(%ebp),%eax
  107e58:	0f b7 00             	movzwl (%eax),%eax
  107e5b:	66 83 f8 ff          	cmp    $0xffff,%ax
  107e5f:	74 0d                	je     107e6e <_Z16ReadPCIDevHeaderjjjP12PCIDevHeader+0x83>
  107e61:	8b 45 14             	mov    0x14(%ebp),%eax
  107e64:	0f b7 40 02          	movzwl 0x2(%eax),%eax
  107e68:	66 83 f8 ff          	cmp    $0xffff,%ax
  107e6c:	75 07                	jne    107e75 <_Z16ReadPCIDevHeaderjjjP12PCIDevHeader+0x8a>
  107e6e:	b8 01 00 00 00       	mov    $0x1,%eax
  107e73:	eb 05                	jmp    107e7a <_Z16ReadPCIDevHeaderjjjP12PCIDevHeader+0x8f>
  107e75:	b8 00 00 00 00       	mov    $0x0,%eax
  107e7a:	c9                   	leave  
  107e7b:	c3                   	ret    

00107e7c <_ZL4outbth>:
  107e7c:	55                   	push   %ebp
  107e7d:	89 e5                	mov    %esp,%ebp
  107e7f:	83 ec 08             	sub    $0x8,%esp
  107e82:	8b 55 08             	mov    0x8(%ebp),%edx
  107e85:	8b 45 0c             	mov    0xc(%ebp),%eax
  107e88:	66 89 55 fc          	mov    %dx,-0x4(%ebp)
  107e8c:	88 45 f8             	mov    %al,-0x8(%ebp)
  107e8f:	0f b7 55 fc          	movzwl -0x4(%ebp),%edx
  107e93:	0f b6 45 f8          	movzbl -0x8(%ebp),%eax
  107e97:	ee                   	out    %al,(%dx)
  107e98:	c9                   	leave  
  107e99:	c3                   	ret    

00107e9a <_ZL3inbt>:
  107e9a:	55                   	push   %ebp
  107e9b:	89 e5                	mov    %esp,%ebp
  107e9d:	83 ec 14             	sub    $0x14,%esp
  107ea0:	8b 45 08             	mov    0x8(%ebp),%eax
  107ea3:	66 89 45 ec          	mov    %ax,-0x14(%ebp)
  107ea7:	0f b7 45 ec          	movzwl -0x14(%ebp),%eax
  107eab:	89 c2                	mov    %eax,%edx
  107ead:	ec                   	in     (%dx),%al
  107eae:	88 45 ff             	mov    %al,-0x1(%ebp)
  107eb1:	0f b6 45 ff          	movzbl -0x1(%ebp),%eax
  107eb5:	c9                   	leave  
  107eb6:	c3                   	ret    

00107eb7 <_ZL29platform_abstract_irq_handlerP14interrupt_info>:
  107eb7:	55                   	push   %ebp
  107eb8:	89 e5                	mov    %esp,%ebp
  107eba:	83 ec 08             	sub    $0x8,%esp
  107ebd:	8b 45 08             	mov    0x8(%ebp),%eax
  107ec0:	8b 40 24             	mov    0x24(%eax),%eax
  107ec3:	83 f8 27             	cmp    $0x27,%eax
  107ec6:	76 14                	jbe    107edc <_ZL29platform_abstract_irq_handlerP14interrupt_info+0x25>
  107ec8:	c7 44 24 04 20 00 00 	movl   $0x20,0x4(%esp)
  107ecf:	00 
  107ed0:	c7 04 24 a0 00 00 00 	movl   $0xa0,(%esp)
  107ed7:	e8 a0 ff ff ff       	call   107e7c <_ZL4outbth>
  107edc:	8b 45 08             	mov    0x8(%ebp),%eax
  107edf:	8b 40 24             	mov    0x24(%eax),%eax
  107ee2:	83 f8 1f             	cmp    $0x1f,%eax
  107ee5:	76 14                	jbe    107efb <_ZL29platform_abstract_irq_handlerP14interrupt_info+0x44>
  107ee7:	c7 44 24 04 20 00 00 	movl   $0x20,0x4(%esp)
  107eee:	00 
  107eef:	c7 04 24 20 00 00 00 	movl   $0x20,(%esp)
  107ef6:	e8 81 ff ff ff       	call   107e7c <_ZL4outbth>
  107efb:	c9                   	leave  
  107efc:	c3                   	ret    

00107efd <_Z17PrintPCIDevHeaderjjjP12PCIDevHeader>:
  107efd:	55                   	push   %ebp
  107efe:	89 e5                	mov    %esp,%ebp
  107f00:	83 ec 28             	sub    $0x28,%esp
  107f03:	a1 80 92 10 00       	mov    0x109280,%eax
  107f08:	c7 44 24 04 30 92 10 	movl   $0x109230,0x4(%esp)
  107f0f:	00 
  107f10:	89 04 24             	mov    %eax,(%esp)
  107f13:	e8 c8 8c ff ff       	call   100be0 <_ZN5Print5printEPKc>
  107f18:	8b 55 08             	mov    0x8(%ebp),%edx
  107f1b:	a1 80 92 10 00       	mov    0x109280,%eax
  107f20:	c7 44 24 08 10 00 00 	movl   $0x10,0x8(%esp)
  107f27:	00 
  107f28:	89 54 24 04          	mov    %edx,0x4(%esp)
  107f2c:	89 04 24             	mov    %eax,(%esp)
  107f2f:	e8 16 8d ff ff       	call   100c4a <_ZN5Print5printEii>
  107f34:	a1 80 92 10 00       	mov    0x109280,%eax
  107f39:	c7 44 24 04 35 92 10 	movl   $0x109235,0x4(%esp)
  107f40:	00 
  107f41:	89 04 24             	mov    %eax,(%esp)
  107f44:	e8 97 8c ff ff       	call   100be0 <_ZN5Print5printEPKc>
  107f49:	8b 55 0c             	mov    0xc(%ebp),%edx
  107f4c:	a1 80 92 10 00       	mov    0x109280,%eax
  107f51:	c7 44 24 08 10 00 00 	movl   $0x10,0x8(%esp)
  107f58:	00 
  107f59:	89 54 24 04          	mov    %edx,0x4(%esp)
  107f5d:	89 04 24             	mov    %eax,(%esp)
  107f60:	e8 e5 8c ff ff       	call   100c4a <_ZN5Print5printEii>
  107f65:	a1 80 92 10 00       	mov    0x109280,%eax
  107f6a:	c7 44 24 04 3b 92 10 	movl   $0x10923b,0x4(%esp)
  107f71:	00 
  107f72:	89 04 24             	mov    %eax,(%esp)
  107f75:	e8 66 8c ff ff       	call   100be0 <_ZN5Print5printEPKc>
  107f7a:	8b 55 10             	mov    0x10(%ebp),%edx
  107f7d:	a1 80 92 10 00       	mov    0x109280,%eax
  107f82:	c7 44 24 08 10 00 00 	movl   $0x10,0x8(%esp)
  107f89:	00 
  107f8a:	89 54 24 04          	mov    %edx,0x4(%esp)
  107f8e:	89 04 24             	mov    %eax,(%esp)
  107f91:	e8 b4 8c ff ff       	call   100c4a <_ZN5Print5printEii>
  107f96:	a1 80 92 10 00       	mov    0x109280,%eax
  107f9b:	c7 44 24 04 42 92 10 	movl   $0x109242,0x4(%esp)
  107fa2:	00 
  107fa3:	89 04 24             	mov    %eax,(%esp)
  107fa6:	e8 35 8c ff ff       	call   100be0 <_ZN5Print5printEPKc>
  107fab:	8b 45 14             	mov    0x14(%ebp),%eax
  107fae:	0f b7 00             	movzwl (%eax),%eax
  107fb1:	0f b7 d0             	movzwl %ax,%edx
  107fb4:	a1 80 92 10 00       	mov    0x109280,%eax
  107fb9:	c7 44 24 08 10 00 00 	movl   $0x10,0x8(%esp)
  107fc0:	00 
  107fc1:	89 54 24 04          	mov    %edx,0x4(%esp)
  107fc5:	89 04 24             	mov    %eax,(%esp)
  107fc8:	e8 7d 8c ff ff       	call   100c4a <_ZN5Print5printEii>
  107fcd:	a1 80 92 10 00       	mov    0x109280,%eax
  107fd2:	c7 44 24 04 4b 92 10 	movl   $0x10924b,0x4(%esp)
  107fd9:	00 
  107fda:	89 04 24             	mov    %eax,(%esp)
  107fdd:	e8 fe 8b ff ff       	call   100be0 <_ZN5Print5printEPKc>
  107fe2:	8b 45 14             	mov    0x14(%ebp),%eax
  107fe5:	0f b7 40 02          	movzwl 0x2(%eax),%eax
  107fe9:	0f b7 d0             	movzwl %ax,%edx
  107fec:	a1 80 92 10 00       	mov    0x109280,%eax
  107ff1:	c7 44 24 08 10 00 00 	movl   $0x10,0x8(%esp)
  107ff8:	00 
  107ff9:	89 54 24 04          	mov    %edx,0x4(%esp)
  107ffd:	89 04 24             	mov    %eax,(%esp)
  108000:	e8 45 8c ff ff       	call   100c4a <_ZN5Print5printEii>
  108005:	8b 45 14             	mov    0x14(%ebp),%eax
  108008:	0f b6 40 0b          	movzbl 0xb(%eax),%eax
  10800c:	0f b6 c0             	movzbl %al,%eax
  10800f:	89 04 24             	mov    %eax,(%esp)
  108012:	e8 7e fd ff ff       	call   107d95 <_Z18GetPCIDevClassNamej>
  108017:	89 45 f4             	mov    %eax,-0xc(%ebp)
  10801a:	83 7d f4 00          	cmpl   $0x0,-0xc(%ebp)
  10801e:	74 15                	je     108035 <_Z17PrintPCIDevHeaderjjjP12PCIDevHeader+0x138>
  108020:	a1 80 92 10 00       	mov    0x109280,%eax
  108025:	c7 44 24 04 53 92 10 	movl   $0x109253,0x4(%esp)
  10802c:	00 
  10802d:	89 04 24             	mov    %eax,(%esp)
  108030:	e8 ab 8b ff ff       	call   100be0 <_ZN5Print5printEPKc>
  108035:	a1 80 92 10 00       	mov    0x109280,%eax
  10803a:	8b 55 f4             	mov    -0xc(%ebp),%edx
  10803d:	89 54 24 04          	mov    %edx,0x4(%esp)
  108041:	89 04 24             	mov    %eax,(%esp)
  108044:	e8 97 8b ff ff       	call   100be0 <_ZN5Print5printEPKc>
  108049:	a1 80 92 10 00       	mov    0x109280,%eax
  10804e:	89 04 24             	mov    %eax,(%esp)
  108051:	e8 56 8d ff ff       	call   100dac <_ZN5Print7printlnEv>
  108056:	c9                   	leave  
  108057:	c3                   	ret    

00108058 <_Z7PCIScanv>:
  108058:	55                   	push   %ebp
  108059:	89 e5                	mov    %esp,%ebp
  10805b:	83 ec 38             	sub    $0x38,%esp
  10805e:	c7 45 f4 00 00 00 00 	movl   $0x0,-0xc(%ebp)
  108065:	e9 d8 00 00 00       	jmp    108142 <_Z7PCIScanv+0xea>
  10806a:	c7 45 f0 00 00 00 00 	movl   $0x0,-0x10(%ebp)
  108071:	e9 be 00 00 00       	jmp    108134 <_Z7PCIScanv+0xdc>
  108076:	c7 45 ec 00 00 00 00 	movl   $0x0,-0x14(%ebp)
  10807d:	8b 55 f0             	mov    -0x10(%ebp),%edx
  108080:	8b 45 f4             	mov    -0xc(%ebp),%eax
  108083:	8d 4d dc             	lea    -0x24(%ebp),%ecx
  108086:	89 4c 24 0c          	mov    %ecx,0xc(%esp)
  10808a:	8b 4d ec             	mov    -0x14(%ebp),%ecx
  10808d:	89 4c 24 08          	mov    %ecx,0x8(%esp)
  108091:	89 54 24 04          	mov    %edx,0x4(%esp)
  108095:	89 04 24             	mov    %eax,(%esp)
  108098:	e8 4e fd ff ff       	call   107deb <_Z16ReadPCIDevHeaderjjjP12PCIDevHeader>
  10809d:	85 c0                	test   %eax,%eax
  10809f:	0f 95 c0             	setne  %al
  1080a2:	84 c0                	test   %al,%al
  1080a4:	0f 85 86 00 00 00    	jne    108130 <_Z7PCIScanv+0xd8>
  1080aa:	8b 55 f0             	mov    -0x10(%ebp),%edx
  1080ad:	8b 45 f4             	mov    -0xc(%ebp),%eax
  1080b0:	8d 4d dc             	lea    -0x24(%ebp),%ecx
  1080b3:	89 4c 24 0c          	mov    %ecx,0xc(%esp)
  1080b7:	8b 4d ec             	mov    -0x14(%ebp),%ecx
  1080ba:	89 4c 24 08          	mov    %ecx,0x8(%esp)
  1080be:	89 54 24 04          	mov    %edx,0x4(%esp)
  1080c2:	89 04 24             	mov    %eax,(%esp)
  1080c5:	e8 33 fe ff ff       	call   107efd <_Z17PrintPCIDevHeaderjjjP12PCIDevHeader>
  1080ca:	0f b6 45 ea          	movzbl -0x16(%ebp),%eax
  1080ce:	84 c0                	test   %al,%al
  1080d0:	79 5e                	jns    108130 <_Z7PCIScanv+0xd8>
  1080d2:	c7 45 ec 01 00 00 00 	movl   $0x1,-0x14(%ebp)
  1080d9:	eb 4f                	jmp    10812a <_Z7PCIScanv+0xd2>
  1080db:	8b 55 f0             	mov    -0x10(%ebp),%edx
  1080de:	8b 45 f4             	mov    -0xc(%ebp),%eax
  1080e1:	8d 4d dc             	lea    -0x24(%ebp),%ecx
  1080e4:	89 4c 24 0c          	mov    %ecx,0xc(%esp)
  1080e8:	8b 4d ec             	mov    -0x14(%ebp),%ecx
  1080eb:	89 4c 24 08          	mov    %ecx,0x8(%esp)
  1080ef:	89 54 24 04          	mov    %edx,0x4(%esp)
  1080f3:	89 04 24             	mov    %eax,(%esp)
  1080f6:	e8 f0 fc ff ff       	call   107deb <_Z16ReadPCIDevHeaderjjjP12PCIDevHeader>
  1080fb:	85 c0                	test   %eax,%eax
  1080fd:	0f 95 c0             	setne  %al
  108100:	84 c0                	test   %al,%al
  108102:	74 02                	je     108106 <_Z7PCIScanv+0xae>
  108104:	eb 20                	jmp    108126 <_Z7PCIScanv+0xce>
  108106:	8b 55 f0             	mov    -0x10(%ebp),%edx
  108109:	8b 45 f4             	mov    -0xc(%ebp),%eax
  10810c:	8d 4d dc             	lea    -0x24(%ebp),%ecx
  10810f:	89 4c 24 0c          	mov    %ecx,0xc(%esp)
  108113:	8b 4d ec             	mov    -0x14(%ebp),%ecx
  108116:	89 4c 24 08          	mov    %ecx,0x8(%esp)
  10811a:	89 54 24 04          	mov    %edx,0x4(%esp)
  10811e:	89 04 24             	mov    %eax,(%esp)
  108121:	e8 d7 fd ff ff       	call   107efd <_Z17PrintPCIDevHeaderjjjP12PCIDevHeader>
  108126:	83 45 ec 01          	addl   $0x1,-0x14(%ebp)
  10812a:	83 7d ec 07          	cmpl   $0x7,-0x14(%ebp)
  10812e:	76 ab                	jbe    1080db <_Z7PCIScanv+0x83>
  108130:	83 45 f0 01          	addl   $0x1,-0x10(%ebp)
  108134:	83 7d f0 1f          	cmpl   $0x1f,-0x10(%ebp)
  108138:	0f 8e 38 ff ff ff    	jle    108076 <_Z7PCIScanv+0x1e>
  10813e:	83 45 f4 01          	addl   $0x1,-0xc(%ebp)
  108142:	81 7d f4 fe 00 00 00 	cmpl   $0xfe,-0xc(%ebp)
  108149:	0f 8e 1b ff ff ff    	jle    10806a <_Z7PCIScanv+0x12>
  10814f:	c9                   	leave  
  108150:	c3                   	ret    

00108151 <_Z5kmainv>:
  108151:	55                   	push   %ebp
  108152:	89 e5                	mov    %esp,%ebp
  108154:	83 ec 18             	sub    $0x18,%esp
  108157:	a1 80 92 10 00       	mov    0x109280,%eax
  10815c:	c7 44 24 04 60 92 10 	movl   $0x109260,0x4(%esp)
  108163:	00 
  108164:	89 04 24             	mov    %eax,(%esp)
  108167:	e8 74 8a ff ff       	call   100be0 <_ZN5Print5printEPKc>
  10816c:	e8 e7 fe ff ff       	call   108058 <_Z7PCIScanv>
  108171:	c9                   	leave  
  108172:	c3                   	ret    

00108173 <gdt_flush>:
  108173:	8b 44 24 04          	mov    0x4(%esp),%eax
  108177:	0f 01 10             	lgdtl  (%eax)
  10817a:	66 b8 10 00          	mov    $0x10,%ax
  10817e:	8e d8                	mov    %eax,%ds
  108180:	8e c0                	mov    %eax,%es
  108182:	8e e0                	mov    %eax,%fs
  108184:	8e e8                	mov    %eax,%gs
  108186:	8e d0                	mov    %eax,%ss
  108188:	ea 8f 81 10 00 08 00 	ljmp   $0x8,$0x10818f

0010818f <flush>:
  10818f:	c3                   	ret    

00108190 <idt_flush>:
  108190:	8b 44 24 04          	mov    0x4(%esp),%eax
  108194:	0f 01 18             	lidtl  (%eax)
  108197:	c3                   	ret    

00108198 <_Z16proc_length_initv>:
  108198:	55                   	push   %ebp
  108199:	89 e5                	mov    %esp,%ebp
  10819b:	5d                   	pop    %ebp
  10819c:	c3                   	ret    

0010819d <_ZL4outbth>:
  10819d:	55                   	push   %ebp
  10819e:	89 e5                	mov    %esp,%ebp
  1081a0:	83 ec 08             	sub    $0x8,%esp
  1081a3:	8b 55 08             	mov    0x8(%ebp),%edx
  1081a6:	8b 45 0c             	mov    0xc(%ebp),%eax
  1081a9:	66 89 55 fc          	mov    %dx,-0x4(%ebp)
  1081ad:	88 45 f8             	mov    %al,-0x8(%ebp)
  1081b0:	0f b7 55 fc          	movzwl -0x4(%ebp),%edx
  1081b4:	0f b6 45 f8          	movzbl -0x8(%ebp),%eax
  1081b8:	ee                   	out    %al,(%dx)
  1081b9:	c9                   	leave  
  1081ba:	c3                   	ret    

001081bb <_ZL3inbt>:
  1081bb:	55                   	push   %ebp
  1081bc:	89 e5                	mov    %esp,%ebp
  1081be:	83 ec 14             	sub    $0x14,%esp
  1081c1:	8b 45 08             	mov    0x8(%ebp),%eax
  1081c4:	66 89 45 ec          	mov    %ax,-0x14(%ebp)
  1081c8:	0f b7 45 ec          	movzwl -0x14(%ebp),%eax
  1081cc:	89 c2                	mov    %eax,%edx
  1081ce:	ec                   	in     (%dx),%al
  1081cf:	88 45 ff             	mov    %al,-0x1(%ebp)
  1081d2:	0f b6 45 ff          	movzbl -0x1(%ebp),%eax
  1081d6:	c9                   	leave  
  1081d7:	c3                   	ret    

001081d8 <_ZL29platform_abstract_irq_handlerP14interrupt_info>:
  1081d8:	55                   	push   %ebp
  1081d9:	89 e5                	mov    %esp,%ebp
  1081db:	83 ec 08             	sub    $0x8,%esp
  1081de:	8b 45 08             	mov    0x8(%ebp),%eax
  1081e1:	8b 40 24             	mov    0x24(%eax),%eax
  1081e4:	83 f8 27             	cmp    $0x27,%eax
  1081e7:	76 14                	jbe    1081fd <_ZL29platform_abstract_irq_handlerP14interrupt_info+0x25>
  1081e9:	c7 44 24 04 20 00 00 	movl   $0x20,0x4(%esp)
  1081f0:	00 
  1081f1:	c7 04 24 a0 00 00 00 	movl   $0xa0,(%esp)
  1081f8:	e8 a0 ff ff ff       	call   10819d <_ZL4outbth>
  1081fd:	8b 45 08             	mov    0x8(%ebp),%eax
  108200:	8b 40 24             	mov    0x24(%eax),%eax
  108203:	83 f8 1f             	cmp    $0x1f,%eax
  108206:	76 14                	jbe    10821c <_ZL29platform_abstract_irq_handlerP14interrupt_info+0x44>
  108208:	c7 44 24 04 20 00 00 	movl   $0x20,0x4(%esp)
  10820f:	00 
  108210:	c7 04 24 20 00 00 00 	movl   $0x20,(%esp)
  108217:	e8 81 ff ff ff       	call   10819d <_ZL4outbth>
  10821c:	c9                   	leave  
  10821d:	c3                   	ret    

0010821e <isr_handler>:
  10821e:	55                   	push   %ebp
  10821f:	89 e5                	mov    %esp,%ebp
  108221:	83 ec 48             	sub    $0x48,%esp
  108224:	8b 45 08             	mov    0x8(%ebp),%eax
  108227:	89 04 24             	mov    %eax,(%esp)
  10822a:	8b 45 0c             	mov    0xc(%ebp),%eax
  10822d:	89 44 24 04          	mov    %eax,0x4(%esp)
  108231:	8b 45 10             	mov    0x10(%ebp),%eax
  108234:	89 44 24 08          	mov    %eax,0x8(%esp)
  108238:	8b 45 14             	mov    0x14(%ebp),%eax
  10823b:	89 44 24 0c          	mov    %eax,0xc(%esp)
  10823f:	8b 45 18             	mov    0x18(%ebp),%eax
  108242:	89 44 24 10          	mov    %eax,0x10(%esp)
  108246:	8b 45 1c             	mov    0x1c(%ebp),%eax
  108249:	89 44 24 14          	mov    %eax,0x14(%esp)
  10824d:	8b 45 20             	mov    0x20(%ebp),%eax
  108250:	89 44 24 18          	mov    %eax,0x18(%esp)
  108254:	8b 45 24             	mov    0x24(%ebp),%eax
  108257:	89 44 24 1c          	mov    %eax,0x1c(%esp)
  10825b:	8b 45 28             	mov    0x28(%ebp),%eax
  10825e:	89 44 24 20          	mov    %eax,0x20(%esp)
  108262:	8b 45 2c             	mov    0x2c(%ebp),%eax
  108265:	89 44 24 24          	mov    %eax,0x24(%esp)
  108269:	8b 45 30             	mov    0x30(%ebp),%eax
  10826c:	89 44 24 28          	mov    %eax,0x28(%esp)
  108270:	8b 45 34             	mov    0x34(%ebp),%eax
  108273:	89 44 24 2c          	mov    %eax,0x2c(%esp)
  108277:	8b 45 38             	mov    0x38(%ebp),%eax
  10827a:	89 44 24 30          	mov    %eax,0x30(%esp)
  10827e:	8b 45 3c             	mov    0x3c(%ebp),%eax
  108281:	89 44 24 34          	mov    %eax,0x34(%esp)
  108285:	8b 45 40             	mov    0x40(%ebp),%eax
  108288:	89 44 24 38          	mov    %eax,0x38(%esp)
  10828c:	8b 45 44             	mov    0x44(%ebp),%eax
  10828f:	89 44 24 3c          	mov    %eax,0x3c(%esp)
  108293:	e8 a0 90 ff ff       	call   101338 <abstract_irq_controller>
  108298:	c9                   	leave  
  108299:	c3                   	ret    

0010829a <boot>:
  10829a:	fa                   	cli    
  10829b:	53                   	push   %ebx
  10829c:	e8 e5 7e ff ff       	call   100186 <main>
  1082a1:	f4                   	hlt    

001082a2 <loop>:
  1082a2:	eb fe                	jmp    1082a2 <loop>

001082a4 <isr0>:
  1082a4:	fa                   	cli    
  1082a5:	6a 00                	push   $0x0
  1082a7:	6a 00                	push   $0x0
  1082a9:	e9 91 01 00 00       	jmp    10843f <isr_common_stub>

001082ae <isr1>:
  1082ae:	fa                   	cli    
  1082af:	6a 00                	push   $0x0
  1082b1:	6a 01                	push   $0x1
  1082b3:	e9 87 01 00 00       	jmp    10843f <isr_common_stub>

001082b8 <isr2>:
  1082b8:	fa                   	cli    
  1082b9:	6a 00                	push   $0x0
  1082bb:	6a 02                	push   $0x2
  1082bd:	e9 7d 01 00 00       	jmp    10843f <isr_common_stub>

001082c2 <isr3>:
  1082c2:	fa                   	cli    
  1082c3:	6a 00                	push   $0x0
  1082c5:	6a 03                	push   $0x3
  1082c7:	e9 73 01 00 00       	jmp    10843f <isr_common_stub>

001082cc <isr4>:
  1082cc:	fa                   	cli    
  1082cd:	6a 00                	push   $0x0
  1082cf:	6a 04                	push   $0x4
  1082d1:	e9 69 01 00 00       	jmp    10843f <isr_common_stub>

001082d6 <isr5>:
  1082d6:	fa                   	cli    
  1082d7:	6a 00                	push   $0x0
  1082d9:	6a 05                	push   $0x5
  1082db:	e9 5f 01 00 00       	jmp    10843f <isr_common_stub>

001082e0 <isr6>:
  1082e0:	fa                   	cli    
  1082e1:	6a 00                	push   $0x0
  1082e3:	6a 06                	push   $0x6
  1082e5:	e9 55 01 00 00       	jmp    10843f <isr_common_stub>

001082ea <isr7>:
  1082ea:	fa                   	cli    
  1082eb:	6a 00                	push   $0x0
  1082ed:	6a 07                	push   $0x7
  1082ef:	e9 4b 01 00 00       	jmp    10843f <isr_common_stub>

001082f4 <isr8>:
  1082f4:	fa                   	cli    
  1082f5:	6a 08                	push   $0x8
  1082f7:	e9 43 01 00 00       	jmp    10843f <isr_common_stub>

001082fc <isr9>:
  1082fc:	fa                   	cli    
  1082fd:	6a 00                	push   $0x0
  1082ff:	6a 09                	push   $0x9
  108301:	e9 39 01 00 00       	jmp    10843f <isr_common_stub>

00108306 <isr10>:
  108306:	fa                   	cli    
  108307:	6a 0a                	push   $0xa
  108309:	e9 31 01 00 00       	jmp    10843f <isr_common_stub>

0010830e <isr11>:
  10830e:	fa                   	cli    
  10830f:	6a 0b                	push   $0xb
  108311:	e9 29 01 00 00       	jmp    10843f <isr_common_stub>

00108316 <isr12>:
  108316:	fa                   	cli    
  108317:	6a 0c                	push   $0xc
  108319:	e9 21 01 00 00       	jmp    10843f <isr_common_stub>

0010831e <isr13>:
  10831e:	fa                   	cli    
  10831f:	6a 0d                	push   $0xd
  108321:	e9 19 01 00 00       	jmp    10843f <isr_common_stub>

00108326 <isr14>:
  108326:	fa                   	cli    
  108327:	6a 0e                	push   $0xe
  108329:	e9 11 01 00 00       	jmp    10843f <isr_common_stub>

0010832e <isr15>:
  10832e:	fa                   	cli    
  10832f:	6a 00                	push   $0x0
  108331:	6a 0f                	push   $0xf
  108333:	e9 07 01 00 00       	jmp    10843f <isr_common_stub>

00108338 <isr16>:
  108338:	fa                   	cli    
  108339:	6a 00                	push   $0x0
  10833b:	6a 10                	push   $0x10
  10833d:	e9 fd 00 00 00       	jmp    10843f <isr_common_stub>

00108342 <isr17>:
  108342:	fa                   	cli    
  108343:	6a 00                	push   $0x0
  108345:	6a 11                	push   $0x11
  108347:	e9 f3 00 00 00       	jmp    10843f <isr_common_stub>

0010834c <isr18>:
  10834c:	fa                   	cli    
  10834d:	6a 00                	push   $0x0
  10834f:	6a 12                	push   $0x12
  108351:	e9 e9 00 00 00       	jmp    10843f <isr_common_stub>

00108356 <isr19>:
  108356:	fa                   	cli    
  108357:	6a 00                	push   $0x0
  108359:	6a 13                	push   $0x13
  10835b:	e9 df 00 00 00       	jmp    10843f <isr_common_stub>

00108360 <isr20>:
  108360:	fa                   	cli    
  108361:	6a 00                	push   $0x0
  108363:	6a 14                	push   $0x14
  108365:	e9 d5 00 00 00       	jmp    10843f <isr_common_stub>

0010836a <isr21>:
  10836a:	fa                   	cli    
  10836b:	6a 00                	push   $0x0
  10836d:	6a 15                	push   $0x15
  10836f:	e9 cb 00 00 00       	jmp    10843f <isr_common_stub>

00108374 <isr22>:
  108374:	fa                   	cli    
  108375:	6a 00                	push   $0x0
  108377:	6a 16                	push   $0x16
  108379:	e9 c1 00 00 00       	jmp    10843f <isr_common_stub>

0010837e <isr23>:
  10837e:	fa                   	cli    
  10837f:	6a 00                	push   $0x0
  108381:	6a 17                	push   $0x17
  108383:	e9 b7 00 00 00       	jmp    10843f <isr_common_stub>

00108388 <isr24>:
  108388:	fa                   	cli    
  108389:	6a 00                	push   $0x0
  10838b:	6a 18                	push   $0x18
  10838d:	e9 ad 00 00 00       	jmp    10843f <isr_common_stub>

00108392 <isr25>:
  108392:	fa                   	cli    
  108393:	6a 00                	push   $0x0
  108395:	6a 19                	push   $0x19
  108397:	e9 a3 00 00 00       	jmp    10843f <isr_common_stub>

0010839c <isr26>:
  10839c:	fa                   	cli    
  10839d:	6a 00                	push   $0x0
  10839f:	6a 1a                	push   $0x1a
  1083a1:	e9 99 00 00 00       	jmp    10843f <isr_common_stub>

001083a6 <isr27>:
  1083a6:	fa                   	cli    
  1083a7:	6a 00                	push   $0x0
  1083a9:	6a 1b                	push   $0x1b
  1083ab:	e9 8f 00 00 00       	jmp    10843f <isr_common_stub>

001083b0 <isr28>:
  1083b0:	fa                   	cli    
  1083b1:	6a 00                	push   $0x0
  1083b3:	6a 1c                	push   $0x1c
  1083b5:	e9 85 00 00 00       	jmp    10843f <isr_common_stub>

001083ba <isr29>:
  1083ba:	fa                   	cli    
  1083bb:	6a 00                	push   $0x0
  1083bd:	6a 1d                	push   $0x1d
  1083bf:	eb 7e                	jmp    10843f <isr_common_stub>

001083c1 <isr30>:
  1083c1:	fa                   	cli    
  1083c2:	6a 00                	push   $0x0
  1083c4:	6a 1e                	push   $0x1e
  1083c6:	eb 77                	jmp    10843f <isr_common_stub>

001083c8 <isr31>:
  1083c8:	fa                   	cli    
  1083c9:	6a 00                	push   $0x0
  1083cb:	6a 1f                	push   $0x1f
  1083cd:	eb 70                	jmp    10843f <isr_common_stub>

001083cf <isr32>:
  1083cf:	fa                   	cli    
  1083d0:	6a 00                	push   $0x0
  1083d2:	6a 20                	push   $0x20
  1083d4:	eb 69                	jmp    10843f <isr_common_stub>

001083d6 <isr33>:
  1083d6:	fa                   	cli    
  1083d7:	6a 00                	push   $0x0
  1083d9:	6a 21                	push   $0x21
  1083db:	eb 62                	jmp    10843f <isr_common_stub>

001083dd <isr34>:
  1083dd:	fa                   	cli    
  1083de:	6a 00                	push   $0x0
  1083e0:	6a 22                	push   $0x22
  1083e2:	eb 5b                	jmp    10843f <isr_common_stub>

001083e4 <isr35>:
  1083e4:	fa                   	cli    
  1083e5:	6a 00                	push   $0x0
  1083e7:	6a 23                	push   $0x23
  1083e9:	eb 54                	jmp    10843f <isr_common_stub>

001083eb <isr36>:
  1083eb:	fa                   	cli    
  1083ec:	6a 00                	push   $0x0
  1083ee:	6a 24                	push   $0x24
  1083f0:	eb 4d                	jmp    10843f <isr_common_stub>

001083f2 <isr37>:
  1083f2:	fa                   	cli    
  1083f3:	6a 00                	push   $0x0
  1083f5:	6a 25                	push   $0x25
  1083f7:	eb 46                	jmp    10843f <isr_common_stub>

001083f9 <isr38>:
  1083f9:	fa                   	cli    
  1083fa:	6a 00                	push   $0x0
  1083fc:	6a 26                	push   $0x26
  1083fe:	eb 3f                	jmp    10843f <isr_common_stub>

00108400 <isr39>:
  108400:	fa                   	cli    
  108401:	6a 00                	push   $0x0
  108403:	6a 27                	push   $0x27
  108405:	eb 38                	jmp    10843f <isr_common_stub>

00108407 <isr40>:
  108407:	fa                   	cli    
  108408:	6a 00                	push   $0x0
  10840a:	6a 28                	push   $0x28
  10840c:	eb 31                	jmp    10843f <isr_common_stub>

0010840e <isr41>:
  10840e:	fa                   	cli    
  10840f:	6a 00                	push   $0x0
  108411:	6a 29                	push   $0x29
  108413:	eb 2a                	jmp    10843f <isr_common_stub>

00108415 <isr42>:
  108415:	fa                   	cli    
  108416:	6a 00                	push   $0x0
  108418:	6a 2a                	push   $0x2a
  10841a:	eb 23                	jmp    10843f <isr_common_stub>

0010841c <isr43>:
  10841c:	fa                   	cli    
  10841d:	6a 00                	push   $0x0
  10841f:	6a 2b                	push   $0x2b
  108421:	eb 1c                	jmp    10843f <isr_common_stub>

00108423 <isr44>:
  108423:	fa                   	cli    
  108424:	6a 00                	push   $0x0
  108426:	6a 2c                	push   $0x2c
  108428:	eb 15                	jmp    10843f <isr_common_stub>

0010842a <isr45>:
  10842a:	fa                   	cli    
  10842b:	6a 00                	push   $0x0
  10842d:	6a 2d                	push   $0x2d
  10842f:	eb 0e                	jmp    10843f <isr_common_stub>

00108431 <isr46>:
  108431:	fa                   	cli    
  108432:	6a 00                	push   $0x0
  108434:	6a 2e                	push   $0x2e
  108436:	eb 07                	jmp    10843f <isr_common_stub>

00108438 <isr47>:
  108438:	fa                   	cli    
  108439:	6a 00                	push   $0x0
  10843b:	6a 2f                	push   $0x2f
  10843d:	eb 00                	jmp    10843f <isr_common_stub>

0010843f <isr_common_stub>:
  10843f:	60                   	pusha  
  108440:	66 8c d8             	mov    %ds,%ax
  108443:	50                   	push   %eax
  108444:	66 b8 10 00          	mov    $0x10,%ax
  108448:	8e d8                	mov    %eax,%ds
  10844a:	8e c0                	mov    %eax,%es
  10844c:	8e e0                	mov    %eax,%fs
  10844e:	8e e8                	mov    %eax,%gs
  108450:	e8 e3 8e ff ff       	call   101338 <abstract_irq_controller>
  108455:	58                   	pop    %eax
  108456:	8e d8                	mov    %eax,%ds
  108458:	8e c0                	mov    %eax,%es
  10845a:	8e e0                	mov    %eax,%fs
  10845c:	8e e8                	mov    %eax,%gs
  10845e:	61                   	popa   
  10845f:	83 c4 08             	add    $0x8,%esp
  108462:	fb                   	sti    
  108463:	cf                   	iret   
  108464:	70 63                	jo     1084c9 <isr_common_stub+0x8a>
  108466:	69 73 63 61 6e 00 74 	imul   $0x74006e61,0x63(%ebx),%esi
  10846d:	65                   	gs
  10846e:	73 74                	jae    1084e4 <isr_common_stub+0xa5>
  108470:	00 74 69 6d          	add    %dh,0x6d(%ecx,%ebp,2)
  108474:	65                   	gs
  108475:	72 00                	jb     108477 <isr_common_stub+0x38>
  108477:	63 6c 72 00          	arpl   %bp,0x0(%edx,%esi,2)
  10847b:	72 65                	jb     1084e2 <isr_common_stub+0xa3>
  10847d:	73 65                	jae    1084e4 <isr_common_stub+0xa5>
  10847f:	74 00                	je     108481 <isr_common_stub+0x42>
  108481:	48                   	dec    %eax
  108482:	65                   	gs
  108483:	6c                   	insb   (%dx),%es:(%edi)
  108484:	6c                   	insb   (%dx),%es:(%edi)
  108485:	6f                   	outsl  %ds:(%esi),(%dx)
  108486:	57                   	push   %edi
  108487:	6f                   	outsl  %ds:(%esi),(%dx)
  108488:	72 6c                	jb     1084f6 <isr_common_stub+0xb7>
  10848a:	64                   	fs
  10848b:	00 cd                	add    %cl,%ch
  10848d:	cc                   	int3   
  10848e:	cc                   	int3   
  10848f:	3d 00 00 80 3f       	cmp    $0x3f800000,%eax
  108494:	00 00                	add    %al,(%eax)
  108496:	96                   	xchg   %eax,%esi
  108497:	43                   	inc    %ebx
  108498:	3e                   	ds
  108499:	07                   	pop    %es
  10849a:	10 00                	adc    %al,(%eax)
  10849c:	44                   	inc    %esp
  10849d:	07                   	pop    %es
  10849e:	10 00                	adc    %al,(%eax)
  1084a0:	4a                   	dec    %edx
  1084a1:	07                   	pop    %es
  1084a2:	10 00                	adc    %al,(%eax)
  1084a4:	50                   	push   %eax
  1084a5:	07                   	pop    %es
  1084a6:	10 00                	adc    %al,(%eax)
  1084a8:	56                   	push   %esi
  1084a9:	07                   	pop    %es
  1084aa:	10 00                	adc    %al,(%eax)
  1084ac:	5c                   	pop    %esp
  1084ad:	07                   	pop    %es
  1084ae:	10 00                	adc    %al,(%eax)
  1084b0:	62 07                	bound  %eax,(%edi)
  1084b2:	10 00                	adc    %al,(%eax)
  1084b4:	68 07 10 00 6e       	push   $0x6e001007
  1084b9:	07                   	pop    %es
  1084ba:	10 00                	adc    %al,(%eax)
  1084bc:	74 07                	je     1084c5 <isr_common_stub+0x86>
  1084be:	10 00                	adc    %al,(%eax)
  1084c0:	7a 07                	jp     1084c9 <isr_common_stub+0x8a>
  1084c2:	10 00                	adc    %al,(%eax)
  1084c4:	80 07 10             	addb   $0x10,(%edi)
  1084c7:	00 86 07 10 00 8c    	add    %al,-0x73ffeff9(%esi)
  1084cd:	07                   	pop    %es
  1084ce:	10 00                	adc    %al,(%eax)
  1084d0:	92                   	xchg   %eax,%edx
  1084d1:	07                   	pop    %es
  1084d2:	10 00                	adc    %al,(%eax)
  1084d4:	98                   	cwtl   
  1084d5:	07                   	pop    %es
  1084d6:	10 00                	adc    %al,(%eax)
  1084d8:	3a 20                	cmp    (%eax),%ah
  1084da:	00 7c 00 0a          	add    %bh,0xa(%eax,%eax,1)
  1084de:	00 20                	add    %ah,(%eax)
  1084e0:	00 3e                	add    %bh,(%esi)
  1084e2:	3e                   	ds
  1084e3:	53                   	push   %ebx
  1084e4:	59                   	pop    %ecx
  1084e5:	53                   	push   %ebx
  1084e6:	54                   	push   %esp
  1084e7:	45                   	inc    %ebp
  1084e8:	4d                   	dec    %ebp
  1084e9:	20 45 52             	and    %al,0x52(%ebp)
  1084ec:	52                   	push   %edx
  1084ed:	4f                   	dec    %edi
  1084ee:	52                   	push   %edx
  1084ef:	3a 00                	cmp    (%eax),%al
  1084f1:	0d 0a 00 66 90       	or     $0x9066000a,%eax
  1084f6:	66 90                	xchg   %ax,%ax
  1084f8:	6f                   	outsl  %ds:(%esi),(%dx)
  1084f9:	76 66                	jbe    108561 <_ZTV5Print+0x41>
  1084fb:	00 2e                	add    %ch,(%esi)
  1084fd:	00 00                	add    %al,(%eax)
  1084ff:	00 00                	add    %al,(%eax)
  108501:	00 00                	add    %al,(%eax)
  108503:	e0 ff                	loopne 108504 <isr_common_stub+0xc5>
  108505:	ff                   	(bad)  
  108506:	ef                   	out    %eax,(%dx)
  108507:	41                   	inc    %ecx
  108508:	00 00                	add    %al,(%eax)
  10850a:	00 e0                	add    %ah,%al
  10850c:	ff                   	(bad)  
  10850d:	ff                   	(bad)  
  10850e:	ef                   	out    %eax,(%dx)
  10850f:	c1 00 00             	roll   $0x0,(%eax)
  108512:	00 00                	add    %al,(%eax)
  108514:	00 00                	add    %al,(%eax)
  108516:	e0 3f                	loopne 108557 <_ZTV5Print+0x37>
  108518:	00 00                	add    %al,(%eax)
  10851a:	00 00                	add    %al,(%eax)
  10851c:	00 00                	add    %al,(%eax)
  10851e:	24 40                	and    $0x40,%al

00108520 <_ZTV5Print>:
	...
  108528:	8d 00 10 00 24 0b 10 00 3e 3e 41 49 43 5f 55 4e     ....$...>>AIC_UN
  108538:	44 45 46 49 4e 45 44 5f 49 52 51 3a 20 69 72 71     DEFINED_IRQ: irq
  108548:	5f 6e 75 6d 3a 00 0d 0a 00 00 00 00 61 62 73 74     _num:.......abst
  108558:	72 61 63 74 5f 69 72 71 5f 63 6f 6e 74 72 6f 6c     ract_irq_control
  108568:	6c 65 72 5f 53 74 75 62 49 52 51 00 61 69 63 20     ler_StubIRQ.aic 
  108578:	68 61 73 20 62 65 65 6e 20 63 61 6c 6c 65 64 2c     has been called,
  108588:	20 62 75 74 20 6e 6f 74 20 69 6e 69 74 00 66 90      but not init.f.
  108598:	63 61 6c 6c 20 63 6f 6e 73 74 72 3a 00 0d 0a 00     call constr:....
  1085a8:	3e 3e 43 41 4c 4c 20 47 4c 4f 42 41 4c 20 43 4f     >>CALL GLOBAL CO
  1085b8:	4e 53 54 52 55 43 54 4f 52 53 0d 0a 00 63 6f 6e     NSTRUCTORS...con
  1085c8:	73 74 72 20 63 61 6c 6c 3a 0d 0a 00 63 6f 6e 73     str call:...cons
  1085d8:	74 72 20 63 61 6c 6c 20 4f 4b 0d 0a 00 00 00 00     tr call OK......
  1085e8:	67 6c 6f 62 61 6c 20 63 6f 6e 73 74 72 75 63 74     global construct
  1085f8:	6f 72 73 20 73 75 63 63 65 73 66 75 61 6c 79 20     ors succesfualy 
  108608:	63 61 6c 6c 65 64 2e 2e 2e 0d 0a 00 3e 3e 42 53     called......>>BS
  108618:	53 5f 43 4c 45 41 4e 2e 2e 2e 20 20 20 00 4f 4b     S_CLEAN...   .OK
  108628:	0d 0a 00 3e 3e 42 53 53 5f 54 45 53 54 3a 0d 0a     ...>>BSS_TEST:..
  108638:	00 62 73 73 5f 6c 65 6e 67 74 68 3a 00 00 00 00     .bss_length:....
  108648:	73 63 61 6e 20 62 73 73 5f 73 65 63 74 69 6f 6e     scan bss_section
  108658:	20 28 61 6c 6c 20 6e 6f 6e 4e 75 6c 6c 20 62 79      (all nonNull by
  108668:	74 65 73 20 68 61 73 20 62 65 65 6e 20 70 72 69     tes has been pri
  108678:	6e 74 65 64 29 20 2e 2e 2e 2e 2e 2e 2e 0d 0a 00     nted) ..........
  108688:	3a 00 00 00 2a 2a 2a 2a 2a 2a 2a 2a 2a 2a 2a 2a     :...************
  108698:	2a 2a 2a 2a 2a 2a 2a 2a 2a 2a 2a 2a 2a 20 65 6e     ************* en
  1086a8:	64 20 73 63 61 6e 0d 0a 74 6f 74 61 6c 20 73 63     d scan..total sc
  1086b8:	61 6e 65 64 3a 00 0d 0a 74 6f 74 61 6c 20 6e 6f     aned:...total no
  1086c8:	6e 4e 75 6c 6c 3a 00 62 73 73 5f 74 65 73 74 5f     nNull:.bss_test_
  1086d8:	65 6e 64 0d 0a 00 00 00 3e 3e 53 45 43 54 49 4f     end.....>>SECTIO
  1086e8:	4e 53 20 41 4e 44 20 43 4f 4e 53 54 52 55 43 54     NS AND CONSTRUCT
  1086f8:	4f 52 53 20 49 4e 46 4f 3a 0d 0a 00 5f 74 65 78     ORS INFO:..._tex
  108708:	74 5f 62 65 67 69 6e 20 3a 00 5f 74 65 78 74 5f     t_begin :._text_
  108718:	65 6e 64 20 20 20 3a 00 5f 64 61 74 61 5f 62 65     end   :._data_be
  108728:	67 69 6e 20 3a 00 5f 64 61 74 61 5f 65 6e 64 20     gin :._data_end 
  108738:	20 20 3a 00 5f 62 73 73 5f 62 65 67 69 6e 20 20       :._bss_begin  
  108748:	3a 00 5f 62 73 73 5f 65 6e 64 20 20 20 20 3a 00     :._bss_end    :.
  108758:	43 6f 6e 73 74 72 75 63 74 6f 72 20 69 6e 66 6f     Constructor info
  108768:	3a 0d 0a 00 5f 5f 70 72 65 69 6e 69 74 5f 61 72     :...__preinit_ar
  108778:	72 61 79 5f 73 74 61 72 74 3a 00 5f 5f 70 72 65     ray_start:.__pre
  108788:	69 6e 69 74 5f 61 72 72 61 79 5f 65 6e 64 20 20     init_array_end  
  108798:	3a 00 5f 5f 69 6e 69 74 5f 61 72 72 61 79 5f 73     :.__init_array_s
  1087a8:	74 61 72 74 20 20 20 3a 00 5f 5f 69 6e 69 74 5f     tart   :.__init_
  1087b8:	61 72 72 61 79 5f 65 6e 64 20 20 20 20 20 3a 00     array_end     :.
  1087c8:	5f 63 74 6f 72 5f 73 74 61 72 74 20 20 20 20 20     _ctor_start     
  1087d8:	20 20 20 20 20 3a 00 5f 63 74 6f 72 5f 65 6e 64          :._ctor_end
  1087e8:	20 20 20 20 20 20 20 20 20 20 20 20 3a 00 6d 61                 :.ma
  1087f8:	63 68 69 6e 65 00 3a 00                             chine.:.

00108800 <_ZTV11rl_terminal>:
	...
  108808:	3c 20 10 00 24 0b 10 00 96 22 10 00 68 3e 10 00     < ..$...."..h>..
  108818:	6e 3e 10 00 d2 22 10 00 ee 22 10 00 fe 21 10 00     n>..."..."...!..
  108828:	4c 22 10 00 66 90 66 90 66 90 66 90 66 90 66 90     L"..f.f.f.f.f.f.
  108838:	66 90 66 90 66 90 66 90                             f.f.f.f.

00108840 <_ZTV10readline_t>:
	...
  108848:	d0 24 10 00 24 0b 10 00 3c 27 10 00 68 3e 10 00     .$..$...<'..h>..
  108858:	6e 3e 10 00 74 3e 10 00 7a 3e 10 00 1e 27 10 00     n>..t>..z>...'..
  108868:	04 27 10 00 43 6f 6d 6d 61 6e 64 20 22 00 00 00     .'..Command "...
  108878:	22 20 6e 6f 74 20 66 6f 75 6e 64 2e 20 55 73 65     " not found. Use
  108888:	20 22 6c 69 73 74 22 20 69 6e 73 74 72 75 63 74      "list" instruct
  108898:	69 6f 6e 2e 00 47 65 6e 4f 53 00 30 2e 31 00 61     ion..GenOS.0.1.a
  1088a8:	62 6f 75 74 00 70 74 65 73 74 00 6c 69 73 74 00     bout.ptest.list.
  1088b8:	6d 65 6d 6c 69 73 74 00 2a 2e 10 00 33 2e 10 00     memlist.*...3...
  1088c8:	18 2e 10 00 21 2e 10 00 3c 2e 10 00 45 2e 10 00     ....!...<...E...
  1088d8:	64 30 10 00 b4 2e 10 00 72 30 10 00 72 30 10 00     d0......r0..r0..
  1088e8:	1f 2f 10 00 72 30 10 00 f5 2f 10 00 72 30 10 00     ./..r0.../..r0..
  1088f8:	6b 30 10 00 8a 2f 10 00 72 30 10 00 72 30 10 00     k0.../..r0..r0..
  108908:	5d 30 10 00 00 00 00 00 00 00 00 00 00 00 00 00     ]0..............
	...

00108920 <_ZL18s_scanTableNoShift>:
  108920:	00 01 1b 00 31 00 32 00 33 00 34 00 35 00 36 00     ....1.2.3.4.5.6.
  108930:	37 00 38 00 39 00 30 00 2d 00 3d 00 08 00 09 00     7.8.9.0.-.=.....
  108940:	71 00 77 00 65 00 72 00 74 00 79 00 75 00 69 00     q.w.e.r.t.y.u.i.
  108950:	6f 00 70 00 5b 00 5d 00 0a 00 0d 01 61 00 73 00     o.p.[.].....a.s.
  108960:	64 00 66 00 67 00 68 00 6a 00 6b 00 6c 00 3b 00     d.f.g.h.j.k.l.;.
  108970:	27 00 60 00 0f 01 5c 00 7a 00 78 00 63 00 76 00     '.`...\.z.x.c.v.
  108980:	62 00 6e 00 6d 00 2c 00 2e 00 2f 00 10 01 13 01     b.n.m.,.../.....
  108990:	11 01 20 00 14 01 01 01 02 01 03 01 04 01 05 01     .. .............
  1089a0:	06 01 07 01 08 01 09 01 0a 01 15 01 16 01 80 03     ................
  1089b0:	81 03 82 03 83 03 84 03 85 03 86 03 87 03 88 03     ................
  1089c0:	89 03 8a 03 8b 03 8c 03 17 01 00 01 00 01 00 01     ................
	...

001089e0 <_ZL20s_scanTableWithShift>:
  1089e0:	00 01 1b 00 21 00 40 00 23 00 24 00 25 00 5e 00     ....!.@.#.$.%.^.
  1089f0:	26 00 2a 00 28 00 29 00 5f 00 2b 00 08 00 09 00     &.*.(.)._.+.....
  108a00:	51 00 57 00 45 00 52 00 54 00 59 00 55 00 49 00     Q.W.E.R.T.Y.U.I.
  108a10:	4f 00 50 00 7b 00 7d 00 0a 00 0d 01 41 00 53 00     O.P.{.}.....A.S.
  108a20:	44 00 46 00 47 00 48 00 4a 00 4b 00 4c 00 3a 00     D.F.G.H.J.K.L.:.
  108a30:	22 00 7e 00 0f 01 7c 00 5a 00 58 00 43 00 56 00     ".~...|.Z.X.C.V.
  108a40:	42 00 4e 00 4d 00 3c 00 3e 00 3f 00 10 01 13 01     B.N.M.<.>.?.....
  108a50:	11 01 20 00 14 01 01 01 02 01 03 01 04 01 05 01     .. .............
  108a60:	06 01 07 01 08 01 09 01 0a 01 15 01 16 01 80 03     ................
  108a70:	81 03 82 03 83 03 84 03 85 03 86 03 87 03 88 03     ................
  108a80:	89 03 8a 03 8b 03 8c 03 17 01 00 01 00 01 00 01     ................
  108a90:	66 90 66 90 66 90 66 90 66 90 66 90 66 90 66 90     f.f.f.f.f.f.f.f.

00108aa0 <_ZTV14VideoPagePrint>:
	...
  108aa8:	2c 3a 10 00 24 0b 10 00 38 3d 10 00 68 3e 10 00     ,:..$...8=..h>..
  108ab8:	6e 3e 10 00 5c 3c 10 00 ca 3c 10 00 8a 3b 10 00     n>..\<...<...;..
  108ac8:	f4 3b 10 00 66 90 66 90 66 90 66 90 66 90 66 90     .;..f.f.f.f.f.f.
  108ad8:	66 90 66 90 66 90 66 90                             f.f.f.f.

00108ae0 <_ZTV6KeyCom>:
	...
  108ae8:	8d 00 10 00 24 0b 10 00 62 3e 10 00 68 3e 10 00     ....$...b>..h>..
  108af8:	6e 3e 10 00 74 3e 10 00 7a 3e 10 00 80 3e 10 00     n>..t>..z>...>..
  108b08:	86 3e 10 00 66 90 66 90 66 90 66 90 66 90 66 90     .>..f.f.f.f.f.f.
  108b18:	66 90 66 90 66 90 66 90 2d 40 10 00 36 40 10 00     f.f.f.f.-@..6@..
  108b28:	1b 40 10 00 24 40 10 00 3f 40 10 00 48 40 10 00     .@..$@..?@..H@..
  108b38:	9b 41 10 00 c9 40 10 00 e9 41 10 00 e9 41 10 00     .A...@...A...A..
  108b48:	f3 40 10 00 e9 41 10 00 47 41 10 00 e9 41 10 00     .@...A..GA...A..
  108b58:	c2 41 10 00 1d 41 10 00 e9 41 10 00 e9 41 10 00     .A...A...A...A..
  108b68:	71 41 10 00 00 00 00 00 00 00 00 00 00 00 00 00     qA..............
	...

00108b80 <_ZL18s_scanTableNoShift>:
  108b80:	00 01 1b 00 31 00 32 00 33 00 34 00 35 00 36 00     ....1.2.3.4.5.6.
  108b90:	37 00 38 00 39 00 30 00 2d 00 3d 00 08 00 09 00     7.8.9.0.-.=.....
  108ba0:	71 00 77 00 65 00 72 00 74 00 79 00 75 00 69 00     q.w.e.r.t.y.u.i.
  108bb0:	6f 00 70 00 5b 00 5d 00 0a 00 0d 01 61 00 73 00     o.p.[.].....a.s.
  108bc0:	64 00 66 00 67 00 68 00 6a 00 6b 00 6c 00 3b 00     d.f.g.h.j.k.l.;.
  108bd0:	27 00 60 00 0f 01 5c 00 7a 00 78 00 63 00 76 00     '.`...\.z.x.c.v.
  108be0:	62 00 6e 00 6d 00 2c 00 2e 00 2f 00 10 01 13 01     b.n.m.,.../.....
  108bf0:	11 01 20 00 14 01 01 01 02 01 03 01 04 01 05 01     .. .............
  108c00:	06 01 07 01 08 01 09 01 0a 01 15 01 16 01 80 03     ................
  108c10:	81 03 82 03 83 03 84 03 85 03 86 03 87 03 88 03     ................
  108c20:	89 03 8a 03 8b 03 8c 03 17 01 00 01 00 01 00 01     ................
	...

00108c40 <_ZL20s_scanTableWithShift>:
  108c40:	00 01 1b 00 21 00 40 00 23 00 24 00 25 00 5e 00     ....!.@.#.$.%.^.
  108c50:	26 00 2a 00 28 00 29 00 5f 00 2b 00 08 00 09 00     &.*.(.)._.+.....
  108c60:	51 00 57 00 45 00 52 00 54 00 59 00 55 00 49 00     Q.W.E.R.T.Y.U.I.
  108c70:	4f 00 50 00 7b 00 7d 00 0a 00 0d 01 41 00 53 00     O.P.{.}.....A.S.
  108c80:	44 00 46 00 47 00 48 00 4a 00 4b 00 4c 00 3a 00     D.F.G.H.J.K.L.:.
  108c90:	22 00 7e 00 0f 01 7c 00 5a 00 58 00 43 00 56 00     ".~...|.Z.X.C.V.
  108ca0:	42 00 4e 00 4d 00 3c 00 3e 00 3f 00 10 01 13 01     B.N.M.<.>.?.....
  108cb0:	11 01 20 00 14 01 01 01 02 01 03 01 04 01 05 01     .. .............
  108cc0:	06 01 07 01 08 01 09 01 0a 01 15 01 16 01 80 03     ................
  108cd0:	81 03 82 03 83 03 84 03 85 03 86 03 87 03 88 03     ................
  108ce0:	89 03 8a 03 8b 03 8c 03 17 01 00 01 00 01 00 01     ................

00108cf0 <_ZTV11Scan2KeyCom>:
	...
  108cf8:	54 3f 10 00 24 0b 10 00                             T?..$...

00108d00 <_ZTV16Linear_allocator>:
	...
  108d08:	7a 45 10 00 0a 47 10 00 d8 44 10 00 66 90 66 90     zE...G...D..f.f.

00108d18 <_ZTV12Object_cache>:
	...
  108d20:	fc 42 10 00 1e 43 10 00 ac 43 10 00 66 90 66 90     .B...C...C..f.f.

00108d30 <_ZTV11Allocator_p>:
	...
  108d38:	8d 00 10 00 8d 00 10 00 8d 00 10 00 66 90 66 90     ............f.f.
  108d48:	66 90 66 90 66 90 66 90 66 90 66 90 66 90 66 90     f.f.f.f.f.f.f.f.
  108d58:	66 90 66 90 66 90 66 90                             f.f.f.f.

00108d60 <_ctype>:
  108d60:	08 08 08 08 08 08 08 08 08 28 28 28 28 28 08 08     .........(((((..
  108d70:	08 08 08 08 08 08 08 08 08 08 08 08 08 08 08 08     ................
  108d80:	a0 10 10 10 10 10 10 10 10 10 10 10 10 10 10 10     ................
  108d90:	04 04 04 04 04 04 04 04 04 04 10 10 10 10 10 10     ................
  108da0:	10 41 41 41 41 41 41 01 01 01 01 01 01 01 01 01     .AAAAAA.........
  108db0:	01 01 01 01 01 01 01 01 01 01 01 10 10 10 10 10     ................
  108dc0:	10 42 42 42 42 42 42 02 02 02 02 02 02 02 02 02     .BBBBBB.........
  108dd0:	02 02 02 02 02 02 02 02 02 02 02 10 10 10 10 08     ................
	...
  108e00:	a0 10 10 10 10 10 10 10 10 10 10 10 10 10 10 10     ................
  108e10:	10 10 10 10 10 10 10 10 10 10 10 10 10 10 10 10     ................
  108e20:	01 01 01 01 01 01 01 01 01 01 01 01 01 01 01 01     ................
  108e30:	01 01 01 01 01 01 01 10 01 01 01 01 01 01 01 02     ................
  108e40:	02 02 02 02 02 02 02 02 02 02 02 02 02 02 02 02     ................
  108e50:	02 02 02 02 02 02 02 10 02 02 02 02 02 02 02 02     ................
  108e60:	00 00 00 00 00 00 00 80 3f 40 00 00 41 67 10 00     ........?@..Ag..
  108e70:	53 67 10 00 53 67 10 00 47 67 10 00 53 67 10 00     Sg..Sg..Gg..Sg..
  108e80:	53 67 10 00 53 67 10 00 53 67 10 00 53 67 10 00     Sg..Sg..Sg..Sg..
  108e90:	53 67 10 00 53 67 10 00 3b 67 10 00 53 67 10 00     Sg..Sg..;g..Sg..
  108ea0:	35 67 10 00 53 67 10 00 53 67 10 00 4d 67 10 00     5g..Sg..Sg..Mg..
  108eb0:	08 6a 10 00 35 6a 10 00 35 6a 10 00 35 6a 10 00     .j..5j..5j..5j..
  108ec0:	35 6a 10 00 35 6a 10 00 35 6a 10 00 35 6a 10 00     5j..5j..5j..5j..
  108ed0:	35 6a 10 00 35 6a 10 00 35 6a 10 00 35 6a 10 00     5j..5j..5j..5j..
  108ee0:	35 6a 10 00 35 6a 10 00 35 6a 10 00 35 6a 10 00     5j..5j..5j..5j..
  108ef0:	35 6a 10 00 35 6a 10 00 35 6a 10 00 35 6a 10 00     5j..5j..5j..5j..
  108f00:	35 6a 10 00 35 6a 10 00 35 6a 10 00 35 6a 10 00     5j..5j..5j..5j..
  108f10:	35 6a 10 00 35 6a 10 00 35 6a 10 00 35 6a 10 00     5j..5j..5j..5j..
  108f20:	35 6a 10 00 35 6a 10 00 35 6a 10 00 35 6a 10 00     5j..5j..5j..5j..
  108f30:	35 6a 10 00 35 6a 10 00 35 6a 10 00 35 6a 10 00     5j..5j..5j..5j..
  108f40:	35 6a 10 00 35 6a 10 00 35 6a 10 00 35 6a 10 00     5j..5j..5j..5j..
  108f50:	35 6a 10 00 35 6a 10 00 35 6a 10 00 35 6a 10 00     5j..5j..5j..5j..
  108f60:	35 6a 10 00 35 6a 10 00 35 6a 10 00 35 6a 10 00     5j..5j..5j..5j..
  108f70:	35 6a 10 00 35 6a 10 00 35 6a 10 00 26 6a 10 00     5j..5j..5j..&j..
  108f80:	35 6a 10 00 35 6a 10 00 35 6a 10 00 35 6a 10 00     5j..5j..5j..5j..
  108f90:	35 6a 10 00 35 6a 10 00 35 6a 10 00 35 6a 10 00     5j..5j..5j..5j..
  108fa0:	35 6a 10 00 35 6a 10 00 b5 68 10 00 2f 6a 10 00     5j..5j...h../j..
  108fb0:	35 6a 10 00 35 6a 10 00 35 6a 10 00 35 6a 10 00     5j..5j..5j..5j..
  108fc0:	2f 6a 10 00 35 6a 10 00 35 6a 10 00 35 6a 10 00     /j..5j..5j..5j..
  108fd0:	35 6a 10 00 c2 69 10 00 19 6a 10 00 52 69 10 00     5j...i...j..Ri..
  108fe0:	35 6a 10 00 35 6a 10 00 14 69 10 00 35 6a 10 00     5j..5j...i..5j..
  108ff0:	6f 6a 10 00 35 6a 10 00 35 6a 10 00 22 6a 10 00     oj..5j..5j.."j..

00109000 <_ZL7hex_asc>:
  109000:	30 31 32 33 34 35 36 37 38 39 61 62 63 64 65 66     0123456789abcdef
	...

00109011 <_ZZL6numberPcS_yiiiiE6digits>:
  109011:	30 31 32 33 34 35 36 37 38 39 41 42 43 44 45 46     0123456789ABCDEF
  109021:	3e 3e 50 4c 41 54 46 4f 52 4d 5f 49 4e 49 54 0d     >>PLATFORM_INIT.
  109031:	0a 00 50 4c 41 54 46 4f 52 4d 3a 00 50 43 5f 6d     ..PLATFORM:.PC_m
  109041:	75 6c 74 69 62 6f 6f 74 00 0d 0a 00 43 50 55 3a     ultiboot....CPU:
  109051:	00 69 33 38 36 00 90 53 74 75 62 49 52 51 00 47     .i386..StubIRQ.G
  109061:	6c 6f 62 61 6c 20 44 65 73 63 72 69 70 74 6f 72     lobal Descriptor
  109071:	73 20 54 61 62 6c 65 20 47 44 54 3a 0a 00 0d 0a     s Table GDT:....
  109081:	00 00 00 47 6c 6f 62 61 6c 20 44 65 73 63 72 69     ...Global Descri
  109091:	70 74 6f 72 73 20 54 61 62 6c 65 20 49 44 54 20     ptors Table IDT 
  1090a1:	28 62 65 67 69 6e 29 3a 0a 00 66 90 66 90 66 90     (begin):..f.f.f.
  1090b1:	66 90 66 90 66 90 66 90 66 90 66 90 66 90 90        f.f.f.f.f.f.f..

001090c0 <_ZL18s_scanTableNoShift>:
  1090c0:	00 01 1b 00 31 00 32 00 33 00 34 00 35 00 36 00     ....1.2.3.4.5.6.
  1090d0:	37 00 38 00 39 00 30 00 2d 00 3d 00 08 00 09 00     7.8.9.0.-.=.....
  1090e0:	71 00 77 00 65 00 72 00 74 00 79 00 75 00 69 00     q.w.e.r.t.y.u.i.
  1090f0:	6f 00 70 00 5b 00 5d 00 0a 00 0d 01 61 00 73 00     o.p.[.].....a.s.
  109100:	64 00 66 00 67 00 68 00 6a 00 6b 00 6c 00 3b 00     d.f.g.h.j.k.l.;.
  109110:	27 00 60 00 0f 01 5c 00 7a 00 78 00 63 00 76 00     '.`...\.z.x.c.v.
  109120:	62 00 6e 00 6d 00 2c 00 2e 00 2f 00 10 01 13 01     b.n.m.,.../.....
  109130:	11 01 20 00 14 01 01 01 02 01 03 01 04 01 05 01     .. .............
  109140:	06 01 07 01 08 01 09 01 0a 01 15 01 16 01 80 03     ................
  109150:	81 03 82 03 83 03 84 03 85 03 86 03 87 03 88 03     ................
  109160:	89 03 8a 03 8b 03 8c 03 17 01 00 01 00 01 00 01     ................
	...

00109180 <_ZL20s_scanTableWithShift>:
  109180:	00 01 1b 00 21 00 40 00 23 00 24 00 25 00 5e 00     ....!.@.#.$.%.^.
  109190:	26 00 2a 00 28 00 29 00 5f 00 2b 00 08 00 09 00     &.*.(.)._.+.....
  1091a0:	51 00 57 00 45 00 52 00 54 00 59 00 55 00 49 00     Q.W.E.R.T.Y.U.I.
  1091b0:	4f 00 50 00 7b 00 7d 00 0a 00 0d 01 41 00 53 00     O.P.{.}.....A.S.
  1091c0:	44 00 46 00 47 00 48 00 4a 00 4b 00 4c 00 3a 00     D.F.G.H.J.K.L.:.
  1091d0:	22 00 7e 00 0f 01 7c 00 5a 00 58 00 43 00 56 00     ".~...|.Z.X.C.V.
  1091e0:	42 00 4e 00 4d 00 3c 00 3e 00 3f 00 10 01 13 01     B.N.M.<.>.?.....
  1091f0:	11 01 20 00 14 01 01 01 02 01 03 01 04 01 05 01     .. .............
  109200:	06 01 07 01 08 01 09 01 0a 01 15 01 16 01 80 03     ................
  109210:	81 03 82 03 83 03 84 03 85 03 86 03 87 03 88 03     ................
  109220:	89 03 8a 03 8b 03 8c 03 17 01 00 01 00 01 00 01     ................
  109230:	62 75 73 3d 00 20 64 65 76 3d 00 20 66 75 6e 63     bus=. dev=. func
  109240:	3d 00 20 76 65 6e 64 49 44 3d 00 20 64 65 76 49     =. vendID=. devI
  109250:	44 3d 00 20 63 6c 61 73 73 5f 6e 61 6d 65 3d 00     D=. class_name=.
  109260:	0a 3e 3e 3e 20 6b 6d 61 69 6e 21 0a 00 66 90 90     .>>> kmain!..f..

00109270 <__init_array_start>:
  109270:	15                   	.byte 0x15
  109271:	05                   	.byte 0x5
  109272:	10 00                	adc    %al,(%eax)
