
kernel:     file format elf32-i386


Disassembly of section .text:

00100000 <_ZL4outbth-0xc>:
  100000:	02 b0 ad 1b 01 00    	add    0x11bad(%eax),%dh
  100006:	00 00                	add    %al,(%eax)
  100008:	fd                   	std    
  100009:	4f                   	dec    %edi
  10000a:	52                   	push   %edx
  10000b:	e4 55                	in     $0x55,%al

0010000c <_ZL4outbth>:
  10000c:	55                   	push   %ebp
  10000d:	89 e5                	mov    %esp,%ebp
  10000f:	83 ec 08             	sub    $0x8,%esp
  100012:	8b 55 08             	mov    0x8(%ebp),%edx
  100015:	8b 45 0c             	mov    0xc(%ebp),%eax
  100018:	66 89 55 fc          	mov    %dx,-0x4(%ebp)
  10001c:	88 45 f8             	mov    %al,-0x8(%ebp)
  10001f:	0f b7 55 fc          	movzwl -0x4(%ebp),%edx
  100023:	0f b6 45 f8          	movzbl -0x8(%ebp),%eax
  100027:	ee                   	out    %al,(%dx)
  100028:	c9                   	leave  
  100029:	c3                   	ret    

0010002a <_ZL3inbt>:
  10002a:	55                   	push   %ebp
  10002b:	89 e5                	mov    %esp,%ebp
  10002d:	83 ec 14             	sub    $0x14,%esp
  100030:	8b 45 08             	mov    0x8(%ebp),%eax
  100033:	66 89 45 ec          	mov    %ax,-0x14(%ebp)
  100037:	0f b7 45 ec          	movzwl -0x14(%ebp),%eax
  10003b:	89 c2                	mov    %eax,%edx
  10003d:	ec                   	in     (%dx),%al
  10003e:	88 45 ff             	mov    %al,-0x1(%ebp)
  100041:	0f b6 45 ff          	movzbl -0x1(%ebp),%eax
  100045:	c9                   	leave  
  100046:	c3                   	ret    

00100047 <_ZL29platform_abstract_irq_handlerP14interrupt_info>:
  100047:	55                   	push   %ebp
  100048:	89 e5                	mov    %esp,%ebp
  10004a:	83 ec 08             	sub    $0x8,%esp
  10004d:	8b 45 08             	mov    0x8(%ebp),%eax
  100050:	8b 40 24             	mov    0x24(%eax),%eax
  100053:	83 f8 27             	cmp    $0x27,%eax
  100056:	76 14                	jbe    10006c <_ZL29platform_abstract_irq_handlerP14interrupt_info+0x25>
  100058:	c7 44 24 04 20 00 00 	movl   $0x20,0x4(%esp)
  10005f:	00 
  100060:	c7 04 24 a0 00 00 00 	movl   $0xa0,(%esp)
  100067:	e8 a0 ff ff ff       	call   10000c <_ZL4outbth>
  10006c:	8b 45 08             	mov    0x8(%ebp),%eax
  10006f:	8b 40 24             	mov    0x24(%eax),%eax
  100072:	83 f8 1f             	cmp    $0x1f,%eax
  100075:	76 14                	jbe    10008b <_ZL29platform_abstract_irq_handlerP14interrupt_info+0x44>
  100077:	c7 44 24 04 20 00 00 	movl   $0x20,0x4(%esp)
  10007e:	00 
  10007f:	c7 04 24 20 00 00 00 	movl   $0x20,(%esp)
  100086:	e8 81 ff ff ff       	call   10000c <_ZL4outbth>
  10008b:	c9                   	leave  
  10008c:	c3                   	ret    

0010008d <__cxa_pure_virtual>:
  10008d:	55                   	push   %ebp
  10008e:	89 e5                	mov    %esp,%ebp
  100090:	eb fe                	jmp    100090 <__cxa_pure_virtual+0x3>

00100092 <_Z9DoNothingv>:
  100092:	55                   	push   %ebp
  100093:	89 e5                	mov    %esp,%ebp
  100095:	5d                   	pop    %ebp
  100096:	c3                   	ret    

00100097 <_Z15KeyboardHandlerv>:
  100097:	55                   	push   %ebp
  100098:	89 e5                	mov    %esp,%ebp
  10009a:	5d                   	pop    %ebp
  10009b:	c3                   	ret    

0010009c <_Z4sendc>:
  10009c:	55                   	push   %ebp
  10009d:	89 e5                	mov    %esp,%ebp
  10009f:	83 ec 18             	sub    $0x18,%esp
  1000a2:	8b 45 08             	mov    0x8(%ebp),%eax
  1000a5:	88 45 f4             	mov    %al,-0xc(%ebp)
  1000a8:	0f be 45 f4          	movsbl -0xc(%ebp),%eax
  1000ac:	89 04 24             	mov    %eax,(%esp)
  1000af:	e8 d7 23 00 00       	call   10248b <debug_putchar>
  1000b4:	b8 01 00 00 00       	mov    $0x1,%eax
  1000b9:	c9                   	leave  
  1000ba:	c3                   	ret    

001000bb <main>:
  1000bb:	55                   	push   %ebp
  1000bc:	89 e5                	mov    %esp,%ebp
  1000be:	83 e4 f0             	and    $0xfffffff0,%esp
  1000c1:	83 ec 10             	sub    $0x10,%esp
  1000c4:	c7 04 24 d9 39 10 00 	movl   $0x1039d9,(%esp)
  1000cb:	e8 c9 02 00 00       	call   100399 <debug_print>
  1000d0:	e8 4d 11 00 00       	call   101222 <initenv_sections_info>
  1000d5:	e8 31 10 00 00       	call   10110b <initenv_bss_test>
  1000da:	e8 ef 0f 00 00       	call   1010ce <initenv_bss_clean>
  1000df:	e8 76 0f 00 00       	call   10105a <initenv_cpp_global_constructors>
  1000e4:	e8 63 25 00 00       	call   10264c <_Z13platform_initv>
  1000e9:	c7 44 24 04 00 01 00 	movl   $0x100,0x4(%esp)
  1000f0:	00 
  1000f1:	c7 04 24 c0 41 10 00 	movl   $0x1041c0,(%esp)
  1000f8:	e8 26 0d 00 00       	call   100e23 <_Z17abstract_irq_initPvj>
  1000fd:	c7 44 24 04 92 00 10 	movl   $0x100092,0x4(%esp)
  100104:	00 
  100105:	c7 04 24 20 00 00 00 	movl   $0x20,(%esp)
  10010c:	e8 41 0e 00 00       	call   100f52 <_Z19abstract_irq_attachjPFvvE>
  100111:	c7 44 24 04 97 00 10 	movl   $0x100097,0x4(%esp)
  100118:	00 
  100119:	c7 04 24 21 00 00 00 	movl   $0x21,(%esp)
  100120:	e8 2d 0e 00 00       	call   100f52 <_Z19abstract_irq_attachjPFvvE>
  100125:	fb                   	sti    
  100126:	c7 44 24 0c 6b 00 00 	movl   $0x6b,0xc(%esp)
  10012d:	00 
  10012e:	c7 44 24 08 02 00 00 	movl   $0x2,0x8(%esp)
  100135:	00 
  100136:	c7 44 24 04 02 00 00 	movl   $0x2,0x4(%esp)
  10013d:	00 
  10013e:	c7 04 24 20 41 10 00 	movl   $0x104120,(%esp)
  100145:	e8 68 1d 00 00       	call   101eb2 <_ZN9VideoPage7putcharEjjc>
  10014a:	eb fe                	jmp    10014a <main+0x8f>

0010014c <_Z41__static_initialization_and_destruction_0ii>:
  10014c:	55                   	push   %ebp
  10014d:	89 e5                	mov    %esp,%ebp
  10014f:	83 ec 18             	sub    $0x18,%esp
  100152:	83 7d 08 01          	cmpl   $0x1,0x8(%ebp)
  100156:	75 45                	jne    10019d <_Z41__static_initialization_and_destruction_0ii+0x51>
  100158:	81 7d 0c ff ff 00 00 	cmpl   $0xffff,0xc(%ebp)
  10015f:	75 3c                	jne    10019d <_Z41__static_initialization_and_destruction_0ii+0x51>
  100161:	c7 44 24 0c 14 00 00 	movl   $0x14,0xc(%esp)
  100168:	00 
  100169:	c7 44 24 08 14 00 00 	movl   $0x14,0x8(%esp)
  100170:	00 
  100171:	c7 44 24 04 00 b8 00 	movl   $0xb800,0x4(%esp)
  100178:	00 
  100179:	c7 04 24 20 41 10 00 	movl   $0x104120,(%esp)
  100180:	e8 e5 1c 00 00       	call   101e6a <_ZN9VideoPageC1Ejjj>
  100185:	c7 04 24 40 41 10 00 	movl   $0x104140,(%esp)
  10018c:	e8 2d 1b 00 00       	call   101cbe <_ZN12staticring_tC1Ev>
  100191:	c7 04 24 80 41 10 00 	movl   $0x104180,(%esp)
  100198:	e8 21 1b 00 00       	call   101cbe <_ZN12staticring_tC1Ev>
  10019d:	c9                   	leave  
  10019e:	c3                   	ret    

0010019f <_GLOBAL__sub_I_vpage>:
  10019f:	55                   	push   %ebp
  1001a0:	89 e5                	mov    %esp,%ebp
  1001a2:	83 ec 18             	sub    $0x18,%esp
  1001a5:	c7 44 24 04 ff ff 00 	movl   $0xffff,0x4(%esp)
  1001ac:	00 
  1001ad:	c7 04 24 01 00 00 00 	movl   $0x1,(%esp)
  1001b4:	e8 93 ff ff ff       	call   10014c <_Z41__static_initialization_and_destruction_0ii>
  1001b9:	c9                   	leave  
  1001ba:	c3                   	ret    

001001bb <debug_write>:
  1001bb:	55                   	push   %ebp
  1001bc:	89 e5                	mov    %esp,%ebp
  1001be:	83 ec 28             	sub    $0x28,%esp
  1001c1:	c7 45 f4 00 00 00 00 	movl   $0x0,-0xc(%ebp)
  1001c8:	eb 1a                	jmp    1001e4 <debug_write+0x29>
  1001ca:	8b 55 f4             	mov    -0xc(%ebp),%edx
  1001cd:	8b 45 08             	mov    0x8(%ebp),%eax
  1001d0:	01 d0                	add    %edx,%eax
  1001d2:	0f b6 00             	movzbl (%eax),%eax
  1001d5:	0f be c0             	movsbl %al,%eax
  1001d8:	89 04 24             	mov    %eax,(%esp)
  1001db:	e8 ab 22 00 00       	call   10248b <debug_putchar>
  1001e0:	83 45 f4 01          	addl   $0x1,-0xc(%ebp)
  1001e4:	8b 45 f4             	mov    -0xc(%ebp),%eax
  1001e7:	3b 45 0c             	cmp    0xc(%ebp),%eax
  1001ea:	7c de                	jl     1001ca <debug_write+0xf>
  1001ec:	c9                   	leave  
  1001ed:	c3                   	ret    

001001ee <debug_printhex_halfbyte>:
  1001ee:	55                   	push   %ebp
  1001ef:	89 e5                	mov    %esp,%ebp
  1001f1:	83 ec 28             	sub    $0x28,%esp
  1001f4:	8b 45 08             	mov    0x8(%ebp),%eax
  1001f7:	88 45 e4             	mov    %al,-0x1c(%ebp)
  1001fa:	0f be 45 e4          	movsbl -0x1c(%ebp),%eax
  1001fe:	83 f8 0f             	cmp    $0xf,%eax
  100201:	77 68                	ja     10026b <debug_printhex_halfbyte+0x7d>
  100203:	8b 04 85 e4 39 10 00 	mov    0x1039e4(,%eax,4),%eax
  10020a:	ff e0                	jmp    *%eax
  10020c:	c6 45 f7 30          	movb   $0x30,-0x9(%ebp)
  100210:	eb 59                	jmp    10026b <debug_printhex_halfbyte+0x7d>
  100212:	c6 45 f7 31          	movb   $0x31,-0x9(%ebp)
  100216:	eb 53                	jmp    10026b <debug_printhex_halfbyte+0x7d>
  100218:	c6 45 f7 32          	movb   $0x32,-0x9(%ebp)
  10021c:	eb 4d                	jmp    10026b <debug_printhex_halfbyte+0x7d>
  10021e:	c6 45 f7 33          	movb   $0x33,-0x9(%ebp)
  100222:	eb 47                	jmp    10026b <debug_printhex_halfbyte+0x7d>
  100224:	c6 45 f7 34          	movb   $0x34,-0x9(%ebp)
  100228:	eb 41                	jmp    10026b <debug_printhex_halfbyte+0x7d>
  10022a:	c6 45 f7 35          	movb   $0x35,-0x9(%ebp)
  10022e:	eb 3b                	jmp    10026b <debug_printhex_halfbyte+0x7d>
  100230:	c6 45 f7 36          	movb   $0x36,-0x9(%ebp)
  100234:	eb 35                	jmp    10026b <debug_printhex_halfbyte+0x7d>
  100236:	c6 45 f7 37          	movb   $0x37,-0x9(%ebp)
  10023a:	eb 2f                	jmp    10026b <debug_printhex_halfbyte+0x7d>
  10023c:	c6 45 f7 38          	movb   $0x38,-0x9(%ebp)
  100240:	eb 29                	jmp    10026b <debug_printhex_halfbyte+0x7d>
  100242:	c6 45 f7 39          	movb   $0x39,-0x9(%ebp)
  100246:	eb 23                	jmp    10026b <debug_printhex_halfbyte+0x7d>
  100248:	c6 45 f7 41          	movb   $0x41,-0x9(%ebp)
  10024c:	eb 1d                	jmp    10026b <debug_printhex_halfbyte+0x7d>
  10024e:	c6 45 f7 42          	movb   $0x42,-0x9(%ebp)
  100252:	eb 17                	jmp    10026b <debug_printhex_halfbyte+0x7d>
  100254:	c6 45 f7 43          	movb   $0x43,-0x9(%ebp)
  100258:	eb 11                	jmp    10026b <debug_printhex_halfbyte+0x7d>
  10025a:	c6 45 f7 44          	movb   $0x44,-0x9(%ebp)
  10025e:	eb 0b                	jmp    10026b <debug_printhex_halfbyte+0x7d>
  100260:	c6 45 f7 45          	movb   $0x45,-0x9(%ebp)
  100264:	eb 05                	jmp    10026b <debug_printhex_halfbyte+0x7d>
  100266:	c6 45 f7 46          	movb   $0x46,-0x9(%ebp)
  10026a:	90                   	nop
  10026b:	0f be 45 f7          	movsbl -0x9(%ebp),%eax
  10026f:	89 04 24             	mov    %eax,(%esp)
  100272:	e8 14 22 00 00       	call   10248b <debug_putchar>
  100277:	c9                   	leave  
  100278:	c3                   	ret    

00100279 <debug_printhex_byte>:
  100279:	55                   	push   %ebp
  10027a:	89 e5                	mov    %esp,%ebp
  10027c:	83 ec 18             	sub    $0x18,%esp
  10027f:	8b 45 08             	mov    0x8(%ebp),%eax
  100282:	88 45 f4             	mov    %al,-0xc(%ebp)
  100285:	0f be 45 f4          	movsbl -0xc(%ebp),%eax
  100289:	25 f0 00 00 00       	and    $0xf0,%eax
  10028e:	c1 f8 04             	sar    $0x4,%eax
  100291:	0f be c0             	movsbl %al,%eax
  100294:	89 04 24             	mov    %eax,(%esp)
  100297:	e8 52 ff ff ff       	call   1001ee <debug_printhex_halfbyte>
  10029c:	0f be 45 f4          	movsbl -0xc(%ebp),%eax
  1002a0:	83 e0 0f             	and    $0xf,%eax
  1002a3:	89 04 24             	mov    %eax,(%esp)
  1002a6:	e8 43 ff ff ff       	call   1001ee <debug_printhex_halfbyte>
  1002ab:	c9                   	leave  
  1002ac:	c3                   	ret    

001002ad <debug_printhex_int32>:
  1002ad:	55                   	push   %ebp
  1002ae:	89 e5                	mov    %esp,%ebp
  1002b0:	83 ec 28             	sub    $0x28,%esp
  1002b3:	8d 45 08             	lea    0x8(%ebp),%eax
  1002b6:	89 45 f4             	mov    %eax,-0xc(%ebp)
  1002b9:	c7 04 24 30 00 00 00 	movl   $0x30,(%esp)
  1002c0:	e8 c6 21 00 00       	call   10248b <debug_putchar>
  1002c5:	c7 04 24 78 00 00 00 	movl   $0x78,(%esp)
  1002cc:	e8 ba 21 00 00       	call   10248b <debug_putchar>
  1002d1:	8b 45 f4             	mov    -0xc(%ebp),%eax
  1002d4:	83 c0 03             	add    $0x3,%eax
  1002d7:	0f b6 00             	movzbl (%eax),%eax
  1002da:	0f be c0             	movsbl %al,%eax
  1002dd:	89 04 24             	mov    %eax,(%esp)
  1002e0:	e8 94 ff ff ff       	call   100279 <debug_printhex_byte>
  1002e5:	8b 45 f4             	mov    -0xc(%ebp),%eax
  1002e8:	83 c0 02             	add    $0x2,%eax
  1002eb:	0f b6 00             	movzbl (%eax),%eax
  1002ee:	0f be c0             	movsbl %al,%eax
  1002f1:	89 04 24             	mov    %eax,(%esp)
  1002f4:	e8 80 ff ff ff       	call   100279 <debug_printhex_byte>
  1002f9:	8b 45 f4             	mov    -0xc(%ebp),%eax
  1002fc:	83 c0 01             	add    $0x1,%eax
  1002ff:	0f b6 00             	movzbl (%eax),%eax
  100302:	0f be c0             	movsbl %al,%eax
  100305:	89 04 24             	mov    %eax,(%esp)
  100308:	e8 6c ff ff ff       	call   100279 <debug_printhex_byte>
  10030d:	8b 45 f4             	mov    -0xc(%ebp),%eax
  100310:	0f b6 00             	movzbl (%eax),%eax
  100313:	0f be c0             	movsbl %al,%eax
  100316:	89 04 24             	mov    %eax,(%esp)
  100319:	e8 5b ff ff ff       	call   100279 <debug_printhex_byte>
  10031e:	c9                   	leave  
  10031f:	c3                   	ret    

00100320 <debug_printhex_int16>:
  100320:	55                   	push   %ebp
  100321:	89 e5                	mov    %esp,%ebp
  100323:	83 ec 28             	sub    $0x28,%esp
  100326:	8b 45 08             	mov    0x8(%ebp),%eax
  100329:	66 89 45 e4          	mov    %ax,-0x1c(%ebp)
  10032d:	8d 45 e4             	lea    -0x1c(%ebp),%eax
  100330:	89 45 f4             	mov    %eax,-0xc(%ebp)
  100333:	c7 04 24 30 00 00 00 	movl   $0x30,(%esp)
  10033a:	e8 4c 21 00 00       	call   10248b <debug_putchar>
  10033f:	c7 04 24 78 00 00 00 	movl   $0x78,(%esp)
  100346:	e8 40 21 00 00       	call   10248b <debug_putchar>
  10034b:	8b 45 f4             	mov    -0xc(%ebp),%eax
  10034e:	83 c0 01             	add    $0x1,%eax
  100351:	0f b6 00             	movzbl (%eax),%eax
  100354:	0f be c0             	movsbl %al,%eax
  100357:	89 04 24             	mov    %eax,(%esp)
  10035a:	e8 1a ff ff ff       	call   100279 <debug_printhex_byte>
  10035f:	8b 45 f4             	mov    -0xc(%ebp),%eax
  100362:	0f b6 00             	movzbl (%eax),%eax
  100365:	0f be c0             	movsbl %al,%eax
  100368:	89 04 24             	mov    %eax,(%esp)
  10036b:	e8 09 ff ff ff       	call   100279 <debug_printhex_byte>
  100370:	c9                   	leave  
  100371:	c3                   	ret    

00100372 <debug_strlen>:
  100372:	55                   	push   %ebp
  100373:	89 e5                	mov    %esp,%ebp
  100375:	83 ec 10             	sub    $0x10,%esp
  100378:	c7 45 fc 00 00 00 00 	movl   $0x0,-0x4(%ebp)
  10037f:	eb 04                	jmp    100385 <debug_strlen+0x13>
  100381:	83 45 fc 01          	addl   $0x1,-0x4(%ebp)
  100385:	8b 55 fc             	mov    -0x4(%ebp),%edx
  100388:	8b 45 08             	mov    0x8(%ebp),%eax
  10038b:	01 d0                	add    %edx,%eax
  10038d:	0f b6 00             	movzbl (%eax),%eax
  100390:	84 c0                	test   %al,%al
  100392:	75 ed                	jne    100381 <debug_strlen+0xf>
  100394:	8b 45 fc             	mov    -0x4(%ebp),%eax
  100397:	c9                   	leave  
  100398:	c3                   	ret    

00100399 <debug_print>:
  100399:	55                   	push   %ebp
  10039a:	89 e5                	mov    %esp,%ebp
  10039c:	83 ec 18             	sub    $0x18,%esp
  10039f:	8b 45 08             	mov    0x8(%ebp),%eax
  1003a2:	89 04 24             	mov    %eax,(%esp)
  1003a5:	e8 c8 ff ff ff       	call   100372 <debug_strlen>
  1003aa:	89 44 24 04          	mov    %eax,0x4(%esp)
  1003ae:	8b 45 08             	mov    0x8(%ebp),%eax
  1003b1:	89 04 24             	mov    %eax,(%esp)
  1003b4:	e8 02 fe ff ff       	call   1001bb <debug_write>
  1003b9:	c9                   	leave  
  1003ba:	c3                   	ret    

001003bb <debug_print_dump>:
  1003bb:	55                   	push   %ebp
  1003bc:	89 e5                	mov    %esp,%ebp
  1003be:	83 ec 28             	sub    $0x28,%esp
  1003c1:	8b 45 08             	mov    0x8(%ebp),%eax
  1003c4:	89 45 e8             	mov    %eax,-0x18(%ebp)
  1003c7:	8b 45 08             	mov    0x8(%ebp),%eax
  1003ca:	89 45 f4             	mov    %eax,-0xc(%ebp)
  1003cd:	c7 45 f0 00 00 00 00 	movl   $0x0,-0x10(%ebp)
  1003d4:	c7 45 ec 00 00 00 00 	movl   $0x0,-0x14(%ebp)
  1003db:	c7 45 f0 00 00 00 00 	movl   $0x0,-0x10(%ebp)
  1003e2:	eb 7e                	jmp    100462 <debug_print_dump+0xa7>
  1003e4:	83 7d ec 00          	cmpl   $0x0,-0x14(%ebp)
  1003e8:	75 17                	jne    100401 <debug_print_dump+0x46>
  1003ea:	8b 45 f4             	mov    -0xc(%ebp),%eax
  1003ed:	89 04 24             	mov    %eax,(%esp)
  1003f0:	e8 b8 fe ff ff       	call   1002ad <debug_printhex_int32>
  1003f5:	c7 04 24 24 3a 10 00 	movl   $0x103a24,(%esp)
  1003fc:	e8 98 ff ff ff       	call   100399 <debug_print>
  100401:	8b 45 f0             	mov    -0x10(%ebp),%eax
  100404:	8b 55 e8             	mov    -0x18(%ebp),%edx
  100407:	01 d0                	add    %edx,%eax
  100409:	0f b6 00             	movzbl (%eax),%eax
  10040c:	0f be c0             	movsbl %al,%eax
  10040f:	89 04 24             	mov    %eax,(%esp)
  100412:	e8 62 fe ff ff       	call   100279 <debug_printhex_byte>
  100417:	83 7d ec 07          	cmpl   $0x7,-0x14(%ebp)
  10041b:	75 12                	jne    10042f <debug_print_dump+0x74>
  10041d:	c7 04 24 27 3a 10 00 	movl   $0x103a27,(%esp)
  100424:	e8 70 ff ff ff       	call   100399 <debug_print>
  100429:	83 45 ec 01          	addl   $0x1,-0x14(%ebp)
  10042d:	eb 2f                	jmp    10045e <debug_print_dump+0xa3>
  10042f:	83 7d ec 0f          	cmpl   $0xf,-0x14(%ebp)
  100433:	75 19                	jne    10044e <debug_print_dump+0x93>
  100435:	c7 04 24 29 3a 10 00 	movl   $0x103a29,(%esp)
  10043c:	e8 58 ff ff ff       	call   100399 <debug_print>
  100441:	c7 45 ec 00 00 00 00 	movl   $0x0,-0x14(%ebp)
  100448:	83 45 f4 10          	addl   $0x10,-0xc(%ebp)
  10044c:	eb 10                	jmp    10045e <debug_print_dump+0xa3>
  10044e:	c7 04 24 2b 3a 10 00 	movl   $0x103a2b,(%esp)
  100455:	e8 3f ff ff ff       	call   100399 <debug_print>
  10045a:	83 45 ec 01          	addl   $0x1,-0x14(%ebp)
  10045e:	83 45 f0 01          	addl   $0x1,-0x10(%ebp)
  100462:	8b 45 f0             	mov    -0x10(%ebp),%eax
  100465:	3b 45 0c             	cmp    0xc(%ebp),%eax
  100468:	0f 82 76 ff ff ff    	jb     1003e4 <debug_print_dump+0x29>
  10046e:	c9                   	leave  
  10046f:	c3                   	ret    

00100470 <delay_cpu>:
  100470:	55                   	push   %ebp
  100471:	89 e5                	mov    %esp,%ebp
  100473:	83 ec 18             	sub    $0x18,%esp
  100476:	8b 45 08             	mov    0x8(%ebp),%eax
  100479:	89 45 e8             	mov    %eax,-0x18(%ebp)
  10047c:	8b 45 0c             	mov    0xc(%ebp),%eax
  10047f:	89 45 ec             	mov    %eax,-0x14(%ebp)
  100482:	8b 45 e8             	mov    -0x18(%ebp),%eax
  100485:	8b 55 ec             	mov    -0x14(%ebp),%edx
  100488:	89 45 f8             	mov    %eax,-0x8(%ebp)
  10048b:	89 55 fc             	mov    %edx,-0x4(%ebp)
  10048e:	8b 45 f8             	mov    -0x8(%ebp),%eax
  100491:	8b 55 fc             	mov    -0x4(%ebp),%edx
  100494:	83 c0 ff             	add    $0xffffffff,%eax
  100497:	83 d2 ff             	adc    $0xffffffff,%edx
  10049a:	89 45 f8             	mov    %eax,-0x8(%ebp)
  10049d:	89 55 fc             	mov    %edx,-0x4(%ebp)
  1004a0:	8b 45 f8             	mov    -0x8(%ebp),%eax
  1004a3:	8b 55 fc             	mov    -0x4(%ebp),%edx
  1004a6:	09 d0                	or     %edx,%eax
  1004a8:	85 c0                	test   %eax,%eax
  1004aa:	0f 94 c0             	sete   %al
  1004ad:	84 c0                	test   %al,%al
  1004af:	74 02                	je     1004b3 <delay_cpu+0x43>
  1004b1:	eb 02                	jmp    1004b5 <delay_cpu+0x45>
  1004b3:	eb d9                	jmp    10048e <delay_cpu+0x1e>
  1004b5:	c9                   	leave  
  1004b6:	c3                   	ret    

001004b7 <_ZL4outbth>:
  1004b7:	55                   	push   %ebp
  1004b8:	89 e5                	mov    %esp,%ebp
  1004ba:	83 ec 08             	sub    $0x8,%esp
  1004bd:	8b 55 08             	mov    0x8(%ebp),%edx
  1004c0:	8b 45 0c             	mov    0xc(%ebp),%eax
  1004c3:	66 89 55 fc          	mov    %dx,-0x4(%ebp)
  1004c7:	88 45 f8             	mov    %al,-0x8(%ebp)
  1004ca:	0f b7 55 fc          	movzwl -0x4(%ebp),%edx
  1004ce:	0f b6 45 f8          	movzbl -0x8(%ebp),%eax
  1004d2:	ee                   	out    %al,(%dx)
  1004d3:	c9                   	leave  
  1004d4:	c3                   	ret    

001004d5 <_ZL3inbt>:
  1004d5:	55                   	push   %ebp
  1004d6:	89 e5                	mov    %esp,%ebp
  1004d8:	83 ec 14             	sub    $0x14,%esp
  1004db:	8b 45 08             	mov    0x8(%ebp),%eax
  1004de:	66 89 45 ec          	mov    %ax,-0x14(%ebp)
  1004e2:	0f b7 45 ec          	movzwl -0x14(%ebp),%eax
  1004e6:	89 c2                	mov    %eax,%edx
  1004e8:	ec                   	in     (%dx),%al
  1004e9:	88 45 ff             	mov    %al,-0x1(%ebp)
  1004ec:	0f b6 45 ff          	movzbl -0x1(%ebp),%eax
  1004f0:	c9                   	leave  
  1004f1:	c3                   	ret    

001004f2 <_ZL29platform_abstract_irq_handlerP14interrupt_info>:
  1004f2:	55                   	push   %ebp
  1004f3:	89 e5                	mov    %esp,%ebp
  1004f5:	83 ec 08             	sub    $0x8,%esp
  1004f8:	8b 45 08             	mov    0x8(%ebp),%eax
  1004fb:	8b 40 24             	mov    0x24(%eax),%eax
  1004fe:	83 f8 27             	cmp    $0x27,%eax
  100501:	76 14                	jbe    100517 <_ZL29platform_abstract_irq_handlerP14interrupt_info+0x25>
  100503:	c7 44 24 04 20 00 00 	movl   $0x20,0x4(%esp)
  10050a:	00 
  10050b:	c7 04 24 a0 00 00 00 	movl   $0xa0,(%esp)
  100512:	e8 a0 ff ff ff       	call   1004b7 <_ZL4outbth>
  100517:	8b 45 08             	mov    0x8(%ebp),%eax
  10051a:	8b 40 24             	mov    0x24(%eax),%eax
  10051d:	83 f8 1f             	cmp    $0x1f,%eax
  100520:	76 14                	jbe    100536 <_ZL29platform_abstract_irq_handlerP14interrupt_info+0x44>
  100522:	c7 44 24 04 20 00 00 	movl   $0x20,0x4(%esp)
  100529:	00 
  10052a:	c7 04 24 20 00 00 00 	movl   $0x20,(%esp)
  100531:	e8 81 ff ff ff       	call   1004b7 <_ZL4outbth>
  100536:	c9                   	leave  
  100537:	c3                   	ret    

00100538 <_Z11systemErrorPKc>:
  100538:	55                   	push   %ebp
  100539:	89 e5                	mov    %esp,%ebp
  10053b:	83 ec 18             	sub    $0x18,%esp
  10053e:	c7 04 24 2d 3a 10 00 	movl   $0x103a2d,(%esp)
  100545:	e8 4f fe ff ff       	call   100399 <debug_print>
  10054a:	8b 45 08             	mov    0x8(%ebp),%eax
  10054d:	89 04 24             	mov    %eax,(%esp)
  100550:	e8 44 fe ff ff       	call   100399 <debug_print>
  100555:	c7 44 24 04 02 00 00 	movl   $0x2,0x4(%esp)
  10055c:	00 
  10055d:	c7 04 24 3d 3a 10 00 	movl   $0x103a3d,(%esp)
  100564:	e8 52 fc ff ff       	call   1001bb <debug_write>
  100569:	e8 4f 21 00 00       	call   1026bd <_Z20systemError_platformv>
  10056e:	eb fe                	jmp    10056e <_Z11systemErrorPKc+0x36>

00100570 <_ZN6StreamrsEP5Print>:
  100570:	55                   	push   %ebp
  100571:	89 e5                	mov    %esp,%ebp
  100573:	83 ec 28             	sub    $0x28,%esp
  100576:	8b 45 08             	mov    0x8(%ebp),%eax
  100579:	8b 00                	mov    (%eax),%eax
  10057b:	83 c0 0c             	add    $0xc,%eax
  10057e:	8b 00                	mov    (%eax),%eax
  100580:	8b 55 08             	mov    0x8(%ebp),%edx
  100583:	89 14 24             	mov    %edx,(%esp)
  100586:	ff d0                	call   *%eax
  100588:	89 45 f4             	mov    %eax,-0xc(%ebp)
  10058b:	83 7d f4 ff          	cmpl   $0xffffffff,-0xc(%ebp)
  10058f:	74 19                	je     1005aa <_ZN6StreamrsEP5Print+0x3a>
  100591:	8b 45 0c             	mov    0xc(%ebp),%eax
  100594:	8b 00                	mov    (%eax),%eax
  100596:	8b 00                	mov    (%eax),%eax
  100598:	8b 55 f4             	mov    -0xc(%ebp),%edx
  10059b:	0f b6 d2             	movzbl %dl,%edx
  10059e:	89 54 24 04          	mov    %edx,0x4(%esp)
  1005a2:	8b 55 0c             	mov    0xc(%ebp),%edx
  1005a5:	89 14 24             	mov    %edx,(%esp)
  1005a8:	ff d0                	call   *%eax
  1005aa:	c9                   	leave  
  1005ab:	c3                   	ret    

001005ac <_ZN6StreamrsER5Print>:
  1005ac:	55                   	push   %ebp
  1005ad:	89 e5                	mov    %esp,%ebp
  1005af:	83 ec 28             	sub    $0x28,%esp
  1005b2:	8b 45 08             	mov    0x8(%ebp),%eax
  1005b5:	8b 00                	mov    (%eax),%eax
  1005b7:	83 c0 0c             	add    $0xc,%eax
  1005ba:	8b 00                	mov    (%eax),%eax
  1005bc:	8b 55 08             	mov    0x8(%ebp),%edx
  1005bf:	89 14 24             	mov    %edx,(%esp)
  1005c2:	ff d0                	call   *%eax
  1005c4:	89 45 f4             	mov    %eax,-0xc(%ebp)
  1005c7:	83 7d f4 ff          	cmpl   $0xffffffff,-0xc(%ebp)
  1005cb:	74 19                	je     1005e6 <_ZN6StreamrsER5Print+0x3a>
  1005cd:	8b 45 0c             	mov    0xc(%ebp),%eax
  1005d0:	8b 00                	mov    (%eax),%eax
  1005d2:	8b 00                	mov    (%eax),%eax
  1005d4:	8b 55 f4             	mov    -0xc(%ebp),%edx
  1005d7:	0f b6 d2             	movzbl %dl,%edx
  1005da:	89 54 24 04          	mov    %edx,0x4(%esp)
  1005de:	8b 55 0c             	mov    0xc(%ebp),%edx
  1005e1:	89 14 24             	mov    %edx,(%esp)
  1005e4:	ff d0                	call   *%eax
  1005e6:	c9                   	leave  
  1005e7:	c3                   	ret    

001005e8 <_ZN5Print5writeEPKhj>:
  1005e8:	55                   	push   %ebp
  1005e9:	89 e5                	mov    %esp,%ebp
  1005eb:	83 ec 28             	sub    $0x28,%esp
  1005ee:	8b 45 0c             	mov    0xc(%ebp),%eax
  1005f1:	89 45 f4             	mov    %eax,-0xc(%ebp)
  1005f4:	c7 45 f0 00 00 00 00 	movl   $0x0,-0x10(%ebp)
  1005fb:	eb 25                	jmp    100622 <_ZN5Print5writeEPKhj+0x3a>
  1005fd:	8b 45 08             	mov    0x8(%ebp),%eax
  100600:	8b 00                	mov    (%eax),%eax
  100602:	8b 10                	mov    (%eax),%edx
  100604:	8b 45 f4             	mov    -0xc(%ebp),%eax
  100607:	8d 48 01             	lea    0x1(%eax),%ecx
  10060a:	89 4d f4             	mov    %ecx,-0xc(%ebp)
  10060d:	0f b6 00             	movzbl (%eax),%eax
  100610:	0f b6 c0             	movzbl %al,%eax
  100613:	89 44 24 04          	mov    %eax,0x4(%esp)
  100617:	8b 45 08             	mov    0x8(%ebp),%eax
  10061a:	89 04 24             	mov    %eax,(%esp)
  10061d:	ff d2                	call   *%edx
  10061f:	01 45 f0             	add    %eax,-0x10(%ebp)
  100622:	8b 45 10             	mov    0x10(%ebp),%eax
  100625:	8d 50 ff             	lea    -0x1(%eax),%edx
  100628:	89 55 10             	mov    %edx,0x10(%ebp)
  10062b:	85 c0                	test   %eax,%eax
  10062d:	0f 95 c0             	setne  %al
  100630:	84 c0                	test   %al,%al
  100632:	75 c9                	jne    1005fd <_ZN5Print5writeEPKhj+0x15>
  100634:	8b 45 f0             	mov    -0x10(%ebp),%eax
  100637:	c9                   	leave  
  100638:	c3                   	ret    
  100639:	90                   	nop

0010063a <_ZN5Print5writeEPKcj>:
  10063a:	55                   	push   %ebp
  10063b:	89 e5                	mov    %esp,%ebp
  10063d:	83 ec 18             	sub    $0x18,%esp
  100640:	8b 45 08             	mov    0x8(%ebp),%eax
  100643:	8b 00                	mov    (%eax),%eax
  100645:	83 c0 04             	add    $0x4,%eax
  100648:	8b 00                	mov    (%eax),%eax
  10064a:	8b 55 10             	mov    0x10(%ebp),%edx
  10064d:	89 54 24 08          	mov    %edx,0x8(%esp)
  100651:	8b 55 0c             	mov    0xc(%ebp),%edx
  100654:	89 54 24 04          	mov    %edx,0x4(%esp)
  100658:	8b 55 08             	mov    0x8(%ebp),%edx
  10065b:	89 14 24             	mov    %edx,(%esp)
  10065e:	ff d0                	call   *%eax
  100660:	c9                   	leave  
  100661:	c3                   	ret    

00100662 <_ZN5Print5writeEPKc>:
  100662:	55                   	push   %ebp
  100663:	89 e5                	mov    %esp,%ebp
  100665:	53                   	push   %ebx
  100666:	83 ec 14             	sub    $0x14,%esp
  100669:	83 7d 0c 00          	cmpl   $0x0,0xc(%ebp)
  10066d:	75 07                	jne    100676 <_ZN5Print5writeEPKc+0x14>
  10066f:	b8 00 00 00 00       	mov    $0x0,%eax
  100674:	eb 28                	jmp    10069e <_ZN5Print5writeEPKc+0x3c>
  100676:	8b 45 08             	mov    0x8(%ebp),%eax
  100679:	8b 00                	mov    (%eax),%eax
  10067b:	83 c0 04             	add    $0x4,%eax
  10067e:	8b 18                	mov    (%eax),%ebx
  100680:	8b 45 0c             	mov    0xc(%ebp),%eax
  100683:	89 04 24             	mov    %eax,(%esp)
  100686:	e8 e2 10 00 00       	call   10176d <strlen>
  10068b:	89 44 24 08          	mov    %eax,0x8(%esp)
  10068f:	8b 45 0c             	mov    0xc(%ebp),%eax
  100692:	89 44 24 04          	mov    %eax,0x4(%esp)
  100696:	8b 45 08             	mov    0x8(%ebp),%eax
  100699:	89 04 24             	mov    %eax,(%esp)
  10069c:	ff d3                	call   *%ebx
  10069e:	83 c4 14             	add    $0x14,%esp
  1006a1:	5b                   	pop    %ebx
  1006a2:	5d                   	pop    %ebp
  1006a3:	c3                   	ret    

001006a4 <_ZN5Print5printEPKc>:
  1006a4:	55                   	push   %ebp
  1006a5:	89 e5                	mov    %esp,%ebp
  1006a7:	83 ec 18             	sub    $0x18,%esp
  1006aa:	8b 45 0c             	mov    0xc(%ebp),%eax
  1006ad:	89 44 24 04          	mov    %eax,0x4(%esp)
  1006b1:	8b 45 08             	mov    0x8(%ebp),%eax
  1006b4:	89 04 24             	mov    %eax,(%esp)
  1006b7:	e8 a6 ff ff ff       	call   100662 <_ZN5Print5writeEPKc>
  1006bc:	c9                   	leave  
  1006bd:	c3                   	ret    

001006be <_ZN5Print5printEc>:
  1006be:	55                   	push   %ebp
  1006bf:	89 e5                	mov    %esp,%ebp
  1006c1:	83 ec 18             	sub    $0x18,%esp
  1006c4:	8b 45 0c             	mov    0xc(%ebp),%eax
  1006c7:	88 45 f4             	mov    %al,-0xc(%ebp)
  1006ca:	8b 45 08             	mov    0x8(%ebp),%eax
  1006cd:	8b 00                	mov    (%eax),%eax
  1006cf:	8b 00                	mov    (%eax),%eax
  1006d1:	0f b6 55 f4          	movzbl -0xc(%ebp),%edx
  1006d5:	0f b6 d2             	movzbl %dl,%edx
  1006d8:	89 54 24 04          	mov    %edx,0x4(%esp)
  1006dc:	8b 55 08             	mov    0x8(%ebp),%edx
  1006df:	89 14 24             	mov    %edx,(%esp)
  1006e2:	ff d0                	call   *%eax
  1006e4:	c9                   	leave  
  1006e5:	c3                   	ret    

001006e6 <_ZN5Print5printEhi>:
  1006e6:	55                   	push   %ebp
  1006e7:	89 e5                	mov    %esp,%ebp
  1006e9:	83 ec 18             	sub    $0x18,%esp
  1006ec:	8b 45 0c             	mov    0xc(%ebp),%eax
  1006ef:	88 45 f4             	mov    %al,-0xc(%ebp)
  1006f2:	0f b6 45 f4          	movzbl -0xc(%ebp),%eax
  1006f6:	8b 55 10             	mov    0x10(%ebp),%edx
  1006f9:	89 54 24 08          	mov    %edx,0x8(%esp)
  1006fd:	89 44 24 04          	mov    %eax,0x4(%esp)
  100701:	8b 45 08             	mov    0x8(%ebp),%eax
  100704:	89 04 24             	mov    %eax,(%esp)
  100707:	e8 ee 00 00 00       	call   1007fa <_ZN5Print5printEmi>
  10070c:	c9                   	leave  
  10070d:	c3                   	ret    

0010070e <_ZN5Print5printEii>:
  10070e:	55                   	push   %ebp
  10070f:	89 e5                	mov    %esp,%ebp
  100711:	83 ec 18             	sub    $0x18,%esp
  100714:	8b 45 10             	mov    0x10(%ebp),%eax
  100717:	89 44 24 08          	mov    %eax,0x8(%esp)
  10071b:	8b 45 0c             	mov    0xc(%ebp),%eax
  10071e:	89 44 24 04          	mov    %eax,0x4(%esp)
  100722:	8b 45 08             	mov    0x8(%ebp),%eax
  100725:	89 04 24             	mov    %eax,(%esp)
  100728:	e8 25 00 00 00       	call   100752 <_ZN5Print5printEli>
  10072d:	c9                   	leave  
  10072e:	c3                   	ret    
  10072f:	90                   	nop

00100730 <_ZN5Print5printEji>:
  100730:	55                   	push   %ebp
  100731:	89 e5                	mov    %esp,%ebp
  100733:	83 ec 18             	sub    $0x18,%esp
  100736:	8b 45 10             	mov    0x10(%ebp),%eax
  100739:	89 44 24 08          	mov    %eax,0x8(%esp)
  10073d:	8b 45 0c             	mov    0xc(%ebp),%eax
  100740:	89 44 24 04          	mov    %eax,0x4(%esp)
  100744:	8b 45 08             	mov    0x8(%ebp),%eax
  100747:	89 04 24             	mov    %eax,(%esp)
  10074a:	e8 ab 00 00 00       	call   1007fa <_ZN5Print5printEmi>
  10074f:	c9                   	leave  
  100750:	c3                   	ret    
  100751:	90                   	nop

00100752 <_ZN5Print5printEli>:
  100752:	55                   	push   %ebp
  100753:	89 e5                	mov    %esp,%ebp
  100755:	83 ec 28             	sub    $0x28,%esp
  100758:	83 7d 10 00          	cmpl   $0x0,0x10(%ebp)
  10075c:	75 1b                	jne    100779 <_ZN5Print5printEli+0x27>
  10075e:	8b 45 08             	mov    0x8(%ebp),%eax
  100761:	8b 00                	mov    (%eax),%eax
  100763:	8b 00                	mov    (%eax),%eax
  100765:	8b 55 0c             	mov    0xc(%ebp),%edx
  100768:	0f b6 d2             	movzbl %dl,%edx
  10076b:	89 54 24 04          	mov    %edx,0x4(%esp)
  10076f:	8b 55 08             	mov    0x8(%ebp),%edx
  100772:	89 14 24             	mov    %edx,(%esp)
  100775:	ff d0                	call   *%eax
  100777:	eb 7e                	jmp    1007f7 <_ZN5Print5printEli+0xa5>
  100779:	83 7d 10 0a          	cmpl   $0xa,0x10(%ebp)
  10077d:	75 5c                	jne    1007db <_ZN5Print5printEli+0x89>
  10077f:	83 7d 0c 00          	cmpl   $0x0,0xc(%ebp)
  100783:	79 3a                	jns    1007bf <_ZN5Print5printEli+0x6d>
  100785:	c7 44 24 04 2d 00 00 	movl   $0x2d,0x4(%esp)
  10078c:	00 
  10078d:	8b 45 08             	mov    0x8(%ebp),%eax
  100790:	89 04 24             	mov    %eax,(%esp)
  100793:	e8 26 ff ff ff       	call   1006be <_ZN5Print5printEc>
  100798:	89 45 f4             	mov    %eax,-0xc(%ebp)
  10079b:	f7 5d 0c             	negl   0xc(%ebp)
  10079e:	8b 45 0c             	mov    0xc(%ebp),%eax
  1007a1:	c7 44 24 08 0a 00 00 	movl   $0xa,0x8(%esp)
  1007a8:	00 
  1007a9:	89 44 24 04          	mov    %eax,0x4(%esp)
  1007ad:	8b 45 08             	mov    0x8(%ebp),%eax
  1007b0:	89 04 24             	mov    %eax,(%esp)
  1007b3:	e8 aa 02 00 00       	call   100a62 <_ZN5Print11printNumberEmh>
  1007b8:	8b 55 f4             	mov    -0xc(%ebp),%edx
  1007bb:	01 d0                	add    %edx,%eax
  1007bd:	eb 38                	jmp    1007f7 <_ZN5Print5printEli+0xa5>
  1007bf:	8b 45 0c             	mov    0xc(%ebp),%eax
  1007c2:	c7 44 24 08 0a 00 00 	movl   $0xa,0x8(%esp)
  1007c9:	00 
  1007ca:	89 44 24 04          	mov    %eax,0x4(%esp)
  1007ce:	8b 45 08             	mov    0x8(%ebp),%eax
  1007d1:	89 04 24             	mov    %eax,(%esp)
  1007d4:	e8 89 02 00 00       	call   100a62 <_ZN5Print11printNumberEmh>
  1007d9:	eb 1c                	jmp    1007f7 <_ZN5Print5printEli+0xa5>
  1007db:	8b 45 10             	mov    0x10(%ebp),%eax
  1007de:	0f b6 d0             	movzbl %al,%edx
  1007e1:	8b 45 0c             	mov    0xc(%ebp),%eax
  1007e4:	89 54 24 08          	mov    %edx,0x8(%esp)
  1007e8:	89 44 24 04          	mov    %eax,0x4(%esp)
  1007ec:	8b 45 08             	mov    0x8(%ebp),%eax
  1007ef:	89 04 24             	mov    %eax,(%esp)
  1007f2:	e8 6b 02 00 00       	call   100a62 <_ZN5Print11printNumberEmh>
  1007f7:	c9                   	leave  
  1007f8:	c3                   	ret    
  1007f9:	90                   	nop

001007fa <_ZN5Print5printEmi>:
  1007fa:	55                   	push   %ebp
  1007fb:	89 e5                	mov    %esp,%ebp
  1007fd:	83 ec 18             	sub    $0x18,%esp
  100800:	83 7d 10 00          	cmpl   $0x0,0x10(%ebp)
  100804:	75 1b                	jne    100821 <_ZN5Print5printEmi+0x27>
  100806:	8b 45 08             	mov    0x8(%ebp),%eax
  100809:	8b 00                	mov    (%eax),%eax
  10080b:	8b 00                	mov    (%eax),%eax
  10080d:	8b 55 0c             	mov    0xc(%ebp),%edx
  100810:	0f b6 d2             	movzbl %dl,%edx
  100813:	89 54 24 04          	mov    %edx,0x4(%esp)
  100817:	8b 55 08             	mov    0x8(%ebp),%edx
  10081a:	89 14 24             	mov    %edx,(%esp)
  10081d:	ff d0                	call   *%eax
  10081f:	eb 1c                	jmp    10083d <_ZN5Print5printEmi+0x43>
  100821:	8b 45 10             	mov    0x10(%ebp),%eax
  100824:	0f b6 c0             	movzbl %al,%eax
  100827:	89 44 24 08          	mov    %eax,0x8(%esp)
  10082b:	8b 45 0c             	mov    0xc(%ebp),%eax
  10082e:	89 44 24 04          	mov    %eax,0x4(%esp)
  100832:	8b 45 08             	mov    0x8(%ebp),%eax
  100835:	89 04 24             	mov    %eax,(%esp)
  100838:	e8 25 02 00 00       	call   100a62 <_ZN5Print11printNumberEmh>
  10083d:	c9                   	leave  
  10083e:	c3                   	ret    
  10083f:	90                   	nop

00100840 <_ZN5Print5printEdi>:
  100840:	55                   	push   %ebp
  100841:	89 e5                	mov    %esp,%ebp
  100843:	83 ec 28             	sub    $0x28,%esp
  100846:	8b 45 0c             	mov    0xc(%ebp),%eax
  100849:	89 45 f0             	mov    %eax,-0x10(%ebp)
  10084c:	8b 45 10             	mov    0x10(%ebp),%eax
  10084f:	89 45 f4             	mov    %eax,-0xc(%ebp)
  100852:	8b 45 14             	mov    0x14(%ebp),%eax
  100855:	0f b6 c0             	movzbl %al,%eax
  100858:	89 44 24 0c          	mov    %eax,0xc(%esp)
  10085c:	dd 45 f0             	fldl   -0x10(%ebp)
  10085f:	dd 5c 24 04          	fstpl  0x4(%esp)
  100863:	8b 45 08             	mov    0x8(%ebp),%eax
  100866:	89 04 24             	mov    %eax,(%esp)
  100869:	e8 80 02 00 00       	call   100aee <_ZN5Print10printFloatEdh>
  10086e:	c9                   	leave  
  10086f:	c3                   	ret    

00100870 <_ZN5Print7printlnEv>:
  100870:	55                   	push   %ebp
  100871:	89 e5                	mov    %esp,%ebp
  100873:	83 ec 28             	sub    $0x28,%esp
  100876:	c7 44 24 04 0d 00 00 	movl   $0xd,0x4(%esp)
  10087d:	00 
  10087e:	8b 45 08             	mov    0x8(%ebp),%eax
  100881:	89 04 24             	mov    %eax,(%esp)
  100884:	e8 35 fe ff ff       	call   1006be <_ZN5Print5printEc>
  100889:	89 45 f4             	mov    %eax,-0xc(%ebp)
  10088c:	c7 44 24 04 0a 00 00 	movl   $0xa,0x4(%esp)
  100893:	00 
  100894:	8b 45 08             	mov    0x8(%ebp),%eax
  100897:	89 04 24             	mov    %eax,(%esp)
  10089a:	e8 1f fe ff ff       	call   1006be <_ZN5Print5printEc>
  10089f:	01 45 f4             	add    %eax,-0xc(%ebp)
  1008a2:	8b 45 f4             	mov    -0xc(%ebp),%eax
  1008a5:	c9                   	leave  
  1008a6:	c3                   	ret    
  1008a7:	90                   	nop

001008a8 <_ZN5Print7printlnEPKc>:
  1008a8:	55                   	push   %ebp
  1008a9:	89 e5                	mov    %esp,%ebp
  1008ab:	83 ec 28             	sub    $0x28,%esp
  1008ae:	8b 45 0c             	mov    0xc(%ebp),%eax
  1008b1:	89 44 24 04          	mov    %eax,0x4(%esp)
  1008b5:	8b 45 08             	mov    0x8(%ebp),%eax
  1008b8:	89 04 24             	mov    %eax,(%esp)
  1008bb:	e8 e4 fd ff ff       	call   1006a4 <_ZN5Print5printEPKc>
  1008c0:	89 45 f4             	mov    %eax,-0xc(%ebp)
  1008c3:	8b 45 08             	mov    0x8(%ebp),%eax
  1008c6:	89 04 24             	mov    %eax,(%esp)
  1008c9:	e8 a2 ff ff ff       	call   100870 <_ZN5Print7printlnEv>
  1008ce:	01 45 f4             	add    %eax,-0xc(%ebp)
  1008d1:	8b 45 f4             	mov    -0xc(%ebp),%eax
  1008d4:	c9                   	leave  
  1008d5:	c3                   	ret    

001008d6 <_ZN5Print7printlnEc>:
  1008d6:	55                   	push   %ebp
  1008d7:	89 e5                	mov    %esp,%ebp
  1008d9:	83 ec 28             	sub    $0x28,%esp
  1008dc:	8b 45 0c             	mov    0xc(%ebp),%eax
  1008df:	88 45 e4             	mov    %al,-0x1c(%ebp)
  1008e2:	0f be 45 e4          	movsbl -0x1c(%ebp),%eax
  1008e6:	89 44 24 04          	mov    %eax,0x4(%esp)
  1008ea:	8b 45 08             	mov    0x8(%ebp),%eax
  1008ed:	89 04 24             	mov    %eax,(%esp)
  1008f0:	e8 c9 fd ff ff       	call   1006be <_ZN5Print5printEc>
  1008f5:	89 45 f4             	mov    %eax,-0xc(%ebp)
  1008f8:	8b 45 08             	mov    0x8(%ebp),%eax
  1008fb:	89 04 24             	mov    %eax,(%esp)
  1008fe:	e8 6d ff ff ff       	call   100870 <_ZN5Print7printlnEv>
  100903:	01 45 f4             	add    %eax,-0xc(%ebp)
  100906:	8b 45 f4             	mov    -0xc(%ebp),%eax
  100909:	c9                   	leave  
  10090a:	c3                   	ret    
  10090b:	90                   	nop

0010090c <_ZN5Print7printlnEhi>:
  10090c:	55                   	push   %ebp
  10090d:	89 e5                	mov    %esp,%ebp
  10090f:	83 ec 28             	sub    $0x28,%esp
  100912:	8b 45 0c             	mov    0xc(%ebp),%eax
  100915:	88 45 e4             	mov    %al,-0x1c(%ebp)
  100918:	0f b6 45 e4          	movzbl -0x1c(%ebp),%eax
  10091c:	8b 55 10             	mov    0x10(%ebp),%edx
  10091f:	89 54 24 08          	mov    %edx,0x8(%esp)
  100923:	89 44 24 04          	mov    %eax,0x4(%esp)
  100927:	8b 45 08             	mov    0x8(%ebp),%eax
  10092a:	89 04 24             	mov    %eax,(%esp)
  10092d:	e8 b4 fd ff ff       	call   1006e6 <_ZN5Print5printEhi>
  100932:	89 45 f4             	mov    %eax,-0xc(%ebp)
  100935:	8b 45 08             	mov    0x8(%ebp),%eax
  100938:	89 04 24             	mov    %eax,(%esp)
  10093b:	e8 30 ff ff ff       	call   100870 <_ZN5Print7printlnEv>
  100940:	01 45 f4             	add    %eax,-0xc(%ebp)
  100943:	8b 45 f4             	mov    -0xc(%ebp),%eax
  100946:	c9                   	leave  
  100947:	c3                   	ret    

00100948 <_ZN5Print7printlnEii>:
  100948:	55                   	push   %ebp
  100949:	89 e5                	mov    %esp,%ebp
  10094b:	83 ec 28             	sub    $0x28,%esp
  10094e:	8b 45 10             	mov    0x10(%ebp),%eax
  100951:	89 44 24 08          	mov    %eax,0x8(%esp)
  100955:	8b 45 0c             	mov    0xc(%ebp),%eax
  100958:	89 44 24 04          	mov    %eax,0x4(%esp)
  10095c:	8b 45 08             	mov    0x8(%ebp),%eax
  10095f:	89 04 24             	mov    %eax,(%esp)
  100962:	e8 a7 fd ff ff       	call   10070e <_ZN5Print5printEii>
  100967:	89 45 f4             	mov    %eax,-0xc(%ebp)
  10096a:	8b 45 08             	mov    0x8(%ebp),%eax
  10096d:	89 04 24             	mov    %eax,(%esp)
  100970:	e8 fb fe ff ff       	call   100870 <_ZN5Print7printlnEv>
  100975:	01 45 f4             	add    %eax,-0xc(%ebp)
  100978:	8b 45 f4             	mov    -0xc(%ebp),%eax
  10097b:	c9                   	leave  
  10097c:	c3                   	ret    
  10097d:	90                   	nop

0010097e <_ZN5Print7printlnEji>:
  10097e:	55                   	push   %ebp
  10097f:	89 e5                	mov    %esp,%ebp
  100981:	83 ec 28             	sub    $0x28,%esp
  100984:	8b 45 10             	mov    0x10(%ebp),%eax
  100987:	89 44 24 08          	mov    %eax,0x8(%esp)
  10098b:	8b 45 0c             	mov    0xc(%ebp),%eax
  10098e:	89 44 24 04          	mov    %eax,0x4(%esp)
  100992:	8b 45 08             	mov    0x8(%ebp),%eax
  100995:	89 04 24             	mov    %eax,(%esp)
  100998:	e8 93 fd ff ff       	call   100730 <_ZN5Print5printEji>
  10099d:	89 45 f4             	mov    %eax,-0xc(%ebp)
  1009a0:	8b 45 08             	mov    0x8(%ebp),%eax
  1009a3:	89 04 24             	mov    %eax,(%esp)
  1009a6:	e8 c5 fe ff ff       	call   100870 <_ZN5Print7printlnEv>
  1009ab:	01 45 f4             	add    %eax,-0xc(%ebp)
  1009ae:	8b 45 f4             	mov    -0xc(%ebp),%eax
  1009b1:	c9                   	leave  
  1009b2:	c3                   	ret    
  1009b3:	90                   	nop

001009b4 <_ZN5Print7printlnEli>:
  1009b4:	55                   	push   %ebp
  1009b5:	89 e5                	mov    %esp,%ebp
  1009b7:	83 ec 28             	sub    $0x28,%esp
  1009ba:	8b 45 10             	mov    0x10(%ebp),%eax
  1009bd:	89 44 24 08          	mov    %eax,0x8(%esp)
  1009c1:	8b 45 0c             	mov    0xc(%ebp),%eax
  1009c4:	89 44 24 04          	mov    %eax,0x4(%esp)
  1009c8:	8b 45 08             	mov    0x8(%ebp),%eax
  1009cb:	89 04 24             	mov    %eax,(%esp)
  1009ce:	e8 7f fd ff ff       	call   100752 <_ZN5Print5printEli>
  1009d3:	89 45 f4             	mov    %eax,-0xc(%ebp)
  1009d6:	8b 45 08             	mov    0x8(%ebp),%eax
  1009d9:	89 04 24             	mov    %eax,(%esp)
  1009dc:	e8 8f fe ff ff       	call   100870 <_ZN5Print7printlnEv>
  1009e1:	01 45 f4             	add    %eax,-0xc(%ebp)
  1009e4:	8b 45 f4             	mov    -0xc(%ebp),%eax
  1009e7:	c9                   	leave  
  1009e8:	c3                   	ret    
  1009e9:	90                   	nop

001009ea <_ZN5Print7printlnEmi>:
  1009ea:	55                   	push   %ebp
  1009eb:	89 e5                	mov    %esp,%ebp
  1009ed:	83 ec 28             	sub    $0x28,%esp
  1009f0:	8b 45 10             	mov    0x10(%ebp),%eax
  1009f3:	89 44 24 08          	mov    %eax,0x8(%esp)
  1009f7:	8b 45 0c             	mov    0xc(%ebp),%eax
  1009fa:	89 44 24 04          	mov    %eax,0x4(%esp)
  1009fe:	8b 45 08             	mov    0x8(%ebp),%eax
  100a01:	89 04 24             	mov    %eax,(%esp)
  100a04:	e8 f1 fd ff ff       	call   1007fa <_ZN5Print5printEmi>
  100a09:	89 45 f4             	mov    %eax,-0xc(%ebp)
  100a0c:	8b 45 08             	mov    0x8(%ebp),%eax
  100a0f:	89 04 24             	mov    %eax,(%esp)
  100a12:	e8 59 fe ff ff       	call   100870 <_ZN5Print7printlnEv>
  100a17:	01 45 f4             	add    %eax,-0xc(%ebp)
  100a1a:	8b 45 f4             	mov    -0xc(%ebp),%eax
  100a1d:	c9                   	leave  
  100a1e:	c3                   	ret    
  100a1f:	90                   	nop

00100a20 <_ZN5Print7printlnEdi>:
  100a20:	55                   	push   %ebp
  100a21:	89 e5                	mov    %esp,%ebp
  100a23:	83 ec 38             	sub    $0x38,%esp
  100a26:	8b 45 0c             	mov    0xc(%ebp),%eax
  100a29:	89 45 e0             	mov    %eax,-0x20(%ebp)
  100a2c:	8b 45 10             	mov    0x10(%ebp),%eax
  100a2f:	89 45 e4             	mov    %eax,-0x1c(%ebp)
  100a32:	8b 45 14             	mov    0x14(%ebp),%eax
  100a35:	89 44 24 0c          	mov    %eax,0xc(%esp)
  100a39:	dd 45 e0             	fldl   -0x20(%ebp)
  100a3c:	dd 5c 24 04          	fstpl  0x4(%esp)
  100a40:	8b 45 08             	mov    0x8(%ebp),%eax
  100a43:	89 04 24             	mov    %eax,(%esp)
  100a46:	e8 f5 fd ff ff       	call   100840 <_ZN5Print5printEdi>
  100a4b:	89 45 f4             	mov    %eax,-0xc(%ebp)
  100a4e:	8b 45 08             	mov    0x8(%ebp),%eax
  100a51:	89 04 24             	mov    %eax,(%esp)
  100a54:	e8 17 fe ff ff       	call   100870 <_ZN5Print7printlnEv>
  100a59:	01 45 f4             	add    %eax,-0xc(%ebp)
  100a5c:	8b 45 f4             	mov    -0xc(%ebp),%eax
  100a5f:	c9                   	leave  
  100a60:	c3                   	ret    
  100a61:	90                   	nop

00100a62 <_ZN5Print11printNumberEmh>:
  100a62:	55                   	push   %ebp
  100a63:	89 e5                	mov    %esp,%ebp
  100a65:	83 ec 48             	sub    $0x48,%esp
  100a68:	8b 45 10             	mov    0x10(%ebp),%eax
  100a6b:	88 45 c4             	mov    %al,-0x3c(%ebp)
  100a6e:	b8 20 00 00 00       	mov    $0x20,%eax
  100a73:	8d 55 ce             	lea    -0x32(%ebp),%edx
  100a76:	01 d0                	add    %edx,%eax
  100a78:	89 45 f4             	mov    %eax,-0xc(%ebp)
  100a7b:	8b 45 f4             	mov    -0xc(%ebp),%eax
  100a7e:	c6 00 00             	movb   $0x0,(%eax)
  100a81:	80 7d c4 01          	cmpb   $0x1,-0x3c(%ebp)
  100a85:	77 04                	ja     100a8b <_ZN5Print11printNumberEmh+0x29>
  100a87:	c6 45 c4 0a          	movb   $0xa,-0x3c(%ebp)
  100a8b:	8b 45 0c             	mov    0xc(%ebp),%eax
  100a8e:	89 45 f0             	mov    %eax,-0x10(%ebp)
  100a91:	0f b6 4d c4          	movzbl -0x3c(%ebp),%ecx
  100a95:	8b 45 0c             	mov    0xc(%ebp),%eax
  100a98:	ba 00 00 00 00       	mov    $0x0,%edx
  100a9d:	f7 f1                	div    %ecx
  100a9f:	89 45 0c             	mov    %eax,0xc(%ebp)
  100aa2:	8b 45 f0             	mov    -0x10(%ebp),%eax
  100aa5:	89 c2                	mov    %eax,%edx
  100aa7:	8b 45 0c             	mov    0xc(%ebp),%eax
  100aaa:	f6 65 c4             	mulb   -0x3c(%ebp)
  100aad:	29 c2                	sub    %eax,%edx
  100aaf:	89 d0                	mov    %edx,%eax
  100ab1:	88 45 ef             	mov    %al,-0x11(%ebp)
  100ab4:	83 6d f4 01          	subl   $0x1,-0xc(%ebp)
  100ab8:	80 7d ef 09          	cmpb   $0x9,-0x11(%ebp)
  100abc:	7f 09                	jg     100ac7 <_ZN5Print11printNumberEmh+0x65>
  100abe:	0f b6 45 ef          	movzbl -0x11(%ebp),%eax
  100ac2:	83 c0 30             	add    $0x30,%eax
  100ac5:	eb 07                	jmp    100ace <_ZN5Print11printNumberEmh+0x6c>
  100ac7:	0f b6 45 ef          	movzbl -0x11(%ebp),%eax
  100acb:	83 c0 37             	add    $0x37,%eax
  100ace:	8b 55 f4             	mov    -0xc(%ebp),%edx
  100ad1:	88 02                	mov    %al,(%edx)
  100ad3:	83 7d 0c 00          	cmpl   $0x0,0xc(%ebp)
  100ad7:	75 b2                	jne    100a8b <_ZN5Print11printNumberEmh+0x29>
  100ad9:	8b 45 f4             	mov    -0xc(%ebp),%eax
  100adc:	89 44 24 04          	mov    %eax,0x4(%esp)
  100ae0:	8b 45 08             	mov    0x8(%ebp),%eax
  100ae3:	89 04 24             	mov    %eax,(%esp)
  100ae6:	e8 77 fb ff ff       	call   100662 <_ZN5Print5writeEPKc>
  100aeb:	c9                   	leave  
  100aec:	c3                   	ret    
  100aed:	90                   	nop

00100aee <_ZN5Print10printFloatEdh>:
  100aee:	55                   	push   %ebp
  100aef:	89 e5                	mov    %esp,%ebp
  100af1:	83 ec 68             	sub    $0x68,%esp
  100af4:	8b 45 14             	mov    0x14(%ebp),%eax
  100af7:	8b 55 0c             	mov    0xc(%ebp),%edx
  100afa:	89 55 c0             	mov    %edx,-0x40(%ebp)
  100afd:	8b 55 10             	mov    0x10(%ebp),%edx
  100b00:	89 55 c4             	mov    %edx,-0x3c(%ebp)
  100b03:	88 45 bc             	mov    %al,-0x44(%ebp)
  100b06:	c7 45 f4 00 00 00 00 	movl   $0x0,-0xc(%ebp)
  100b0d:	dd 45 c0             	fldl   -0x40(%ebp)
  100b10:	dd 05 48 3a 10 00    	fldl   0x103a48
  100b16:	d9 c9                	fxch   %st(1)
  100b18:	df e9                	fucomip %st(1),%st
  100b1a:	dd d8                	fstp   %st(0)
  100b1c:	76 18                	jbe    100b36 <_ZN5Print10printFloatEdh+0x48>
  100b1e:	c7 44 24 04 40 3a 10 	movl   $0x103a40,0x4(%esp)
  100b25:	00 
  100b26:	8b 45 08             	mov    0x8(%ebp),%eax
  100b29:	89 04 24             	mov    %eax,(%esp)
  100b2c:	e8 73 fb ff ff       	call   1006a4 <_ZN5Print5printEPKc>
  100b31:	e9 62 01 00 00       	jmp    100c98 <_ZN5Print10printFloatEdh+0x1aa>
  100b36:	dd 05 50 3a 10 00    	fldl   0x103a50
  100b3c:	dd 45 c0             	fldl   -0x40(%ebp)
  100b3f:	d9 c9                	fxch   %st(1)
  100b41:	df e9                	fucomip %st(1),%st
  100b43:	dd d8                	fstp   %st(0)
  100b45:	76 18                	jbe    100b5f <_ZN5Print10printFloatEdh+0x71>
  100b47:	c7 44 24 04 40 3a 10 	movl   $0x103a40,0x4(%esp)
  100b4e:	00 
  100b4f:	8b 45 08             	mov    0x8(%ebp),%eax
  100b52:	89 04 24             	mov    %eax,(%esp)
  100b55:	e8 4a fb ff ff       	call   1006a4 <_ZN5Print5printEPKc>
  100b5a:	e9 39 01 00 00       	jmp    100c98 <_ZN5Print10printFloatEdh+0x1aa>
  100b5f:	d9 ee                	fldz   
  100b61:	dd 45 c0             	fldl   -0x40(%ebp)
  100b64:	d9 c9                	fxch   %st(1)
  100b66:	df e9                	fucomip %st(1),%st
  100b68:	dd d8                	fstp   %st(0)
  100b6a:	76 1e                	jbe    100b8a <_ZN5Print10printFloatEdh+0x9c>
  100b6c:	c7 44 24 04 2d 00 00 	movl   $0x2d,0x4(%esp)
  100b73:	00 
  100b74:	8b 45 08             	mov    0x8(%ebp),%eax
  100b77:	89 04 24             	mov    %eax,(%esp)
  100b7a:	e8 3f fb ff ff       	call   1006be <_ZN5Print5printEc>
  100b7f:	01 45 f4             	add    %eax,-0xc(%ebp)
  100b82:	dd 45 c0             	fldl   -0x40(%ebp)
  100b85:	d9 e0                	fchs   
  100b87:	dd 5d c0             	fstpl  -0x40(%ebp)
  100b8a:	dd 05 58 3a 10 00    	fldl   0x103a58
  100b90:	dd 5d e8             	fstpl  -0x18(%ebp)
  100b93:	c6 45 e7 00          	movb   $0x0,-0x19(%ebp)
  100b97:	eb 12                	jmp    100bab <_ZN5Print10printFloatEdh+0xbd>
  100b99:	dd 45 e8             	fldl   -0x18(%ebp)
  100b9c:	dd 05 60 3a 10 00    	fldl   0x103a60
  100ba2:	de f9                	fdivrp %st,%st(1)
  100ba4:	dd 5d e8             	fstpl  -0x18(%ebp)
  100ba7:	80 45 e7 01          	addb   $0x1,-0x19(%ebp)
  100bab:	0f b6 45 e7          	movzbl -0x19(%ebp),%eax
  100baf:	3a 45 bc             	cmp    -0x44(%ebp),%al
  100bb2:	72 e5                	jb     100b99 <_ZN5Print10printFloatEdh+0xab>
  100bb4:	dd 45 c0             	fldl   -0x40(%ebp)
  100bb7:	dc 45 e8             	faddl  -0x18(%ebp)
  100bba:	dd 5d c0             	fstpl  -0x40(%ebp)
  100bbd:	dd 45 c0             	fldl   -0x40(%ebp)
  100bc0:	d9 7d be             	fnstcw -0x42(%ebp)
  100bc3:	0f b7 45 be          	movzwl -0x42(%ebp),%eax
  100bc7:	b4 0c                	mov    $0xc,%ah
  100bc9:	66 89 45 ba          	mov    %ax,-0x46(%ebp)
  100bcd:	d9 6d ba             	fldcw  -0x46(%ebp)
  100bd0:	df 7d b0             	fistpll -0x50(%ebp)
  100bd3:	d9 6d be             	fldcw  -0x42(%ebp)
  100bd6:	8b 45 b0             	mov    -0x50(%ebp),%eax
  100bd9:	8b 55 b4             	mov    -0x4c(%ebp),%edx
  100bdc:	89 45 d4             	mov    %eax,-0x2c(%ebp)
  100bdf:	8b 45 d4             	mov    -0x2c(%ebp),%eax
  100be2:	ba 00 00 00 00       	mov    $0x0,%edx
  100be7:	89 45 b0             	mov    %eax,-0x50(%ebp)
  100bea:	89 55 b4             	mov    %edx,-0x4c(%ebp)
  100bed:	df 6d b0             	fildll -0x50(%ebp)
  100bf0:	dd 45 c0             	fldl   -0x40(%ebp)
  100bf3:	de e1                	fsubp  %st,%st(1)
  100bf5:	dd 5d d8             	fstpl  -0x28(%ebp)
  100bf8:	c7 44 24 08 0a 00 00 	movl   $0xa,0x8(%esp)
  100bff:	00 
  100c00:	8b 45 d4             	mov    -0x2c(%ebp),%eax
  100c03:	89 44 24 04          	mov    %eax,0x4(%esp)
  100c07:	8b 45 08             	mov    0x8(%ebp),%eax
  100c0a:	89 04 24             	mov    %eax,(%esp)
  100c0d:	e8 e8 fb ff ff       	call   1007fa <_ZN5Print5printEmi>
  100c12:	01 45 f4             	add    %eax,-0xc(%ebp)
  100c15:	80 7d bc 00          	cmpb   $0x0,-0x44(%ebp)
  100c19:	74 16                	je     100c31 <_ZN5Print10printFloatEdh+0x143>
  100c1b:	c7 44 24 04 44 3a 10 	movl   $0x103a44,0x4(%esp)
  100c22:	00 
  100c23:	8b 45 08             	mov    0x8(%ebp),%eax
  100c26:	89 04 24             	mov    %eax,(%esp)
  100c29:	e8 76 fa ff ff       	call   1006a4 <_ZN5Print5printEPKc>
  100c2e:	01 45 f4             	add    %eax,-0xc(%ebp)
  100c31:	eb 4f                	jmp    100c82 <_ZN5Print10printFloatEdh+0x194>
  100c33:	dd 45 d8             	fldl   -0x28(%ebp)
  100c36:	dd 05 60 3a 10 00    	fldl   0x103a60
  100c3c:	de c9                	fmulp  %st,%st(1)
  100c3e:	dd 5d d8             	fstpl  -0x28(%ebp)
  100c41:	dd 45 d8             	fldl   -0x28(%ebp)
  100c44:	d9 7d be             	fnstcw -0x42(%ebp)
  100c47:	0f b7 45 be          	movzwl -0x42(%ebp),%eax
  100c4b:	b4 0c                	mov    $0xc,%ah
  100c4d:	66 89 45 ba          	mov    %ax,-0x46(%ebp)
  100c51:	d9 6d ba             	fldcw  -0x46(%ebp)
  100c54:	db 5d d0             	fistpl -0x30(%ebp)
  100c57:	d9 6d be             	fldcw  -0x42(%ebp)
  100c5a:	c7 44 24 08 0a 00 00 	movl   $0xa,0x8(%esp)
  100c61:	00 
  100c62:	8b 45 d0             	mov    -0x30(%ebp),%eax
  100c65:	89 44 24 04          	mov    %eax,0x4(%esp)
  100c69:	8b 45 08             	mov    0x8(%ebp),%eax
  100c6c:	89 04 24             	mov    %eax,(%esp)
  100c6f:	e8 9a fa ff ff       	call   10070e <_ZN5Print5printEii>
  100c74:	01 45 f4             	add    %eax,-0xc(%ebp)
  100c77:	db 45 d0             	fildl  -0x30(%ebp)
  100c7a:	dd 45 d8             	fldl   -0x28(%ebp)
  100c7d:	de e1                	fsubp  %st,%st(1)
  100c7f:	dd 5d d8             	fstpl  -0x28(%ebp)
  100c82:	0f b6 45 bc          	movzbl -0x44(%ebp),%eax
  100c86:	8d 50 ff             	lea    -0x1(%eax),%edx
  100c89:	88 55 bc             	mov    %dl,-0x44(%ebp)
  100c8c:	84 c0                	test   %al,%al
  100c8e:	0f 95 c0             	setne  %al
  100c91:	84 c0                	test   %al,%al
  100c93:	75 9e                	jne    100c33 <_ZN5Print10printFloatEdh+0x145>
  100c95:	8b 45 f4             	mov    -0xc(%ebp),%eax
  100c98:	c9                   	leave  
  100c99:	c3                   	ret    

00100c9a <_ZlsR5Printi>:
  100c9a:	55                   	push   %ebp
  100c9b:	89 e5                	mov    %esp,%ebp
  100c9d:	83 ec 18             	sub    $0x18,%esp
  100ca0:	c7 44 24 08 0a 00 00 	movl   $0xa,0x8(%esp)
  100ca7:	00 
  100ca8:	8b 45 0c             	mov    0xc(%ebp),%eax
  100cab:	89 44 24 04          	mov    %eax,0x4(%esp)
  100caf:	8b 45 08             	mov    0x8(%ebp),%eax
  100cb2:	89 04 24             	mov    %eax,(%esp)
  100cb5:	e8 54 fa ff ff       	call   10070e <_ZN5Print5printEii>
  100cba:	8b 45 08             	mov    0x8(%ebp),%eax
  100cbd:	c9                   	leave  
  100cbe:	c3                   	ret    

00100cbf <_ZlsR5Printf>:
  100cbf:	55                   	push   %ebp
  100cc0:	89 e5                	mov    %esp,%ebp
  100cc2:	83 ec 18             	sub    $0x18,%esp
  100cc5:	d9 45 0c             	flds   0xc(%ebp)
  100cc8:	c7 44 24 0c 06 00 00 	movl   $0x6,0xc(%esp)
  100ccf:	00 
  100cd0:	dd 5c 24 04          	fstpl  0x4(%esp)
  100cd4:	8b 45 08             	mov    0x8(%ebp),%eax
  100cd7:	89 04 24             	mov    %eax,(%esp)
  100cda:	e8 61 fb ff ff       	call   100840 <_ZN5Print5printEdi>
  100cdf:	8b 45 08             	mov    0x8(%ebp),%eax
  100ce2:	c9                   	leave  
  100ce3:	c3                   	ret    

00100ce4 <_ZlsR5Printc>:
  100ce4:	55                   	push   %ebp
  100ce5:	89 e5                	mov    %esp,%ebp
  100ce7:	83 ec 18             	sub    $0x18,%esp
  100cea:	8b 45 0c             	mov    0xc(%ebp),%eax
  100ced:	88 45 f4             	mov    %al,-0xc(%ebp)
  100cf0:	8b 45 08             	mov    0x8(%ebp),%eax
  100cf3:	8b 00                	mov    (%eax),%eax
  100cf5:	8b 00                	mov    (%eax),%eax
  100cf7:	0f b6 55 f4          	movzbl -0xc(%ebp),%edx
  100cfb:	0f b6 d2             	movzbl %dl,%edx
  100cfe:	89 54 24 04          	mov    %edx,0x4(%esp)
  100d02:	8b 55 08             	mov    0x8(%ebp),%edx
  100d05:	89 14 24             	mov    %edx,(%esp)
  100d08:	ff d0                	call   *%eax
  100d0a:	8b 45 08             	mov    0x8(%ebp),%eax
  100d0d:	c9                   	leave  
  100d0e:	c3                   	ret    

00100d0f <_ZlsR5Printj>:
  100d0f:	55                   	push   %ebp
  100d10:	89 e5                	mov    %esp,%ebp
  100d12:	83 ec 18             	sub    $0x18,%esp
  100d15:	c7 44 24 08 0a 00 00 	movl   $0xa,0x8(%esp)
  100d1c:	00 
  100d1d:	8b 45 0c             	mov    0xc(%ebp),%eax
  100d20:	89 44 24 04          	mov    %eax,0x4(%esp)
  100d24:	8b 45 08             	mov    0x8(%ebp),%eax
  100d27:	89 04 24             	mov    %eax,(%esp)
  100d2a:	e8 01 fa ff ff       	call   100730 <_ZN5Print5printEji>
  100d2f:	8b 45 08             	mov    0x8(%ebp),%eax
  100d32:	c9                   	leave  
  100d33:	c3                   	ret    

00100d34 <_ZlsR5PrintPc>:
  100d34:	55                   	push   %ebp
  100d35:	89 e5                	mov    %esp,%ebp
  100d37:	83 ec 18             	sub    $0x18,%esp
  100d3a:	8b 45 0c             	mov    0xc(%ebp),%eax
  100d3d:	89 44 24 04          	mov    %eax,0x4(%esp)
  100d41:	8b 45 08             	mov    0x8(%ebp),%eax
  100d44:	89 04 24             	mov    %eax,(%esp)
  100d47:	e8 58 f9 ff ff       	call   1006a4 <_ZN5Print5printEPKc>
  100d4c:	8b 45 08             	mov    0x8(%ebp),%eax
  100d4f:	c9                   	leave  
  100d50:	c3                   	ret    

00100d51 <_ZL4outbth>:
  100d51:	55                   	push   %ebp
  100d52:	89 e5                	mov    %esp,%ebp
  100d54:	83 ec 08             	sub    $0x8,%esp
  100d57:	8b 55 08             	mov    0x8(%ebp),%edx
  100d5a:	8b 45 0c             	mov    0xc(%ebp),%eax
  100d5d:	66 89 55 fc          	mov    %dx,-0x4(%ebp)
  100d61:	88 45 f8             	mov    %al,-0x8(%ebp)
  100d64:	0f b7 55 fc          	movzwl -0x4(%ebp),%edx
  100d68:	0f b6 45 f8          	movzbl -0x8(%ebp),%eax
  100d6c:	ee                   	out    %al,(%dx)
  100d6d:	c9                   	leave  
  100d6e:	c3                   	ret    

00100d6f <_ZL3inbt>:
  100d6f:	55                   	push   %ebp
  100d70:	89 e5                	mov    %esp,%ebp
  100d72:	83 ec 14             	sub    $0x14,%esp
  100d75:	8b 45 08             	mov    0x8(%ebp),%eax
  100d78:	66 89 45 ec          	mov    %ax,-0x14(%ebp)
  100d7c:	0f b7 45 ec          	movzwl -0x14(%ebp),%eax
  100d80:	89 c2                	mov    %eax,%edx
  100d82:	ec                   	in     (%dx),%al
  100d83:	88 45 ff             	mov    %al,-0x1(%ebp)
  100d86:	0f b6 45 ff          	movzbl -0x1(%ebp),%eax
  100d8a:	c9                   	leave  
  100d8b:	c3                   	ret    

00100d8c <_ZL29platform_abstract_irq_handlerP14interrupt_info>:
  100d8c:	55                   	push   %ebp
  100d8d:	89 e5                	mov    %esp,%ebp
  100d8f:	83 ec 08             	sub    $0x8,%esp
  100d92:	8b 45 08             	mov    0x8(%ebp),%eax
  100d95:	8b 40 24             	mov    0x24(%eax),%eax
  100d98:	83 f8 27             	cmp    $0x27,%eax
  100d9b:	76 14                	jbe    100db1 <_ZL29platform_abstract_irq_handlerP14interrupt_info+0x25>
  100d9d:	c7 44 24 04 20 00 00 	movl   $0x20,0x4(%esp)
  100da4:	00 
  100da5:	c7 04 24 a0 00 00 00 	movl   $0xa0,(%esp)
  100dac:	e8 a0 ff ff ff       	call   100d51 <_ZL4outbth>
  100db1:	8b 45 08             	mov    0x8(%ebp),%eax
  100db4:	8b 40 24             	mov    0x24(%eax),%eax
  100db7:	83 f8 1f             	cmp    $0x1f,%eax
  100dba:	76 14                	jbe    100dd0 <_ZL29platform_abstract_irq_handlerP14interrupt_info+0x44>
  100dbc:	c7 44 24 04 20 00 00 	movl   $0x20,0x4(%esp)
  100dc3:	00 
  100dc4:	c7 04 24 20 00 00 00 	movl   $0x20,(%esp)
  100dcb:	e8 81 ff ff ff       	call   100d51 <_ZL4outbth>
  100dd0:	c9                   	leave  
  100dd1:	c3                   	ret    

00100dd2 <_Z16abstract_StubISRP14interrupt_info>:
  100dd2:	55                   	push   %ebp
  100dd3:	89 e5                	mov    %esp,%ebp
  100dd5:	83 ec 18             	sub    $0x18,%esp
  100dd8:	c7 04 24 78 3a 10 00 	movl   $0x103a78,(%esp)
  100ddf:	e8 b5 f5 ff ff       	call   100399 <debug_print>
  100de4:	8b 45 08             	mov    0x8(%ebp),%eax
  100de7:	8b 40 24             	mov    0x24(%eax),%eax
  100dea:	89 04 24             	mov    %eax,(%esp)
  100ded:	e8 bb f4 ff ff       	call   1002ad <debug_printhex_int32>
  100df2:	c7 44 24 04 02 00 00 	movl   $0x2,0x4(%esp)
  100df9:	00 
  100dfa:	c7 04 24 96 3a 10 00 	movl   $0x103a96,(%esp)
  100e01:	e8 b5 f3 ff ff       	call   1001bb <debug_write>
  100e06:	c7 04 24 9c 3a 10 00 	movl   $0x103a9c,(%esp)
  100e0d:	e8 26 f7 ff ff       	call   100538 <_Z11systemErrorPKc>
  100e12:	c9                   	leave  
  100e13:	c3                   	ret    

00100e14 <_Z23abstract_irq_table_sizej>:
  100e14:	55                   	push   %ebp
  100e15:	89 e5                	mov    %esp,%ebp
  100e17:	8b 55 08             	mov    0x8(%ebp),%edx
  100e1a:	89 d0                	mov    %edx,%eax
  100e1c:	c1 e0 03             	shl    $0x3,%eax
  100e1f:	01 d0                	add    %edx,%eax
  100e21:	5d                   	pop    %ebp
  100e22:	c3                   	ret    

00100e23 <_Z17abstract_irq_initPvj>:
  100e23:	55                   	push   %ebp
  100e24:	89 e5                	mov    %esp,%ebp
  100e26:	83 ec 28             	sub    $0x28,%esp
  100e29:	8b 45 08             	mov    0x8(%ebp),%eax
  100e2c:	a3 c0 4a 10 00       	mov    %eax,0x104ac0
  100e31:	8b 55 0c             	mov    0xc(%ebp),%edx
  100e34:	89 d0                	mov    %edx,%eax
  100e36:	c1 e0 03             	shl    $0x3,%eax
  100e39:	01 d0                	add    %edx,%eax
  100e3b:	89 44 24 08          	mov    %eax,0x8(%esp)
  100e3f:	c7 44 24 04 00 00 00 	movl   $0x0,0x4(%esp)
  100e46:	00 
  100e47:	8b 45 08             	mov    0x8(%ebp),%eax
  100e4a:	89 04 24             	mov    %eax,(%esp)
  100e4d:	e8 88 0b 00 00       	call   1019da <memset>
  100e52:	c7 45 f4 00 00 00 00 	movl   $0x0,-0xc(%ebp)
  100e59:	eb 1c                	jmp    100e77 <_Z17abstract_irq_initPvj+0x54>
  100e5b:	8b 0d c0 4a 10 00    	mov    0x104ac0,%ecx
  100e61:	8b 55 f4             	mov    -0xc(%ebp),%edx
  100e64:	89 d0                	mov    %edx,%eax
  100e66:	c1 e0 03             	shl    $0x3,%eax
  100e69:	01 d0                	add    %edx,%eax
  100e6b:	01 c8                	add    %ecx,%eax
  100e6d:	c7 00 d2 0d 10 00    	movl   $0x100dd2,(%eax)
  100e73:	83 45 f4 01          	addl   $0x1,-0xc(%ebp)
  100e77:	8b 45 f4             	mov    -0xc(%ebp),%eax
  100e7a:	3b 45 0c             	cmp    0xc(%ebp),%eax
  100e7d:	72 dc                	jb     100e5b <_Z17abstract_irq_initPvj+0x38>
  100e7f:	c7 45 f0 00 00 00 00 	movl   $0x0,-0x10(%ebp)
  100e86:	eb 1a                	jmp    100ea2 <_Z17abstract_irq_initPvj+0x7f>
  100e88:	8b 0d c0 4a 10 00    	mov    0x104ac0,%ecx
  100e8e:	8b 55 f0             	mov    -0x10(%ebp),%edx
  100e91:	89 d0                	mov    %edx,%eax
  100e93:	c1 e0 03             	shl    $0x3,%eax
  100e96:	01 d0                	add    %edx,%eax
  100e98:	01 c8                	add    %ecx,%eax
  100e9a:	c6 40 08 01          	movb   $0x1,0x8(%eax)
  100e9e:	83 45 f0 01          	addl   $0x1,-0x10(%ebp)
  100ea2:	8b 45 f0             	mov    -0x10(%ebp),%eax
  100ea5:	3b 45 0c             	cmp    0xc(%ebp),%eax
  100ea8:	72 de                	jb     100e88 <_Z17abstract_irq_initPvj+0x65>
  100eaa:	c6 05 c4 4a 10 00 01 	movb   $0x1,0x104ac4
  100eb1:	c9                   	leave  
  100eb2:	c3                   	ret    

00100eb3 <abstract_irq_controller>:
  100eb3:	55                   	push   %ebp
  100eb4:	89 e5                	mov    %esp,%ebp
  100eb6:	53                   	push   %ebx
  100eb7:	83 ec 24             	sub    $0x24,%esp
  100eba:	0f b6 05 c4 4a 10 00 	movzbl 0x104ac4,%eax
  100ec1:	84 c0                	test   %al,%al
  100ec3:	75 0c                	jne    100ed1 <abstract_irq_controller+0x1e>
  100ec5:	c7 04 24 bc 3a 10 00 	movl   $0x103abc,(%esp)
  100ecc:	e8 67 f6 ff ff       	call   100538 <_Z11systemErrorPKc>
  100ed1:	8b 45 2c             	mov    0x2c(%ebp),%eax
  100ed4:	89 45 f4             	mov    %eax,-0xc(%ebp)
  100ed7:	8b 0d c0 4a 10 00    	mov    0x104ac0,%ecx
  100edd:	8b 55 f4             	mov    -0xc(%ebp),%edx
  100ee0:	89 d0                	mov    %edx,%eax
  100ee2:	c1 e0 03             	shl    $0x3,%eax
  100ee5:	01 d0                	add    %edx,%eax
  100ee7:	01 c8                	add    %ecx,%eax
  100ee9:	8b 50 04             	mov    0x4(%eax),%edx
  100eec:	83 c2 01             	add    $0x1,%edx
  100eef:	89 50 04             	mov    %edx,0x4(%eax)
  100ef2:	8d 45 08             	lea    0x8(%ebp),%eax
  100ef5:	89 04 24             	mov    %eax,(%esp)
  100ef8:	e8 8f fe ff ff       	call   100d8c <_ZL29platform_abstract_irq_handlerP14interrupt_info>
  100efd:	8b 0d c0 4a 10 00    	mov    0x104ac0,%ecx
  100f03:	8b 55 f4             	mov    -0xc(%ebp),%edx
  100f06:	89 d0                	mov    %edx,%eax
  100f08:	c1 e0 03             	shl    $0x3,%eax
  100f0b:	01 d0                	add    %edx,%eax
  100f0d:	01 c8                	add    %ecx,%eax
  100f0f:	8b 00                	mov    (%eax),%eax
  100f11:	8d 5d 08             	lea    0x8(%ebp),%ebx
  100f14:	89 1c 24             	mov    %ebx,(%esp)
  100f17:	ff d0                	call   *%eax
  100f19:	83 c4 24             	add    $0x24,%esp
  100f1c:	5b                   	pop    %ebx
  100f1d:	5d                   	pop    %ebp
  100f1e:	c3                   	ret    

00100f1f <_Z25abstract_irq_debug_attachjPFvP14interrupt_infoE>:
  100f1f:	55                   	push   %ebp
  100f20:	89 e5                	mov    %esp,%ebp
  100f22:	8b 0d c0 4a 10 00    	mov    0x104ac0,%ecx
  100f28:	8b 55 08             	mov    0x8(%ebp),%edx
  100f2b:	89 d0                	mov    %edx,%eax
  100f2d:	c1 e0 03             	shl    $0x3,%eax
  100f30:	01 d0                	add    %edx,%eax
  100f32:	8d 14 01             	lea    (%ecx,%eax,1),%edx
  100f35:	8b 45 0c             	mov    0xc(%ebp),%eax
  100f38:	89 02                	mov    %eax,(%edx)
  100f3a:	8b 0d c0 4a 10 00    	mov    0x104ac0,%ecx
  100f40:	8b 55 08             	mov    0x8(%ebp),%edx
  100f43:	89 d0                	mov    %edx,%eax
  100f45:	c1 e0 03             	shl    $0x3,%eax
  100f48:	01 d0                	add    %edx,%eax
  100f4a:	01 c8                	add    %ecx,%eax
  100f4c:	c6 40 08 01          	movb   $0x1,0x8(%eax)
  100f50:	5d                   	pop    %ebp
  100f51:	c3                   	ret    

00100f52 <_Z19abstract_irq_attachjPFvvE>:
  100f52:	55                   	push   %ebp
  100f53:	89 e5                	mov    %esp,%ebp
  100f55:	8b 0d c0 4a 10 00    	mov    0x104ac0,%ecx
  100f5b:	8b 55 08             	mov    0x8(%ebp),%edx
  100f5e:	89 d0                	mov    %edx,%eax
  100f60:	c1 e0 03             	shl    $0x3,%eax
  100f63:	01 d0                	add    %edx,%eax
  100f65:	8d 14 01             	lea    (%ecx,%eax,1),%edx
  100f68:	8b 45 0c             	mov    0xc(%ebp),%eax
  100f6b:	89 02                	mov    %eax,(%edx)
  100f6d:	8b 0d c0 4a 10 00    	mov    0x104ac0,%ecx
  100f73:	8b 55 08             	mov    0x8(%ebp),%edx
  100f76:	89 d0                	mov    %edx,%eax
  100f78:	c1 e0 03             	shl    $0x3,%eax
  100f7b:	01 d0                	add    %edx,%eax
  100f7d:	01 c8                	add    %ecx,%eax
  100f7f:	c6 40 08 00          	movb   $0x0,0x8(%eax)
  100f83:	5d                   	pop    %ebp
  100f84:	c3                   	ret    

00100f85 <_ZL4outbth>:
  100f85:	55                   	push   %ebp
  100f86:	89 e5                	mov    %esp,%ebp
  100f88:	83 ec 08             	sub    $0x8,%esp
  100f8b:	8b 55 08             	mov    0x8(%ebp),%edx
  100f8e:	8b 45 0c             	mov    0xc(%ebp),%eax
  100f91:	66 89 55 fc          	mov    %dx,-0x4(%ebp)
  100f95:	88 45 f8             	mov    %al,-0x8(%ebp)
  100f98:	0f b7 55 fc          	movzwl -0x4(%ebp),%edx
  100f9c:	0f b6 45 f8          	movzbl -0x8(%ebp),%eax
  100fa0:	ee                   	out    %al,(%dx)
  100fa1:	c9                   	leave  
  100fa2:	c3                   	ret    

00100fa3 <_ZL3inbt>:
  100fa3:	55                   	push   %ebp
  100fa4:	89 e5                	mov    %esp,%ebp
  100fa6:	83 ec 14             	sub    $0x14,%esp
  100fa9:	8b 45 08             	mov    0x8(%ebp),%eax
  100fac:	66 89 45 ec          	mov    %ax,-0x14(%ebp)
  100fb0:	0f b7 45 ec          	movzwl -0x14(%ebp),%eax
  100fb4:	89 c2                	mov    %eax,%edx
  100fb6:	ec                   	in     (%dx),%al
  100fb7:	88 45 ff             	mov    %al,-0x1(%ebp)
  100fba:	0f b6 45 ff          	movzbl -0x1(%ebp),%eax
  100fbe:	c9                   	leave  
  100fbf:	c3                   	ret    

00100fc0 <_ZL29platform_abstract_irq_handlerP14interrupt_info>:
  100fc0:	55                   	push   %ebp
  100fc1:	89 e5                	mov    %esp,%ebp
  100fc3:	83 ec 08             	sub    $0x8,%esp
  100fc6:	8b 45 08             	mov    0x8(%ebp),%eax
  100fc9:	8b 40 24             	mov    0x24(%eax),%eax
  100fcc:	83 f8 27             	cmp    $0x27,%eax
  100fcf:	76 14                	jbe    100fe5 <_ZL29platform_abstract_irq_handlerP14interrupt_info+0x25>
  100fd1:	c7 44 24 04 20 00 00 	movl   $0x20,0x4(%esp)
  100fd8:	00 
  100fd9:	c7 04 24 a0 00 00 00 	movl   $0xa0,(%esp)
  100fe0:	e8 a0 ff ff ff       	call   100f85 <_ZL4outbth>
  100fe5:	8b 45 08             	mov    0x8(%ebp),%eax
  100fe8:	8b 40 24             	mov    0x24(%eax),%eax
  100feb:	83 f8 1f             	cmp    $0x1f,%eax
  100fee:	76 14                	jbe    101004 <_ZL29platform_abstract_irq_handlerP14interrupt_info+0x44>
  100ff0:	c7 44 24 04 20 00 00 	movl   $0x20,0x4(%esp)
  100ff7:	00 
  100ff8:	c7 04 24 20 00 00 00 	movl   $0x20,(%esp)
  100fff:	e8 81 ff ff ff       	call   100f85 <_ZL4outbth>
  101004:	c9                   	leave  
  101005:	c3                   	ret    

00101006 <_ZL17call_constructorsPmS_>:
  101006:	55                   	push   %ebp
  101007:	89 e5                	mov    %esp,%ebp
  101009:	83 ec 28             	sub    $0x28,%esp
  10100c:	8b 45 08             	mov    0x8(%ebp),%eax
  10100f:	89 45 f4             	mov    %eax,-0xc(%ebp)
  101012:	eb 3c                	jmp    101050 <_ZL17call_constructorsPmS_+0x4a>
  101014:	c7 04 24 e0 3a 10 00 	movl   $0x103ae0,(%esp)
  10101b:	e8 79 f3 ff ff       	call   100399 <debug_print>
  101020:	8b 45 f4             	mov    -0xc(%ebp),%eax
  101023:	89 04 24             	mov    %eax,(%esp)
  101026:	e8 82 f2 ff ff       	call   1002ad <debug_printhex_int32>
  10102b:	c7 44 24 04 02 00 00 	movl   $0x2,0x4(%esp)
  101032:	00 
  101033:	c7 04 24 ed 3a 10 00 	movl   $0x103aed,(%esp)
  10103a:	e8 7c f1 ff ff       	call   1001bb <debug_write>
  10103f:	8b 45 f4             	mov    -0xc(%ebp),%eax
  101042:	8b 00                	mov    (%eax),%eax
  101044:	89 45 f0             	mov    %eax,-0x10(%ebp)
  101047:	8b 45 f0             	mov    -0x10(%ebp),%eax
  10104a:	ff d0                	call   *%eax
  10104c:	83 45 f4 04          	addl   $0x4,-0xc(%ebp)
  101050:	8b 45 f4             	mov    -0xc(%ebp),%eax
  101053:	3b 45 0c             	cmp    0xc(%ebp),%eax
  101056:	72 bc                	jb     101014 <_ZL17call_constructorsPmS_+0xe>
  101058:	c9                   	leave  
  101059:	c3                   	ret    

0010105a <initenv_cpp_global_constructors>:
  10105a:	55                   	push   %ebp
  10105b:	89 e5                	mov    %esp,%ebp
  10105d:	83 ec 18             	sub    $0x18,%esp
  101060:	c7 04 24 f0 3a 10 00 	movl   $0x103af0,(%esp)
  101067:	e8 2d f3 ff ff       	call   100399 <debug_print>
  10106c:	c7 04 24 0d 3b 10 00 	movl   $0x103b0d,(%esp)
  101073:	e8 21 f3 ff ff       	call   100399 <debug_print>
  101078:	c7 44 24 04 38 3e 10 	movl   $0x103e38,0x4(%esp)
  10107f:	00 
  101080:	c7 04 24 38 3e 10 00 	movl   $0x103e38,(%esp)
  101087:	e8 7a ff ff ff       	call   101006 <_ZL17call_constructorsPmS_>
  10108c:	c7 44 24 04 3c 3e 10 	movl   $0x103e3c,0x4(%esp)
  101093:	00 
  101094:	c7 04 24 38 3e 10 00 	movl   $0x103e38,(%esp)
  10109b:	e8 66 ff ff ff       	call   101006 <_ZL17call_constructorsPmS_>
  1010a0:	c7 44 24 04 3c 3e 10 	movl   $0x103e3c,0x4(%esp)
  1010a7:	00 
  1010a8:	c7 04 24 3c 3e 10 00 	movl   $0x103e3c,(%esp)
  1010af:	e8 52 ff ff ff       	call   101006 <_ZL17call_constructorsPmS_>
  1010b4:	c7 04 24 1c 3b 10 00 	movl   $0x103b1c,(%esp)
  1010bb:	e8 d9 f2 ff ff       	call   100399 <debug_print>
  1010c0:	c7 04 24 30 3b 10 00 	movl   $0x103b30,(%esp)
  1010c7:	e8 cd f2 ff ff       	call   100399 <debug_print>
  1010cc:	c9                   	leave  
  1010cd:	c3                   	ret    

001010ce <initenv_bss_clean>:
  1010ce:	55                   	push   %ebp
  1010cf:	89 e5                	mov    %esp,%ebp
  1010d1:	83 ec 28             	sub    $0x28,%esp
  1010d4:	c7 04 24 5c 3b 10 00 	movl   $0x103b5c,(%esp)
  1010db:	e8 b9 f2 ff ff       	call   100399 <debug_print>
  1010e0:	c7 45 f4 20 41 10 00 	movl   $0x104120,-0xc(%ebp)
  1010e7:	eb 0a                	jmp    1010f3 <initenv_bss_clean+0x25>
  1010e9:	8b 45 f4             	mov    -0xc(%ebp),%eax
  1010ec:	c6 00 00             	movb   $0x0,(%eax)
  1010ef:	83 45 f4 01          	addl   $0x1,-0xc(%ebp)
  1010f3:	b8 34 53 10 00       	mov    $0x105334,%eax
  1010f8:	39 45 f4             	cmp    %eax,-0xc(%ebp)
  1010fb:	72 ec                	jb     1010e9 <initenv_bss_clean+0x1b>
  1010fd:	c7 04 24 6e 3b 10 00 	movl   $0x103b6e,(%esp)
  101104:	e8 90 f2 ff ff       	call   100399 <debug_print>
  101109:	c9                   	leave  
  10110a:	c3                   	ret    

0010110b <initenv_bss_test>:
  10110b:	55                   	push   %ebp
  10110c:	89 e5                	mov    %esp,%ebp
  10110e:	83 ec 28             	sub    $0x28,%esp
  101111:	c7 45 f4 00 00 00 00 	movl   $0x0,-0xc(%ebp)
  101118:	c7 45 f0 00 00 00 00 	movl   $0x0,-0x10(%ebp)
  10111f:	c7 04 24 73 3b 10 00 	movl   $0x103b73,(%esp)
  101126:	e8 6e f2 ff ff       	call   100399 <debug_print>
  10112b:	c7 04 24 81 3b 10 00 	movl   $0x103b81,(%esp)
  101132:	e8 62 f2 ff ff       	call   100399 <debug_print>
  101137:	ba 34 53 10 00       	mov    $0x105334,%edx
  10113c:	b8 20 41 10 00       	mov    $0x104120,%eax
  101141:	29 c2                	sub    %eax,%edx
  101143:	89 d0                	mov    %edx,%eax
  101145:	89 04 24             	mov    %eax,(%esp)
  101148:	e8 60 f1 ff ff       	call   1002ad <debug_printhex_int32>
  10114d:	c7 44 24 04 02 00 00 	movl   $0x2,0x4(%esp)
  101154:	00 
  101155:	c7 04 24 ed 3a 10 00 	movl   $0x103aed,(%esp)
  10115c:	e8 5a f0 ff ff       	call   1001bb <debug_write>
  101161:	c7 04 24 90 3b 10 00 	movl   $0x103b90,(%esp)
  101168:	e8 2c f2 ff ff       	call   100399 <debug_print>
  10116d:	c7 45 ec 20 41 10 00 	movl   $0x104120,-0x14(%ebp)
  101174:	eb 52                	jmp    1011c8 <initenv_bss_test+0xbd>
  101176:	83 45 f0 01          	addl   $0x1,-0x10(%ebp)
  10117a:	8b 45 ec             	mov    -0x14(%ebp),%eax
  10117d:	0f b6 00             	movzbl (%eax),%eax
  101180:	84 c0                	test   %al,%al
  101182:	74 40                	je     1011c4 <initenv_bss_test+0xb9>
  101184:	8b 45 ec             	mov    -0x14(%ebp),%eax
  101187:	89 04 24             	mov    %eax,(%esp)
  10118a:	e8 1e f1 ff ff       	call   1002ad <debug_printhex_int32>
  10118f:	c7 04 24 d0 3b 10 00 	movl   $0x103bd0,(%esp)
  101196:	e8 fe f1 ff ff       	call   100399 <debug_print>
  10119b:	8b 45 ec             	mov    -0x14(%ebp),%eax
  10119e:	0f b6 00             	movzbl (%eax),%eax
  1011a1:	0f be c0             	movsbl %al,%eax
  1011a4:	89 04 24             	mov    %eax,(%esp)
  1011a7:	e8 cd f0 ff ff       	call   100279 <debug_printhex_byte>
  1011ac:	c7 44 24 04 02 00 00 	movl   $0x2,0x4(%esp)
  1011b3:	00 
  1011b4:	c7 04 24 ed 3a 10 00 	movl   $0x103aed,(%esp)
  1011bb:	e8 fb ef ff ff       	call   1001bb <debug_write>
  1011c0:	83 45 f4 01          	addl   $0x1,-0xc(%ebp)
  1011c4:	83 45 ec 01          	addl   $0x1,-0x14(%ebp)
  1011c8:	b8 34 53 10 00       	mov    $0x105334,%eax
  1011cd:	39 45 ec             	cmp    %eax,-0x14(%ebp)
  1011d0:	72 a4                	jb     101176 <initenv_bss_test+0x6b>
  1011d2:	c7 04 24 d4 3b 10 00 	movl   $0x103bd4,(%esp)
  1011d9:	e8 bb f1 ff ff       	call   100399 <debug_print>
  1011de:	8b 45 f0             	mov    -0x10(%ebp),%eax
  1011e1:	89 04 24             	mov    %eax,(%esp)
  1011e4:	e8 c4 f0 ff ff       	call   1002ad <debug_printhex_int32>
  1011e9:	c7 04 24 06 3c 10 00 	movl   $0x103c06,(%esp)
  1011f0:	e8 a4 f1 ff ff       	call   100399 <debug_print>
  1011f5:	8b 45 f4             	mov    -0xc(%ebp),%eax
  1011f8:	89 04 24             	mov    %eax,(%esp)
  1011fb:	e8 ad f0 ff ff       	call   1002ad <debug_printhex_int32>
  101200:	c7 44 24 04 02 00 00 	movl   $0x2,0x4(%esp)
  101207:	00 
  101208:	c7 04 24 ed 3a 10 00 	movl   $0x103aed,(%esp)
  10120f:	e8 a7 ef ff ff       	call   1001bb <debug_write>
  101214:	c7 04 24 17 3c 10 00 	movl   $0x103c17,(%esp)
  10121b:	e8 79 f1 ff ff       	call   100399 <debug_print>
  101220:	c9                   	leave  
  101221:	c3                   	ret    

00101222 <initenv_sections_info>:
  101222:	55                   	push   %ebp
  101223:	89 e5                	mov    %esp,%ebp
  101225:	83 ec 18             	sub    $0x18,%esp
  101228:	c7 04 24 28 3c 10 00 	movl   $0x103c28,(%esp)
  10122f:	e8 65 f1 ff ff       	call   100399 <debug_print>
  101234:	c7 04 24 4c 3c 10 00 	movl   $0x103c4c,(%esp)
  10123b:	e8 59 f1 ff ff       	call   100399 <debug_print>
  101240:	b8 00 00 10 00       	mov    $0x100000,%eax
  101245:	89 04 24             	mov    %eax,(%esp)
  101248:	e8 60 f0 ff ff       	call   1002ad <debug_printhex_int32>
  10124d:	c7 44 24 04 02 00 00 	movl   $0x2,0x4(%esp)
  101254:	00 
  101255:	c7 04 24 ed 3a 10 00 	movl   $0x103aed,(%esp)
  10125c:	e8 5a ef ff ff       	call   1001bb <debug_write>
  101261:	c7 04 24 5a 3c 10 00 	movl   $0x103c5a,(%esp)
  101268:	e8 2c f1 ff ff       	call   100399 <debug_print>
  10126d:	b8 3c 3e 10 00       	mov    $0x103e3c,%eax
  101272:	89 04 24             	mov    %eax,(%esp)
  101275:	e8 33 f0 ff ff       	call   1002ad <debug_printhex_int32>
  10127a:	c7 44 24 04 02 00 00 	movl   $0x2,0x4(%esp)
  101281:	00 
  101282:	c7 04 24 ed 3a 10 00 	movl   $0x103aed,(%esp)
  101289:	e8 2d ef ff ff       	call   1001bb <debug_write>
  10128e:	c7 04 24 68 3c 10 00 	movl   $0x103c68,(%esp)
  101295:	e8 ff f0 ff ff       	call   100399 <debug_print>
  10129a:	b8 40 3e 10 00       	mov    $0x103e40,%eax
  10129f:	89 04 24             	mov    %eax,(%esp)
  1012a2:	e8 06 f0 ff ff       	call   1002ad <debug_printhex_int32>
  1012a7:	c7 44 24 04 02 00 00 	movl   $0x2,0x4(%esp)
  1012ae:	00 
  1012af:	c7 04 24 ed 3a 10 00 	movl   $0x103aed,(%esp)
  1012b6:	e8 00 ef ff ff       	call   1001bb <debug_write>
  1012bb:	c7 04 24 76 3c 10 00 	movl   $0x103c76,(%esp)
  1012c2:	e8 d2 f0 ff ff       	call   100399 <debug_print>
  1012c7:	b8 0c 41 10 00       	mov    $0x10410c,%eax
  1012cc:	89 04 24             	mov    %eax,(%esp)
  1012cf:	e8 d9 ef ff ff       	call   1002ad <debug_printhex_int32>
  1012d4:	c7 44 24 04 02 00 00 	movl   $0x2,0x4(%esp)
  1012db:	00 
  1012dc:	c7 04 24 ed 3a 10 00 	movl   $0x103aed,(%esp)
  1012e3:	e8 d3 ee ff ff       	call   1001bb <debug_write>
  1012e8:	c7 04 24 84 3c 10 00 	movl   $0x103c84,(%esp)
  1012ef:	e8 a5 f0 ff ff       	call   100399 <debug_print>
  1012f4:	b8 20 41 10 00       	mov    $0x104120,%eax
  1012f9:	89 04 24             	mov    %eax,(%esp)
  1012fc:	e8 ac ef ff ff       	call   1002ad <debug_printhex_int32>
  101301:	c7 44 24 04 02 00 00 	movl   $0x2,0x4(%esp)
  101308:	00 
  101309:	c7 04 24 ed 3a 10 00 	movl   $0x103aed,(%esp)
  101310:	e8 a6 ee ff ff       	call   1001bb <debug_write>
  101315:	c7 04 24 92 3c 10 00 	movl   $0x103c92,(%esp)
  10131c:	e8 78 f0 ff ff       	call   100399 <debug_print>
  101321:	b8 34 53 10 00       	mov    $0x105334,%eax
  101326:	89 04 24             	mov    %eax,(%esp)
  101329:	e8 7f ef ff ff       	call   1002ad <debug_printhex_int32>
  10132e:	c7 44 24 04 02 00 00 	movl   $0x2,0x4(%esp)
  101335:	00 
  101336:	c7 04 24 ed 3a 10 00 	movl   $0x103aed,(%esp)
  10133d:	e8 79 ee ff ff       	call   1001bb <debug_write>
  101342:	c7 04 24 a0 3c 10 00 	movl   $0x103ca0,(%esp)
  101349:	e8 4b f0 ff ff       	call   100399 <debug_print>
  10134e:	c7 04 24 b4 3c 10 00 	movl   $0x103cb4,(%esp)
  101355:	e8 3f f0 ff ff       	call   100399 <debug_print>
  10135a:	b8 38 3e 10 00       	mov    $0x103e38,%eax
  10135f:	89 04 24             	mov    %eax,(%esp)
  101362:	e8 46 ef ff ff       	call   1002ad <debug_printhex_int32>
  101367:	c7 44 24 04 02 00 00 	movl   $0x2,0x4(%esp)
  10136e:	00 
  10136f:	c7 04 24 ed 3a 10 00 	movl   $0x103aed,(%esp)
  101376:	e8 40 ee ff ff       	call   1001bb <debug_write>
  10137b:	c7 04 24 cb 3c 10 00 	movl   $0x103ccb,(%esp)
  101382:	e8 12 f0 ff ff       	call   100399 <debug_print>
  101387:	b8 38 3e 10 00       	mov    $0x103e38,%eax
  10138c:	89 04 24             	mov    %eax,(%esp)
  10138f:	e8 19 ef ff ff       	call   1002ad <debug_printhex_int32>
  101394:	c7 44 24 04 02 00 00 	movl   $0x2,0x4(%esp)
  10139b:	00 
  10139c:	c7 04 24 ed 3a 10 00 	movl   $0x103aed,(%esp)
  1013a3:	e8 13 ee ff ff       	call   1001bb <debug_write>
  1013a8:	c7 04 24 e2 3c 10 00 	movl   $0x103ce2,(%esp)
  1013af:	e8 e5 ef ff ff       	call   100399 <debug_print>
  1013b4:	b8 38 3e 10 00       	mov    $0x103e38,%eax
  1013b9:	89 04 24             	mov    %eax,(%esp)
  1013bc:	e8 ec ee ff ff       	call   1002ad <debug_printhex_int32>
  1013c1:	c7 44 24 04 02 00 00 	movl   $0x2,0x4(%esp)
  1013c8:	00 
  1013c9:	c7 04 24 ed 3a 10 00 	movl   $0x103aed,(%esp)
  1013d0:	e8 e6 ed ff ff       	call   1001bb <debug_write>
  1013d5:	c7 04 24 f9 3c 10 00 	movl   $0x103cf9,(%esp)
  1013dc:	e8 b8 ef ff ff       	call   100399 <debug_print>
  1013e1:	b8 3c 3e 10 00       	mov    $0x103e3c,%eax
  1013e6:	89 04 24             	mov    %eax,(%esp)
  1013e9:	e8 bf ee ff ff       	call   1002ad <debug_printhex_int32>
  1013ee:	c7 44 24 04 02 00 00 	movl   $0x2,0x4(%esp)
  1013f5:	00 
  1013f6:	c7 04 24 ed 3a 10 00 	movl   $0x103aed,(%esp)
  1013fd:	e8 b9 ed ff ff       	call   1001bb <debug_write>
  101402:	c7 04 24 10 3d 10 00 	movl   $0x103d10,(%esp)
  101409:	e8 8b ef ff ff       	call   100399 <debug_print>
  10140e:	b8 3c 3e 10 00       	mov    $0x103e3c,%eax
  101413:	89 04 24             	mov    %eax,(%esp)
  101416:	e8 92 ee ff ff       	call   1002ad <debug_printhex_int32>
  10141b:	c7 44 24 04 02 00 00 	movl   $0x2,0x4(%esp)
  101422:	00 
  101423:	c7 04 24 ed 3a 10 00 	movl   $0x103aed,(%esp)
  10142a:	e8 8c ed ff ff       	call   1001bb <debug_write>
  10142f:	c7 04 24 27 3d 10 00 	movl   $0x103d27,(%esp)
  101436:	e8 5e ef ff ff       	call   100399 <debug_print>
  10143b:	b8 3c 3e 10 00       	mov    $0x103e3c,%eax
  101440:	89 04 24             	mov    %eax,(%esp)
  101443:	e8 65 ee ff ff       	call   1002ad <debug_printhex_int32>
  101448:	c7 44 24 04 02 00 00 	movl   $0x2,0x4(%esp)
  10144f:	00 
  101450:	c7 04 24 ed 3a 10 00 	movl   $0x103aed,(%esp)
  101457:	e8 5f ed ff ff       	call   1001bb <debug_write>
  10145c:	c9                   	leave  
  10145d:	c3                   	ret    

0010145e <_ZL8_tolowerc>:
  10145e:	55                   	push   %ebp
  10145f:	89 e5                	mov    %esp,%ebp
  101461:	83 ec 04             	sub    $0x4,%esp
  101464:	8b 45 08             	mov    0x8(%ebp),%eax
  101467:	88 45 fc             	mov    %al,-0x4(%ebp)
  10146a:	0f b6 45 fc          	movzbl -0x4(%ebp),%eax
  10146e:	83 c8 20             	or     $0x20,%eax
  101471:	c9                   	leave  
  101472:	c3                   	ret    

00101473 <strncasecmp>:
  101473:	55                   	push   %ebp
  101474:	89 e5                	mov    %esp,%ebp
  101476:	83 ec 14             	sub    $0x14,%esp
  101479:	c6 45 ff 00          	movb   $0x0,-0x1(%ebp)
  10147d:	c6 45 fe 00          	movb   $0x0,-0x2(%ebp)
  101481:	83 7d 10 00          	cmpl   $0x0,0x10(%ebp)
  101485:	74 75                	je     1014fc <strncasecmp+0x89>
  101487:	8b 45 08             	mov    0x8(%ebp),%eax
  10148a:	0f b6 00             	movzbl (%eax),%eax
  10148d:	88 45 ff             	mov    %al,-0x1(%ebp)
  101490:	8b 45 0c             	mov    0xc(%ebp),%eax
  101493:	0f b6 00             	movzbl (%eax),%eax
  101496:	88 45 fe             	mov    %al,-0x2(%ebp)
  101499:	83 45 08 01          	addl   $0x1,0x8(%ebp)
  10149d:	83 45 0c 01          	addl   $0x1,0xc(%ebp)
  1014a1:	80 7d ff 00          	cmpb   $0x0,-0x1(%ebp)
  1014a5:	75 02                	jne    1014a9 <strncasecmp+0x36>
  1014a7:	eb 53                	jmp    1014fc <strncasecmp+0x89>
  1014a9:	80 7d fe 00          	cmpb   $0x0,-0x2(%ebp)
  1014ad:	75 02                	jne    1014b1 <strncasecmp+0x3e>
  1014af:	eb 4b                	jmp    1014fc <strncasecmp+0x89>
  1014b1:	0f b6 45 ff          	movzbl -0x1(%ebp),%eax
  1014b5:	3a 45 fe             	cmp    -0x2(%ebp),%al
  1014b8:	75 02                	jne    1014bc <strncasecmp+0x49>
  1014ba:	eb 2f                	jmp    1014eb <strncasecmp+0x78>
  1014bc:	0f b6 45 ff          	movzbl -0x1(%ebp),%eax
  1014c0:	0f be c0             	movsbl %al,%eax
  1014c3:	89 04 24             	mov    %eax,(%esp)
  1014c6:	e8 93 ff ff ff       	call   10145e <_ZL8_tolowerc>
  1014cb:	88 45 ff             	mov    %al,-0x1(%ebp)
  1014ce:	0f b6 45 fe          	movzbl -0x2(%ebp),%eax
  1014d2:	0f be c0             	movsbl %al,%eax
  1014d5:	89 04 24             	mov    %eax,(%esp)
  1014d8:	e8 81 ff ff ff       	call   10145e <_ZL8_tolowerc>
  1014dd:	88 45 fe             	mov    %al,-0x2(%ebp)
  1014e0:	0f b6 45 ff          	movzbl -0x1(%ebp),%eax
  1014e4:	3a 45 fe             	cmp    -0x2(%ebp),%al
  1014e7:	74 02                	je     1014eb <strncasecmp+0x78>
  1014e9:	eb 11                	jmp    1014fc <strncasecmp+0x89>
  1014eb:	83 6d 10 01          	subl   $0x1,0x10(%ebp)
  1014ef:	83 7d 10 00          	cmpl   $0x0,0x10(%ebp)
  1014f3:	0f 95 c0             	setne  %al
  1014f6:	84 c0                	test   %al,%al
  1014f8:	75 8d                	jne    101487 <strncasecmp+0x14>
  1014fa:	eb 00                	jmp    1014fc <strncasecmp+0x89>
  1014fc:	0f b6 55 ff          	movzbl -0x1(%ebp),%edx
  101500:	0f b6 45 fe          	movzbl -0x2(%ebp),%eax
  101504:	29 c2                	sub    %eax,%edx
  101506:	89 d0                	mov    %edx,%eax
  101508:	c9                   	leave  
  101509:	c3                   	ret    

0010150a <strcasecmp>:
  10150a:	55                   	push   %ebp
  10150b:	89 e5                	mov    %esp,%ebp
  10150d:	83 ec 0c             	sub    $0xc,%esp
  101510:	c7 44 24 08 ff ff ff 	movl   $0xffffffff,0x8(%esp)
  101517:	ff 
  101518:	8b 45 0c             	mov    0xc(%ebp),%eax
  10151b:	89 44 24 04          	mov    %eax,0x4(%esp)
  10151f:	8b 45 08             	mov    0x8(%ebp),%eax
  101522:	89 04 24             	mov    %eax,(%esp)
  101525:	e8 49 ff ff ff       	call   101473 <strncasecmp>
  10152a:	c9                   	leave  
  10152b:	c3                   	ret    

0010152c <strcpy>:
  10152c:	55                   	push   %ebp
  10152d:	89 e5                	mov    %esp,%ebp
  10152f:	83 ec 10             	sub    $0x10,%esp
  101532:	8b 45 08             	mov    0x8(%ebp),%eax
  101535:	89 45 fc             	mov    %eax,-0x4(%ebp)
  101538:	90                   	nop
  101539:	8b 45 08             	mov    0x8(%ebp),%eax
  10153c:	8d 50 01             	lea    0x1(%eax),%edx
  10153f:	89 55 08             	mov    %edx,0x8(%ebp)
  101542:	8b 55 0c             	mov    0xc(%ebp),%edx
  101545:	8d 4a 01             	lea    0x1(%edx),%ecx
  101548:	89 4d 0c             	mov    %ecx,0xc(%ebp)
  10154b:	0f b6 12             	movzbl (%edx),%edx
  10154e:	88 10                	mov    %dl,(%eax)
  101550:	0f b6 00             	movzbl (%eax),%eax
  101553:	84 c0                	test   %al,%al
  101555:	0f 95 c0             	setne  %al
  101558:	84 c0                	test   %al,%al
  10155a:	75 dd                	jne    101539 <strcpy+0xd>
  10155c:	8b 45 fc             	mov    -0x4(%ebp),%eax
  10155f:	c9                   	leave  
  101560:	c3                   	ret    

00101561 <strncpy>:
  101561:	55                   	push   %ebp
  101562:	89 e5                	mov    %esp,%ebp
  101564:	83 ec 10             	sub    $0x10,%esp
  101567:	8b 45 08             	mov    0x8(%ebp),%eax
  10156a:	89 45 fc             	mov    %eax,-0x4(%ebp)
  10156d:	90                   	nop
  10156e:	8b 45 10             	mov    0x10(%ebp),%eax
  101571:	8d 50 ff             	lea    -0x1(%eax),%edx
  101574:	89 55 10             	mov    %edx,0x10(%ebp)
  101577:	85 c0                	test   %eax,%eax
  101579:	74 25                	je     1015a0 <strncpy+0x3f>
  10157b:	8b 45 08             	mov    0x8(%ebp),%eax
  10157e:	8d 50 01             	lea    0x1(%eax),%edx
  101581:	89 55 08             	mov    %edx,0x8(%ebp)
  101584:	8b 55 0c             	mov    0xc(%ebp),%edx
  101587:	8d 4a 01             	lea    0x1(%edx),%ecx
  10158a:	89 4d 0c             	mov    %ecx,0xc(%ebp)
  10158d:	0f b6 12             	movzbl (%edx),%edx
  101590:	88 10                	mov    %dl,(%eax)
  101592:	0f b6 00             	movzbl (%eax),%eax
  101595:	84 c0                	test   %al,%al
  101597:	74 07                	je     1015a0 <strncpy+0x3f>
  101599:	b8 01 00 00 00       	mov    $0x1,%eax
  10159e:	eb 05                	jmp    1015a5 <strncpy+0x44>
  1015a0:	b8 00 00 00 00       	mov    $0x0,%eax
  1015a5:	84 c0                	test   %al,%al
  1015a7:	75 c5                	jne    10156e <strncpy+0xd>
  1015a9:	8b 45 fc             	mov    -0x4(%ebp),%eax
  1015ac:	c9                   	leave  
  1015ad:	c3                   	ret    

001015ae <strcat>:
  1015ae:	55                   	push   %ebp
  1015af:	89 e5                	mov    %esp,%ebp
  1015b1:	83 ec 10             	sub    $0x10,%esp
  1015b4:	8b 45 08             	mov    0x8(%ebp),%eax
  1015b7:	89 45 fc             	mov    %eax,-0x4(%ebp)
  1015ba:	eb 04                	jmp    1015c0 <strcat+0x12>
  1015bc:	83 45 08 01          	addl   $0x1,0x8(%ebp)
  1015c0:	8b 45 08             	mov    0x8(%ebp),%eax
  1015c3:	0f b6 00             	movzbl (%eax),%eax
  1015c6:	84 c0                	test   %al,%al
  1015c8:	75 f2                	jne    1015bc <strcat+0xe>
  1015ca:	90                   	nop
  1015cb:	8b 45 08             	mov    0x8(%ebp),%eax
  1015ce:	8d 50 01             	lea    0x1(%eax),%edx
  1015d1:	89 55 08             	mov    %edx,0x8(%ebp)
  1015d4:	8b 55 0c             	mov    0xc(%ebp),%edx
  1015d7:	8d 4a 01             	lea    0x1(%edx),%ecx
  1015da:	89 4d 0c             	mov    %ecx,0xc(%ebp)
  1015dd:	0f b6 12             	movzbl (%edx),%edx
  1015e0:	88 10                	mov    %dl,(%eax)
  1015e2:	0f b6 00             	movzbl (%eax),%eax
  1015e5:	84 c0                	test   %al,%al
  1015e7:	0f 95 c0             	setne  %al
  1015ea:	84 c0                	test   %al,%al
  1015ec:	75 dd                	jne    1015cb <strcat+0x1d>
  1015ee:	8b 45 fc             	mov    -0x4(%ebp),%eax
  1015f1:	c9                   	leave  
  1015f2:	c3                   	ret    

001015f3 <strncat>:
  1015f3:	55                   	push   %ebp
  1015f4:	89 e5                	mov    %esp,%ebp
  1015f6:	83 ec 10             	sub    $0x10,%esp
  1015f9:	8b 45 08             	mov    0x8(%ebp),%eax
  1015fc:	89 45 fc             	mov    %eax,-0x4(%ebp)
  1015ff:	83 7d 10 00          	cmpl   $0x0,0x10(%ebp)
  101603:	74 4d                	je     101652 <strncat+0x5f>
  101605:	eb 04                	jmp    10160b <strncat+0x18>
  101607:	83 45 08 01          	addl   $0x1,0x8(%ebp)
  10160b:	8b 45 08             	mov    0x8(%ebp),%eax
  10160e:	0f b6 00             	movzbl (%eax),%eax
  101611:	84 c0                	test   %al,%al
  101613:	75 f2                	jne    101607 <strncat+0x14>
  101615:	eb 18                	jmp    10162f <strncat+0x3c>
  101617:	83 6d 10 01          	subl   $0x1,0x10(%ebp)
  10161b:	83 7d 10 00          	cmpl   $0x0,0x10(%ebp)
  10161f:	0f 94 c0             	sete   %al
  101622:	84 c0                	test   %al,%al
  101624:	74 09                	je     10162f <strncat+0x3c>
  101626:	8b 45 08             	mov    0x8(%ebp),%eax
  101629:	c6 00 00             	movb   $0x0,(%eax)
  10162c:	90                   	nop
  10162d:	eb 23                	jmp    101652 <strncat+0x5f>
  10162f:	8b 45 08             	mov    0x8(%ebp),%eax
  101632:	8d 50 01             	lea    0x1(%eax),%edx
  101635:	89 55 08             	mov    %edx,0x8(%ebp)
  101638:	8b 55 0c             	mov    0xc(%ebp),%edx
  10163b:	8d 4a 01             	lea    0x1(%edx),%ecx
  10163e:	89 4d 0c             	mov    %ecx,0xc(%ebp)
  101641:	0f b6 12             	movzbl (%edx),%edx
  101644:	88 10                	mov    %dl,(%eax)
  101646:	0f b6 00             	movzbl (%eax),%eax
  101649:	84 c0                	test   %al,%al
  10164b:	0f 95 c0             	setne  %al
  10164e:	84 c0                	test   %al,%al
  101650:	75 c5                	jne    101617 <strncat+0x24>
  101652:	8b 45 fc             	mov    -0x4(%ebp),%eax
  101655:	c9                   	leave  
  101656:	c3                   	ret    

00101657 <strcmp>:
  101657:	55                   	push   %ebp
  101658:	89 e5                	mov    %esp,%ebp
  10165a:	53                   	push   %ebx
  10165b:	8b 45 08             	mov    0x8(%ebp),%eax
  10165e:	0f b6 00             	movzbl (%eax),%eax
  101661:	89 c1                	mov    %eax,%ecx
  101663:	8b 45 0c             	mov    0xc(%ebp),%eax
  101666:	8d 50 01             	lea    0x1(%eax),%edx
  101669:	89 55 0c             	mov    %edx,0xc(%ebp)
  10166c:	0f b6 00             	movzbl (%eax),%eax
  10166f:	29 c1                	sub    %eax,%ecx
  101671:	89 c8                	mov    %ecx,%eax
  101673:	89 c3                	mov    %eax,%ebx
  101675:	84 db                	test   %bl,%bl
  101677:	75 10                	jne    101689 <strcmp+0x32>
  101679:	8b 45 08             	mov    0x8(%ebp),%eax
  10167c:	8d 50 01             	lea    0x1(%eax),%edx
  10167f:	89 55 08             	mov    %edx,0x8(%ebp)
  101682:	0f b6 00             	movzbl (%eax),%eax
  101685:	84 c0                	test   %al,%al
  101687:	75 07                	jne    101690 <strcmp+0x39>
  101689:	b8 01 00 00 00       	mov    $0x1,%eax
  10168e:	eb 05                	jmp    101695 <strcmp+0x3e>
  101690:	b8 00 00 00 00       	mov    $0x0,%eax
  101695:	84 c0                	test   %al,%al
  101697:	74 02                	je     10169b <strcmp+0x44>
  101699:	eb 02                	jmp    10169d <strcmp+0x46>
  10169b:	eb be                	jmp    10165b <strcmp+0x4>
  10169d:	0f be c3             	movsbl %bl,%eax
  1016a0:	5b                   	pop    %ebx
  1016a1:	5d                   	pop    %ebp
  1016a2:	c3                   	ret    

001016a3 <strncmp>:
  1016a3:	55                   	push   %ebp
  1016a4:	89 e5                	mov    %esp,%ebp
  1016a6:	53                   	push   %ebx
  1016a7:	bb 00 00 00 00       	mov    $0x0,%ebx
  1016ac:	eb 44                	jmp    1016f2 <strncmp+0x4f>
  1016ae:	8b 45 08             	mov    0x8(%ebp),%eax
  1016b1:	0f b6 00             	movzbl (%eax),%eax
  1016b4:	89 c1                	mov    %eax,%ecx
  1016b6:	8b 45 0c             	mov    0xc(%ebp),%eax
  1016b9:	8d 50 01             	lea    0x1(%eax),%edx
  1016bc:	89 55 0c             	mov    %edx,0xc(%ebp)
  1016bf:	0f b6 00             	movzbl (%eax),%eax
  1016c2:	29 c1                	sub    %eax,%ecx
  1016c4:	89 c8                	mov    %ecx,%eax
  1016c6:	89 c3                	mov    %eax,%ebx
  1016c8:	84 db                	test   %bl,%bl
  1016ca:	75 10                	jne    1016dc <strncmp+0x39>
  1016cc:	8b 45 08             	mov    0x8(%ebp),%eax
  1016cf:	8d 50 01             	lea    0x1(%eax),%edx
  1016d2:	89 55 08             	mov    %edx,0x8(%ebp)
  1016d5:	0f b6 00             	movzbl (%eax),%eax
  1016d8:	84 c0                	test   %al,%al
  1016da:	75 07                	jne    1016e3 <strncmp+0x40>
  1016dc:	b8 01 00 00 00       	mov    $0x1,%eax
  1016e1:	eb 05                	jmp    1016e8 <strncmp+0x45>
  1016e3:	b8 00 00 00 00       	mov    $0x0,%eax
  1016e8:	84 c0                	test   %al,%al
  1016ea:	74 02                	je     1016ee <strncmp+0x4b>
  1016ec:	eb 0a                	jmp    1016f8 <strncmp+0x55>
  1016ee:	83 6d 10 01          	subl   $0x1,0x10(%ebp)
  1016f2:	83 7d 10 00          	cmpl   $0x0,0x10(%ebp)
  1016f6:	75 b6                	jne    1016ae <strncmp+0xb>
  1016f8:	0f be c3             	movsbl %bl,%eax
  1016fb:	5b                   	pop    %ebx
  1016fc:	5d                   	pop    %ebp
  1016fd:	c3                   	ret    

001016fe <strchr>:
  1016fe:	55                   	push   %ebp
  1016ff:	89 e5                	mov    %esp,%ebp
  101701:	eb 15                	jmp    101718 <strchr+0x1a>
  101703:	8b 45 08             	mov    0x8(%ebp),%eax
  101706:	0f b6 00             	movzbl (%eax),%eax
  101709:	84 c0                	test   %al,%al
  10170b:	75 07                	jne    101714 <strchr+0x16>
  10170d:	b8 00 00 00 00       	mov    $0x0,%eax
  101712:	eb 14                	jmp    101728 <strchr+0x2a>
  101714:	83 45 08 01          	addl   $0x1,0x8(%ebp)
  101718:	8b 45 08             	mov    0x8(%ebp),%eax
  10171b:	0f b6 10             	movzbl (%eax),%edx
  10171e:	8b 45 0c             	mov    0xc(%ebp),%eax
  101721:	38 c2                	cmp    %al,%dl
  101723:	75 de                	jne    101703 <strchr+0x5>
  101725:	8b 45 08             	mov    0x8(%ebp),%eax
  101728:	5d                   	pop    %ebp
  101729:	c3                   	ret    

0010172a <strrchr>:
  10172a:	55                   	push   %ebp
  10172b:	89 e5                	mov    %esp,%ebp
  10172d:	83 ec 28             	sub    $0x28,%esp
  101730:	8b 45 08             	mov    0x8(%ebp),%eax
  101733:	89 04 24             	mov    %eax,(%esp)
  101736:	e8 32 00 00 00       	call   10176d <strlen>
  10173b:	8b 55 08             	mov    0x8(%ebp),%edx
  10173e:	01 d0                	add    %edx,%eax
  101740:	89 45 f4             	mov    %eax,-0xc(%ebp)
  101743:	8b 45 f4             	mov    -0xc(%ebp),%eax
  101746:	0f b6 10             	movzbl (%eax),%edx
  101749:	8b 45 0c             	mov    0xc(%ebp),%eax
  10174c:	38 c2                	cmp    %al,%dl
  10174e:	75 05                	jne    101755 <strrchr+0x2b>
  101750:	8b 45 f4             	mov    -0xc(%ebp),%eax
  101753:	eb 16                	jmp    10176b <strrchr+0x41>
  101755:	83 6d f4 01          	subl   $0x1,-0xc(%ebp)
  101759:	8b 45 f4             	mov    -0xc(%ebp),%eax
  10175c:	3b 45 08             	cmp    0x8(%ebp),%eax
  10175f:	0f 93 c0             	setae  %al
  101762:	84 c0                	test   %al,%al
  101764:	75 dd                	jne    101743 <strrchr+0x19>
  101766:	b8 00 00 00 00       	mov    $0x0,%eax
  10176b:	c9                   	leave  
  10176c:	c3                   	ret    

0010176d <strlen>:
  10176d:	55                   	push   %ebp
  10176e:	89 e5                	mov    %esp,%ebp
  101770:	83 ec 10             	sub    $0x10,%esp
  101773:	8b 45 08             	mov    0x8(%ebp),%eax
  101776:	89 45 fc             	mov    %eax,-0x4(%ebp)
  101779:	eb 04                	jmp    10177f <strlen+0x12>
  10177b:	83 45 fc 01          	addl   $0x1,-0x4(%ebp)
  10177f:	8b 45 fc             	mov    -0x4(%ebp),%eax
  101782:	0f b6 00             	movzbl (%eax),%eax
  101785:	84 c0                	test   %al,%al
  101787:	75 f2                	jne    10177b <strlen+0xe>
  101789:	8b 55 fc             	mov    -0x4(%ebp),%edx
  10178c:	8b 45 08             	mov    0x8(%ebp),%eax
  10178f:	29 c2                	sub    %eax,%edx
  101791:	89 d0                	mov    %edx,%eax
  101793:	c9                   	leave  
  101794:	c3                   	ret    

00101795 <strnlen>:
  101795:	55                   	push   %ebp
  101796:	89 e5                	mov    %esp,%ebp
  101798:	83 ec 10             	sub    $0x10,%esp
  10179b:	8b 45 08             	mov    0x8(%ebp),%eax
  10179e:	89 45 fc             	mov    %eax,-0x4(%ebp)
  1017a1:	eb 04                	jmp    1017a7 <strnlen+0x12>
  1017a3:	83 45 fc 01          	addl   $0x1,-0x4(%ebp)
  1017a7:	8b 45 0c             	mov    0xc(%ebp),%eax
  1017aa:	8d 50 ff             	lea    -0x1(%eax),%edx
  1017ad:	89 55 0c             	mov    %edx,0xc(%ebp)
  1017b0:	85 c0                	test   %eax,%eax
  1017b2:	74 11                	je     1017c5 <strnlen+0x30>
  1017b4:	8b 45 fc             	mov    -0x4(%ebp),%eax
  1017b7:	0f b6 00             	movzbl (%eax),%eax
  1017ba:	84 c0                	test   %al,%al
  1017bc:	74 07                	je     1017c5 <strnlen+0x30>
  1017be:	b8 01 00 00 00       	mov    $0x1,%eax
  1017c3:	eb 05                	jmp    1017ca <strnlen+0x35>
  1017c5:	b8 00 00 00 00       	mov    $0x0,%eax
  1017ca:	84 c0                	test   %al,%al
  1017cc:	75 d5                	jne    1017a3 <strnlen+0xe>
  1017ce:	8b 55 fc             	mov    -0x4(%ebp),%edx
  1017d1:	8b 45 08             	mov    0x8(%ebp),%eax
  1017d4:	29 c2                	sub    %eax,%edx
  1017d6:	89 d0                	mov    %edx,%eax
  1017d8:	c9                   	leave  
  1017d9:	c3                   	ret    

001017da <_Z6strspnPKcS0_>:
  1017da:	55                   	push   %ebp
  1017db:	89 e5                	mov    %esp,%ebp
  1017dd:	83 ec 10             	sub    $0x10,%esp
  1017e0:	c7 45 f4 00 00 00 00 	movl   $0x0,-0xc(%ebp)
  1017e7:	8b 45 08             	mov    0x8(%ebp),%eax
  1017ea:	89 45 fc             	mov    %eax,-0x4(%ebp)
  1017ed:	eb 3f                	jmp    10182e <_Z6strspnPKcS0_+0x54>
  1017ef:	8b 45 0c             	mov    0xc(%ebp),%eax
  1017f2:	89 45 f8             	mov    %eax,-0x8(%ebp)
  1017f5:	eb 16                	jmp    10180d <_Z6strspnPKcS0_+0x33>
  1017f7:	8b 45 fc             	mov    -0x4(%ebp),%eax
  1017fa:	0f b6 10             	movzbl (%eax),%edx
  1017fd:	8b 45 f8             	mov    -0x8(%ebp),%eax
  101800:	0f b6 00             	movzbl (%eax),%eax
  101803:	38 c2                	cmp    %al,%dl
  101805:	75 02                	jne    101809 <_Z6strspnPKcS0_+0x2f>
  101807:	eb 0e                	jmp    101817 <_Z6strspnPKcS0_+0x3d>
  101809:	83 45 f8 01          	addl   $0x1,-0x8(%ebp)
  10180d:	8b 45 f8             	mov    -0x8(%ebp),%eax
  101810:	0f b6 00             	movzbl (%eax),%eax
  101813:	84 c0                	test   %al,%al
  101815:	75 e0                	jne    1017f7 <_Z6strspnPKcS0_+0x1d>
  101817:	8b 45 f8             	mov    -0x8(%ebp),%eax
  10181a:	0f b6 00             	movzbl (%eax),%eax
  10181d:	84 c0                	test   %al,%al
  10181f:	75 05                	jne    101826 <_Z6strspnPKcS0_+0x4c>
  101821:	8b 45 f4             	mov    -0xc(%ebp),%eax
  101824:	eb 15                	jmp    10183b <_Z6strspnPKcS0_+0x61>
  101826:	83 45 f4 01          	addl   $0x1,-0xc(%ebp)
  10182a:	83 45 fc 01          	addl   $0x1,-0x4(%ebp)
  10182e:	8b 45 fc             	mov    -0x4(%ebp),%eax
  101831:	0f b6 00             	movzbl (%eax),%eax
  101834:	84 c0                	test   %al,%al
  101836:	75 b7                	jne    1017ef <_Z6strspnPKcS0_+0x15>
  101838:	8b 45 f4             	mov    -0xc(%ebp),%eax
  10183b:	c9                   	leave  
  10183c:	c3                   	ret    

0010183d <_Z7strpbrkPKcS0_>:
  10183d:	55                   	push   %ebp
  10183e:	89 e5                	mov    %esp,%ebp
  101840:	83 ec 10             	sub    $0x10,%esp
  101843:	8b 45 08             	mov    0x8(%ebp),%eax
  101846:	89 45 fc             	mov    %eax,-0x4(%ebp)
  101849:	eb 2f                	jmp    10187a <_Z7strpbrkPKcS0_+0x3d>
  10184b:	8b 45 0c             	mov    0xc(%ebp),%eax
  10184e:	89 45 f8             	mov    %eax,-0x8(%ebp)
  101851:	eb 19                	jmp    10186c <_Z7strpbrkPKcS0_+0x2f>
  101853:	8b 45 fc             	mov    -0x4(%ebp),%eax
  101856:	0f b6 10             	movzbl (%eax),%edx
  101859:	8b 45 f8             	mov    -0x8(%ebp),%eax
  10185c:	0f b6 00             	movzbl (%eax),%eax
  10185f:	38 c2                	cmp    %al,%dl
  101861:	75 05                	jne    101868 <_Z7strpbrkPKcS0_+0x2b>
  101863:	8b 45 fc             	mov    -0x4(%ebp),%eax
  101866:	eb 21                	jmp    101889 <_Z7strpbrkPKcS0_+0x4c>
  101868:	83 45 f8 01          	addl   $0x1,-0x8(%ebp)
  10186c:	8b 45 f8             	mov    -0x8(%ebp),%eax
  10186f:	0f b6 00             	movzbl (%eax),%eax
  101872:	84 c0                	test   %al,%al
  101874:	75 dd                	jne    101853 <_Z7strpbrkPKcS0_+0x16>
  101876:	83 45 fc 01          	addl   $0x1,-0x4(%ebp)
  10187a:	8b 45 fc             	mov    -0x4(%ebp),%eax
  10187d:	0f b6 00             	movzbl (%eax),%eax
  101880:	84 c0                	test   %al,%al
  101882:	75 c7                	jne    10184b <_Z7strpbrkPKcS0_+0xe>
  101884:	b8 00 00 00 00       	mov    $0x0,%eax
  101889:	c9                   	leave  
  10188a:	c3                   	ret    

0010188b <_Z6strtokPcPKc>:
  10188b:	55                   	push   %ebp
  10188c:	89 e5                	mov    %esp,%ebp
  10188e:	83 ec 18             	sub    $0x18,%esp
  101891:	83 7d 08 00          	cmpl   $0x0,0x8(%ebp)
  101895:	74 05                	je     10189c <_Z6strtokPcPKc+0x11>
  101897:	8b 45 08             	mov    0x8(%ebp),%eax
  10189a:	eb 05                	jmp    1018a1 <_Z6strtokPcPKc+0x16>
  10189c:	a1 c8 4a 10 00       	mov    0x104ac8,%eax
  1018a1:	89 45 f8             	mov    %eax,-0x8(%ebp)
  1018a4:	83 7d f8 00          	cmpl   $0x0,-0x8(%ebp)
  1018a8:	75 07                	jne    1018b1 <_Z6strtokPcPKc+0x26>
  1018aa:	b8 00 00 00 00       	mov    $0x0,%eax
  1018af:	eb 6c                	jmp    10191d <_Z6strtokPcPKc+0x92>
  1018b1:	8b 45 0c             	mov    0xc(%ebp),%eax
  1018b4:	89 44 24 04          	mov    %eax,0x4(%esp)
  1018b8:	8b 45 f8             	mov    -0x8(%ebp),%eax
  1018bb:	89 04 24             	mov    %eax,(%esp)
  1018be:	e8 17 ff ff ff       	call   1017da <_Z6strspnPKcS0_>
  1018c3:	01 45 f8             	add    %eax,-0x8(%ebp)
  1018c6:	8b 45 f8             	mov    -0x8(%ebp),%eax
  1018c9:	0f b6 00             	movzbl (%eax),%eax
  1018cc:	84 c0                	test   %al,%al
  1018ce:	75 11                	jne    1018e1 <_Z6strtokPcPKc+0x56>
  1018d0:	c7 05 c8 4a 10 00 00 	movl   $0x0,0x104ac8
  1018d7:	00 00 00 
  1018da:	b8 00 00 00 00       	mov    $0x0,%eax
  1018df:	eb 3c                	jmp    10191d <_Z6strtokPcPKc+0x92>
  1018e1:	8b 45 0c             	mov    0xc(%ebp),%eax
  1018e4:	89 44 24 04          	mov    %eax,0x4(%esp)
  1018e8:	8b 45 f8             	mov    -0x8(%ebp),%eax
  1018eb:	89 04 24             	mov    %eax,(%esp)
  1018ee:	e8 4a ff ff ff       	call   10183d <_Z7strpbrkPKcS0_>
  1018f3:	89 45 fc             	mov    %eax,-0x4(%ebp)
  1018f6:	83 7d fc 00          	cmpl   $0x0,-0x4(%ebp)
  1018fa:	74 16                	je     101912 <_Z6strtokPcPKc+0x87>
  1018fc:	8b 45 fc             	mov    -0x4(%ebp),%eax
  1018ff:	0f b6 00             	movzbl (%eax),%eax
  101902:	84 c0                	test   %al,%al
  101904:	74 0c                	je     101912 <_Z6strtokPcPKc+0x87>
  101906:	8b 45 fc             	mov    -0x4(%ebp),%eax
  101909:	8d 50 01             	lea    0x1(%eax),%edx
  10190c:	89 55 fc             	mov    %edx,-0x4(%ebp)
  10190f:	c6 00 00             	movb   $0x0,(%eax)
  101912:	8b 45 fc             	mov    -0x4(%ebp),%eax
  101915:	a3 c8 4a 10 00       	mov    %eax,0x104ac8
  10191a:	8b 45 f8             	mov    -0x8(%ebp),%eax
  10191d:	c9                   	leave  
  10191e:	c3                   	ret    

0010191f <_Z6strsepPPcPKc>:
  10191f:	55                   	push   %ebp
  101920:	89 e5                	mov    %esp,%ebp
  101922:	83 ec 18             	sub    $0x18,%esp
  101925:	8b 45 08             	mov    0x8(%ebp),%eax
  101928:	8b 00                	mov    (%eax),%eax
  10192a:	89 45 f8             	mov    %eax,-0x8(%ebp)
  10192d:	83 7d f8 00          	cmpl   $0x0,-0x8(%ebp)
  101931:	75 07                	jne    10193a <_Z6strsepPPcPKc+0x1b>
  101933:	b8 00 00 00 00       	mov    $0x0,%eax
  101938:	eb 32                	jmp    10196c <_Z6strsepPPcPKc+0x4d>
  10193a:	8b 45 0c             	mov    0xc(%ebp),%eax
  10193d:	89 44 24 04          	mov    %eax,0x4(%esp)
  101941:	8b 45 f8             	mov    -0x8(%ebp),%eax
  101944:	89 04 24             	mov    %eax,(%esp)
  101947:	e8 f1 fe ff ff       	call   10183d <_Z7strpbrkPKcS0_>
  10194c:	89 45 fc             	mov    %eax,-0x4(%ebp)
  10194f:	83 7d fc 00          	cmpl   $0x0,-0x4(%ebp)
  101953:	74 0c                	je     101961 <_Z6strsepPPcPKc+0x42>
  101955:	8b 45 fc             	mov    -0x4(%ebp),%eax
  101958:	8d 50 01             	lea    0x1(%eax),%edx
  10195b:	89 55 fc             	mov    %edx,-0x4(%ebp)
  10195e:	c6 00 00             	movb   $0x0,(%eax)
  101961:	8b 45 08             	mov    0x8(%ebp),%eax
  101964:	8b 55 fc             	mov    -0x4(%ebp),%edx
  101967:	89 10                	mov    %edx,(%eax)
  101969:	8b 45 f8             	mov    -0x8(%ebp),%eax
  10196c:	c9                   	leave  
  10196d:	c3                   	ret    

0010196e <strswab>:
  10196e:	55                   	push   %ebp
  10196f:	89 e5                	mov    %esp,%ebp
  101971:	83 ec 10             	sub    $0x10,%esp
  101974:	83 7d 08 00          	cmpl   $0x0,0x8(%ebp)
  101978:	74 0a                	je     101984 <strswab+0x16>
  10197a:	8b 45 08             	mov    0x8(%ebp),%eax
  10197d:	0f b6 00             	movzbl (%eax),%eax
  101980:	84 c0                	test   %al,%al
  101982:	75 07                	jne    10198b <strswab+0x1d>
  101984:	b8 00 00 00 00       	mov    $0x0,%eax
  101989:	eb 4d                	jmp    1019d8 <strswab+0x6a>
  10198b:	8b 45 08             	mov    0x8(%ebp),%eax
  10198e:	89 45 fc             	mov    %eax,-0x4(%ebp)
  101991:	8b 45 fc             	mov    -0x4(%ebp),%eax
  101994:	83 c0 01             	add    $0x1,%eax
  101997:	89 45 f8             	mov    %eax,-0x8(%ebp)
  10199a:	eb 25                	jmp    1019c1 <strswab+0x53>
  10199c:	8b 45 fc             	mov    -0x4(%ebp),%eax
  10199f:	0f b6 00             	movzbl (%eax),%eax
  1019a2:	88 45 f7             	mov    %al,-0x9(%ebp)
  1019a5:	8b 45 f8             	mov    -0x8(%ebp),%eax
  1019a8:	0f b6 10             	movzbl (%eax),%edx
  1019ab:	8b 45 fc             	mov    -0x4(%ebp),%eax
  1019ae:	88 10                	mov    %dl,(%eax)
  1019b0:	8b 45 f8             	mov    -0x8(%ebp),%eax
  1019b3:	0f b6 55 f7          	movzbl -0x9(%ebp),%edx
  1019b7:	88 10                	mov    %dl,(%eax)
  1019b9:	83 45 fc 02          	addl   $0x2,-0x4(%ebp)
  1019bd:	83 45 f8 02          	addl   $0x2,-0x8(%ebp)
  1019c1:	8b 45 fc             	mov    -0x4(%ebp),%eax
  1019c4:	0f b6 00             	movzbl (%eax),%eax
  1019c7:	84 c0                	test   %al,%al
  1019c9:	74 0a                	je     1019d5 <strswab+0x67>
  1019cb:	8b 45 f8             	mov    -0x8(%ebp),%eax
  1019ce:	0f b6 00             	movzbl (%eax),%eax
  1019d1:	84 c0                	test   %al,%al
  1019d3:	75 c7                	jne    10199c <strswab+0x2e>
  1019d5:	8b 45 08             	mov    0x8(%ebp),%eax
  1019d8:	c9                   	leave  
  1019d9:	c3                   	ret    

001019da <memset>:
  1019da:	55                   	push   %ebp
  1019db:	89 e5                	mov    %esp,%ebp
  1019dd:	83 ec 10             	sub    $0x10,%esp
  1019e0:	8b 45 08             	mov    0x8(%ebp),%eax
  1019e3:	89 45 fc             	mov    %eax,-0x4(%ebp)
  1019e6:	c7 45 f8 00 00 00 00 	movl   $0x0,-0x8(%ebp)
  1019ed:	ba 03 00 00 00       	mov    $0x3,%edx
  1019f2:	8b 45 08             	mov    0x8(%ebp),%eax
  1019f5:	21 d0                	and    %edx,%eax
  1019f7:	85 c0                	test   %eax,%eax
  1019f9:	75 3c                	jne    101a37 <memset+0x5d>
  1019fb:	c7 45 f0 00 00 00 00 	movl   $0x0,-0x10(%ebp)
  101a02:	eb 11                	jmp    101a15 <memset+0x3b>
  101a04:	c1 65 f8 08          	shll   $0x8,-0x8(%ebp)
  101a08:	8b 45 0c             	mov    0xc(%ebp),%eax
  101a0b:	0f b6 c0             	movzbl %al,%eax
  101a0e:	09 45 f8             	or     %eax,-0x8(%ebp)
  101a11:	83 45 f0 01          	addl   $0x1,-0x10(%ebp)
  101a15:	8b 45 f0             	mov    -0x10(%ebp),%eax
  101a18:	83 f8 04             	cmp    $0x4,%eax
  101a1b:	72 e7                	jb     101a04 <memset+0x2a>
  101a1d:	eb 12                	jmp    101a31 <memset+0x57>
  101a1f:	8b 45 fc             	mov    -0x4(%ebp),%eax
  101a22:	8d 50 04             	lea    0x4(%eax),%edx
  101a25:	89 55 fc             	mov    %edx,-0x4(%ebp)
  101a28:	8b 55 f8             	mov    -0x8(%ebp),%edx
  101a2b:	89 10                	mov    %edx,(%eax)
  101a2d:	83 6d 10 04          	subl   $0x4,0x10(%ebp)
  101a31:	83 7d 10 04          	cmpl   $0x4,0x10(%ebp)
  101a35:	73 e8                	jae    101a1f <memset+0x45>
  101a37:	8b 45 fc             	mov    -0x4(%ebp),%eax
  101a3a:	89 45 f4             	mov    %eax,-0xc(%ebp)
  101a3d:	eb 0e                	jmp    101a4d <memset+0x73>
  101a3f:	8b 45 f4             	mov    -0xc(%ebp),%eax
  101a42:	8d 50 01             	lea    0x1(%eax),%edx
  101a45:	89 55 f4             	mov    %edx,-0xc(%ebp)
  101a48:	8b 55 0c             	mov    0xc(%ebp),%edx
  101a4b:	88 10                	mov    %dl,(%eax)
  101a4d:	8b 45 10             	mov    0x10(%ebp),%eax
  101a50:	8d 50 ff             	lea    -0x1(%eax),%edx
  101a53:	89 55 10             	mov    %edx,0x10(%ebp)
  101a56:	85 c0                	test   %eax,%eax
  101a58:	0f 95 c0             	setne  %al
  101a5b:	84 c0                	test   %al,%al
  101a5d:	75 e0                	jne    101a3f <memset+0x65>
  101a5f:	8b 45 08             	mov    0x8(%ebp),%eax
  101a62:	c9                   	leave  
  101a63:	c3                   	ret    

00101a64 <_Z5bcopyPKcPci>:
  101a64:	55                   	push   %ebp
  101a65:	89 e5                	mov    %esp,%ebp
  101a67:	83 ec 10             	sub    $0x10,%esp
  101a6a:	8b 45 0c             	mov    0xc(%ebp),%eax
  101a6d:	89 45 fc             	mov    %eax,-0x4(%ebp)
  101a70:	eb 17                	jmp    101a89 <_Z5bcopyPKcPci+0x25>
  101a72:	8b 45 fc             	mov    -0x4(%ebp),%eax
  101a75:	8d 50 01             	lea    0x1(%eax),%edx
  101a78:	89 55 fc             	mov    %edx,-0x4(%ebp)
  101a7b:	8b 55 08             	mov    0x8(%ebp),%edx
  101a7e:	8d 4a 01             	lea    0x1(%edx),%ecx
  101a81:	89 4d 08             	mov    %ecx,0x8(%ebp)
  101a84:	0f b6 12             	movzbl (%edx),%edx
  101a87:	88 10                	mov    %dl,(%eax)
  101a89:	8b 45 10             	mov    0x10(%ebp),%eax
  101a8c:	8d 50 ff             	lea    -0x1(%eax),%edx
  101a8f:	89 55 10             	mov    %edx,0x10(%ebp)
  101a92:	85 c0                	test   %eax,%eax
  101a94:	0f 95 c0             	setne  %al
  101a97:	84 c0                	test   %al,%al
  101a99:	75 d7                	jne    101a72 <_Z5bcopyPKcPci+0xe>
  101a9b:	8b 45 0c             	mov    0xc(%ebp),%eax
  101a9e:	c9                   	leave  
  101a9f:	c3                   	ret    

00101aa0 <memcpy>:
  101aa0:	55                   	push   %ebp
  101aa1:	89 e5                	mov    %esp,%ebp
  101aa3:	83 ec 10             	sub    $0x10,%esp
  101aa6:	8b 45 08             	mov    0x8(%ebp),%eax
  101aa9:	89 45 fc             	mov    %eax,-0x4(%ebp)
  101aac:	8b 45 0c             	mov    0xc(%ebp),%eax
  101aaf:	89 45 f8             	mov    %eax,-0x8(%ebp)
  101ab2:	8b 45 0c             	mov    0xc(%ebp),%eax
  101ab5:	3b 45 08             	cmp    0x8(%ebp),%eax
  101ab8:	75 05                	jne    101abf <memcpy+0x1f>
  101aba:	8b 45 08             	mov    0x8(%ebp),%eax
  101abd:	eb 6f                	jmp    101b2e <memcpy+0x8e>
  101abf:	8b 55 08             	mov    0x8(%ebp),%edx
  101ac2:	8b 45 0c             	mov    0xc(%ebp),%eax
  101ac5:	09 c2                	or     %eax,%edx
  101ac7:	b8 03 00 00 00       	mov    $0x3,%eax
  101acc:	21 d0                	and    %edx,%eax
  101ace:	85 c0                	test   %eax,%eax
  101ad0:	75 22                	jne    101af4 <memcpy+0x54>
  101ad2:	eb 1a                	jmp    101aee <memcpy+0x4e>
  101ad4:	8b 45 fc             	mov    -0x4(%ebp),%eax
  101ad7:	8d 50 04             	lea    0x4(%eax),%edx
  101ada:	89 55 fc             	mov    %edx,-0x4(%ebp)
  101add:	8b 55 f8             	mov    -0x8(%ebp),%edx
  101ae0:	8d 4a 04             	lea    0x4(%edx),%ecx
  101ae3:	89 4d f8             	mov    %ecx,-0x8(%ebp)
  101ae6:	8b 12                	mov    (%edx),%edx
  101ae8:	89 10                	mov    %edx,(%eax)
  101aea:	83 6d 10 04          	subl   $0x4,0x10(%ebp)
  101aee:	83 7d 10 04          	cmpl   $0x4,0x10(%ebp)
  101af2:	73 e0                	jae    101ad4 <memcpy+0x34>
  101af4:	8b 45 fc             	mov    -0x4(%ebp),%eax
  101af7:	89 45 f4             	mov    %eax,-0xc(%ebp)
  101afa:	8b 45 f8             	mov    -0x8(%ebp),%eax
  101afd:	89 45 f0             	mov    %eax,-0x10(%ebp)
  101b00:	eb 17                	jmp    101b19 <memcpy+0x79>
  101b02:	8b 45 f4             	mov    -0xc(%ebp),%eax
  101b05:	8d 50 01             	lea    0x1(%eax),%edx
  101b08:	89 55 f4             	mov    %edx,-0xc(%ebp)
  101b0b:	8b 55 f0             	mov    -0x10(%ebp),%edx
  101b0e:	8d 4a 01             	lea    0x1(%edx),%ecx
  101b11:	89 4d f0             	mov    %ecx,-0x10(%ebp)
  101b14:	0f b6 12             	movzbl (%edx),%edx
  101b17:	88 10                	mov    %dl,(%eax)
  101b19:	8b 45 10             	mov    0x10(%ebp),%eax
  101b1c:	8d 50 ff             	lea    -0x1(%eax),%edx
  101b1f:	89 55 10             	mov    %edx,0x10(%ebp)
  101b22:	85 c0                	test   %eax,%eax
  101b24:	0f 95 c0             	setne  %al
  101b27:	84 c0                	test   %al,%al
  101b29:	75 d7                	jne    101b02 <memcpy+0x62>
  101b2b:	8b 45 08             	mov    0x8(%ebp),%eax
  101b2e:	c9                   	leave  
  101b2f:	c3                   	ret    

00101b30 <memmove>:
  101b30:	55                   	push   %ebp
  101b31:	89 e5                	mov    %esp,%ebp
  101b33:	83 ec 10             	sub    $0x10,%esp
  101b36:	8b 45 0c             	mov    0xc(%ebp),%eax
  101b39:	3b 45 08             	cmp    0x8(%ebp),%eax
  101b3c:	75 08                	jne    101b46 <memmove+0x16>
  101b3e:	8b 45 08             	mov    0x8(%ebp),%eax
  101b41:	e9 81 00 00 00       	jmp    101bc7 <memmove+0x97>
  101b46:	8b 45 08             	mov    0x8(%ebp),%eax
  101b49:	3b 45 0c             	cmp    0xc(%ebp),%eax
  101b4c:	77 39                	ja     101b87 <memmove+0x57>
  101b4e:	8b 45 08             	mov    0x8(%ebp),%eax
  101b51:	89 45 fc             	mov    %eax,-0x4(%ebp)
  101b54:	8b 45 0c             	mov    0xc(%ebp),%eax
  101b57:	89 45 f8             	mov    %eax,-0x8(%ebp)
  101b5a:	eb 17                	jmp    101b73 <memmove+0x43>
  101b5c:	8b 45 fc             	mov    -0x4(%ebp),%eax
  101b5f:	8d 50 01             	lea    0x1(%eax),%edx
  101b62:	89 55 fc             	mov    %edx,-0x4(%ebp)
  101b65:	8b 55 f8             	mov    -0x8(%ebp),%edx
  101b68:	8d 4a 01             	lea    0x1(%edx),%ecx
  101b6b:	89 4d f8             	mov    %ecx,-0x8(%ebp)
  101b6e:	0f b6 12             	movzbl (%edx),%edx
  101b71:	88 10                	mov    %dl,(%eax)
  101b73:	8b 45 10             	mov    0x10(%ebp),%eax
  101b76:	8d 50 ff             	lea    -0x1(%eax),%edx
  101b79:	89 55 10             	mov    %edx,0x10(%ebp)
  101b7c:	85 c0                	test   %eax,%eax
  101b7e:	0f 95 c0             	setne  %al
  101b81:	84 c0                	test   %al,%al
  101b83:	75 d7                	jne    101b5c <memmove+0x2c>
  101b85:	eb 3d                	jmp    101bc4 <memmove+0x94>
  101b87:	8b 45 10             	mov    0x10(%ebp),%eax
  101b8a:	8b 55 08             	mov    0x8(%ebp),%edx
  101b8d:	01 d0                	add    %edx,%eax
  101b8f:	89 45 fc             	mov    %eax,-0x4(%ebp)
  101b92:	8b 45 10             	mov    0x10(%ebp),%eax
  101b95:	8b 55 0c             	mov    0xc(%ebp),%edx
  101b98:	01 d0                	add    %edx,%eax
  101b9a:	89 45 f8             	mov    %eax,-0x8(%ebp)
  101b9d:	eb 13                	jmp    101bb2 <memmove+0x82>
  101b9f:	83 6d fc 01          	subl   $0x1,-0x4(%ebp)
  101ba3:	83 6d f8 01          	subl   $0x1,-0x8(%ebp)
  101ba7:	8b 45 f8             	mov    -0x8(%ebp),%eax
  101baa:	0f b6 10             	movzbl (%eax),%edx
  101bad:	8b 45 fc             	mov    -0x4(%ebp),%eax
  101bb0:	88 10                	mov    %dl,(%eax)
  101bb2:	8b 45 10             	mov    0x10(%ebp),%eax
  101bb5:	8d 50 ff             	lea    -0x1(%eax),%edx
  101bb8:	89 55 10             	mov    %edx,0x10(%ebp)
  101bbb:	85 c0                	test   %eax,%eax
  101bbd:	0f 95 c0             	setne  %al
  101bc0:	84 c0                	test   %al,%al
  101bc2:	75 db                	jne    101b9f <memmove+0x6f>
  101bc4:	8b 45 08             	mov    0x8(%ebp),%eax
  101bc7:	c9                   	leave  
  101bc8:	c3                   	ret    

00101bc9 <memcmp>:
  101bc9:	55                   	push   %ebp
  101bca:	89 e5                	mov    %esp,%ebp
  101bcc:	83 ec 10             	sub    $0x10,%esp
  101bcf:	c7 45 f4 00 00 00 00 	movl   $0x0,-0xc(%ebp)
  101bd6:	8b 45 08             	mov    0x8(%ebp),%eax
  101bd9:	89 45 fc             	mov    %eax,-0x4(%ebp)
  101bdc:	8b 45 0c             	mov    0xc(%ebp),%eax
  101bdf:	89 45 f8             	mov    %eax,-0x8(%ebp)
  101be2:	eb 32                	jmp    101c16 <memcmp+0x4d>
  101be4:	8b 45 fc             	mov    -0x4(%ebp),%eax
  101be7:	0f b6 00             	movzbl (%eax),%eax
  101bea:	0f b6 d0             	movzbl %al,%edx
  101bed:	8b 45 f8             	mov    -0x8(%ebp),%eax
  101bf0:	0f b6 00             	movzbl (%eax),%eax
  101bf3:	0f b6 c0             	movzbl %al,%eax
  101bf6:	29 c2                	sub    %eax,%edx
  101bf8:	89 d0                	mov    %edx,%eax
  101bfa:	89 45 f4             	mov    %eax,-0xc(%ebp)
  101bfd:	83 7d f4 00          	cmpl   $0x0,-0xc(%ebp)
  101c01:	0f 95 c0             	setne  %al
  101c04:	84 c0                	test   %al,%al
  101c06:	74 02                	je     101c0a <memcmp+0x41>
  101c08:	eb 12                	jmp    101c1c <memcmp+0x53>
  101c0a:	83 45 fc 01          	addl   $0x1,-0x4(%ebp)
  101c0e:	83 45 f8 01          	addl   $0x1,-0x8(%ebp)
  101c12:	83 6d 10 01          	subl   $0x1,0x10(%ebp)
  101c16:	83 7d 10 00          	cmpl   $0x0,0x10(%ebp)
  101c1a:	75 c8                	jne    101be4 <memcmp+0x1b>
  101c1c:	8b 45 f4             	mov    -0xc(%ebp),%eax
  101c1f:	c9                   	leave  
  101c20:	c3                   	ret    

00101c21 <memscan>:
  101c21:	55                   	push   %ebp
  101c22:	89 e5                	mov    %esp,%ebp
  101c24:	83 ec 10             	sub    $0x10,%esp
  101c27:	8b 45 08             	mov    0x8(%ebp),%eax
  101c2a:	89 45 fc             	mov    %eax,-0x4(%ebp)
  101c2d:	eb 1b                	jmp    101c4a <memscan+0x29>
  101c2f:	8b 45 fc             	mov    -0x4(%ebp),%eax
  101c32:	0f b6 00             	movzbl (%eax),%eax
  101c35:	0f b6 c0             	movzbl %al,%eax
  101c38:	3b 45 0c             	cmp    0xc(%ebp),%eax
  101c3b:	75 05                	jne    101c42 <memscan+0x21>
  101c3d:	8b 45 fc             	mov    -0x4(%ebp),%eax
  101c40:	eb 11                	jmp    101c53 <memscan+0x32>
  101c42:	83 45 fc 01          	addl   $0x1,-0x4(%ebp)
  101c46:	83 6d 10 01          	subl   $0x1,0x10(%ebp)
  101c4a:	83 7d 10 00          	cmpl   $0x0,0x10(%ebp)
  101c4e:	75 df                	jne    101c2f <memscan+0xe>
  101c50:	8b 45 fc             	mov    -0x4(%ebp),%eax
  101c53:	c9                   	leave  
  101c54:	c3                   	ret    

00101c55 <strstr>:
  101c55:	55                   	push   %ebp
  101c56:	89 e5                	mov    %esp,%ebp
  101c58:	83 ec 1c             	sub    $0x1c,%esp
  101c5b:	8b 45 0c             	mov    0xc(%ebp),%eax
  101c5e:	89 04 24             	mov    %eax,(%esp)
  101c61:	e8 07 fb ff ff       	call   10176d <strlen>
  101c66:	89 45 f8             	mov    %eax,-0x8(%ebp)
  101c69:	83 7d f8 00          	cmpl   $0x0,-0x8(%ebp)
  101c6d:	75 05                	jne    101c74 <strstr+0x1f>
  101c6f:	8b 45 08             	mov    0x8(%ebp),%eax
  101c72:	eb 47                	jmp    101cbb <strstr+0x66>
  101c74:	8b 45 08             	mov    0x8(%ebp),%eax
  101c77:	89 04 24             	mov    %eax,(%esp)
  101c7a:	e8 ee fa ff ff       	call   10176d <strlen>
  101c7f:	89 45 fc             	mov    %eax,-0x4(%ebp)
  101c82:	eb 2a                	jmp    101cae <strstr+0x59>
  101c84:	83 6d fc 01          	subl   $0x1,-0x4(%ebp)
  101c88:	8b 45 f8             	mov    -0x8(%ebp),%eax
  101c8b:	89 44 24 08          	mov    %eax,0x8(%esp)
  101c8f:	8b 45 0c             	mov    0xc(%ebp),%eax
  101c92:	89 44 24 04          	mov    %eax,0x4(%esp)
  101c96:	8b 45 08             	mov    0x8(%ebp),%eax
  101c99:	89 04 24             	mov    %eax,(%esp)
  101c9c:	e8 28 ff ff ff       	call   101bc9 <memcmp>
  101ca1:	85 c0                	test   %eax,%eax
  101ca3:	75 05                	jne    101caa <strstr+0x55>
  101ca5:	8b 45 08             	mov    0x8(%ebp),%eax
  101ca8:	eb 11                	jmp    101cbb <strstr+0x66>
  101caa:	83 45 08 01          	addl   $0x1,0x8(%ebp)
  101cae:	8b 45 fc             	mov    -0x4(%ebp),%eax
  101cb1:	3b 45 f8             	cmp    -0x8(%ebp),%eax
  101cb4:	7d ce                	jge    101c84 <strstr+0x2f>
  101cb6:	b8 00 00 00 00       	mov    $0x0,%eax
  101cbb:	c9                   	leave  
  101cbc:	c3                   	ret    
  101cbd:	90                   	nop

00101cbe <_ZN12staticring_tC1Ev>:
  101cbe:	55                   	push   %ebp
  101cbf:	89 e5                	mov    %esp,%ebp
  101cc1:	83 ec 18             	sub    $0x18,%esp
  101cc4:	8b 45 08             	mov    0x8(%ebp),%eax
  101cc7:	89 04 24             	mov    %eax,(%esp)
  101cca:	e8 49 01 00 00       	call   101e18 <_ZN7Queue_pC1Ev>
  101ccf:	8b 45 08             	mov    0x8(%ebp),%eax
  101cd2:	c7 00 48 3d 10 00    	movl   $0x103d48,(%eax)
  101cd8:	8b 45 08             	mov    0x8(%ebp),%eax
  101cdb:	c7 40 10 28 00 00 00 	movl   $0x28,0x10(%eax)
  101ce2:	8b 45 08             	mov    0x8(%ebp),%eax
  101ce5:	c7 40 08 00 00 00 00 	movl   $0x0,0x8(%eax)
  101cec:	8b 45 08             	mov    0x8(%ebp),%eax
  101cef:	c7 40 0c 00 00 00 00 	movl   $0x0,0xc(%eax)
  101cf6:	8b 45 08             	mov    0x8(%ebp),%eax
  101cf9:	c6 40 04 00          	movb   $0x0,0x4(%eax)
  101cfd:	c9                   	leave  
  101cfe:	c3                   	ret    
  101cff:	90                   	nop

00101d00 <_ZN12staticring_t3popEv>:
  101d00:	55                   	push   %ebp
  101d01:	89 e5                	mov    %esp,%ebp
  101d03:	83 ec 10             	sub    $0x10,%esp
  101d06:	8b 45 08             	mov    0x8(%ebp),%eax
  101d09:	0f b6 40 04          	movzbl 0x4(%eax),%eax
  101d0d:	84 c0                	test   %al,%al
  101d0f:	75 07                	jne    101d18 <_ZN12staticring_t3popEv+0x18>
  101d11:	b8 ff ff ff ff       	mov    $0xffffffff,%eax
  101d16:	eb 53                	jmp    101d6b <_ZN12staticring_t3popEv+0x6b>
  101d18:	8b 45 08             	mov    0x8(%ebp),%eax
  101d1b:	8b 40 08             	mov    0x8(%eax),%eax
  101d1e:	8b 55 08             	mov    0x8(%ebp),%edx
  101d21:	0f b6 44 02 14       	movzbl 0x14(%edx,%eax,1),%eax
  101d26:	88 45 ff             	mov    %al,-0x1(%ebp)
  101d29:	8b 45 08             	mov    0x8(%ebp),%eax
  101d2c:	8b 40 08             	mov    0x8(%eax),%eax
  101d2f:	8d 50 01             	lea    0x1(%eax),%edx
  101d32:	8b 45 08             	mov    0x8(%ebp),%eax
  101d35:	8b 48 10             	mov    0x10(%eax),%ecx
  101d38:	89 d0                	mov    %edx,%eax
  101d3a:	ba 00 00 00 00       	mov    $0x0,%edx
  101d3f:	f7 f1                	div    %ecx
  101d41:	8b 45 08             	mov    0x8(%ebp),%eax
  101d44:	89 50 08             	mov    %edx,0x8(%eax)
  101d47:	8b 45 08             	mov    0x8(%ebp),%eax
  101d4a:	8b 50 0c             	mov    0xc(%eax),%edx
  101d4d:	8b 45 08             	mov    0x8(%ebp),%eax
  101d50:	8b 40 08             	mov    0x8(%eax),%eax
  101d53:	39 c2                	cmp    %eax,%edx
  101d55:	75 09                	jne    101d60 <_ZN12staticring_t3popEv+0x60>
  101d57:	8b 45 08             	mov    0x8(%ebp),%eax
  101d5a:	c6 40 04 00          	movb   $0x0,0x4(%eax)
  101d5e:	eb 07                	jmp    101d67 <_ZN12staticring_t3popEv+0x67>
  101d60:	8b 45 08             	mov    0x8(%ebp),%eax
  101d63:	c6 40 04 01          	movb   $0x1,0x4(%eax)
  101d67:	0f be 45 ff          	movsbl -0x1(%ebp),%eax
  101d6b:	c9                   	leave  
  101d6c:	c3                   	ret    
  101d6d:	90                   	nop

00101d6e <_ZN12staticring_t4pushEc>:
  101d6e:	55                   	push   %ebp
  101d6f:	89 e5                	mov    %esp,%ebp
  101d71:	83 ec 04             	sub    $0x4,%esp
  101d74:	8b 45 0c             	mov    0xc(%ebp),%eax
  101d77:	88 45 fc             	mov    %al,-0x4(%ebp)
  101d7a:	8b 45 08             	mov    0x8(%ebp),%eax
  101d7d:	0f b6 40 04          	movzbl 0x4(%eax),%eax
  101d81:	3c 02                	cmp    $0x2,%al
  101d83:	75 07                	jne    101d8c <_ZN12staticring_t4pushEc+0x1e>
  101d85:	b8 ff ff ff ff       	mov    $0xffffffff,%eax
  101d8a:	eb 54                	jmp    101de0 <_ZN12staticring_t4pushEc+0x72>
  101d8c:	8b 45 08             	mov    0x8(%ebp),%eax
  101d8f:	8b 40 0c             	mov    0xc(%eax),%eax
  101d92:	8b 55 08             	mov    0x8(%ebp),%edx
  101d95:	0f b6 4d fc          	movzbl -0x4(%ebp),%ecx
  101d99:	88 4c 02 14          	mov    %cl,0x14(%edx,%eax,1)
  101d9d:	8b 45 08             	mov    0x8(%ebp),%eax
  101da0:	8b 40 0c             	mov    0xc(%eax),%eax
  101da3:	8d 50 01             	lea    0x1(%eax),%edx
  101da6:	8b 45 08             	mov    0x8(%ebp),%eax
  101da9:	8b 48 10             	mov    0x10(%eax),%ecx
  101dac:	89 d0                	mov    %edx,%eax
  101dae:	ba 00 00 00 00       	mov    $0x0,%edx
  101db3:	f7 f1                	div    %ecx
  101db5:	8b 45 08             	mov    0x8(%ebp),%eax
  101db8:	89 50 0c             	mov    %edx,0xc(%eax)
  101dbb:	8b 45 08             	mov    0x8(%ebp),%eax
  101dbe:	8b 50 0c             	mov    0xc(%eax),%edx
  101dc1:	8b 45 08             	mov    0x8(%ebp),%eax
  101dc4:	8b 40 08             	mov    0x8(%eax),%eax
  101dc7:	39 c2                	cmp    %eax,%edx
  101dc9:	75 09                	jne    101dd4 <_ZN12staticring_t4pushEc+0x66>
  101dcb:	8b 45 08             	mov    0x8(%ebp),%eax
  101dce:	c6 40 04 02          	movb   $0x2,0x4(%eax)
  101dd2:	eb 07                	jmp    101ddb <_ZN12staticring_t4pushEc+0x6d>
  101dd4:	8b 45 08             	mov    0x8(%ebp),%eax
  101dd7:	c6 40 04 01          	movb   $0x1,0x4(%eax)
  101ddb:	b8 01 00 00 00       	mov    $0x1,%eax
  101de0:	c9                   	leave  
  101de1:	c3                   	ret    

00101de2 <_ZN12staticring_t9availableEv>:
  101de2:	55                   	push   %ebp
  101de3:	89 e5                	mov    %esp,%ebp
  101de5:	8b 45 08             	mov    0x8(%ebp),%eax
  101de8:	8b 50 0c             	mov    0xc(%eax),%edx
  101deb:	8b 45 08             	mov    0x8(%ebp),%eax
  101dee:	8b 40 08             	mov    0x8(%eax),%eax
  101df1:	29 c2                	sub    %eax,%edx
  101df3:	8b 45 08             	mov    0x8(%ebp),%eax
  101df6:	8b 40 10             	mov    0x10(%eax),%eax
  101df9:	01 c2                	add    %eax,%edx
  101dfb:	8b 45 08             	mov    0x8(%ebp),%eax
  101dfe:	8b 48 10             	mov    0x10(%eax),%ecx
  101e01:	89 d0                	mov    %edx,%eax
  101e03:	ba 00 00 00 00       	mov    $0x0,%edx
  101e08:	f7 f1                	div    %ecx
  101e0a:	89 d0                	mov    %edx,%eax
  101e0c:	5d                   	pop    %ebp
  101e0d:	c3                   	ret    

00101e0e <_ZN12staticring_t4peekEi>:
  101e0e:	55                   	push   %ebp
  101e0f:	89 e5                	mov    %esp,%ebp
  101e11:	b8 ff ff ff ff       	mov    $0xffffffff,%eax
  101e16:	5d                   	pop    %ebp
  101e17:	c3                   	ret    

00101e18 <_ZN7Queue_pC1Ev>:
  101e18:	55                   	push   %ebp
  101e19:	89 e5                	mov    %esp,%ebp
  101e1b:	8b 45 08             	mov    0x8(%ebp),%eax
  101e1e:	c7 00 60 3d 10 00    	movl   $0x103d60,(%eax)
  101e24:	8b 45 08             	mov    0x8(%ebp),%eax
  101e27:	c6 40 04 00          	movb   $0x0,0x4(%eax)
  101e2b:	5d                   	pop    %ebp
  101e2c:	c3                   	ret    
  101e2d:	90                   	nop

00101e2e <_ZL4outbth>:
  101e2e:	55                   	push   %ebp
  101e2f:	89 e5                	mov    %esp,%ebp
  101e31:	83 ec 08             	sub    $0x8,%esp
  101e34:	8b 55 08             	mov    0x8(%ebp),%edx
  101e37:	8b 45 0c             	mov    0xc(%ebp),%eax
  101e3a:	66 89 55 fc          	mov    %dx,-0x4(%ebp)
  101e3e:	88 45 f8             	mov    %al,-0x8(%ebp)
  101e41:	0f b7 55 fc          	movzwl -0x4(%ebp),%edx
  101e45:	0f b6 45 f8          	movzbl -0x8(%ebp),%eax
  101e49:	ee                   	out    %al,(%dx)
  101e4a:	c9                   	leave  
  101e4b:	c3                   	ret    

00101e4c <_ZL3inbt>:
  101e4c:	55                   	push   %ebp
  101e4d:	89 e5                	mov    %esp,%ebp
  101e4f:	83 ec 14             	sub    $0x14,%esp
  101e52:	8b 45 08             	mov    0x8(%ebp),%eax
  101e55:	66 89 45 ec          	mov    %ax,-0x14(%ebp)
  101e59:	0f b7 45 ec          	movzwl -0x14(%ebp),%eax
  101e5d:	89 c2                	mov    %eax,%edx
  101e5f:	ec                   	in     (%dx),%al
  101e60:	88 45 ff             	mov    %al,-0x1(%ebp)
  101e63:	0f b6 45 ff          	movzbl -0x1(%ebp),%eax
  101e67:	c9                   	leave  
  101e68:	c3                   	ret    
  101e69:	90                   	nop

00101e6a <_ZN9VideoPageC1Ejjj>:
  101e6a:	55                   	push   %ebp
  101e6b:	89 e5                	mov    %esp,%ebp
  101e6d:	83 ec 18             	sub    $0x18,%esp
  101e70:	8b 45 14             	mov    0x14(%ebp),%eax
  101e73:	89 44 24 0c          	mov    %eax,0xc(%esp)
  101e77:	8b 45 10             	mov    0x10(%ebp),%eax
  101e7a:	89 44 24 08          	mov    %eax,0x8(%esp)
  101e7e:	8b 45 0c             	mov    0xc(%ebp),%eax
  101e81:	89 44 24 04          	mov    %eax,0x4(%esp)
  101e85:	8b 45 08             	mov    0x8(%ebp),%eax
  101e88:	89 04 24             	mov    %eax,(%esp)
  101e8b:	e8 02 00 00 00       	call   101e92 <_ZN9VideoPage4initEjjj>
  101e90:	c9                   	leave  
  101e91:	c3                   	ret    

00101e92 <_ZN9VideoPage4initEjjj>:
  101e92:	55                   	push   %ebp
  101e93:	89 e5                	mov    %esp,%ebp
  101e95:	8b 55 0c             	mov    0xc(%ebp),%edx
  101e98:	8b 45 08             	mov    0x8(%ebp),%eax
  101e9b:	89 10                	mov    %edx,(%eax)
  101e9d:	8b 45 08             	mov    0x8(%ebp),%eax
  101ea0:	8b 55 10             	mov    0x10(%ebp),%edx
  101ea3:	89 50 04             	mov    %edx,0x4(%eax)
  101ea6:	8b 45 08             	mov    0x8(%ebp),%eax
  101ea9:	8b 55 14             	mov    0x14(%ebp),%edx
  101eac:	89 50 08             	mov    %edx,0x8(%eax)
  101eaf:	5d                   	pop    %ebp
  101eb0:	c3                   	ret    
  101eb1:	90                   	nop

00101eb2 <_ZN9VideoPage7putcharEjjc>:
  101eb2:	55                   	push   %ebp
  101eb3:	89 e5                	mov    %esp,%ebp
  101eb5:	83 ec 04             	sub    $0x4,%esp
  101eb8:	8b 45 14             	mov    0x14(%ebp),%eax
  101ebb:	88 45 fc             	mov    %al,-0x4(%ebp)
  101ebe:	8b 45 08             	mov    0x8(%ebp),%eax
  101ec1:	8b 40 04             	mov    0x4(%eax),%eax
  101ec4:	3b 45 0c             	cmp    0xc(%ebp),%eax
  101ec7:	76 2b                	jbe    101ef4 <_ZN9VideoPage7putcharEjjc+0x42>
  101ec9:	8b 45 08             	mov    0x8(%ebp),%eax
  101ecc:	8b 40 08             	mov    0x8(%eax),%eax
  101ecf:	3b 45 10             	cmp    0x10(%ebp),%eax
  101ed2:	76 20                	jbe    101ef4 <_ZN9VideoPage7putcharEjjc+0x42>
  101ed4:	8b 45 08             	mov    0x8(%ebp),%eax
  101ed7:	8b 10                	mov    (%eax),%edx
  101ed9:	8b 45 08             	mov    0x8(%ebp),%eax
  101edc:	8b 40 04             	mov    0x4(%eax),%eax
  101edf:	0f af 45 10          	imul   0x10(%ebp),%eax
  101ee3:	89 c1                	mov    %eax,%ecx
  101ee5:	8b 45 0c             	mov    0xc(%ebp),%eax
  101ee8:	01 c8                	add    %ecx,%eax
  101eea:	01 c0                	add    %eax,%eax
  101eec:	01 c2                	add    %eax,%edx
  101eee:	0f b6 45 fc          	movzbl -0x4(%ebp),%eax
  101ef2:	88 02                	mov    %al,(%edx)
  101ef4:	c9                   	leave  
  101ef5:	c3                   	ret    

00101ef6 <_ZN9VideoPage7putcharEjjcc>:
  101ef6:	55                   	push   %ebp
  101ef7:	89 e5                	mov    %esp,%ebp
  101ef9:	83 ec 08             	sub    $0x8,%esp
  101efc:	8b 55 14             	mov    0x14(%ebp),%edx
  101eff:	8b 45 18             	mov    0x18(%ebp),%eax
  101f02:	88 55 fc             	mov    %dl,-0x4(%ebp)
  101f05:	88 45 f8             	mov    %al,-0x8(%ebp)
  101f08:	8b 45 08             	mov    0x8(%ebp),%eax
  101f0b:	8b 40 04             	mov    0x4(%eax),%eax
  101f0e:	3b 45 0c             	cmp    0xc(%ebp),%eax
  101f11:	76 4c                	jbe    101f5f <_ZN9VideoPage7putcharEjjcc+0x69>
  101f13:	8b 45 08             	mov    0x8(%ebp),%eax
  101f16:	8b 40 08             	mov    0x8(%eax),%eax
  101f19:	3b 45 10             	cmp    0x10(%ebp),%eax
  101f1c:	76 41                	jbe    101f5f <_ZN9VideoPage7putcharEjjcc+0x69>
  101f1e:	8b 45 08             	mov    0x8(%ebp),%eax
  101f21:	8b 10                	mov    (%eax),%edx
  101f23:	8b 45 08             	mov    0x8(%ebp),%eax
  101f26:	8b 40 04             	mov    0x4(%eax),%eax
  101f29:	0f af 45 10          	imul   0x10(%ebp),%eax
  101f2d:	89 c1                	mov    %eax,%ecx
  101f2f:	8b 45 0c             	mov    0xc(%ebp),%eax
  101f32:	01 c8                	add    %ecx,%eax
  101f34:	01 c0                	add    %eax,%eax
  101f36:	01 c2                	add    %eax,%edx
  101f38:	0f b6 45 fc          	movzbl -0x4(%ebp),%eax
  101f3c:	88 02                	mov    %al,(%edx)
  101f3e:	8b 45 08             	mov    0x8(%ebp),%eax
  101f41:	8b 10                	mov    (%eax),%edx
  101f43:	8b 45 08             	mov    0x8(%ebp),%eax
  101f46:	8b 40 04             	mov    0x4(%eax),%eax
  101f49:	0f af 45 10          	imul   0x10(%ebp),%eax
  101f4d:	89 c1                	mov    %eax,%ecx
  101f4f:	8b 45 0c             	mov    0xc(%ebp),%eax
  101f52:	01 c8                	add    %ecx,%eax
  101f54:	01 c0                	add    %eax,%eax
  101f56:	01 c2                	add    %eax,%edx
  101f58:	0f b6 45 f8          	movzbl -0x8(%ebp),%eax
  101f5c:	88 42 01             	mov    %al,0x1(%edx)
  101f5f:	c9                   	leave  
  101f60:	c3                   	ret    
  101f61:	90                   	nop

00101f62 <_ZN9VideoPage8putcolorEjjc>:
  101f62:	55                   	push   %ebp
  101f63:	89 e5                	mov    %esp,%ebp
  101f65:	83 ec 04             	sub    $0x4,%esp
  101f68:	8b 45 14             	mov    0x14(%ebp),%eax
  101f6b:	88 45 fc             	mov    %al,-0x4(%ebp)
  101f6e:	8b 45 08             	mov    0x8(%ebp),%eax
  101f71:	8b 40 04             	mov    0x4(%eax),%eax
  101f74:	3b 45 0c             	cmp    0xc(%ebp),%eax
  101f77:	76 2c                	jbe    101fa5 <_ZN9VideoPage8putcolorEjjc+0x43>
  101f79:	8b 45 08             	mov    0x8(%ebp),%eax
  101f7c:	8b 40 08             	mov    0x8(%eax),%eax
  101f7f:	3b 45 10             	cmp    0x10(%ebp),%eax
  101f82:	76 21                	jbe    101fa5 <_ZN9VideoPage8putcolorEjjc+0x43>
  101f84:	8b 45 08             	mov    0x8(%ebp),%eax
  101f87:	8b 10                	mov    (%eax),%edx
  101f89:	8b 45 08             	mov    0x8(%ebp),%eax
  101f8c:	8b 40 04             	mov    0x4(%eax),%eax
  101f8f:	0f af 45 10          	imul   0x10(%ebp),%eax
  101f93:	89 c1                	mov    %eax,%ecx
  101f95:	8b 45 0c             	mov    0xc(%ebp),%eax
  101f98:	01 c8                	add    %ecx,%eax
  101f9a:	01 c0                	add    %eax,%eax
  101f9c:	01 c2                	add    %eax,%edx
  101f9e:	0f b6 45 fc          	movzbl -0x4(%ebp),%eax
  101fa2:	88 42 01             	mov    %al,0x1(%edx)
  101fa5:	c9                   	leave  
  101fa6:	c3                   	ret    
  101fa7:	90                   	nop

00101fa8 <_ZN9VideoPage7charcpyEiiii>:
  101fa8:	55                   	push   %ebp
  101fa9:	89 e5                	mov    %esp,%ebp
  101fab:	53                   	push   %ebx
  101fac:	83 ec 10             	sub    $0x10,%esp
  101faf:	c6 45 fa 00          	movb   $0x0,-0x6(%ebp)
  101fb3:	c6 45 fb 00          	movb   $0x0,-0x5(%ebp)
  101fb7:	8b 55 0c             	mov    0xc(%ebp),%edx
  101fba:	8b 45 08             	mov    0x8(%ebp),%eax
  101fbd:	8b 40 04             	mov    0x4(%eax),%eax
  101fc0:	39 c2                	cmp    %eax,%edx
  101fc2:	73 3a                	jae    101ffe <_ZN9VideoPage7charcpyEiiii+0x56>
  101fc4:	8b 55 10             	mov    0x10(%ebp),%edx
  101fc7:	8b 45 08             	mov    0x8(%ebp),%eax
  101fca:	8b 40 08             	mov    0x8(%eax),%eax
  101fcd:	39 c2                	cmp    %eax,%edx
  101fcf:	73 2d                	jae    101ffe <_ZN9VideoPage7charcpyEiiii+0x56>
  101fd1:	83 7d 0c 00          	cmpl   $0x0,0xc(%ebp)
  101fd5:	78 27                	js     101ffe <_ZN9VideoPage7charcpyEiiii+0x56>
  101fd7:	83 7d 10 00          	cmpl   $0x0,0x10(%ebp)
  101fdb:	78 21                	js     101ffe <_ZN9VideoPage7charcpyEiiii+0x56>
  101fdd:	8b 45 08             	mov    0x8(%ebp),%eax
  101fe0:	8b 10                	mov    (%eax),%edx
  101fe2:	8b 45 08             	mov    0x8(%ebp),%eax
  101fe5:	8b 48 04             	mov    0x4(%eax),%ecx
  101fe8:	8b 45 10             	mov    0x10(%ebp),%eax
  101feb:	0f af c8             	imul   %eax,%ecx
  101fee:	8b 45 0c             	mov    0xc(%ebp),%eax
  101ff1:	01 c8                	add    %ecx,%eax
  101ff3:	01 c0                	add    %eax,%eax
  101ff5:	01 d0                	add    %edx,%eax
  101ff7:	0f b7 00             	movzwl (%eax),%eax
  101ffa:	66 89 45 fa          	mov    %ax,-0x6(%ebp)
  101ffe:	8b 45 14             	mov    0x14(%ebp),%eax
  102001:	8b 55 0c             	mov    0xc(%ebp),%edx
  102004:	01 d0                	add    %edx,%eax
  102006:	89 c2                	mov    %eax,%edx
  102008:	8b 45 08             	mov    0x8(%ebp),%eax
  10200b:	8b 40 04             	mov    0x4(%eax),%eax
  10200e:	39 c2                	cmp    %eax,%edx
  102010:	73 5a                	jae    10206c <_ZN9VideoPage7charcpyEiiii+0xc4>
  102012:	8b 45 18             	mov    0x18(%ebp),%eax
  102015:	8b 55 10             	mov    0x10(%ebp),%edx
  102018:	01 d0                	add    %edx,%eax
  10201a:	89 c2                	mov    %eax,%edx
  10201c:	8b 45 08             	mov    0x8(%ebp),%eax
  10201f:	8b 40 08             	mov    0x8(%eax),%eax
  102022:	39 c2                	cmp    %eax,%edx
  102024:	73 46                	jae    10206c <_ZN9VideoPage7charcpyEiiii+0xc4>
  102026:	8b 45 14             	mov    0x14(%ebp),%eax
  102029:	8b 55 0c             	mov    0xc(%ebp),%edx
  10202c:	01 d0                	add    %edx,%eax
  10202e:	85 c0                	test   %eax,%eax
  102030:	78 3a                	js     10206c <_ZN9VideoPage7charcpyEiiii+0xc4>
  102032:	8b 45 18             	mov    0x18(%ebp),%eax
  102035:	8b 55 10             	mov    0x10(%ebp),%edx
  102038:	01 d0                	add    %edx,%eax
  10203a:	85 c0                	test   %eax,%eax
  10203c:	78 2e                	js     10206c <_ZN9VideoPage7charcpyEiiii+0xc4>
  10203e:	8b 45 08             	mov    0x8(%ebp),%eax
  102041:	8b 10                	mov    (%eax),%edx
  102043:	8b 4d 0c             	mov    0xc(%ebp),%ecx
  102046:	8b 45 14             	mov    0x14(%ebp),%eax
  102049:	8d 1c 01             	lea    (%ecx,%eax,1),%ebx
  10204c:	8b 45 18             	mov    0x18(%ebp),%eax
  10204f:	8b 4d 10             	mov    0x10(%ebp),%ecx
  102052:	01 c8                	add    %ecx,%eax
  102054:	89 c1                	mov    %eax,%ecx
  102056:	8b 45 08             	mov    0x8(%ebp),%eax
  102059:	8b 40 04             	mov    0x4(%eax),%eax
  10205c:	0f af c1             	imul   %ecx,%eax
  10205f:	01 d8                	add    %ebx,%eax
  102061:	01 c0                	add    %eax,%eax
  102063:	01 c2                	add    %eax,%edx
  102065:	0f b7 45 fa          	movzwl -0x6(%ebp),%eax
  102069:	66 89 02             	mov    %ax,(%edx)
  10206c:	83 c4 10             	add    $0x10,%esp
  10206f:	5b                   	pop    %ebx
  102070:	5d                   	pop    %ebp
  102071:	c3                   	ret    

00102072 <_ZN9VideoPage6boxcpyEiiiiii>:
  102072:	55                   	push   %ebp
  102073:	89 e5                	mov    %esp,%ebp
  102075:	83 ec 34             	sub    $0x34,%esp
  102078:	83 7d 20 00          	cmpl   $0x0,0x20(%ebp)
  10207c:	0f 88 aa 00 00 00    	js     10212c <_ZN9VideoPage6boxcpyEiiiiii+0xba>
  102082:	83 7d 1c 00          	cmpl   $0x0,0x1c(%ebp)
  102086:	78 4f                	js     1020d7 <_ZN9VideoPage6boxcpyEiiiiii+0x65>
  102088:	8b 45 14             	mov    0x14(%ebp),%eax
  10208b:	89 45 fc             	mov    %eax,-0x4(%ebp)
  10208e:	eb 3f                	jmp    1020cf <_ZN9VideoPage6boxcpyEiiiiii+0x5d>
  102090:	8b 45 18             	mov    0x18(%ebp),%eax
  102093:	89 45 f8             	mov    %eax,-0x8(%ebp)
  102096:	eb 2b                	jmp    1020c3 <_ZN9VideoPage6boxcpyEiiiiii+0x51>
  102098:	8b 45 20             	mov    0x20(%ebp),%eax
  10209b:	89 44 24 10          	mov    %eax,0x10(%esp)
  10209f:	8b 45 1c             	mov    0x1c(%ebp),%eax
  1020a2:	89 44 24 0c          	mov    %eax,0xc(%esp)
  1020a6:	8b 45 f8             	mov    -0x8(%ebp),%eax
  1020a9:	89 44 24 08          	mov    %eax,0x8(%esp)
  1020ad:	8b 45 fc             	mov    -0x4(%ebp),%eax
  1020b0:	89 44 24 04          	mov    %eax,0x4(%esp)
  1020b4:	8b 45 08             	mov    0x8(%ebp),%eax
  1020b7:	89 04 24             	mov    %eax,(%esp)
  1020ba:	e8 e9 fe ff ff       	call   101fa8 <_ZN9VideoPage7charcpyEiiii>
  1020bf:	83 6d f8 01          	subl   $0x1,-0x8(%ebp)
  1020c3:	8b 45 f8             	mov    -0x8(%ebp),%eax
  1020c6:	3b 45 10             	cmp    0x10(%ebp),%eax
  1020c9:	7d cd                	jge    102098 <_ZN9VideoPage6boxcpyEiiiiii+0x26>
  1020cb:	83 6d fc 01          	subl   $0x1,-0x4(%ebp)
  1020cf:	8b 45 fc             	mov    -0x4(%ebp),%eax
  1020d2:	3b 45 0c             	cmp    0xc(%ebp),%eax
  1020d5:	7d b9                	jge    102090 <_ZN9VideoPage6boxcpyEiiiiii+0x1e>
  1020d7:	83 7d 1c 00          	cmpl   $0x0,0x1c(%ebp)
  1020db:	79 4f                	jns    10212c <_ZN9VideoPage6boxcpyEiiiiii+0xba>
  1020dd:	8b 45 0c             	mov    0xc(%ebp),%eax
  1020e0:	89 45 f4             	mov    %eax,-0xc(%ebp)
  1020e3:	eb 3f                	jmp    102124 <_ZN9VideoPage6boxcpyEiiiiii+0xb2>
  1020e5:	8b 45 18             	mov    0x18(%ebp),%eax
  1020e8:	89 45 f0             	mov    %eax,-0x10(%ebp)
  1020eb:	eb 2b                	jmp    102118 <_ZN9VideoPage6boxcpyEiiiiii+0xa6>
  1020ed:	8b 45 20             	mov    0x20(%ebp),%eax
  1020f0:	89 44 24 10          	mov    %eax,0x10(%esp)
  1020f4:	8b 45 1c             	mov    0x1c(%ebp),%eax
  1020f7:	89 44 24 0c          	mov    %eax,0xc(%esp)
  1020fb:	8b 45 f0             	mov    -0x10(%ebp),%eax
  1020fe:	89 44 24 08          	mov    %eax,0x8(%esp)
  102102:	8b 45 f4             	mov    -0xc(%ebp),%eax
  102105:	89 44 24 04          	mov    %eax,0x4(%esp)
  102109:	8b 45 08             	mov    0x8(%ebp),%eax
  10210c:	89 04 24             	mov    %eax,(%esp)
  10210f:	e8 94 fe ff ff       	call   101fa8 <_ZN9VideoPage7charcpyEiiii>
  102114:	83 6d f0 01          	subl   $0x1,-0x10(%ebp)
  102118:	8b 45 f0             	mov    -0x10(%ebp),%eax
  10211b:	3b 45 10             	cmp    0x10(%ebp),%eax
  10211e:	7d cd                	jge    1020ed <_ZN9VideoPage6boxcpyEiiiiii+0x7b>
  102120:	83 45 f4 01          	addl   $0x1,-0xc(%ebp)
  102124:	8b 45 f4             	mov    -0xc(%ebp),%eax
  102127:	3b 45 14             	cmp    0x14(%ebp),%eax
  10212a:	7e b9                	jle    1020e5 <_ZN9VideoPage6boxcpyEiiiiii+0x73>
  10212c:	83 7d 20 00          	cmpl   $0x0,0x20(%ebp)
  102130:	0f 89 aa 00 00 00    	jns    1021e0 <_ZN9VideoPage6boxcpyEiiiiii+0x16e>
  102136:	83 7d 1c 00          	cmpl   $0x0,0x1c(%ebp)
  10213a:	78 4f                	js     10218b <_ZN9VideoPage6boxcpyEiiiiii+0x119>
  10213c:	8b 45 14             	mov    0x14(%ebp),%eax
  10213f:	89 45 ec             	mov    %eax,-0x14(%ebp)
  102142:	eb 3f                	jmp    102183 <_ZN9VideoPage6boxcpyEiiiiii+0x111>
  102144:	8b 45 10             	mov    0x10(%ebp),%eax
  102147:	89 45 e8             	mov    %eax,-0x18(%ebp)
  10214a:	eb 2b                	jmp    102177 <_ZN9VideoPage6boxcpyEiiiiii+0x105>
  10214c:	8b 45 20             	mov    0x20(%ebp),%eax
  10214f:	89 44 24 10          	mov    %eax,0x10(%esp)
  102153:	8b 45 1c             	mov    0x1c(%ebp),%eax
  102156:	89 44 24 0c          	mov    %eax,0xc(%esp)
  10215a:	8b 45 e8             	mov    -0x18(%ebp),%eax
  10215d:	89 44 24 08          	mov    %eax,0x8(%esp)
  102161:	8b 45 ec             	mov    -0x14(%ebp),%eax
  102164:	89 44 24 04          	mov    %eax,0x4(%esp)
  102168:	8b 45 08             	mov    0x8(%ebp),%eax
  10216b:	89 04 24             	mov    %eax,(%esp)
  10216e:	e8 35 fe ff ff       	call   101fa8 <_ZN9VideoPage7charcpyEiiii>
  102173:	83 45 e8 01          	addl   $0x1,-0x18(%ebp)
  102177:	8b 45 e8             	mov    -0x18(%ebp),%eax
  10217a:	3b 45 18             	cmp    0x18(%ebp),%eax
  10217d:	7e cd                	jle    10214c <_ZN9VideoPage6boxcpyEiiiiii+0xda>
  10217f:	83 6d ec 01          	subl   $0x1,-0x14(%ebp)
  102183:	8b 45 ec             	mov    -0x14(%ebp),%eax
  102186:	3b 45 0c             	cmp    0xc(%ebp),%eax
  102189:	7d b9                	jge    102144 <_ZN9VideoPage6boxcpyEiiiiii+0xd2>
  10218b:	83 7d 1c 00          	cmpl   $0x0,0x1c(%ebp)
  10218f:	79 4f                	jns    1021e0 <_ZN9VideoPage6boxcpyEiiiiii+0x16e>
  102191:	8b 45 0c             	mov    0xc(%ebp),%eax
  102194:	89 45 e4             	mov    %eax,-0x1c(%ebp)
  102197:	eb 3f                	jmp    1021d8 <_ZN9VideoPage6boxcpyEiiiiii+0x166>
  102199:	8b 45 10             	mov    0x10(%ebp),%eax
  10219c:	89 45 e0             	mov    %eax,-0x20(%ebp)
  10219f:	eb 2b                	jmp    1021cc <_ZN9VideoPage6boxcpyEiiiiii+0x15a>
  1021a1:	8b 45 20             	mov    0x20(%ebp),%eax
  1021a4:	89 44 24 10          	mov    %eax,0x10(%esp)
  1021a8:	8b 45 1c             	mov    0x1c(%ebp),%eax
  1021ab:	89 44 24 0c          	mov    %eax,0xc(%esp)
  1021af:	8b 45 e0             	mov    -0x20(%ebp),%eax
  1021b2:	89 44 24 08          	mov    %eax,0x8(%esp)
  1021b6:	8b 45 e4             	mov    -0x1c(%ebp),%eax
  1021b9:	89 44 24 04          	mov    %eax,0x4(%esp)
  1021bd:	8b 45 08             	mov    0x8(%ebp),%eax
  1021c0:	89 04 24             	mov    %eax,(%esp)
  1021c3:	e8 e0 fd ff ff       	call   101fa8 <_ZN9VideoPage7charcpyEiiii>
  1021c8:	83 45 e0 01          	addl   $0x1,-0x20(%ebp)
  1021cc:	8b 45 e0             	mov    -0x20(%ebp),%eax
  1021cf:	3b 45 18             	cmp    0x18(%ebp),%eax
  1021d2:	7e cd                	jle    1021a1 <_ZN9VideoPage6boxcpyEiiiiii+0x12f>
  1021d4:	83 45 e4 01          	addl   $0x1,-0x1c(%ebp)
  1021d8:	8b 45 e4             	mov    -0x1c(%ebp),%eax
  1021db:	3b 45 14             	cmp    0x14(%ebp),%eax
  1021de:	7e b9                	jle    102199 <_ZN9VideoPage6boxcpyEiiiiii+0x127>
  1021e0:	c9                   	leave  
  1021e1:	c3                   	ret    

001021e2 <_ZN9VideoPage6setboxEjjjjcc>:
  1021e2:	55                   	push   %ebp
  1021e3:	89 e5                	mov    %esp,%ebp
  1021e5:	53                   	push   %ebx
  1021e6:	83 ec 2c             	sub    $0x2c,%esp
  1021e9:	8b 55 1c             	mov    0x1c(%ebp),%edx
  1021ec:	8b 45 20             	mov    0x20(%ebp),%eax
  1021ef:	88 55 e8             	mov    %dl,-0x18(%ebp)
  1021f2:	88 45 e4             	mov    %al,-0x1c(%ebp)
  1021f5:	8b 45 0c             	mov    0xc(%ebp),%eax
  1021f8:	89 45 f8             	mov    %eax,-0x8(%ebp)
  1021fb:	eb 4e                	jmp    10224b <_ZN9VideoPage6setboxEjjjjcc+0x69>
  1021fd:	8b 45 10             	mov    0x10(%ebp),%eax
  102200:	89 45 f4             	mov    %eax,-0xc(%ebp)
  102203:	eb 2d                	jmp    102232 <_ZN9VideoPage6setboxEjjjjcc+0x50>
  102205:	0f be 5d e4          	movsbl -0x1c(%ebp),%ebx
  102209:	0f be 4d e8          	movsbl -0x18(%ebp),%ecx
  10220d:	8b 55 f4             	mov    -0xc(%ebp),%edx
  102210:	8b 45 f8             	mov    -0x8(%ebp),%eax
  102213:	89 5c 24 10          	mov    %ebx,0x10(%esp)
  102217:	89 4c 24 0c          	mov    %ecx,0xc(%esp)
  10221b:	89 54 24 08          	mov    %edx,0x8(%esp)
  10221f:	89 44 24 04          	mov    %eax,0x4(%esp)
  102223:	8b 45 08             	mov    0x8(%ebp),%eax
  102226:	89 04 24             	mov    %eax,(%esp)
  102229:	e8 c8 fc ff ff       	call   101ef6 <_ZN9VideoPage7putcharEjjcc>
  10222e:	83 45 f4 01          	addl   $0x1,-0xc(%ebp)
  102232:	8b 45 f4             	mov    -0xc(%ebp),%eax
  102235:	3b 45 18             	cmp    0x18(%ebp),%eax
  102238:	77 0d                	ja     102247 <_ZN9VideoPage6setboxEjjjjcc+0x65>
  10223a:	8b 55 f4             	mov    -0xc(%ebp),%edx
  10223d:	8b 45 08             	mov    0x8(%ebp),%eax
  102240:	8b 40 08             	mov    0x8(%eax),%eax
  102243:	39 c2                	cmp    %eax,%edx
  102245:	72 be                	jb     102205 <_ZN9VideoPage6setboxEjjjjcc+0x23>
  102247:	83 45 f8 01          	addl   $0x1,-0x8(%ebp)
  10224b:	8b 45 f8             	mov    -0x8(%ebp),%eax
  10224e:	3b 45 14             	cmp    0x14(%ebp),%eax
  102251:	77 0d                	ja     102260 <_ZN9VideoPage6setboxEjjjjcc+0x7e>
  102253:	8b 55 f8             	mov    -0x8(%ebp),%edx
  102256:	8b 45 08             	mov    0x8(%ebp),%eax
  102259:	8b 40 04             	mov    0x4(%eax),%eax
  10225c:	39 c2                	cmp    %eax,%edx
  10225e:	72 9d                	jb     1021fd <_ZN9VideoPage6setboxEjjjjcc+0x1b>
  102260:	83 c4 2c             	add    $0x2c,%esp
  102263:	5b                   	pop    %ebx
  102264:	5d                   	pop    %ebp
  102265:	c3                   	ret    

00102266 <_ZN9VideoPage5cleanEv>:
  102266:	55                   	push   %ebp
  102267:	89 e5                	mov    %esp,%ebp
  102269:	83 ec 1c             	sub    $0x1c,%esp
  10226c:	8b 45 08             	mov    0x8(%ebp),%eax
  10226f:	8b 40 08             	mov    0x8(%eax),%eax
  102272:	8d 50 ff             	lea    -0x1(%eax),%edx
  102275:	8b 45 08             	mov    0x8(%ebp),%eax
  102278:	8b 40 04             	mov    0x4(%eax),%eax
  10227b:	83 e8 01             	sub    $0x1,%eax
  10227e:	c7 44 24 18 0a 00 00 	movl   $0xa,0x18(%esp)
  102285:	00 
  102286:	c7 44 24 14 20 00 00 	movl   $0x20,0x14(%esp)
  10228d:	00 
  10228e:	89 54 24 10          	mov    %edx,0x10(%esp)
  102292:	89 44 24 0c          	mov    %eax,0xc(%esp)
  102296:	c7 44 24 08 00 00 00 	movl   $0x0,0x8(%esp)
  10229d:	00 
  10229e:	c7 44 24 04 00 00 00 	movl   $0x0,0x4(%esp)
  1022a5:	00 
  1022a6:	8b 45 08             	mov    0x8(%ebp),%eax
  1022a9:	89 04 24             	mov    %eax,(%esp)
  1022ac:	e8 31 ff ff ff       	call   1021e2 <_ZN9VideoPage6setboxEjjjjcc>
  1022b1:	c9                   	leave  
  1022b2:	c3                   	ret    
  1022b3:	90                   	nop

001022b4 <_ZN9VideoPage9clean_strEj>:
  1022b4:	55                   	push   %ebp
  1022b5:	89 e5                	mov    %esp,%ebp
  1022b7:	83 ec 1c             	sub    $0x1c,%esp
  1022ba:	8b 45 08             	mov    0x8(%ebp),%eax
  1022bd:	8b 40 08             	mov    0x8(%eax),%eax
  1022c0:	3b 45 0c             	cmp    0xc(%ebp),%eax
  1022c3:	76 3e                	jbe    102303 <_ZN9VideoPage9clean_strEj+0x4f>
  1022c5:	8b 45 08             	mov    0x8(%ebp),%eax
  1022c8:	8b 40 04             	mov    0x4(%eax),%eax
  1022cb:	8d 50 ff             	lea    -0x1(%eax),%edx
  1022ce:	c7 44 24 18 0a 00 00 	movl   $0xa,0x18(%esp)
  1022d5:	00 
  1022d6:	c7 44 24 14 20 00 00 	movl   $0x20,0x14(%esp)
  1022dd:	00 
  1022de:	8b 45 0c             	mov    0xc(%ebp),%eax
  1022e1:	89 44 24 10          	mov    %eax,0x10(%esp)
  1022e5:	89 54 24 0c          	mov    %edx,0xc(%esp)
  1022e9:	8b 45 0c             	mov    0xc(%ebp),%eax
  1022ec:	89 44 24 08          	mov    %eax,0x8(%esp)
  1022f0:	c7 44 24 04 00 00 00 	movl   $0x0,0x4(%esp)
  1022f7:	00 
  1022f8:	8b 45 08             	mov    0x8(%ebp),%eax
  1022fb:	89 04 24             	mov    %eax,(%esp)
  1022fe:	e8 df fe ff ff       	call   1021e2 <_ZN9VideoPage6setboxEjjjjcc>
  102303:	c9                   	leave  
  102304:	c3                   	ret    
  102305:	90                   	nop

00102306 <_ZN9VideoPage6scrollEii>:
  102306:	55                   	push   %ebp
  102307:	89 e5                	mov    %esp,%ebp
  102309:	56                   	push   %esi
  10230a:	53                   	push   %ebx
  10230b:	83 ec 1c             	sub    $0x1c,%esp
  10230e:	8b 45 08             	mov    0x8(%ebp),%eax
  102311:	8b 50 08             	mov    0x8(%eax),%edx
  102314:	8b 45 10             	mov    0x10(%ebp),%eax
  102317:	29 c2                	sub    %eax,%edx
  102319:	89 d0                	mov    %edx,%eax
  10231b:	83 e8 01             	sub    $0x1,%eax
  10231e:	89 c2                	mov    %eax,%edx
  102320:	8b 45 08             	mov    0x8(%ebp),%eax
  102323:	8b 48 04             	mov    0x4(%eax),%ecx
  102326:	8b 45 0c             	mov    0xc(%ebp),%eax
  102329:	29 c1                	sub    %eax,%ecx
  10232b:	89 c8                	mov    %ecx,%eax
  10232d:	83 e8 01             	sub    $0x1,%eax
  102330:	8b 4d 10             	mov    0x10(%ebp),%ecx
  102333:	89 ce                	mov    %ecx,%esi
  102335:	f7 de                	neg    %esi
  102337:	8b 4d 0c             	mov    0xc(%ebp),%ecx
  10233a:	89 cb                	mov    %ecx,%ebx
  10233c:	f7 db                	neg    %ebx
  10233e:	8b 4d 10             	mov    0x10(%ebp),%ecx
  102341:	89 4c 24 18          	mov    %ecx,0x18(%esp)
  102345:	8b 4d 0c             	mov    0xc(%ebp),%ecx
  102348:	89 4c 24 14          	mov    %ecx,0x14(%esp)
  10234c:	89 54 24 10          	mov    %edx,0x10(%esp)
  102350:	89 44 24 0c          	mov    %eax,0xc(%esp)
  102354:	89 74 24 08          	mov    %esi,0x8(%esp)
  102358:	89 5c 24 04          	mov    %ebx,0x4(%esp)
  10235c:	8b 45 08             	mov    0x8(%ebp),%eax
  10235f:	89 04 24             	mov    %eax,(%esp)
  102362:	e8 0b fd ff ff       	call   102072 <_ZN9VideoPage6boxcpyEiiiiii>
  102367:	83 c4 1c             	add    $0x1c,%esp
  10236a:	5b                   	pop    %ebx
  10236b:	5e                   	pop    %esi
  10236c:	5d                   	pop    %ebp
  10236d:	c3                   	ret    

0010236e <_ZN9VideoPage9setcursorEjj>:
  10236e:	55                   	push   %ebp
  10236f:	89 e5                	mov    %esp,%ebp
  102371:	83 ec 08             	sub    $0x8,%esp
  102374:	8b 45 08             	mov    0x8(%ebp),%eax
  102377:	8b 40 04             	mov    0x4(%eax),%eax
  10237a:	3b 45 0c             	cmp    0xc(%ebp),%eax
  10237d:	0f 86 85 00 00 00    	jbe    102408 <_ZN9VideoPage9setcursorEjj+0x9a>
  102383:	8b 45 08             	mov    0x8(%ebp),%eax
  102386:	8b 40 08             	mov    0x8(%eax),%eax
  102389:	3b 45 10             	cmp    0x10(%ebp),%eax
  10238c:	76 7a                	jbe    102408 <_ZN9VideoPage9setcursorEjj+0x9a>
  10238e:	c7 44 24 04 0e 00 00 	movl   $0xe,0x4(%esp)
  102395:	00 
  102396:	c7 04 24 d4 03 00 00 	movl   $0x3d4,(%esp)
  10239d:	e8 8c fa ff ff       	call   101e2e <_ZL4outbth>
  1023a2:	8b 45 08             	mov    0x8(%ebp),%eax
  1023a5:	8b 40 04             	mov    0x4(%eax),%eax
  1023a8:	89 c2                	mov    %eax,%edx
  1023aa:	8b 45 10             	mov    0x10(%ebp),%eax
  1023ad:	0f af d0             	imul   %eax,%edx
  1023b0:	8b 45 0c             	mov    0xc(%ebp),%eax
  1023b3:	01 d0                	add    %edx,%eax
  1023b5:	0f b7 c0             	movzwl %ax,%eax
  1023b8:	c1 f8 08             	sar    $0x8,%eax
  1023bb:	0f b6 c0             	movzbl %al,%eax
  1023be:	89 44 24 04          	mov    %eax,0x4(%esp)
  1023c2:	c7 04 24 d5 03 00 00 	movl   $0x3d5,(%esp)
  1023c9:	e8 60 fa ff ff       	call   101e2e <_ZL4outbth>
  1023ce:	c7 44 24 04 0f 00 00 	movl   $0xf,0x4(%esp)
  1023d5:	00 
  1023d6:	c7 04 24 d4 03 00 00 	movl   $0x3d4,(%esp)
  1023dd:	e8 4c fa ff ff       	call   101e2e <_ZL4outbth>
  1023e2:	8b 45 08             	mov    0x8(%ebp),%eax
  1023e5:	8b 40 04             	mov    0x4(%eax),%eax
  1023e8:	8b 55 10             	mov    0x10(%ebp),%edx
  1023eb:	0f af c2             	imul   %edx,%eax
  1023ee:	89 c2                	mov    %eax,%edx
  1023f0:	8b 45 0c             	mov    0xc(%ebp),%eax
  1023f3:	01 d0                	add    %edx,%eax
  1023f5:	0f b6 c0             	movzbl %al,%eax
  1023f8:	89 44 24 04          	mov    %eax,0x4(%esp)
  1023fc:	c7 04 24 d5 03 00 00 	movl   $0x3d5,(%esp)
  102403:	e8 26 fa ff ff       	call   101e2e <_ZL4outbth>
  102408:	c9                   	leave  
  102409:	c3                   	ret    

0010240a <_ZL4outbth>:
  10240a:	55                   	push   %ebp
  10240b:	89 e5                	mov    %esp,%ebp
  10240d:	83 ec 08             	sub    $0x8,%esp
  102410:	8b 55 08             	mov    0x8(%ebp),%edx
  102413:	8b 45 0c             	mov    0xc(%ebp),%eax
  102416:	66 89 55 fc          	mov    %dx,-0x4(%ebp)
  10241a:	88 45 f8             	mov    %al,-0x8(%ebp)
  10241d:	0f b7 55 fc          	movzwl -0x4(%ebp),%edx
  102421:	0f b6 45 f8          	movzbl -0x8(%ebp),%eax
  102425:	ee                   	out    %al,(%dx)
  102426:	c9                   	leave  
  102427:	c3                   	ret    

00102428 <_ZL3inbt>:
  102428:	55                   	push   %ebp
  102429:	89 e5                	mov    %esp,%ebp
  10242b:	83 ec 14             	sub    $0x14,%esp
  10242e:	8b 45 08             	mov    0x8(%ebp),%eax
  102431:	66 89 45 ec          	mov    %ax,-0x14(%ebp)
  102435:	0f b7 45 ec          	movzwl -0x14(%ebp),%eax
  102439:	89 c2                	mov    %eax,%edx
  10243b:	ec                   	in     (%dx),%al
  10243c:	88 45 ff             	mov    %al,-0x1(%ebp)
  10243f:	0f b6 45 ff          	movzbl -0x1(%ebp),%eax
  102443:	c9                   	leave  
  102444:	c3                   	ret    

00102445 <_ZL29platform_abstract_irq_handlerP14interrupt_info>:
  102445:	55                   	push   %ebp
  102446:	89 e5                	mov    %esp,%ebp
  102448:	83 ec 08             	sub    $0x8,%esp
  10244b:	8b 45 08             	mov    0x8(%ebp),%eax
  10244e:	8b 40 24             	mov    0x24(%eax),%eax
  102451:	83 f8 27             	cmp    $0x27,%eax
  102454:	76 14                	jbe    10246a <_ZL29platform_abstract_irq_handlerP14interrupt_info+0x25>
  102456:	c7 44 24 04 20 00 00 	movl   $0x20,0x4(%esp)
  10245d:	00 
  10245e:	c7 04 24 a0 00 00 00 	movl   $0xa0,(%esp)
  102465:	e8 a0 ff ff ff       	call   10240a <_ZL4outbth>
  10246a:	8b 45 08             	mov    0x8(%ebp),%eax
  10246d:	8b 40 24             	mov    0x24(%eax),%eax
  102470:	83 f8 1f             	cmp    $0x1f,%eax
  102473:	76 14                	jbe    102489 <_ZL29platform_abstract_irq_handlerP14interrupt_info+0x44>
  102475:	c7 44 24 04 20 00 00 	movl   $0x20,0x4(%esp)
  10247c:	00 
  10247d:	c7 04 24 20 00 00 00 	movl   $0x20,(%esp)
  102484:	e8 81 ff ff ff       	call   10240a <_ZL4outbth>
  102489:	c9                   	leave  
  10248a:	c3                   	ret    

0010248b <debug_putchar>:
  10248b:	55                   	push   %ebp
  10248c:	89 e5                	mov    %esp,%ebp
  10248e:	53                   	push   %ebx
  10248f:	83 ec 24             	sub    $0x24,%esp
  102492:	8b 45 08             	mov    0x8(%ebp),%eax
  102495:	88 45 e4             	mov    %al,-0x1c(%ebp)
  102498:	0f be 45 e4          	movsbl -0x1c(%ebp),%eax
  10249c:	83 f8 0a             	cmp    $0xa,%eax
  10249f:	74 07                	je     1024a8 <debug_putchar+0x1d>
  1024a1:	83 f8 0d             	cmp    $0xd,%eax
  1024a4:	74 3d                	je     1024e3 <debug_putchar+0x58>
  1024a6:	eb 73                	jmp    10251b <debug_putchar+0x90>
  1024a8:	8b 1d 40 3e 10 00    	mov    0x103e40,%ebx
  1024ae:	8b 0d 40 3e 10 00    	mov    0x103e40,%ecx
  1024b4:	ba 67 66 66 66       	mov    $0x66666667,%edx
  1024b9:	89 c8                	mov    %ecx,%eax
  1024bb:	f7 ea                	imul   %edx
  1024bd:	c1 fa 05             	sar    $0x5,%edx
  1024c0:	89 c8                	mov    %ecx,%eax
  1024c2:	c1 f8 1f             	sar    $0x1f,%eax
  1024c5:	29 c2                	sub    %eax,%edx
  1024c7:	89 d0                	mov    %edx,%eax
  1024c9:	c1 e0 02             	shl    $0x2,%eax
  1024cc:	01 d0                	add    %edx,%eax
  1024ce:	c1 e0 04             	shl    $0x4,%eax
  1024d1:	29 c1                	sub    %eax,%ecx
  1024d3:	89 ca                	mov    %ecx,%edx
  1024d5:	89 d8                	mov    %ebx,%eax
  1024d7:	29 d0                	sub    %edx,%eax
  1024d9:	83 c0 50             	add    $0x50,%eax
  1024dc:	a3 40 3e 10 00       	mov    %eax,0x103e40
  1024e1:	eb 70                	jmp    102553 <debug_putchar+0xc8>
  1024e3:	8b 1d 40 3e 10 00    	mov    0x103e40,%ebx
  1024e9:	8b 0d 40 3e 10 00    	mov    0x103e40,%ecx
  1024ef:	ba 67 66 66 66       	mov    $0x66666667,%edx
  1024f4:	89 c8                	mov    %ecx,%eax
  1024f6:	f7 ea                	imul   %edx
  1024f8:	c1 fa 05             	sar    $0x5,%edx
  1024fb:	89 c8                	mov    %ecx,%eax
  1024fd:	c1 f8 1f             	sar    $0x1f,%eax
  102500:	29 c2                	sub    %eax,%edx
  102502:	89 d0                	mov    %edx,%eax
  102504:	c1 e0 02             	shl    $0x2,%eax
  102507:	01 d0                	add    %edx,%eax
  102509:	c1 e0 04             	shl    $0x4,%eax
  10250c:	29 c1                	sub    %eax,%ecx
  10250e:	89 ca                	mov    %ecx,%edx
  102510:	89 d8                	mov    %ebx,%eax
  102512:	29 d0                	sub    %edx,%eax
  102514:	a3 40 3e 10 00       	mov    %eax,0x103e40
  102519:	eb 38                	jmp    102553 <debug_putchar+0xc8>
  10251b:	8b 15 44 3e 10 00    	mov    0x103e44,%edx
  102521:	a1 40 3e 10 00       	mov    0x103e40,%eax
  102526:	01 c0                	add    %eax,%eax
  102528:	01 c2                	add    %eax,%edx
  10252a:	0f b6 45 e4          	movzbl -0x1c(%ebp),%eax
  10252e:	88 02                	mov    %al,(%edx)
  102530:	a1 44 3e 10 00       	mov    0x103e44,%eax
  102535:	8b 15 40 3e 10 00    	mov    0x103e40,%edx
  10253b:	01 d2                	add    %edx,%edx
  10253d:	83 c2 01             	add    $0x1,%edx
  102540:	01 d0                	add    %edx,%eax
  102542:	c6 00 0a             	movb   $0xa,(%eax)
  102545:	a1 40 3e 10 00       	mov    0x103e40,%eax
  10254a:	83 c0 01             	add    $0x1,%eax
  10254d:	a3 40 3e 10 00       	mov    %eax,0x103e40
  102552:	90                   	nop
  102553:	a1 40 3e 10 00       	mov    0x103e40,%eax
  102558:	3d cf 07 00 00       	cmp    $0x7cf,%eax
  10255d:	7e 66                	jle    1025c5 <debug_putchar+0x13a>
  10255f:	a1 44 3e 10 00       	mov    0x103e44,%eax
  102564:	8d 90 a0 00 00 00    	lea    0xa0(%eax),%edx
  10256a:	a1 44 3e 10 00       	mov    0x103e44,%eax
  10256f:	c7 44 24 08 00 0f 00 	movl   $0xf00,0x8(%esp)
  102576:	00 
  102577:	89 54 24 04          	mov    %edx,0x4(%esp)
  10257b:	89 04 24             	mov    %eax,(%esp)
  10257e:	e8 ad f5 ff ff       	call   101b30 <memmove>
  102583:	c7 45 f4 80 07 00 00 	movl   $0x780,-0xc(%ebp)
  10258a:	eb 26                	jmp    1025b2 <debug_putchar+0x127>
  10258c:	8b 15 44 3e 10 00    	mov    0x103e44,%edx
  102592:	8b 45 f4             	mov    -0xc(%ebp),%eax
  102595:	01 c0                	add    %eax,%eax
  102597:	01 d0                	add    %edx,%eax
  102599:	c6 00 20             	movb   $0x20,(%eax)
  10259c:	a1 44 3e 10 00       	mov    0x103e44,%eax
  1025a1:	8b 55 f4             	mov    -0xc(%ebp),%edx
  1025a4:	01 d2                	add    %edx,%edx
  1025a6:	83 c2 01             	add    $0x1,%edx
  1025a9:	01 d0                	add    %edx,%eax
  1025ab:	c6 00 0a             	movb   $0xa,(%eax)
  1025ae:	83 45 f4 01          	addl   $0x1,-0xc(%ebp)
  1025b2:	81 7d f4 cf 07 00 00 	cmpl   $0x7cf,-0xc(%ebp)
  1025b9:	7e d1                	jle    10258c <debug_putchar+0x101>
  1025bb:	c7 05 40 3e 10 00 80 	movl   $0x780,0x103e40
  1025c2:	07 00 00 
  1025c5:	83 c4 24             	add    $0x24,%esp
  1025c8:	5b                   	pop    %ebx
  1025c9:	5d                   	pop    %ebp
  1025ca:	c3                   	ret    

001025cb <_ZL4outbth>:
  1025cb:	55                   	push   %ebp
  1025cc:	89 e5                	mov    %esp,%ebp
  1025ce:	83 ec 08             	sub    $0x8,%esp
  1025d1:	8b 55 08             	mov    0x8(%ebp),%edx
  1025d4:	8b 45 0c             	mov    0xc(%ebp),%eax
  1025d7:	66 89 55 fc          	mov    %dx,-0x4(%ebp)
  1025db:	88 45 f8             	mov    %al,-0x8(%ebp)
  1025de:	0f b7 55 fc          	movzwl -0x4(%ebp),%edx
  1025e2:	0f b6 45 f8          	movzbl -0x8(%ebp),%eax
  1025e6:	ee                   	out    %al,(%dx)
  1025e7:	c9                   	leave  
  1025e8:	c3                   	ret    

001025e9 <_ZL3inbt>:
  1025e9:	55                   	push   %ebp
  1025ea:	89 e5                	mov    %esp,%ebp
  1025ec:	83 ec 14             	sub    $0x14,%esp
  1025ef:	8b 45 08             	mov    0x8(%ebp),%eax
  1025f2:	66 89 45 ec          	mov    %ax,-0x14(%ebp)
  1025f6:	0f b7 45 ec          	movzwl -0x14(%ebp),%eax
  1025fa:	89 c2                	mov    %eax,%edx
  1025fc:	ec                   	in     (%dx),%al
  1025fd:	88 45 ff             	mov    %al,-0x1(%ebp)
  102600:	0f b6 45 ff          	movzbl -0x1(%ebp),%eax
  102604:	c9                   	leave  
  102605:	c3                   	ret    

00102606 <_ZL29platform_abstract_irq_handlerP14interrupt_info>:
  102606:	55                   	push   %ebp
  102607:	89 e5                	mov    %esp,%ebp
  102609:	83 ec 08             	sub    $0x8,%esp
  10260c:	8b 45 08             	mov    0x8(%ebp),%eax
  10260f:	8b 40 24             	mov    0x24(%eax),%eax
  102612:	83 f8 27             	cmp    $0x27,%eax
  102615:	76 14                	jbe    10262b <_ZL29platform_abstract_irq_handlerP14interrupt_info+0x25>
  102617:	c7 44 24 04 20 00 00 	movl   $0x20,0x4(%esp)
  10261e:	00 
  10261f:	c7 04 24 a0 00 00 00 	movl   $0xa0,(%esp)
  102626:	e8 a0 ff ff ff       	call   1025cb <_ZL4outbth>
  10262b:	8b 45 08             	mov    0x8(%ebp),%eax
  10262e:	8b 40 24             	mov    0x24(%eax),%eax
  102631:	83 f8 1f             	cmp    $0x1f,%eax
  102634:	76 14                	jbe    10264a <_ZL29platform_abstract_irq_handlerP14interrupt_info+0x44>
  102636:	c7 44 24 04 20 00 00 	movl   $0x20,0x4(%esp)
  10263d:	00 
  10263e:	c7 04 24 20 00 00 00 	movl   $0x20,(%esp)
  102645:	e8 81 ff ff ff       	call   1025cb <_ZL4outbth>
  10264a:	c9                   	leave  
  10264b:	c3                   	ret    

0010264c <_Z13platform_initv>:
  10264c:	55                   	push   %ebp
  10264d:	89 e5                	mov    %esp,%ebp
  10264f:	83 ec 18             	sub    $0x18,%esp
  102652:	c7 04 24 70 3d 10 00 	movl   $0x103d70,(%esp)
  102659:	e8 3b dd ff ff       	call   100399 <debug_print>
  10265e:	c7 04 24 82 3d 10 00 	movl   $0x103d82,(%esp)
  102665:	e8 2f dd ff ff       	call   100399 <debug_print>
  10266a:	c7 04 24 8c 3d 10 00 	movl   $0x103d8c,(%esp)
  102671:	e8 23 dd ff ff       	call   100399 <debug_print>
  102676:	c7 44 24 04 02 00 00 	movl   $0x2,0x4(%esp)
  10267d:	00 
  10267e:	c7 04 24 99 3d 10 00 	movl   $0x103d99,(%esp)
  102685:	e8 31 db ff ff       	call   1001bb <debug_write>
  10268a:	c7 04 24 9c 3d 10 00 	movl   $0x103d9c,(%esp)
  102691:	e8 03 dd ff ff       	call   100399 <debug_print>
  102696:	c7 04 24 a1 3d 10 00 	movl   $0x103da1,(%esp)
  10269d:	e8 f7 dc ff ff       	call   100399 <debug_print>
  1026a2:	c7 44 24 04 02 00 00 	movl   $0x2,0x4(%esp)
  1026a9:	00 
  1026aa:	c7 04 24 99 3d 10 00 	movl   $0x103d99,(%esp)
  1026b1:	e8 05 db ff ff       	call   1001bb <debug_write>
  1026b6:	e8 f0 0a 00 00       	call   1031ab <_Z22init_descriptor_tablesv>
  1026bb:	c9                   	leave  
  1026bc:	c3                   	ret    

001026bd <_Z20systemError_platformv>:
  1026bd:	55                   	push   %ebp
  1026be:	89 e5                	mov    %esp,%ebp
  1026c0:	5d                   	pop    %ebp
  1026c1:	c3                   	ret    

001026c2 <_ZL12gdt_set_gatejjjhh>:
  1026c2:	55                   	push   %ebp
  1026c3:	89 e5                	mov    %esp,%ebp
  1026c5:	83 ec 08             	sub    $0x8,%esp
  1026c8:	8b 55 14             	mov    0x14(%ebp),%edx
  1026cb:	8b 45 18             	mov    0x18(%ebp),%eax
  1026ce:	88 55 fc             	mov    %dl,-0x4(%ebp)
  1026d1:	88 45 f8             	mov    %al,-0x8(%ebp)
  1026d4:	8b 45 0c             	mov    0xc(%ebp),%eax
  1026d7:	89 c2                	mov    %eax,%edx
  1026d9:	8b 45 08             	mov    0x8(%ebp),%eax
  1026dc:	66 89 14 c5 e2 4a 10 	mov    %dx,0x104ae2(,%eax,8)
  1026e3:	00 
  1026e4:	8b 45 0c             	mov    0xc(%ebp),%eax
  1026e7:	c1 e8 10             	shr    $0x10,%eax
  1026ea:	89 c2                	mov    %eax,%edx
  1026ec:	8b 45 08             	mov    0x8(%ebp),%eax
  1026ef:	88 14 c5 e4 4a 10 00 	mov    %dl,0x104ae4(,%eax,8)
  1026f6:	8b 45 0c             	mov    0xc(%ebp),%eax
  1026f9:	c1 e8 18             	shr    $0x18,%eax
  1026fc:	89 c2                	mov    %eax,%edx
  1026fe:	8b 45 08             	mov    0x8(%ebp),%eax
  102701:	88 14 c5 e7 4a 10 00 	mov    %dl,0x104ae7(,%eax,8)
  102708:	8b 45 10             	mov    0x10(%ebp),%eax
  10270b:	89 c2                	mov    %eax,%edx
  10270d:	8b 45 08             	mov    0x8(%ebp),%eax
  102710:	66 89 14 c5 e0 4a 10 	mov    %dx,0x104ae0(,%eax,8)
  102717:	00 
  102718:	8b 45 10             	mov    0x10(%ebp),%eax
  10271b:	c1 e8 10             	shr    $0x10,%eax
  10271e:	83 e0 0f             	and    $0xf,%eax
  102721:	89 c2                	mov    %eax,%edx
  102723:	8b 45 08             	mov    0x8(%ebp),%eax
  102726:	88 14 c5 e6 4a 10 00 	mov    %dl,0x104ae6(,%eax,8)
  10272d:	8b 45 08             	mov    0x8(%ebp),%eax
  102730:	0f b6 04 c5 e6 4a 10 	movzbl 0x104ae6(,%eax,8),%eax
  102737:	00 
  102738:	0f b6 55 f8          	movzbl -0x8(%ebp),%edx
  10273c:	83 e2 f0             	and    $0xfffffff0,%edx
  10273f:	09 d0                	or     %edx,%eax
  102741:	89 c2                	mov    %eax,%edx
  102743:	8b 45 08             	mov    0x8(%ebp),%eax
  102746:	88 14 c5 e6 4a 10 00 	mov    %dl,0x104ae6(,%eax,8)
  10274d:	8b 45 08             	mov    0x8(%ebp),%eax
  102750:	0f b6 55 fc          	movzbl -0x4(%ebp),%edx
  102754:	88 14 c5 e5 4a 10 00 	mov    %dl,0x104ae5(,%eax,8)
  10275b:	c9                   	leave  
  10275c:	c3                   	ret    

0010275d <_ZL8init_gdtv>:
  10275d:	55                   	push   %ebp
  10275e:	89 e5                	mov    %esp,%ebp
  102760:	83 ec 28             	sub    $0x28,%esp
  102763:	ba 08 00 00 00       	mov    $0x8,%edx
  102768:	89 d0                	mov    %edx,%eax
  10276a:	c1 e0 02             	shl    $0x2,%eax
  10276d:	01 d0                	add    %edx,%eax
  10276f:	83 e8 01             	sub    $0x1,%eax
  102772:	66 a3 08 4b 10 00    	mov    %ax,0x104b08
  102778:	b8 e0 4a 10 00       	mov    $0x104ae0,%eax
  10277d:	a3 0a 4b 10 00       	mov    %eax,0x104b0a
  102782:	c7 44 24 10 00 00 00 	movl   $0x0,0x10(%esp)
  102789:	00 
  10278a:	c7 44 24 0c 00 00 00 	movl   $0x0,0xc(%esp)
  102791:	00 
  102792:	c7 44 24 08 00 00 00 	movl   $0x0,0x8(%esp)
  102799:	00 
  10279a:	c7 44 24 04 00 00 00 	movl   $0x0,0x4(%esp)
  1027a1:	00 
  1027a2:	c7 04 24 00 00 00 00 	movl   $0x0,(%esp)
  1027a9:	e8 14 ff ff ff       	call   1026c2 <_ZL12gdt_set_gatejjjhh>
  1027ae:	c7 44 24 10 cf 00 00 	movl   $0xcf,0x10(%esp)
  1027b5:	00 
  1027b6:	c7 44 24 0c 9a 00 00 	movl   $0x9a,0xc(%esp)
  1027bd:	00 
  1027be:	c7 44 24 08 ff ff ff 	movl   $0xffffffff,0x8(%esp)
  1027c5:	ff 
  1027c6:	c7 44 24 04 00 00 00 	movl   $0x0,0x4(%esp)
  1027cd:	00 
  1027ce:	c7 04 24 01 00 00 00 	movl   $0x1,(%esp)
  1027d5:	e8 e8 fe ff ff       	call   1026c2 <_ZL12gdt_set_gatejjjhh>
  1027da:	c7 44 24 10 cf 00 00 	movl   $0xcf,0x10(%esp)
  1027e1:	00 
  1027e2:	c7 44 24 0c 92 00 00 	movl   $0x92,0xc(%esp)
  1027e9:	00 
  1027ea:	c7 44 24 08 ff ff ff 	movl   $0xffffffff,0x8(%esp)
  1027f1:	ff 
  1027f2:	c7 44 24 04 00 00 00 	movl   $0x0,0x4(%esp)
  1027f9:	00 
  1027fa:	c7 04 24 02 00 00 00 	movl   $0x2,(%esp)
  102801:	e8 bc fe ff ff       	call   1026c2 <_ZL12gdt_set_gatejjjhh>
  102806:	c7 44 24 10 cf 00 00 	movl   $0xcf,0x10(%esp)
  10280d:	00 
  10280e:	c7 44 24 0c fa 00 00 	movl   $0xfa,0xc(%esp)
  102815:	00 
  102816:	c7 44 24 08 ff ff ff 	movl   $0xffffffff,0x8(%esp)
  10281d:	ff 
  10281e:	c7 44 24 04 00 00 00 	movl   $0x0,0x4(%esp)
  102825:	00 
  102826:	c7 04 24 03 00 00 00 	movl   $0x3,(%esp)
  10282d:	e8 90 fe ff ff       	call   1026c2 <_ZL12gdt_set_gatejjjhh>
  102832:	c7 44 24 10 cf 00 00 	movl   $0xcf,0x10(%esp)
  102839:	00 
  10283a:	c7 44 24 0c f2 00 00 	movl   $0xf2,0xc(%esp)
  102841:	00 
  102842:	c7 44 24 08 ff ff ff 	movl   $0xffffffff,0x8(%esp)
  102849:	ff 
  10284a:	c7 44 24 04 00 00 00 	movl   $0x0,0x4(%esp)
  102851:	00 
  102852:	c7 04 24 04 00 00 00 	movl   $0x4,(%esp)
  102859:	e8 64 fe ff ff       	call   1026c2 <_ZL12gdt_set_gatejjjhh>
  10285e:	b8 08 4b 10 00       	mov    $0x104b08,%eax
  102863:	89 04 24             	mov    %eax,(%esp)
  102866:	e8 7d 0e 00 00       	call   1036e8 <gdt_flush>
  10286b:	c9                   	leave  
  10286c:	c3                   	ret    

0010286d <_ZL12idt_set_gatehjth>:
  10286d:	55                   	push   %ebp
  10286e:	89 e5                	mov    %esp,%ebp
  102870:	83 ec 0c             	sub    $0xc,%esp
  102873:	8b 4d 08             	mov    0x8(%ebp),%ecx
  102876:	8b 55 10             	mov    0x10(%ebp),%edx
  102879:	8b 45 14             	mov    0x14(%ebp),%eax
  10287c:	88 4d fc             	mov    %cl,-0x4(%ebp)
  10287f:	66 89 55 f8          	mov    %dx,-0x8(%ebp)
  102883:	88 45 f4             	mov    %al,-0xc(%ebp)
  102886:	0f b6 45 fc          	movzbl -0x4(%ebp),%eax
  10288a:	8b 55 0c             	mov    0xc(%ebp),%edx
  10288d:	66 89 14 c5 20 4b 10 	mov    %dx,0x104b20(,%eax,8)
  102894:	00 
  102895:	0f b6 45 fc          	movzbl -0x4(%ebp),%eax
  102899:	8b 55 0c             	mov    0xc(%ebp),%edx
  10289c:	c1 ea 10             	shr    $0x10,%edx
  10289f:	66 89 14 c5 26 4b 10 	mov    %dx,0x104b26(,%eax,8)
  1028a6:	00 
  1028a7:	0f b6 45 fc          	movzbl -0x4(%ebp),%eax
  1028ab:	0f b7 55 f8          	movzwl -0x8(%ebp),%edx
  1028af:	66 89 14 c5 22 4b 10 	mov    %dx,0x104b22(,%eax,8)
  1028b6:	00 
  1028b7:	0f b6 45 fc          	movzbl -0x4(%ebp),%eax
  1028bb:	c6 04 c5 24 4b 10 00 	movb   $0x0,0x104b24(,%eax,8)
  1028c2:	00 
  1028c3:	0f b6 45 fc          	movzbl -0x4(%ebp),%eax
  1028c7:	0f b6 55 f4          	movzbl -0xc(%ebp),%edx
  1028cb:	88 14 c5 25 4b 10 00 	mov    %dl,0x104b25(,%eax,8)
  1028d2:	c9                   	leave  
  1028d3:	c3                   	ret    

001028d4 <_ZL4outbth>:
  1028d4:	55                   	push   %ebp
  1028d5:	89 e5                	mov    %esp,%ebp
  1028d7:	83 ec 08             	sub    $0x8,%esp
  1028da:	8b 55 08             	mov    0x8(%ebp),%edx
  1028dd:	8b 45 0c             	mov    0xc(%ebp),%eax
  1028e0:	66 89 55 fc          	mov    %dx,-0x4(%ebp)
  1028e4:	88 45 f8             	mov    %al,-0x8(%ebp)
  1028e7:	0f b7 55 fc          	movzwl -0x4(%ebp),%edx
  1028eb:	0f b6 45 f8          	movzbl -0x8(%ebp),%eax
  1028ef:	ee                   	out    %al,(%dx)
  1028f0:	c9                   	leave  
  1028f1:	c3                   	ret    

001028f2 <_ZL3inbt>:
  1028f2:	55                   	push   %ebp
  1028f3:	89 e5                	mov    %esp,%ebp
  1028f5:	83 ec 14             	sub    $0x14,%esp
  1028f8:	8b 45 08             	mov    0x8(%ebp),%eax
  1028fb:	66 89 45 ec          	mov    %ax,-0x14(%ebp)
  1028ff:	0f b7 45 ec          	movzwl -0x14(%ebp),%eax
  102903:	89 c2                	mov    %eax,%edx
  102905:	ec                   	in     (%dx),%al
  102906:	88 45 ff             	mov    %al,-0x1(%ebp)
  102909:	0f b6 45 ff          	movzbl -0x1(%ebp),%eax
  10290d:	c9                   	leave  
  10290e:	c3                   	ret    

0010290f <_ZL29platform_abstract_irq_handlerP14interrupt_info>:
  10290f:	55                   	push   %ebp
  102910:	89 e5                	mov    %esp,%ebp
  102912:	83 ec 08             	sub    $0x8,%esp
  102915:	8b 45 08             	mov    0x8(%ebp),%eax
  102918:	8b 40 24             	mov    0x24(%eax),%eax
  10291b:	83 f8 27             	cmp    $0x27,%eax
  10291e:	76 14                	jbe    102934 <_ZL29platform_abstract_irq_handlerP14interrupt_info+0x25>
  102920:	c7 44 24 04 20 00 00 	movl   $0x20,0x4(%esp)
  102927:	00 
  102928:	c7 04 24 a0 00 00 00 	movl   $0xa0,(%esp)
  10292f:	e8 a0 ff ff ff       	call   1028d4 <_ZL4outbth>
  102934:	8b 45 08             	mov    0x8(%ebp),%eax
  102937:	8b 40 24             	mov    0x24(%eax),%eax
  10293a:	83 f8 1f             	cmp    $0x1f,%eax
  10293d:	76 14                	jbe    102953 <_ZL29platform_abstract_irq_handlerP14interrupt_info+0x44>
  10293f:	c7 44 24 04 20 00 00 	movl   $0x20,0x4(%esp)
  102946:	00 
  102947:	c7 04 24 20 00 00 00 	movl   $0x20,(%esp)
  10294e:	e8 81 ff ff ff       	call   1028d4 <_ZL4outbth>
  102953:	c9                   	leave  
  102954:	c3                   	ret    

00102955 <_Z7StubISRv>:
  102955:	55                   	push   %ebp
  102956:	89 e5                	mov    %esp,%ebp
  102958:	83 ec 18             	sub    $0x18,%esp
  10295b:	c7 04 24 a8 3d 10 00 	movl   $0x103da8,(%esp)
  102962:	e8 d1 db ff ff       	call   100538 <_Z11systemErrorPKc>
  102967:	c9                   	leave  
  102968:	c3                   	ret    

00102969 <_ZL8init_idtv>:
  102969:	55                   	push   %ebp
  10296a:	89 e5                	mov    %esp,%ebp
  10296c:	83 ec 28             	sub    $0x28,%esp
  10296f:	b8 08 00 00 00       	mov    $0x8,%eax
  102974:	c1 e0 08             	shl    $0x8,%eax
  102977:	83 e8 01             	sub    $0x1,%eax
  10297a:	66 a3 20 53 10 00    	mov    %ax,0x105320
  102980:	b8 20 4b 10 00       	mov    $0x104b20,%eax
  102985:	a3 22 53 10 00       	mov    %eax,0x105322
  10298a:	b8 00 08 00 00       	mov    $0x800,%eax
  10298f:	89 44 24 08          	mov    %eax,0x8(%esp)
  102993:	c7 44 24 04 00 00 00 	movl   $0x0,0x4(%esp)
  10299a:	00 
  10299b:	c7 04 24 20 4b 10 00 	movl   $0x104b20,(%esp)
  1029a2:	e8 33 f0 ff ff       	call   1019da <memset>
  1029a7:	c7 44 24 04 11 00 00 	movl   $0x11,0x4(%esp)
  1029ae:	00 
  1029af:	c7 04 24 20 00 00 00 	movl   $0x20,(%esp)
  1029b6:	e8 19 ff ff ff       	call   1028d4 <_ZL4outbth>
  1029bb:	c7 44 24 04 11 00 00 	movl   $0x11,0x4(%esp)
  1029c2:	00 
  1029c3:	c7 04 24 a0 00 00 00 	movl   $0xa0,(%esp)
  1029ca:	e8 05 ff ff ff       	call   1028d4 <_ZL4outbth>
  1029cf:	c7 44 24 04 20 00 00 	movl   $0x20,0x4(%esp)
  1029d6:	00 
  1029d7:	c7 04 24 21 00 00 00 	movl   $0x21,(%esp)
  1029de:	e8 f1 fe ff ff       	call   1028d4 <_ZL4outbth>
  1029e3:	c7 44 24 04 28 00 00 	movl   $0x28,0x4(%esp)
  1029ea:	00 
  1029eb:	c7 04 24 a1 00 00 00 	movl   $0xa1,(%esp)
  1029f2:	e8 dd fe ff ff       	call   1028d4 <_ZL4outbth>
  1029f7:	c7 44 24 04 04 00 00 	movl   $0x4,0x4(%esp)
  1029fe:	00 
  1029ff:	c7 04 24 21 00 00 00 	movl   $0x21,(%esp)
  102a06:	e8 c9 fe ff ff       	call   1028d4 <_ZL4outbth>
  102a0b:	c7 44 24 04 02 00 00 	movl   $0x2,0x4(%esp)
  102a12:	00 
  102a13:	c7 04 24 a1 00 00 00 	movl   $0xa1,(%esp)
  102a1a:	e8 b5 fe ff ff       	call   1028d4 <_ZL4outbth>
  102a1f:	c7 44 24 04 01 00 00 	movl   $0x1,0x4(%esp)
  102a26:	00 
  102a27:	c7 04 24 21 00 00 00 	movl   $0x21,(%esp)
  102a2e:	e8 a1 fe ff ff       	call   1028d4 <_ZL4outbth>
  102a33:	c7 44 24 04 01 00 00 	movl   $0x1,0x4(%esp)
  102a3a:	00 
  102a3b:	c7 04 24 a1 00 00 00 	movl   $0xa1,(%esp)
  102a42:	e8 8d fe ff ff       	call   1028d4 <_ZL4outbth>
  102a47:	c7 44 24 04 00 00 00 	movl   $0x0,0x4(%esp)
  102a4e:	00 
  102a4f:	c7 04 24 21 00 00 00 	movl   $0x21,(%esp)
  102a56:	e8 79 fe ff ff       	call   1028d4 <_ZL4outbth>
  102a5b:	c7 44 24 04 00 00 00 	movl   $0x0,0x4(%esp)
  102a62:	00 
  102a63:	c7 04 24 a1 00 00 00 	movl   $0xa1,(%esp)
  102a6a:	e8 65 fe ff ff       	call   1028d4 <_ZL4outbth>
  102a6f:	c7 45 f4 00 00 00 00 	movl   $0x0,-0xc(%ebp)
  102a76:	eb 2b                	jmp    102aa3 <_ZL8init_idtv+0x13a>
  102a78:	ba 55 29 10 00       	mov    $0x102955,%edx
  102a7d:	8b 45 f4             	mov    -0xc(%ebp),%eax
  102a80:	0f b6 c0             	movzbl %al,%eax
  102a83:	c7 44 24 0c 8e 00 00 	movl   $0x8e,0xc(%esp)
  102a8a:	00 
  102a8b:	c7 44 24 08 08 00 00 	movl   $0x8,0x8(%esp)
  102a92:	00 
  102a93:	89 54 24 04          	mov    %edx,0x4(%esp)
  102a97:	89 04 24             	mov    %eax,(%esp)
  102a9a:	e8 ce fd ff ff       	call   10286d <_ZL12idt_set_gatehjth>
  102a9f:	83 45 f4 01          	addl   $0x1,-0xc(%ebp)
  102aa3:	81 7d f4 ff 00 00 00 	cmpl   $0xff,-0xc(%ebp)
  102aaa:	7e cc                	jle    102a78 <_ZL8init_idtv+0x10f>
  102aac:	b8 19 38 10 00       	mov    $0x103819,%eax
  102ab1:	c7 44 24 0c 8e 00 00 	movl   $0x8e,0xc(%esp)
  102ab8:	00 
  102ab9:	c7 44 24 08 08 00 00 	movl   $0x8,0x8(%esp)
  102ac0:	00 
  102ac1:	89 44 24 04          	mov    %eax,0x4(%esp)
  102ac5:	c7 04 24 00 00 00 00 	movl   $0x0,(%esp)
  102acc:	e8 9c fd ff ff       	call   10286d <_ZL12idt_set_gatehjth>
  102ad1:	b8 23 38 10 00       	mov    $0x103823,%eax
  102ad6:	c7 44 24 0c 8e 00 00 	movl   $0x8e,0xc(%esp)
  102add:	00 
  102ade:	c7 44 24 08 08 00 00 	movl   $0x8,0x8(%esp)
  102ae5:	00 
  102ae6:	89 44 24 04          	mov    %eax,0x4(%esp)
  102aea:	c7 04 24 01 00 00 00 	movl   $0x1,(%esp)
  102af1:	e8 77 fd ff ff       	call   10286d <_ZL12idt_set_gatehjth>
  102af6:	b8 2d 38 10 00       	mov    $0x10382d,%eax
  102afb:	c7 44 24 0c 8e 00 00 	movl   $0x8e,0xc(%esp)
  102b02:	00 
  102b03:	c7 44 24 08 08 00 00 	movl   $0x8,0x8(%esp)
  102b0a:	00 
  102b0b:	89 44 24 04          	mov    %eax,0x4(%esp)
  102b0f:	c7 04 24 02 00 00 00 	movl   $0x2,(%esp)
  102b16:	e8 52 fd ff ff       	call   10286d <_ZL12idt_set_gatehjth>
  102b1b:	b8 37 38 10 00       	mov    $0x103837,%eax
  102b20:	c7 44 24 0c 8e 00 00 	movl   $0x8e,0xc(%esp)
  102b27:	00 
  102b28:	c7 44 24 08 08 00 00 	movl   $0x8,0x8(%esp)
  102b2f:	00 
  102b30:	89 44 24 04          	mov    %eax,0x4(%esp)
  102b34:	c7 04 24 03 00 00 00 	movl   $0x3,(%esp)
  102b3b:	e8 2d fd ff ff       	call   10286d <_ZL12idt_set_gatehjth>
  102b40:	b8 41 38 10 00       	mov    $0x103841,%eax
  102b45:	c7 44 24 0c 8e 00 00 	movl   $0x8e,0xc(%esp)
  102b4c:	00 
  102b4d:	c7 44 24 08 08 00 00 	movl   $0x8,0x8(%esp)
  102b54:	00 
  102b55:	89 44 24 04          	mov    %eax,0x4(%esp)
  102b59:	c7 04 24 04 00 00 00 	movl   $0x4,(%esp)
  102b60:	e8 08 fd ff ff       	call   10286d <_ZL12idt_set_gatehjth>
  102b65:	b8 4b 38 10 00       	mov    $0x10384b,%eax
  102b6a:	c7 44 24 0c 8e 00 00 	movl   $0x8e,0xc(%esp)
  102b71:	00 
  102b72:	c7 44 24 08 08 00 00 	movl   $0x8,0x8(%esp)
  102b79:	00 
  102b7a:	89 44 24 04          	mov    %eax,0x4(%esp)
  102b7e:	c7 04 24 05 00 00 00 	movl   $0x5,(%esp)
  102b85:	e8 e3 fc ff ff       	call   10286d <_ZL12idt_set_gatehjth>
  102b8a:	b8 55 38 10 00       	mov    $0x103855,%eax
  102b8f:	c7 44 24 0c 8e 00 00 	movl   $0x8e,0xc(%esp)
  102b96:	00 
  102b97:	c7 44 24 08 08 00 00 	movl   $0x8,0x8(%esp)
  102b9e:	00 
  102b9f:	89 44 24 04          	mov    %eax,0x4(%esp)
  102ba3:	c7 04 24 06 00 00 00 	movl   $0x6,(%esp)
  102baa:	e8 be fc ff ff       	call   10286d <_ZL12idt_set_gatehjth>
  102baf:	b8 5f 38 10 00       	mov    $0x10385f,%eax
  102bb4:	c7 44 24 0c 8e 00 00 	movl   $0x8e,0xc(%esp)
  102bbb:	00 
  102bbc:	c7 44 24 08 08 00 00 	movl   $0x8,0x8(%esp)
  102bc3:	00 
  102bc4:	89 44 24 04          	mov    %eax,0x4(%esp)
  102bc8:	c7 04 24 07 00 00 00 	movl   $0x7,(%esp)
  102bcf:	e8 99 fc ff ff       	call   10286d <_ZL12idt_set_gatehjth>
  102bd4:	b8 69 38 10 00       	mov    $0x103869,%eax
  102bd9:	c7 44 24 0c 8e 00 00 	movl   $0x8e,0xc(%esp)
  102be0:	00 
  102be1:	c7 44 24 08 08 00 00 	movl   $0x8,0x8(%esp)
  102be8:	00 
  102be9:	89 44 24 04          	mov    %eax,0x4(%esp)
  102bed:	c7 04 24 08 00 00 00 	movl   $0x8,(%esp)
  102bf4:	e8 74 fc ff ff       	call   10286d <_ZL12idt_set_gatehjth>
  102bf9:	b8 71 38 10 00       	mov    $0x103871,%eax
  102bfe:	c7 44 24 0c 8e 00 00 	movl   $0x8e,0xc(%esp)
  102c05:	00 
  102c06:	c7 44 24 08 08 00 00 	movl   $0x8,0x8(%esp)
  102c0d:	00 
  102c0e:	89 44 24 04          	mov    %eax,0x4(%esp)
  102c12:	c7 04 24 09 00 00 00 	movl   $0x9,(%esp)
  102c19:	e8 4f fc ff ff       	call   10286d <_ZL12idt_set_gatehjth>
  102c1e:	b8 19 38 10 00       	mov    $0x103819,%eax
  102c23:	c7 44 24 0c 8e 00 00 	movl   $0x8e,0xc(%esp)
  102c2a:	00 
  102c2b:	c7 44 24 08 08 00 00 	movl   $0x8,0x8(%esp)
  102c32:	00 
  102c33:	89 44 24 04          	mov    %eax,0x4(%esp)
  102c37:	c7 04 24 0a 00 00 00 	movl   $0xa,(%esp)
  102c3e:	e8 2a fc ff ff       	call   10286d <_ZL12idt_set_gatehjth>
  102c43:	b8 83 38 10 00       	mov    $0x103883,%eax
  102c48:	c7 44 24 0c 8e 00 00 	movl   $0x8e,0xc(%esp)
  102c4f:	00 
  102c50:	c7 44 24 08 08 00 00 	movl   $0x8,0x8(%esp)
  102c57:	00 
  102c58:	89 44 24 04          	mov    %eax,0x4(%esp)
  102c5c:	c7 04 24 0b 00 00 00 	movl   $0xb,(%esp)
  102c63:	e8 05 fc ff ff       	call   10286d <_ZL12idt_set_gatehjth>
  102c68:	b8 8b 38 10 00       	mov    $0x10388b,%eax
  102c6d:	c7 44 24 0c 8e 00 00 	movl   $0x8e,0xc(%esp)
  102c74:	00 
  102c75:	c7 44 24 08 08 00 00 	movl   $0x8,0x8(%esp)
  102c7c:	00 
  102c7d:	89 44 24 04          	mov    %eax,0x4(%esp)
  102c81:	c7 04 24 0c 00 00 00 	movl   $0xc,(%esp)
  102c88:	e8 e0 fb ff ff       	call   10286d <_ZL12idt_set_gatehjth>
  102c8d:	b8 93 38 10 00       	mov    $0x103893,%eax
  102c92:	c7 44 24 0c 8e 00 00 	movl   $0x8e,0xc(%esp)
  102c99:	00 
  102c9a:	c7 44 24 08 08 00 00 	movl   $0x8,0x8(%esp)
  102ca1:	00 
  102ca2:	89 44 24 04          	mov    %eax,0x4(%esp)
  102ca6:	c7 04 24 0d 00 00 00 	movl   $0xd,(%esp)
  102cad:	e8 bb fb ff ff       	call   10286d <_ZL12idt_set_gatehjth>
  102cb2:	b8 9b 38 10 00       	mov    $0x10389b,%eax
  102cb7:	c7 44 24 0c 8e 00 00 	movl   $0x8e,0xc(%esp)
  102cbe:	00 
  102cbf:	c7 44 24 08 08 00 00 	movl   $0x8,0x8(%esp)
  102cc6:	00 
  102cc7:	89 44 24 04          	mov    %eax,0x4(%esp)
  102ccb:	c7 04 24 0e 00 00 00 	movl   $0xe,(%esp)
  102cd2:	e8 96 fb ff ff       	call   10286d <_ZL12idt_set_gatehjth>
  102cd7:	b8 a3 38 10 00       	mov    $0x1038a3,%eax
  102cdc:	c7 44 24 0c 8e 00 00 	movl   $0x8e,0xc(%esp)
  102ce3:	00 
  102ce4:	c7 44 24 08 08 00 00 	movl   $0x8,0x8(%esp)
  102ceb:	00 
  102cec:	89 44 24 04          	mov    %eax,0x4(%esp)
  102cf0:	c7 04 24 0f 00 00 00 	movl   $0xf,(%esp)
  102cf7:	e8 71 fb ff ff       	call   10286d <_ZL12idt_set_gatehjth>
  102cfc:	b8 ad 38 10 00       	mov    $0x1038ad,%eax
  102d01:	c7 44 24 0c 8e 00 00 	movl   $0x8e,0xc(%esp)
  102d08:	00 
  102d09:	c7 44 24 08 08 00 00 	movl   $0x8,0x8(%esp)
  102d10:	00 
  102d11:	89 44 24 04          	mov    %eax,0x4(%esp)
  102d15:	c7 04 24 10 00 00 00 	movl   $0x10,(%esp)
  102d1c:	e8 4c fb ff ff       	call   10286d <_ZL12idt_set_gatehjth>
  102d21:	b8 b7 38 10 00       	mov    $0x1038b7,%eax
  102d26:	c7 44 24 0c 8e 00 00 	movl   $0x8e,0xc(%esp)
  102d2d:	00 
  102d2e:	c7 44 24 08 08 00 00 	movl   $0x8,0x8(%esp)
  102d35:	00 
  102d36:	89 44 24 04          	mov    %eax,0x4(%esp)
  102d3a:	c7 04 24 11 00 00 00 	movl   $0x11,(%esp)
  102d41:	e8 27 fb ff ff       	call   10286d <_ZL12idt_set_gatehjth>
  102d46:	b8 c1 38 10 00       	mov    $0x1038c1,%eax
  102d4b:	c7 44 24 0c 8e 00 00 	movl   $0x8e,0xc(%esp)
  102d52:	00 
  102d53:	c7 44 24 08 08 00 00 	movl   $0x8,0x8(%esp)
  102d5a:	00 
  102d5b:	89 44 24 04          	mov    %eax,0x4(%esp)
  102d5f:	c7 04 24 12 00 00 00 	movl   $0x12,(%esp)
  102d66:	e8 02 fb ff ff       	call   10286d <_ZL12idt_set_gatehjth>
  102d6b:	b8 cb 38 10 00       	mov    $0x1038cb,%eax
  102d70:	c7 44 24 0c 8e 00 00 	movl   $0x8e,0xc(%esp)
  102d77:	00 
  102d78:	c7 44 24 08 08 00 00 	movl   $0x8,0x8(%esp)
  102d7f:	00 
  102d80:	89 44 24 04          	mov    %eax,0x4(%esp)
  102d84:	c7 04 24 13 00 00 00 	movl   $0x13,(%esp)
  102d8b:	e8 dd fa ff ff       	call   10286d <_ZL12idt_set_gatehjth>
  102d90:	b8 d5 38 10 00       	mov    $0x1038d5,%eax
  102d95:	c7 44 24 0c 8e 00 00 	movl   $0x8e,0xc(%esp)
  102d9c:	00 
  102d9d:	c7 44 24 08 08 00 00 	movl   $0x8,0x8(%esp)
  102da4:	00 
  102da5:	89 44 24 04          	mov    %eax,0x4(%esp)
  102da9:	c7 04 24 14 00 00 00 	movl   $0x14,(%esp)
  102db0:	e8 b8 fa ff ff       	call   10286d <_ZL12idt_set_gatehjth>
  102db5:	b8 df 38 10 00       	mov    $0x1038df,%eax
  102dba:	c7 44 24 0c 8e 00 00 	movl   $0x8e,0xc(%esp)
  102dc1:	00 
  102dc2:	c7 44 24 08 08 00 00 	movl   $0x8,0x8(%esp)
  102dc9:	00 
  102dca:	89 44 24 04          	mov    %eax,0x4(%esp)
  102dce:	c7 04 24 15 00 00 00 	movl   $0x15,(%esp)
  102dd5:	e8 93 fa ff ff       	call   10286d <_ZL12idt_set_gatehjth>
  102dda:	b8 e9 38 10 00       	mov    $0x1038e9,%eax
  102ddf:	c7 44 24 0c 8e 00 00 	movl   $0x8e,0xc(%esp)
  102de6:	00 
  102de7:	c7 44 24 08 08 00 00 	movl   $0x8,0x8(%esp)
  102dee:	00 
  102def:	89 44 24 04          	mov    %eax,0x4(%esp)
  102df3:	c7 04 24 16 00 00 00 	movl   $0x16,(%esp)
  102dfa:	e8 6e fa ff ff       	call   10286d <_ZL12idt_set_gatehjth>
  102dff:	b8 f3 38 10 00       	mov    $0x1038f3,%eax
  102e04:	c7 44 24 0c 8e 00 00 	movl   $0x8e,0xc(%esp)
  102e0b:	00 
  102e0c:	c7 44 24 08 08 00 00 	movl   $0x8,0x8(%esp)
  102e13:	00 
  102e14:	89 44 24 04          	mov    %eax,0x4(%esp)
  102e18:	c7 04 24 17 00 00 00 	movl   $0x17,(%esp)
  102e1f:	e8 49 fa ff ff       	call   10286d <_ZL12idt_set_gatehjth>
  102e24:	b8 fd 38 10 00       	mov    $0x1038fd,%eax
  102e29:	c7 44 24 0c 8e 00 00 	movl   $0x8e,0xc(%esp)
  102e30:	00 
  102e31:	c7 44 24 08 08 00 00 	movl   $0x8,0x8(%esp)
  102e38:	00 
  102e39:	89 44 24 04          	mov    %eax,0x4(%esp)
  102e3d:	c7 04 24 18 00 00 00 	movl   $0x18,(%esp)
  102e44:	e8 24 fa ff ff       	call   10286d <_ZL12idt_set_gatehjth>
  102e49:	b8 07 39 10 00       	mov    $0x103907,%eax
  102e4e:	c7 44 24 0c 8e 00 00 	movl   $0x8e,0xc(%esp)
  102e55:	00 
  102e56:	c7 44 24 08 08 00 00 	movl   $0x8,0x8(%esp)
  102e5d:	00 
  102e5e:	89 44 24 04          	mov    %eax,0x4(%esp)
  102e62:	c7 04 24 19 00 00 00 	movl   $0x19,(%esp)
  102e69:	e8 ff f9 ff ff       	call   10286d <_ZL12idt_set_gatehjth>
  102e6e:	b8 11 39 10 00       	mov    $0x103911,%eax
  102e73:	c7 44 24 0c 8e 00 00 	movl   $0x8e,0xc(%esp)
  102e7a:	00 
  102e7b:	c7 44 24 08 08 00 00 	movl   $0x8,0x8(%esp)
  102e82:	00 
  102e83:	89 44 24 04          	mov    %eax,0x4(%esp)
  102e87:	c7 04 24 1a 00 00 00 	movl   $0x1a,(%esp)
  102e8e:	e8 da f9 ff ff       	call   10286d <_ZL12idt_set_gatehjth>
  102e93:	b8 1b 39 10 00       	mov    $0x10391b,%eax
  102e98:	c7 44 24 0c 8e 00 00 	movl   $0x8e,0xc(%esp)
  102e9f:	00 
  102ea0:	c7 44 24 08 08 00 00 	movl   $0x8,0x8(%esp)
  102ea7:	00 
  102ea8:	89 44 24 04          	mov    %eax,0x4(%esp)
  102eac:	c7 04 24 1b 00 00 00 	movl   $0x1b,(%esp)
  102eb3:	e8 b5 f9 ff ff       	call   10286d <_ZL12idt_set_gatehjth>
  102eb8:	b8 25 39 10 00       	mov    $0x103925,%eax
  102ebd:	c7 44 24 0c 8e 00 00 	movl   $0x8e,0xc(%esp)
  102ec4:	00 
  102ec5:	c7 44 24 08 08 00 00 	movl   $0x8,0x8(%esp)
  102ecc:	00 
  102ecd:	89 44 24 04          	mov    %eax,0x4(%esp)
  102ed1:	c7 04 24 1c 00 00 00 	movl   $0x1c,(%esp)
  102ed8:	e8 90 f9 ff ff       	call   10286d <_ZL12idt_set_gatehjth>
  102edd:	b8 2f 39 10 00       	mov    $0x10392f,%eax
  102ee2:	c7 44 24 0c 8e 00 00 	movl   $0x8e,0xc(%esp)
  102ee9:	00 
  102eea:	c7 44 24 08 08 00 00 	movl   $0x8,0x8(%esp)
  102ef1:	00 
  102ef2:	89 44 24 04          	mov    %eax,0x4(%esp)
  102ef6:	c7 04 24 1d 00 00 00 	movl   $0x1d,(%esp)
  102efd:	e8 6b f9 ff ff       	call   10286d <_ZL12idt_set_gatehjth>
  102f02:	b8 36 39 10 00       	mov    $0x103936,%eax
  102f07:	c7 44 24 0c 8e 00 00 	movl   $0x8e,0xc(%esp)
  102f0e:	00 
  102f0f:	c7 44 24 08 08 00 00 	movl   $0x8,0x8(%esp)
  102f16:	00 
  102f17:	89 44 24 04          	mov    %eax,0x4(%esp)
  102f1b:	c7 04 24 1e 00 00 00 	movl   $0x1e,(%esp)
  102f22:	e8 46 f9 ff ff       	call   10286d <_ZL12idt_set_gatehjth>
  102f27:	b8 3d 39 10 00       	mov    $0x10393d,%eax
  102f2c:	c7 44 24 0c 8e 00 00 	movl   $0x8e,0xc(%esp)
  102f33:	00 
  102f34:	c7 44 24 08 08 00 00 	movl   $0x8,0x8(%esp)
  102f3b:	00 
  102f3c:	89 44 24 04          	mov    %eax,0x4(%esp)
  102f40:	c7 04 24 1f 00 00 00 	movl   $0x1f,(%esp)
  102f47:	e8 21 f9 ff ff       	call   10286d <_ZL12idt_set_gatehjth>
  102f4c:	b8 44 39 10 00       	mov    $0x103944,%eax
  102f51:	c7 44 24 0c 8e 00 00 	movl   $0x8e,0xc(%esp)
  102f58:	00 
  102f59:	c7 44 24 08 08 00 00 	movl   $0x8,0x8(%esp)
  102f60:	00 
  102f61:	89 44 24 04          	mov    %eax,0x4(%esp)
  102f65:	c7 04 24 20 00 00 00 	movl   $0x20,(%esp)
  102f6c:	e8 fc f8 ff ff       	call   10286d <_ZL12idt_set_gatehjth>
  102f71:	b8 4b 39 10 00       	mov    $0x10394b,%eax
  102f76:	c7 44 24 0c 8e 00 00 	movl   $0x8e,0xc(%esp)
  102f7d:	00 
  102f7e:	c7 44 24 08 08 00 00 	movl   $0x8,0x8(%esp)
  102f85:	00 
  102f86:	89 44 24 04          	mov    %eax,0x4(%esp)
  102f8a:	c7 04 24 21 00 00 00 	movl   $0x21,(%esp)
  102f91:	e8 d7 f8 ff ff       	call   10286d <_ZL12idt_set_gatehjth>
  102f96:	b8 52 39 10 00       	mov    $0x103952,%eax
  102f9b:	c7 44 24 0c 8e 00 00 	movl   $0x8e,0xc(%esp)
  102fa2:	00 
  102fa3:	c7 44 24 08 08 00 00 	movl   $0x8,0x8(%esp)
  102faa:	00 
  102fab:	89 44 24 04          	mov    %eax,0x4(%esp)
  102faf:	c7 04 24 22 00 00 00 	movl   $0x22,(%esp)
  102fb6:	e8 b2 f8 ff ff       	call   10286d <_ZL12idt_set_gatehjth>
  102fbb:	b8 59 39 10 00       	mov    $0x103959,%eax
  102fc0:	c7 44 24 0c 8e 00 00 	movl   $0x8e,0xc(%esp)
  102fc7:	00 
  102fc8:	c7 44 24 08 08 00 00 	movl   $0x8,0x8(%esp)
  102fcf:	00 
  102fd0:	89 44 24 04          	mov    %eax,0x4(%esp)
  102fd4:	c7 04 24 23 00 00 00 	movl   $0x23,(%esp)
  102fdb:	e8 8d f8 ff ff       	call   10286d <_ZL12idt_set_gatehjth>
  102fe0:	b8 60 39 10 00       	mov    $0x103960,%eax
  102fe5:	c7 44 24 0c 8e 00 00 	movl   $0x8e,0xc(%esp)
  102fec:	00 
  102fed:	c7 44 24 08 08 00 00 	movl   $0x8,0x8(%esp)
  102ff4:	00 
  102ff5:	89 44 24 04          	mov    %eax,0x4(%esp)
  102ff9:	c7 04 24 24 00 00 00 	movl   $0x24,(%esp)
  103000:	e8 68 f8 ff ff       	call   10286d <_ZL12idt_set_gatehjth>
  103005:	b8 67 39 10 00       	mov    $0x103967,%eax
  10300a:	c7 44 24 0c 8e 00 00 	movl   $0x8e,0xc(%esp)
  103011:	00 
  103012:	c7 44 24 08 08 00 00 	movl   $0x8,0x8(%esp)
  103019:	00 
  10301a:	89 44 24 04          	mov    %eax,0x4(%esp)
  10301e:	c7 04 24 25 00 00 00 	movl   $0x25,(%esp)
  103025:	e8 43 f8 ff ff       	call   10286d <_ZL12idt_set_gatehjth>
  10302a:	b8 6e 39 10 00       	mov    $0x10396e,%eax
  10302f:	c7 44 24 0c 8e 00 00 	movl   $0x8e,0xc(%esp)
  103036:	00 
  103037:	c7 44 24 08 08 00 00 	movl   $0x8,0x8(%esp)
  10303e:	00 
  10303f:	89 44 24 04          	mov    %eax,0x4(%esp)
  103043:	c7 04 24 26 00 00 00 	movl   $0x26,(%esp)
  10304a:	e8 1e f8 ff ff       	call   10286d <_ZL12idt_set_gatehjth>
  10304f:	b8 75 39 10 00       	mov    $0x103975,%eax
  103054:	c7 44 24 0c 8e 00 00 	movl   $0x8e,0xc(%esp)
  10305b:	00 
  10305c:	c7 44 24 08 08 00 00 	movl   $0x8,0x8(%esp)
  103063:	00 
  103064:	89 44 24 04          	mov    %eax,0x4(%esp)
  103068:	c7 04 24 27 00 00 00 	movl   $0x27,(%esp)
  10306f:	e8 f9 f7 ff ff       	call   10286d <_ZL12idt_set_gatehjth>
  103074:	b8 7c 39 10 00       	mov    $0x10397c,%eax
  103079:	c7 44 24 0c 8e 00 00 	movl   $0x8e,0xc(%esp)
  103080:	00 
  103081:	c7 44 24 08 08 00 00 	movl   $0x8,0x8(%esp)
  103088:	00 
  103089:	89 44 24 04          	mov    %eax,0x4(%esp)
  10308d:	c7 04 24 28 00 00 00 	movl   $0x28,(%esp)
  103094:	e8 d4 f7 ff ff       	call   10286d <_ZL12idt_set_gatehjth>
  103099:	b8 83 39 10 00       	mov    $0x103983,%eax
  10309e:	c7 44 24 0c 8e 00 00 	movl   $0x8e,0xc(%esp)
  1030a5:	00 
  1030a6:	c7 44 24 08 08 00 00 	movl   $0x8,0x8(%esp)
  1030ad:	00 
  1030ae:	89 44 24 04          	mov    %eax,0x4(%esp)
  1030b2:	c7 04 24 29 00 00 00 	movl   $0x29,(%esp)
  1030b9:	e8 af f7 ff ff       	call   10286d <_ZL12idt_set_gatehjth>
  1030be:	b8 8a 39 10 00       	mov    $0x10398a,%eax
  1030c3:	c7 44 24 0c 8e 00 00 	movl   $0x8e,0xc(%esp)
  1030ca:	00 
  1030cb:	c7 44 24 08 08 00 00 	movl   $0x8,0x8(%esp)
  1030d2:	00 
  1030d3:	89 44 24 04          	mov    %eax,0x4(%esp)
  1030d7:	c7 04 24 2a 00 00 00 	movl   $0x2a,(%esp)
  1030de:	e8 8a f7 ff ff       	call   10286d <_ZL12idt_set_gatehjth>
  1030e3:	b8 91 39 10 00       	mov    $0x103991,%eax
  1030e8:	c7 44 24 0c 8e 00 00 	movl   $0x8e,0xc(%esp)
  1030ef:	00 
  1030f0:	c7 44 24 08 08 00 00 	movl   $0x8,0x8(%esp)
  1030f7:	00 
  1030f8:	89 44 24 04          	mov    %eax,0x4(%esp)
  1030fc:	c7 04 24 2b 00 00 00 	movl   $0x2b,(%esp)
  103103:	e8 65 f7 ff ff       	call   10286d <_ZL12idt_set_gatehjth>
  103108:	b8 98 39 10 00       	mov    $0x103998,%eax
  10310d:	c7 44 24 0c 8e 00 00 	movl   $0x8e,0xc(%esp)
  103114:	00 
  103115:	c7 44 24 08 08 00 00 	movl   $0x8,0x8(%esp)
  10311c:	00 
  10311d:	89 44 24 04          	mov    %eax,0x4(%esp)
  103121:	c7 04 24 2c 00 00 00 	movl   $0x2c,(%esp)
  103128:	e8 40 f7 ff ff       	call   10286d <_ZL12idt_set_gatehjth>
  10312d:	b8 9f 39 10 00       	mov    $0x10399f,%eax
  103132:	c7 44 24 0c 8e 00 00 	movl   $0x8e,0xc(%esp)
  103139:	00 
  10313a:	c7 44 24 08 08 00 00 	movl   $0x8,0x8(%esp)
  103141:	00 
  103142:	89 44 24 04          	mov    %eax,0x4(%esp)
  103146:	c7 04 24 2d 00 00 00 	movl   $0x2d,(%esp)
  10314d:	e8 1b f7 ff ff       	call   10286d <_ZL12idt_set_gatehjth>
  103152:	b8 a6 39 10 00       	mov    $0x1039a6,%eax
  103157:	c7 44 24 0c 8e 00 00 	movl   $0x8e,0xc(%esp)
  10315e:	00 
  10315f:	c7 44 24 08 08 00 00 	movl   $0x8,0x8(%esp)
  103166:	00 
  103167:	89 44 24 04          	mov    %eax,0x4(%esp)
  10316b:	c7 04 24 2e 00 00 00 	movl   $0x2e,(%esp)
  103172:	e8 f6 f6 ff ff       	call   10286d <_ZL12idt_set_gatehjth>
  103177:	b8 ad 39 10 00       	mov    $0x1039ad,%eax
  10317c:	c7 44 24 0c 8e 00 00 	movl   $0x8e,0xc(%esp)
  103183:	00 
  103184:	c7 44 24 08 08 00 00 	movl   $0x8,0x8(%esp)
  10318b:	00 
  10318c:	89 44 24 04          	mov    %eax,0x4(%esp)
  103190:	c7 04 24 2f 00 00 00 	movl   $0x2f,(%esp)
  103197:	e8 d1 f6 ff ff       	call   10286d <_ZL12idt_set_gatehjth>
  10319c:	b8 20 53 10 00       	mov    $0x105320,%eax
  1031a1:	89 04 24             	mov    %eax,(%esp)
  1031a4:	e8 5c 05 00 00       	call   103705 <idt_flush>
  1031a9:	c9                   	leave  
  1031aa:	c3                   	ret    

001031ab <_Z22init_descriptor_tablesv>:
  1031ab:	55                   	push   %ebp
  1031ac:	89 e5                	mov    %esp,%ebp
  1031ae:	83 ec 18             	sub    $0x18,%esp
  1031b1:	e8 a7 f5 ff ff       	call   10275d <_ZL8init_gdtv>
  1031b6:	e8 ae f7 ff ff       	call   102969 <_ZL8init_idtv>
  1031bb:	c7 04 24 b0 3d 10 00 	movl   $0x103db0,(%esp)
  1031c2:	e8 d2 d1 ff ff       	call   100399 <debug_print>
  1031c7:	c7 44 24 04 28 00 00 	movl   $0x28,0x4(%esp)
  1031ce:	00 
  1031cf:	c7 04 24 e0 4a 10 00 	movl   $0x104ae0,(%esp)
  1031d6:	e8 e0 d1 ff ff       	call   1003bb <debug_print_dump>
  1031db:	c7 44 24 04 02 00 00 	movl   $0x2,0x4(%esp)
  1031e2:	00 
  1031e3:	c7 04 24 cf 3d 10 00 	movl   $0x103dcf,(%esp)
  1031ea:	e8 cc cf ff ff       	call   1001bb <debug_write>
  1031ef:	c7 04 24 d4 3d 10 00 	movl   $0x103dd4,(%esp)
  1031f6:	e8 9e d1 ff ff       	call   100399 <debug_print>
  1031fb:	c7 44 24 04 20 00 00 	movl   $0x20,0x4(%esp)
  103202:	00 
  103203:	c7 04 24 20 4b 10 00 	movl   $0x104b20,(%esp)
  10320a:	e8 ac d1 ff ff       	call   1003bb <debug_print_dump>
  10320f:	c7 44 24 04 02 00 00 	movl   $0x2,0x4(%esp)
  103216:	00 
  103217:	c7 04 24 cf 3d 10 00 	movl   $0x103dcf,(%esp)
  10321e:	e8 98 cf ff ff       	call   1001bb <debug_write>
  103223:	c9                   	leave  
  103224:	c3                   	ret    

00103225 <_ZL4outbth>:
  103225:	55                   	push   %ebp
  103226:	89 e5                	mov    %esp,%ebp
  103228:	83 ec 08             	sub    $0x8,%esp
  10322b:	8b 55 08             	mov    0x8(%ebp),%edx
  10322e:	8b 45 0c             	mov    0xc(%ebp),%eax
  103231:	66 89 55 fc          	mov    %dx,-0x4(%ebp)
  103235:	88 45 f8             	mov    %al,-0x8(%ebp)
  103238:	0f b7 55 fc          	movzwl -0x4(%ebp),%edx
  10323c:	0f b6 45 f8          	movzbl -0x8(%ebp),%eax
  103240:	ee                   	out    %al,(%dx)
  103241:	c9                   	leave  
  103242:	c3                   	ret    

00103243 <_ZL3inbt>:
  103243:	55                   	push   %ebp
  103244:	89 e5                	mov    %esp,%ebp
  103246:	83 ec 14             	sub    $0x14,%esp
  103249:	8b 45 08             	mov    0x8(%ebp),%eax
  10324c:	66 89 45 ec          	mov    %ax,-0x14(%ebp)
  103250:	0f b7 45 ec          	movzwl -0x14(%ebp),%eax
  103254:	89 c2                	mov    %eax,%edx
  103256:	ec                   	in     (%dx),%al
  103257:	88 45 ff             	mov    %al,-0x1(%ebp)
  10325a:	0f b6 45 ff          	movzbl -0x1(%ebp),%eax
  10325e:	c9                   	leave  
  10325f:	c3                   	ret    

00103260 <_Z10init_timerj>:
  103260:	55                   	push   %ebp
  103261:	89 e5                	mov    %esp,%ebp
  103263:	83 ec 18             	sub    $0x18,%esp
  103266:	b8 dc 34 12 00       	mov    $0x1234dc,%eax
  10326b:	ba 00 00 00 00       	mov    $0x0,%edx
  103270:	f7 75 08             	divl   0x8(%ebp)
  103273:	89 45 fc             	mov    %eax,-0x4(%ebp)
  103276:	c7 44 24 04 36 00 00 	movl   $0x36,0x4(%esp)
  10327d:	00 
  10327e:	c7 04 24 43 00 00 00 	movl   $0x43,(%esp)
  103285:	e8 9b ff ff ff       	call   103225 <_ZL4outbth>
  10328a:	8b 45 fc             	mov    -0x4(%ebp),%eax
  10328d:	88 45 fb             	mov    %al,-0x5(%ebp)
  103290:	8b 45 fc             	mov    -0x4(%ebp),%eax
  103293:	c1 e8 08             	shr    $0x8,%eax
  103296:	88 45 fa             	mov    %al,-0x6(%ebp)
  103299:	0f b6 45 fb          	movzbl -0x5(%ebp),%eax
  10329d:	89 44 24 04          	mov    %eax,0x4(%esp)
  1032a1:	c7 04 24 40 00 00 00 	movl   $0x40,(%esp)
  1032a8:	e8 78 ff ff ff       	call   103225 <_ZL4outbth>
  1032ad:	0f b6 45 fa          	movzbl -0x6(%ebp),%eax
  1032b1:	89 44 24 04          	mov    %eax,0x4(%esp)
  1032b5:	c7 04 24 40 00 00 00 	movl   $0x40,(%esp)
  1032bc:	e8 64 ff ff ff       	call   103225 <_ZL4outbth>
  1032c1:	c9                   	leave  
  1032c2:	c3                   	ret    

001032c3 <_Z6millisv>:
  1032c3:	55                   	push   %ebp
  1032c4:	89 e5                	mov    %esp,%ebp
  1032c6:	5d                   	pop    %ebp
  1032c7:	c3                   	ret    

001032c8 <_ZL4in32tPj>:
  1032c8:	55                   	push   %ebp
  1032c9:	89 e5                	mov    %esp,%ebp
  1032cb:	83 ec 04             	sub    $0x4,%esp
  1032ce:	8b 45 08             	mov    0x8(%ebp),%eax
  1032d1:	66 89 45 fc          	mov    %ax,-0x4(%ebp)
  1032d5:	0f b7 45 fc          	movzwl -0x4(%ebp),%eax
  1032d9:	89 c2                	mov    %eax,%edx
  1032db:	ed                   	in     (%dx),%eax
  1032dc:	89 c2                	mov    %eax,%edx
  1032de:	8b 45 0c             	mov    0xc(%ebp),%eax
  1032e1:	89 10                	mov    %edx,(%eax)
  1032e3:	c9                   	leave  
  1032e4:	c3                   	ret    

001032e5 <_ZL5out32tj>:
  1032e5:	55                   	push   %ebp
  1032e6:	89 e5                	mov    %esp,%ebp
  1032e8:	83 ec 04             	sub    $0x4,%esp
  1032eb:	8b 45 08             	mov    0x8(%ebp),%eax
  1032ee:	66 89 45 fc          	mov    %ax,-0x4(%ebp)
  1032f2:	8b 45 0c             	mov    0xc(%ebp),%eax
  1032f5:	0f b7 55 fc          	movzwl -0x4(%ebp),%edx
  1032f9:	ef                   	out    %eax,(%dx)
  1032fa:	c9                   	leave  
  1032fb:	c3                   	ret    

001032fc <_Z12ReadConfig32jjjjPj>:
  1032fc:	55                   	push   %ebp
  1032fd:	89 e5                	mov    %esp,%ebp
  1032ff:	83 ec 18             	sub    $0x18,%esp
  103302:	c7 45 fc 00 00 00 00 	movl   $0x0,-0x4(%ebp)
  103309:	0f b6 45 ff          	movzbl -0x1(%ebp),%eax
  10330d:	83 c8 80             	or     $0xffffff80,%eax
  103310:	88 45 ff             	mov    %al,-0x1(%ebp)
  103313:	8b 45 14             	mov    0x14(%ebp),%eax
  103316:	83 e0 3f             	and    $0x3f,%eax
  103319:	8d 14 85 00 00 00 00 	lea    0x0(,%eax,4),%edx
  103320:	0f b6 45 fc          	movzbl -0x4(%ebp),%eax
  103324:	83 e0 03             	and    $0x3,%eax
  103327:	09 d0                	or     %edx,%eax
  103329:	88 45 fc             	mov    %al,-0x4(%ebp)
  10332c:	8b 45 10             	mov    0x10(%ebp),%eax
  10332f:	83 e0 07             	and    $0x7,%eax
  103332:	83 e0 07             	and    $0x7,%eax
  103335:	89 c2                	mov    %eax,%edx
  103337:	0f b6 45 fd          	movzbl -0x3(%ebp),%eax
  10333b:	83 e0 f8             	and    $0xfffffff8,%eax
  10333e:	09 d0                	or     %edx,%eax
  103340:	88 45 fd             	mov    %al,-0x3(%ebp)
  103343:	8b 45 0c             	mov    0xc(%ebp),%eax
  103346:	83 e0 1f             	and    $0x1f,%eax
  103349:	8d 14 c5 00 00 00 00 	lea    0x0(,%eax,8),%edx
  103350:	0f b6 45 fd          	movzbl -0x3(%ebp),%eax
  103354:	83 e0 07             	and    $0x7,%eax
  103357:	09 d0                	or     %edx,%eax
  103359:	88 45 fd             	mov    %al,-0x3(%ebp)
  10335c:	8b 45 08             	mov    0x8(%ebp),%eax
  10335f:	88 45 fe             	mov    %al,-0x2(%ebp)
  103362:	8b 45 fc             	mov    -0x4(%ebp),%eax
  103365:	89 44 24 04          	mov    %eax,0x4(%esp)
  103369:	c7 04 24 f8 0c 00 00 	movl   $0xcf8,(%esp)
  103370:	e8 70 ff ff ff       	call   1032e5 <_ZL5out32tj>
  103375:	8b 45 18             	mov    0x18(%ebp),%eax
  103378:	89 44 24 04          	mov    %eax,0x4(%esp)
  10337c:	c7 04 24 fc 0c 00 00 	movl   $0xcfc,(%esp)
  103383:	e8 40 ff ff ff       	call   1032c8 <_ZL4in32tPj>
  103388:	90                   	nop
  103389:	c9                   	leave  
  10338a:	c3                   	ret    

0010338b <_Z18GetPCIDevClassNamej>:
  10338b:	55                   	push   %ebp
  10338c:	89 e5                	mov    %esp,%ebp
  10338e:	83 ec 10             	sub    $0x10,%esp
  103391:	c7 45 fc 00 00 00 00 	movl   $0x0,-0x4(%ebp)
  103398:	eb 34                	jmp    1033ce <_Z18GetPCIDevClassNamej+0x43>
  10339a:	8b 55 fc             	mov    -0x4(%ebp),%edx
  10339d:	89 d0                	mov    %edx,%eax
  10339f:	c1 e0 03             	shl    $0x3,%eax
  1033a2:	01 d0                	add    %edx,%eax
  1033a4:	c1 e0 02             	shl    $0x2,%eax
  1033a7:	05 60 3e 10 00       	add    $0x103e60,%eax
  1033ac:	8b 00                	mov    (%eax),%eax
  1033ae:	3b 45 08             	cmp    0x8(%ebp),%eax
  1033b1:	75 17                	jne    1033ca <_Z18GetPCIDevClassNamej+0x3f>
  1033b3:	8b 55 fc             	mov    -0x4(%ebp),%edx
  1033b6:	89 d0                	mov    %edx,%eax
  1033b8:	c1 e0 03             	shl    $0x3,%eax
  1033bb:	01 d0                	add    %edx,%eax
  1033bd:	c1 e0 02             	shl    $0x2,%eax
  1033c0:	05 60 3e 10 00       	add    $0x103e60,%eax
  1033c5:	83 c0 04             	add    $0x4,%eax
  1033c8:	eb 15                	jmp    1033df <_Z18GetPCIDevClassNamej+0x54>
  1033ca:	83 45 fc 01          	addl   $0x1,-0x4(%ebp)
  1033ce:	8b 55 fc             	mov    -0x4(%ebp),%edx
  1033d1:	b8 13 00 00 00       	mov    $0x13,%eax
  1033d6:	39 c2                	cmp    %eax,%edx
  1033d8:	72 c0                	jb     10339a <_Z18GetPCIDevClassNamej+0xf>
  1033da:	b8 00 00 00 00       	mov    $0x0,%eax
  1033df:	c9                   	leave  
  1033e0:	c3                   	ret    

001033e1 <_Z16ReadPCIDevHeaderjjjP12PCIDevHeader>:
  1033e1:	55                   	push   %ebp
  1033e2:	89 e5                	mov    %esp,%ebp
  1033e4:	83 ec 24             	sub    $0x24,%esp
  1033e7:	83 7d 14 00          	cmpl   $0x0,0x14(%ebp)
  1033eb:	75 07                	jne    1033f4 <_Z16ReadPCIDevHeaderjjjP12PCIDevHeader+0x13>
  1033ed:	b8 01 00 00 00       	mov    $0x1,%eax
  1033f2:	eb 7c                	jmp    103470 <_Z16ReadPCIDevHeaderjjjP12PCIDevHeader+0x8f>
  1033f4:	c7 45 fc 00 00 00 00 	movl   $0x0,-0x4(%ebp)
  1033fb:	eb 37                	jmp    103434 <_Z16ReadPCIDevHeaderjjjP12PCIDevHeader+0x53>
  1033fd:	8b 45 fc             	mov    -0x4(%ebp),%eax
  103400:	8d 14 85 00 00 00 00 	lea    0x0(,%eax,4),%edx
  103407:	8b 45 14             	mov    0x14(%ebp),%eax
  10340a:	01 c2                	add    %eax,%edx
  10340c:	8b 45 fc             	mov    -0x4(%ebp),%eax
  10340f:	89 54 24 10          	mov    %edx,0x10(%esp)
  103413:	89 44 24 0c          	mov    %eax,0xc(%esp)
  103417:	8b 45 10             	mov    0x10(%ebp),%eax
  10341a:	89 44 24 08          	mov    %eax,0x8(%esp)
  10341e:	8b 45 0c             	mov    0xc(%ebp),%eax
  103421:	89 44 24 04          	mov    %eax,0x4(%esp)
  103425:	8b 45 08             	mov    0x8(%ebp),%eax
  103428:	89 04 24             	mov    %eax,(%esp)
  10342b:	e8 cc fe ff ff       	call   1032fc <_Z12ReadConfig32jjjjPj>
  103430:	83 45 fc 01          	addl   $0x1,-0x4(%ebp)
  103434:	8b 55 fc             	mov    -0x4(%ebp),%edx
  103437:	b8 04 00 00 00       	mov    $0x4,%eax
  10343c:	39 c2                	cmp    %eax,%edx
  10343e:	72 bd                	jb     1033fd <_Z16ReadPCIDevHeaderjjjP12PCIDevHeader+0x1c>
  103440:	8b 45 14             	mov    0x14(%ebp),%eax
  103443:	0f b7 00             	movzwl (%eax),%eax
  103446:	66 85 c0             	test   %ax,%ax
  103449:	74 19                	je     103464 <_Z16ReadPCIDevHeaderjjjP12PCIDevHeader+0x83>
  10344b:	8b 45 14             	mov    0x14(%ebp),%eax
  10344e:	0f b7 00             	movzwl (%eax),%eax
  103451:	66 83 f8 ff          	cmp    $0xffff,%ax
  103455:	74 0d                	je     103464 <_Z16ReadPCIDevHeaderjjjP12PCIDevHeader+0x83>
  103457:	8b 45 14             	mov    0x14(%ebp),%eax
  10345a:	0f b7 40 02          	movzwl 0x2(%eax),%eax
  10345e:	66 83 f8 ff          	cmp    $0xffff,%ax
  103462:	75 07                	jne    10346b <_Z16ReadPCIDevHeaderjjjP12PCIDevHeader+0x8a>
  103464:	b8 01 00 00 00       	mov    $0x1,%eax
  103469:	eb 05                	jmp    103470 <_Z16ReadPCIDevHeaderjjjP12PCIDevHeader+0x8f>
  10346b:	b8 00 00 00 00       	mov    $0x0,%eax
  103470:	c9                   	leave  
  103471:	c3                   	ret    

00103472 <_Z17PrintPCIDevHeaderjjjP12PCIDevHeader>:
  103472:	55                   	push   %ebp
  103473:	89 e5                	mov    %esp,%ebp
  103475:	83 ec 28             	sub    $0x28,%esp
  103478:	a1 2c 41 10 00       	mov    0x10412c,%eax
  10347d:	c7 44 24 04 fb 3d 10 	movl   $0x103dfb,0x4(%esp)
  103484:	00 
  103485:	89 04 24             	mov    %eax,(%esp)
  103488:	e8 17 d2 ff ff       	call   1006a4 <_ZN5Print5printEPKc>
  10348d:	8b 55 08             	mov    0x8(%ebp),%edx
  103490:	a1 2c 41 10 00       	mov    0x10412c,%eax
  103495:	c7 44 24 08 10 00 00 	movl   $0x10,0x8(%esp)
  10349c:	00 
  10349d:	89 54 24 04          	mov    %edx,0x4(%esp)
  1034a1:	89 04 24             	mov    %eax,(%esp)
  1034a4:	e8 65 d2 ff ff       	call   10070e <_ZN5Print5printEii>
  1034a9:	a1 2c 41 10 00       	mov    0x10412c,%eax
  1034ae:	c7 44 24 04 00 3e 10 	movl   $0x103e00,0x4(%esp)
  1034b5:	00 
  1034b6:	89 04 24             	mov    %eax,(%esp)
  1034b9:	e8 e6 d1 ff ff       	call   1006a4 <_ZN5Print5printEPKc>
  1034be:	8b 55 0c             	mov    0xc(%ebp),%edx
  1034c1:	a1 2c 41 10 00       	mov    0x10412c,%eax
  1034c6:	c7 44 24 08 10 00 00 	movl   $0x10,0x8(%esp)
  1034cd:	00 
  1034ce:	89 54 24 04          	mov    %edx,0x4(%esp)
  1034d2:	89 04 24             	mov    %eax,(%esp)
  1034d5:	e8 34 d2 ff ff       	call   10070e <_ZN5Print5printEii>
  1034da:	a1 2c 41 10 00       	mov    0x10412c,%eax
  1034df:	c7 44 24 04 06 3e 10 	movl   $0x103e06,0x4(%esp)
  1034e6:	00 
  1034e7:	89 04 24             	mov    %eax,(%esp)
  1034ea:	e8 b5 d1 ff ff       	call   1006a4 <_ZN5Print5printEPKc>
  1034ef:	8b 55 10             	mov    0x10(%ebp),%edx
  1034f2:	a1 2c 41 10 00       	mov    0x10412c,%eax
  1034f7:	c7 44 24 08 10 00 00 	movl   $0x10,0x8(%esp)
  1034fe:	00 
  1034ff:	89 54 24 04          	mov    %edx,0x4(%esp)
  103503:	89 04 24             	mov    %eax,(%esp)
  103506:	e8 03 d2 ff ff       	call   10070e <_ZN5Print5printEii>
  10350b:	a1 2c 41 10 00       	mov    0x10412c,%eax
  103510:	c7 44 24 04 0d 3e 10 	movl   $0x103e0d,0x4(%esp)
  103517:	00 
  103518:	89 04 24             	mov    %eax,(%esp)
  10351b:	e8 84 d1 ff ff       	call   1006a4 <_ZN5Print5printEPKc>
  103520:	8b 45 14             	mov    0x14(%ebp),%eax
  103523:	0f b7 00             	movzwl (%eax),%eax
  103526:	0f b7 d0             	movzwl %ax,%edx
  103529:	a1 2c 41 10 00       	mov    0x10412c,%eax
  10352e:	c7 44 24 08 10 00 00 	movl   $0x10,0x8(%esp)
  103535:	00 
  103536:	89 54 24 04          	mov    %edx,0x4(%esp)
  10353a:	89 04 24             	mov    %eax,(%esp)
  10353d:	e8 cc d1 ff ff       	call   10070e <_ZN5Print5printEii>
  103542:	a1 2c 41 10 00       	mov    0x10412c,%eax
  103547:	c7 44 24 04 16 3e 10 	movl   $0x103e16,0x4(%esp)
  10354e:	00 
  10354f:	89 04 24             	mov    %eax,(%esp)
  103552:	e8 4d d1 ff ff       	call   1006a4 <_ZN5Print5printEPKc>
  103557:	8b 45 14             	mov    0x14(%ebp),%eax
  10355a:	0f b7 40 02          	movzwl 0x2(%eax),%eax
  10355e:	0f b7 d0             	movzwl %ax,%edx
  103561:	a1 2c 41 10 00       	mov    0x10412c,%eax
  103566:	c7 44 24 08 10 00 00 	movl   $0x10,0x8(%esp)
  10356d:	00 
  10356e:	89 54 24 04          	mov    %edx,0x4(%esp)
  103572:	89 04 24             	mov    %eax,(%esp)
  103575:	e8 94 d1 ff ff       	call   10070e <_ZN5Print5printEii>
  10357a:	8b 45 14             	mov    0x14(%ebp),%eax
  10357d:	0f b6 40 0b          	movzbl 0xb(%eax),%eax
  103581:	0f b6 c0             	movzbl %al,%eax
  103584:	89 04 24             	mov    %eax,(%esp)
  103587:	e8 ff fd ff ff       	call   10338b <_Z18GetPCIDevClassNamej>
  10358c:	89 45 f4             	mov    %eax,-0xc(%ebp)
  10358f:	83 7d f4 00          	cmpl   $0x0,-0xc(%ebp)
  103593:	74 15                	je     1035aa <_Z17PrintPCIDevHeaderjjjP12PCIDevHeader+0x138>
  103595:	a1 2c 41 10 00       	mov    0x10412c,%eax
  10359a:	c7 44 24 04 1e 3e 10 	movl   $0x103e1e,0x4(%esp)
  1035a1:	00 
  1035a2:	89 04 24             	mov    %eax,(%esp)
  1035a5:	e8 fa d0 ff ff       	call   1006a4 <_ZN5Print5printEPKc>
  1035aa:	a1 2c 41 10 00       	mov    0x10412c,%eax
  1035af:	8b 55 f4             	mov    -0xc(%ebp),%edx
  1035b2:	89 54 24 04          	mov    %edx,0x4(%esp)
  1035b6:	89 04 24             	mov    %eax,(%esp)
  1035b9:	e8 e6 d0 ff ff       	call   1006a4 <_ZN5Print5printEPKc>
  1035be:	a1 2c 41 10 00       	mov    0x10412c,%eax
  1035c3:	89 04 24             	mov    %eax,(%esp)
  1035c6:	e8 a5 d2 ff ff       	call   100870 <_ZN5Print7printlnEv>
  1035cb:	c9                   	leave  
  1035cc:	c3                   	ret    

001035cd <_Z7PCIScanv>:
  1035cd:	55                   	push   %ebp
  1035ce:	89 e5                	mov    %esp,%ebp
  1035d0:	83 ec 38             	sub    $0x38,%esp
  1035d3:	c7 45 f4 00 00 00 00 	movl   $0x0,-0xc(%ebp)
  1035da:	e9 d8 00 00 00       	jmp    1036b7 <_Z7PCIScanv+0xea>
  1035df:	c7 45 f0 00 00 00 00 	movl   $0x0,-0x10(%ebp)
  1035e6:	e9 be 00 00 00       	jmp    1036a9 <_Z7PCIScanv+0xdc>
  1035eb:	c7 45 ec 00 00 00 00 	movl   $0x0,-0x14(%ebp)
  1035f2:	8b 55 f0             	mov    -0x10(%ebp),%edx
  1035f5:	8b 45 f4             	mov    -0xc(%ebp),%eax
  1035f8:	8d 4d dc             	lea    -0x24(%ebp),%ecx
  1035fb:	89 4c 24 0c          	mov    %ecx,0xc(%esp)
  1035ff:	8b 4d ec             	mov    -0x14(%ebp),%ecx
  103602:	89 4c 24 08          	mov    %ecx,0x8(%esp)
  103606:	89 54 24 04          	mov    %edx,0x4(%esp)
  10360a:	89 04 24             	mov    %eax,(%esp)
  10360d:	e8 cf fd ff ff       	call   1033e1 <_Z16ReadPCIDevHeaderjjjP12PCIDevHeader>
  103612:	85 c0                	test   %eax,%eax
  103614:	0f 95 c0             	setne  %al
  103617:	84 c0                	test   %al,%al
  103619:	0f 85 86 00 00 00    	jne    1036a5 <_Z7PCIScanv+0xd8>
  10361f:	8b 55 f0             	mov    -0x10(%ebp),%edx
  103622:	8b 45 f4             	mov    -0xc(%ebp),%eax
  103625:	8d 4d dc             	lea    -0x24(%ebp),%ecx
  103628:	89 4c 24 0c          	mov    %ecx,0xc(%esp)
  10362c:	8b 4d ec             	mov    -0x14(%ebp),%ecx
  10362f:	89 4c 24 08          	mov    %ecx,0x8(%esp)
  103633:	89 54 24 04          	mov    %edx,0x4(%esp)
  103637:	89 04 24             	mov    %eax,(%esp)
  10363a:	e8 33 fe ff ff       	call   103472 <_Z17PrintPCIDevHeaderjjjP12PCIDevHeader>
  10363f:	0f b6 45 ea          	movzbl -0x16(%ebp),%eax
  103643:	84 c0                	test   %al,%al
  103645:	79 5e                	jns    1036a5 <_Z7PCIScanv+0xd8>
  103647:	c7 45 ec 01 00 00 00 	movl   $0x1,-0x14(%ebp)
  10364e:	eb 4f                	jmp    10369f <_Z7PCIScanv+0xd2>
  103650:	8b 55 f0             	mov    -0x10(%ebp),%edx
  103653:	8b 45 f4             	mov    -0xc(%ebp),%eax
  103656:	8d 4d dc             	lea    -0x24(%ebp),%ecx
  103659:	89 4c 24 0c          	mov    %ecx,0xc(%esp)
  10365d:	8b 4d ec             	mov    -0x14(%ebp),%ecx
  103660:	89 4c 24 08          	mov    %ecx,0x8(%esp)
  103664:	89 54 24 04          	mov    %edx,0x4(%esp)
  103668:	89 04 24             	mov    %eax,(%esp)
  10366b:	e8 71 fd ff ff       	call   1033e1 <_Z16ReadPCIDevHeaderjjjP12PCIDevHeader>
  103670:	85 c0                	test   %eax,%eax
  103672:	0f 95 c0             	setne  %al
  103675:	84 c0                	test   %al,%al
  103677:	74 02                	je     10367b <_Z7PCIScanv+0xae>
  103679:	eb 20                	jmp    10369b <_Z7PCIScanv+0xce>
  10367b:	8b 55 f0             	mov    -0x10(%ebp),%edx
  10367e:	8b 45 f4             	mov    -0xc(%ebp),%eax
  103681:	8d 4d dc             	lea    -0x24(%ebp),%ecx
  103684:	89 4c 24 0c          	mov    %ecx,0xc(%esp)
  103688:	8b 4d ec             	mov    -0x14(%ebp),%ecx
  10368b:	89 4c 24 08          	mov    %ecx,0x8(%esp)
  10368f:	89 54 24 04          	mov    %edx,0x4(%esp)
  103693:	89 04 24             	mov    %eax,(%esp)
  103696:	e8 d7 fd ff ff       	call   103472 <_Z17PrintPCIDevHeaderjjjP12PCIDevHeader>
  10369b:	83 45 ec 01          	addl   $0x1,-0x14(%ebp)
  10369f:	83 7d ec 07          	cmpl   $0x7,-0x14(%ebp)
  1036a3:	76 ab                	jbe    103650 <_Z7PCIScanv+0x83>
  1036a5:	83 45 f0 01          	addl   $0x1,-0x10(%ebp)
  1036a9:	83 7d f0 1f          	cmpl   $0x1f,-0x10(%ebp)
  1036ad:	0f 8e 38 ff ff ff    	jle    1035eb <_Z7PCIScanv+0x1e>
  1036b3:	83 45 f4 01          	addl   $0x1,-0xc(%ebp)
  1036b7:	81 7d f4 fe 00 00 00 	cmpl   $0xfe,-0xc(%ebp)
  1036be:	0f 8e 1b ff ff ff    	jle    1035df <_Z7PCIScanv+0x12>
  1036c4:	c9                   	leave  
  1036c5:	c3                   	ret    

001036c6 <_Z5kmainv>:
  1036c6:	55                   	push   %ebp
  1036c7:	89 e5                	mov    %esp,%ebp
  1036c9:	83 ec 18             	sub    $0x18,%esp
  1036cc:	a1 2c 41 10 00       	mov    0x10412c,%eax
  1036d1:	c7 44 24 04 2b 3e 10 	movl   $0x103e2b,0x4(%esp)
  1036d8:	00 
  1036d9:	89 04 24             	mov    %eax,(%esp)
  1036dc:	e8 c3 cf ff ff       	call   1006a4 <_ZN5Print5printEPKc>
  1036e1:	e8 e7 fe ff ff       	call   1035cd <_Z7PCIScanv>
  1036e6:	c9                   	leave  
  1036e7:	c3                   	ret    

001036e8 <gdt_flush>:
  1036e8:	8b 44 24 04          	mov    0x4(%esp),%eax
  1036ec:	0f 01 10             	lgdtl  (%eax)
  1036ef:	66 b8 10 00          	mov    $0x10,%ax
  1036f3:	8e d8                	mov    %eax,%ds
  1036f5:	8e c0                	mov    %eax,%es
  1036f7:	8e e0                	mov    %eax,%fs
  1036f9:	8e e8                	mov    %eax,%gs
  1036fb:	8e d0                	mov    %eax,%ss
  1036fd:	ea 04 37 10 00 08 00 	ljmp   $0x8,$0x103704

00103704 <flush>:
  103704:	c3                   	ret    

00103705 <idt_flush>:
  103705:	8b 44 24 04          	mov    0x4(%esp),%eax
  103709:	0f 01 18             	lidtl  (%eax)
  10370c:	c3                   	ret    

0010370d <_Z16proc_length_initv>:
  10370d:	55                   	push   %ebp
  10370e:	89 e5                	mov    %esp,%ebp
  103710:	5d                   	pop    %ebp
  103711:	c3                   	ret    

00103712 <_ZL4outbth>:
  103712:	55                   	push   %ebp
  103713:	89 e5                	mov    %esp,%ebp
  103715:	83 ec 08             	sub    $0x8,%esp
  103718:	8b 55 08             	mov    0x8(%ebp),%edx
  10371b:	8b 45 0c             	mov    0xc(%ebp),%eax
  10371e:	66 89 55 fc          	mov    %dx,-0x4(%ebp)
  103722:	88 45 f8             	mov    %al,-0x8(%ebp)
  103725:	0f b7 55 fc          	movzwl -0x4(%ebp),%edx
  103729:	0f b6 45 f8          	movzbl -0x8(%ebp),%eax
  10372d:	ee                   	out    %al,(%dx)
  10372e:	c9                   	leave  
  10372f:	c3                   	ret    

00103730 <_ZL3inbt>:
  103730:	55                   	push   %ebp
  103731:	89 e5                	mov    %esp,%ebp
  103733:	83 ec 14             	sub    $0x14,%esp
  103736:	8b 45 08             	mov    0x8(%ebp),%eax
  103739:	66 89 45 ec          	mov    %ax,-0x14(%ebp)
  10373d:	0f b7 45 ec          	movzwl -0x14(%ebp),%eax
  103741:	89 c2                	mov    %eax,%edx
  103743:	ec                   	in     (%dx),%al
  103744:	88 45 ff             	mov    %al,-0x1(%ebp)
  103747:	0f b6 45 ff          	movzbl -0x1(%ebp),%eax
  10374b:	c9                   	leave  
  10374c:	c3                   	ret    

0010374d <_ZL29platform_abstract_irq_handlerP14interrupt_info>:
  10374d:	55                   	push   %ebp
  10374e:	89 e5                	mov    %esp,%ebp
  103750:	83 ec 08             	sub    $0x8,%esp
  103753:	8b 45 08             	mov    0x8(%ebp),%eax
  103756:	8b 40 24             	mov    0x24(%eax),%eax
  103759:	83 f8 27             	cmp    $0x27,%eax
  10375c:	76 14                	jbe    103772 <_ZL29platform_abstract_irq_handlerP14interrupt_info+0x25>
  10375e:	c7 44 24 04 20 00 00 	movl   $0x20,0x4(%esp)
  103765:	00 
  103766:	c7 04 24 a0 00 00 00 	movl   $0xa0,(%esp)
  10376d:	e8 a0 ff ff ff       	call   103712 <_ZL4outbth>
  103772:	8b 45 08             	mov    0x8(%ebp),%eax
  103775:	8b 40 24             	mov    0x24(%eax),%eax
  103778:	83 f8 1f             	cmp    $0x1f,%eax
  10377b:	76 14                	jbe    103791 <_ZL29platform_abstract_irq_handlerP14interrupt_info+0x44>
  10377d:	c7 44 24 04 20 00 00 	movl   $0x20,0x4(%esp)
  103784:	00 
  103785:	c7 04 24 20 00 00 00 	movl   $0x20,(%esp)
  10378c:	e8 81 ff ff ff       	call   103712 <_ZL4outbth>
  103791:	c9                   	leave  
  103792:	c3                   	ret    

00103793 <isr_handler>:
  103793:	55                   	push   %ebp
  103794:	89 e5                	mov    %esp,%ebp
  103796:	83 ec 48             	sub    $0x48,%esp
  103799:	8b 45 08             	mov    0x8(%ebp),%eax
  10379c:	89 04 24             	mov    %eax,(%esp)
  10379f:	8b 45 0c             	mov    0xc(%ebp),%eax
  1037a2:	89 44 24 04          	mov    %eax,0x4(%esp)
  1037a6:	8b 45 10             	mov    0x10(%ebp),%eax
  1037a9:	89 44 24 08          	mov    %eax,0x8(%esp)
  1037ad:	8b 45 14             	mov    0x14(%ebp),%eax
  1037b0:	89 44 24 0c          	mov    %eax,0xc(%esp)
  1037b4:	8b 45 18             	mov    0x18(%ebp),%eax
  1037b7:	89 44 24 10          	mov    %eax,0x10(%esp)
  1037bb:	8b 45 1c             	mov    0x1c(%ebp),%eax
  1037be:	89 44 24 14          	mov    %eax,0x14(%esp)
  1037c2:	8b 45 20             	mov    0x20(%ebp),%eax
  1037c5:	89 44 24 18          	mov    %eax,0x18(%esp)
  1037c9:	8b 45 24             	mov    0x24(%ebp),%eax
  1037cc:	89 44 24 1c          	mov    %eax,0x1c(%esp)
  1037d0:	8b 45 28             	mov    0x28(%ebp),%eax
  1037d3:	89 44 24 20          	mov    %eax,0x20(%esp)
  1037d7:	8b 45 2c             	mov    0x2c(%ebp),%eax
  1037da:	89 44 24 24          	mov    %eax,0x24(%esp)
  1037de:	8b 45 30             	mov    0x30(%ebp),%eax
  1037e1:	89 44 24 28          	mov    %eax,0x28(%esp)
  1037e5:	8b 45 34             	mov    0x34(%ebp),%eax
  1037e8:	89 44 24 2c          	mov    %eax,0x2c(%esp)
  1037ec:	8b 45 38             	mov    0x38(%ebp),%eax
  1037ef:	89 44 24 30          	mov    %eax,0x30(%esp)
  1037f3:	8b 45 3c             	mov    0x3c(%ebp),%eax
  1037f6:	89 44 24 34          	mov    %eax,0x34(%esp)
  1037fa:	8b 45 40             	mov    0x40(%ebp),%eax
  1037fd:	89 44 24 38          	mov    %eax,0x38(%esp)
  103801:	8b 45 44             	mov    0x44(%ebp),%eax
  103804:	89 44 24 3c          	mov    %eax,0x3c(%esp)
  103808:	e8 a6 d6 ff ff       	call   100eb3 <abstract_irq_controller>
  10380d:	c9                   	leave  
  10380e:	c3                   	ret    

0010380f <boot>:
  10380f:	fa                   	cli    
  103810:	53                   	push   %ebx
  103811:	e8 a5 c8 ff ff       	call   1000bb <main>
  103816:	f4                   	hlt    

00103817 <loop>:
  103817:	eb fe                	jmp    103817 <loop>

00103819 <isr0>:
  103819:	fa                   	cli    
  10381a:	6a 00                	push   $0x0
  10381c:	6a 00                	push   $0x0
  10381e:	e9 91 01 00 00       	jmp    1039b4 <isr_common_stub>

00103823 <isr1>:
  103823:	fa                   	cli    
  103824:	6a 00                	push   $0x0
  103826:	6a 01                	push   $0x1
  103828:	e9 87 01 00 00       	jmp    1039b4 <isr_common_stub>

0010382d <isr2>:
  10382d:	fa                   	cli    
  10382e:	6a 00                	push   $0x0
  103830:	6a 02                	push   $0x2
  103832:	e9 7d 01 00 00       	jmp    1039b4 <isr_common_stub>

00103837 <isr3>:
  103837:	fa                   	cli    
  103838:	6a 00                	push   $0x0
  10383a:	6a 03                	push   $0x3
  10383c:	e9 73 01 00 00       	jmp    1039b4 <isr_common_stub>

00103841 <isr4>:
  103841:	fa                   	cli    
  103842:	6a 00                	push   $0x0
  103844:	6a 04                	push   $0x4
  103846:	e9 69 01 00 00       	jmp    1039b4 <isr_common_stub>

0010384b <isr5>:
  10384b:	fa                   	cli    
  10384c:	6a 00                	push   $0x0
  10384e:	6a 05                	push   $0x5
  103850:	e9 5f 01 00 00       	jmp    1039b4 <isr_common_stub>

00103855 <isr6>:
  103855:	fa                   	cli    
  103856:	6a 00                	push   $0x0
  103858:	6a 06                	push   $0x6
  10385a:	e9 55 01 00 00       	jmp    1039b4 <isr_common_stub>

0010385f <isr7>:
  10385f:	fa                   	cli    
  103860:	6a 00                	push   $0x0
  103862:	6a 07                	push   $0x7
  103864:	e9 4b 01 00 00       	jmp    1039b4 <isr_common_stub>

00103869 <isr8>:
  103869:	fa                   	cli    
  10386a:	6a 08                	push   $0x8
  10386c:	e9 43 01 00 00       	jmp    1039b4 <isr_common_stub>

00103871 <isr9>:
  103871:	fa                   	cli    
  103872:	6a 00                	push   $0x0
  103874:	6a 09                	push   $0x9
  103876:	e9 39 01 00 00       	jmp    1039b4 <isr_common_stub>

0010387b <isr10>:
  10387b:	fa                   	cli    
  10387c:	6a 0a                	push   $0xa
  10387e:	e9 31 01 00 00       	jmp    1039b4 <isr_common_stub>

00103883 <isr11>:
  103883:	fa                   	cli    
  103884:	6a 0b                	push   $0xb
  103886:	e9 29 01 00 00       	jmp    1039b4 <isr_common_stub>

0010388b <isr12>:
  10388b:	fa                   	cli    
  10388c:	6a 0c                	push   $0xc
  10388e:	e9 21 01 00 00       	jmp    1039b4 <isr_common_stub>

00103893 <isr13>:
  103893:	fa                   	cli    
  103894:	6a 0d                	push   $0xd
  103896:	e9 19 01 00 00       	jmp    1039b4 <isr_common_stub>

0010389b <isr14>:
  10389b:	fa                   	cli    
  10389c:	6a 0e                	push   $0xe
  10389e:	e9 11 01 00 00       	jmp    1039b4 <isr_common_stub>

001038a3 <isr15>:
  1038a3:	fa                   	cli    
  1038a4:	6a 00                	push   $0x0
  1038a6:	6a 0f                	push   $0xf
  1038a8:	e9 07 01 00 00       	jmp    1039b4 <isr_common_stub>

001038ad <isr16>:
  1038ad:	fa                   	cli    
  1038ae:	6a 00                	push   $0x0
  1038b0:	6a 10                	push   $0x10
  1038b2:	e9 fd 00 00 00       	jmp    1039b4 <isr_common_stub>

001038b7 <isr17>:
  1038b7:	fa                   	cli    
  1038b8:	6a 00                	push   $0x0
  1038ba:	6a 11                	push   $0x11
  1038bc:	e9 f3 00 00 00       	jmp    1039b4 <isr_common_stub>

001038c1 <isr18>:
  1038c1:	fa                   	cli    
  1038c2:	6a 00                	push   $0x0
  1038c4:	6a 12                	push   $0x12
  1038c6:	e9 e9 00 00 00       	jmp    1039b4 <isr_common_stub>

001038cb <isr19>:
  1038cb:	fa                   	cli    
  1038cc:	6a 00                	push   $0x0
  1038ce:	6a 13                	push   $0x13
  1038d0:	e9 df 00 00 00       	jmp    1039b4 <isr_common_stub>

001038d5 <isr20>:
  1038d5:	fa                   	cli    
  1038d6:	6a 00                	push   $0x0
  1038d8:	6a 14                	push   $0x14
  1038da:	e9 d5 00 00 00       	jmp    1039b4 <isr_common_stub>

001038df <isr21>:
  1038df:	fa                   	cli    
  1038e0:	6a 00                	push   $0x0
  1038e2:	6a 15                	push   $0x15
  1038e4:	e9 cb 00 00 00       	jmp    1039b4 <isr_common_stub>

001038e9 <isr22>:
  1038e9:	fa                   	cli    
  1038ea:	6a 00                	push   $0x0
  1038ec:	6a 16                	push   $0x16
  1038ee:	e9 c1 00 00 00       	jmp    1039b4 <isr_common_stub>

001038f3 <isr23>:
  1038f3:	fa                   	cli    
  1038f4:	6a 00                	push   $0x0
  1038f6:	6a 17                	push   $0x17
  1038f8:	e9 b7 00 00 00       	jmp    1039b4 <isr_common_stub>

001038fd <isr24>:
  1038fd:	fa                   	cli    
  1038fe:	6a 00                	push   $0x0
  103900:	6a 18                	push   $0x18
  103902:	e9 ad 00 00 00       	jmp    1039b4 <isr_common_stub>

00103907 <isr25>:
  103907:	fa                   	cli    
  103908:	6a 00                	push   $0x0
  10390a:	6a 19                	push   $0x19
  10390c:	e9 a3 00 00 00       	jmp    1039b4 <isr_common_stub>

00103911 <isr26>:
  103911:	fa                   	cli    
  103912:	6a 00                	push   $0x0
  103914:	6a 1a                	push   $0x1a
  103916:	e9 99 00 00 00       	jmp    1039b4 <isr_common_stub>

0010391b <isr27>:
  10391b:	fa                   	cli    
  10391c:	6a 00                	push   $0x0
  10391e:	6a 1b                	push   $0x1b
  103920:	e9 8f 00 00 00       	jmp    1039b4 <isr_common_stub>

00103925 <isr28>:
  103925:	fa                   	cli    
  103926:	6a 00                	push   $0x0
  103928:	6a 1c                	push   $0x1c
  10392a:	e9 85 00 00 00       	jmp    1039b4 <isr_common_stub>

0010392f <isr29>:
  10392f:	fa                   	cli    
  103930:	6a 00                	push   $0x0
  103932:	6a 1d                	push   $0x1d
  103934:	eb 7e                	jmp    1039b4 <isr_common_stub>

00103936 <isr30>:
  103936:	fa                   	cli    
  103937:	6a 00                	push   $0x0
  103939:	6a 1e                	push   $0x1e
  10393b:	eb 77                	jmp    1039b4 <isr_common_stub>

0010393d <isr31>:
  10393d:	fa                   	cli    
  10393e:	6a 00                	push   $0x0
  103940:	6a 1f                	push   $0x1f
  103942:	eb 70                	jmp    1039b4 <isr_common_stub>

00103944 <isr32>:
  103944:	fa                   	cli    
  103945:	6a 00                	push   $0x0
  103947:	6a 20                	push   $0x20
  103949:	eb 69                	jmp    1039b4 <isr_common_stub>

0010394b <isr33>:
  10394b:	fa                   	cli    
  10394c:	6a 00                	push   $0x0
  10394e:	6a 21                	push   $0x21
  103950:	eb 62                	jmp    1039b4 <isr_common_stub>

00103952 <isr34>:
  103952:	fa                   	cli    
  103953:	6a 00                	push   $0x0
  103955:	6a 22                	push   $0x22
  103957:	eb 5b                	jmp    1039b4 <isr_common_stub>

00103959 <isr35>:
  103959:	fa                   	cli    
  10395a:	6a 00                	push   $0x0
  10395c:	6a 23                	push   $0x23
  10395e:	eb 54                	jmp    1039b4 <isr_common_stub>

00103960 <isr36>:
  103960:	fa                   	cli    
  103961:	6a 00                	push   $0x0
  103963:	6a 24                	push   $0x24
  103965:	eb 4d                	jmp    1039b4 <isr_common_stub>

00103967 <isr37>:
  103967:	fa                   	cli    
  103968:	6a 00                	push   $0x0
  10396a:	6a 25                	push   $0x25
  10396c:	eb 46                	jmp    1039b4 <isr_common_stub>

0010396e <isr38>:
  10396e:	fa                   	cli    
  10396f:	6a 00                	push   $0x0
  103971:	6a 26                	push   $0x26
  103973:	eb 3f                	jmp    1039b4 <isr_common_stub>

00103975 <isr39>:
  103975:	fa                   	cli    
  103976:	6a 00                	push   $0x0
  103978:	6a 27                	push   $0x27
  10397a:	eb 38                	jmp    1039b4 <isr_common_stub>

0010397c <isr40>:
  10397c:	fa                   	cli    
  10397d:	6a 00                	push   $0x0
  10397f:	6a 28                	push   $0x28
  103981:	eb 31                	jmp    1039b4 <isr_common_stub>

00103983 <isr41>:
  103983:	fa                   	cli    
  103984:	6a 00                	push   $0x0
  103986:	6a 29                	push   $0x29
  103988:	eb 2a                	jmp    1039b4 <isr_common_stub>

0010398a <isr42>:
  10398a:	fa                   	cli    
  10398b:	6a 00                	push   $0x0
  10398d:	6a 2a                	push   $0x2a
  10398f:	eb 23                	jmp    1039b4 <isr_common_stub>

00103991 <isr43>:
  103991:	fa                   	cli    
  103992:	6a 00                	push   $0x0
  103994:	6a 2b                	push   $0x2b
  103996:	eb 1c                	jmp    1039b4 <isr_common_stub>

00103998 <isr44>:
  103998:	fa                   	cli    
  103999:	6a 00                	push   $0x0
  10399b:	6a 2c                	push   $0x2c
  10399d:	eb 15                	jmp    1039b4 <isr_common_stub>

0010399f <isr45>:
  10399f:	fa                   	cli    
  1039a0:	6a 00                	push   $0x0
  1039a2:	6a 2d                	push   $0x2d
  1039a4:	eb 0e                	jmp    1039b4 <isr_common_stub>

001039a6 <isr46>:
  1039a6:	fa                   	cli    
  1039a7:	6a 00                	push   $0x0
  1039a9:	6a 2e                	push   $0x2e
  1039ab:	eb 07                	jmp    1039b4 <isr_common_stub>

001039ad <isr47>:
  1039ad:	fa                   	cli    
  1039ae:	6a 00                	push   $0x0
  1039b0:	6a 2f                	push   $0x2f
  1039b2:	eb 00                	jmp    1039b4 <isr_common_stub>

001039b4 <isr_common_stub>:
  1039b4:	60                   	pusha  
  1039b5:	66 8c d8             	mov    %ds,%ax
  1039b8:	50                   	push   %eax
  1039b9:	66 b8 10 00          	mov    $0x10,%ax
  1039bd:	8e d8                	mov    %eax,%ds
  1039bf:	8e c0                	mov    %eax,%es
  1039c1:	8e e0                	mov    %eax,%fs
  1039c3:	8e e8                	mov    %eax,%gs
  1039c5:	e8 e9 d4 ff ff       	call   100eb3 <abstract_irq_controller>
  1039ca:	58                   	pop    %eax
  1039cb:	8e d8                	mov    %eax,%ds
  1039cd:	8e c0                	mov    %eax,%es
  1039cf:	8e e0                	mov    %eax,%fs
  1039d1:	8e e8                	mov    %eax,%gs
  1039d3:	61                   	popa   
  1039d4:	83 c4 08             	add    $0x8,%esp
  1039d7:	fb                   	sti    
  1039d8:	cf                   	iret   
  1039d9:	48                   	dec    %eax
  1039da:	65                   	gs
  1039db:	6c                   	insb   (%dx),%es:(%edi)
  1039dc:	6c                   	insb   (%dx),%es:(%edi)
  1039dd:	6f                   	outsl  %ds:(%esi),(%dx)
  1039de:	57                   	push   %edi
  1039df:	6f                   	outsl  %ds:(%esi),(%dx)
  1039e0:	72 6c                	jb     103a4e <isr_common_stub+0x9a>
  1039e2:	64 00 0c 02          	add    %cl,%fs:(%edx,%eax,1)
  1039e6:	10 00                	adc    %al,(%eax)
  1039e8:	12 02                	adc    (%edx),%al
  1039ea:	10 00                	adc    %al,(%eax)
  1039ec:	18 02                	sbb    %al,(%edx)
  1039ee:	10 00                	adc    %al,(%eax)
  1039f0:	1e                   	push   %ds
  1039f1:	02 10                	add    (%eax),%dl
  1039f3:	00 24 02             	add    %ah,(%edx,%eax,1)
  1039f6:	10 00                	adc    %al,(%eax)
  1039f8:	2a 02                	sub    (%edx),%al
  1039fa:	10 00                	adc    %al,(%eax)
  1039fc:	30 02                	xor    %al,(%edx)
  1039fe:	10 00                	adc    %al,(%eax)
  103a00:	36 02 10             	add    %ss:(%eax),%dl
  103a03:	00 3c 02             	add    %bh,(%edx,%eax,1)
  103a06:	10 00                	adc    %al,(%eax)
  103a08:	42                   	inc    %edx
  103a09:	02 10                	add    (%eax),%dl
  103a0b:	00 48 02             	add    %cl,0x2(%eax)
  103a0e:	10 00                	adc    %al,(%eax)
  103a10:	4e                   	dec    %esi
  103a11:	02 10                	add    (%eax),%dl
  103a13:	00 54 02 10          	add    %dl,0x10(%edx,%eax,1)
  103a17:	00 5a 02             	add    %bl,0x2(%edx)
  103a1a:	10 00                	adc    %al,(%eax)
  103a1c:	60                   	pusha  
  103a1d:	02 10                	add    (%eax),%dl
  103a1f:	00 66 02             	add    %ah,0x2(%esi)
  103a22:	10 00                	adc    %al,(%eax)
  103a24:	3a 20                	cmp    (%eax),%ah
  103a26:	00 7c 00 0a          	add    %bh,0xa(%eax,%eax,1)
  103a2a:	00 20                	add    %ah,(%eax)
  103a2c:	00 3e                	add    %bh,(%esi)
  103a2e:	3e                   	ds
  103a2f:	53                   	push   %ebx
  103a30:	59                   	pop    %ecx
  103a31:	53                   	push   %ebx
  103a32:	54                   	push   %esp
  103a33:	45                   	inc    %ebp
  103a34:	4d                   	dec    %ebp
  103a35:	20 45 52             	and    %al,0x52(%ebp)
  103a38:	52                   	push   %edx
  103a39:	4f                   	dec    %edi
  103a3a:	52                   	push   %edx
  103a3b:	3a 00                	cmp    (%eax),%al
  103a3d:	0d 0a 00 6f 76       	or     $0x766f000a,%eax
  103a42:	66                   	data16
  103a43:	00 2e                	add    %ch,(%esi)
  103a45:	00 00                	add    %al,(%eax)
  103a47:	00 00                	add    %al,(%eax)
  103a49:	00 00                	add    %al,(%eax)
  103a4b:	e0 ff                	loopne 103a4c <isr_common_stub+0x98>
  103a4d:	ff ef                	ljmp   *<internal disassembler error>
  103a4f:	41                   	inc    %ecx
  103a50:	00 00                	add    %al,(%eax)
  103a52:	00 e0                	add    %ah,%al
  103a54:	ff                   	(bad)  
  103a55:	ff ef                	ljmp   *<internal disassembler error>
  103a57:	c1 00 00             	roll   $0x0,(%eax)
  103a5a:	00 00                	add    %al,(%eax)
  103a5c:	00 00                	add    %al,(%eax)
  103a5e:	e0 3f                	loopne 103a9f <_ZTV5Print+0x37>
  103a60:	00 00                	add    %al,(%eax)
  103a62:	00 00                	add    %al,(%eax)
  103a64:	00 00                	add    %al,(%eax)
  103a66:	24 40                	and    $0x40,%al

00103a68 <_ZTV5Print>:
	...
  103a70:	8d 00 10 00 e8 05 10 00 3e 3e 41 49 43 5f 55 4e     ........>>AIC_UN
  103a80:	44 45 46 49 4e 45 44 5f 49 52 51 3a 20 69 72 71     DEFINED_IRQ: irq
  103a90:	5f 6e 75 6d 3a 00 0d 0a 00 00 00 00 61 62 73 74     _num:.......abst
  103aa0:	72 61 63 74 5f 69 72 71 5f 63 6f 6e 74 72 6f 6c     ract_irq_control
  103ab0:	6c 65 72 5f 53 74 75 62 49 52 51 00 61 69 63 20     ler_StubIRQ.aic 
  103ac0:	68 61 73 20 62 65 65 6e 20 63 61 6c 6c 65 64 2c     has been called,
  103ad0:	20 62 75 74 20 6e 6f 74 20 69 6e 69 74 00 66 90      but not init.f.
  103ae0:	63 61 6c 6c 20 63 6f 6e 73 74 72 3a 00 0d 0a 00     call constr:....
  103af0:	3e 3e 43 41 4c 4c 20 47 4c 4f 42 41 4c 20 43 4f     >>CALL GLOBAL CO
  103b00:	4e 53 54 52 55 43 54 4f 52 53 0d 0a 00 63 6f 6e     NSTRUCTORS...con
  103b10:	73 74 72 20 63 61 6c 6c 3a 0d 0a 00 63 6f 6e 73     str call:...cons
  103b20:	74 72 20 63 61 6c 6c 20 4f 4b 0d 0a 00 00 00 00     tr call OK......
  103b30:	67 6c 6f 62 61 6c 20 63 6f 6e 73 74 72 75 63 74     global construct
  103b40:	6f 72 73 20 73 75 63 63 65 73 66 75 61 6c 79 20     ors succesfualy 
  103b50:	63 61 6c 6c 65 64 2e 2e 2e 0d 0a 00 3e 3e 42 53     called......>>BS
  103b60:	53 5f 43 4c 45 41 4e 2e 2e 2e 20 20 20 00 4f 4b     S_CLEAN...   .OK
  103b70:	0d 0a 00 3e 3e 42 53 53 5f 54 45 53 54 3a 0d 0a     ...>>BSS_TEST:..
  103b80:	00 62 73 73 5f 6c 65 6e 67 74 68 3a 00 00 00 00     .bss_length:....
  103b90:	73 63 61 6e 20 62 73 73 5f 73 65 63 74 69 6f 6e     scan bss_section
  103ba0:	20 28 61 6c 6c 20 6e 6f 6e 4e 75 6c 6c 20 62 79      (all nonNull by
  103bb0:	74 65 73 20 68 61 73 20 62 65 65 6e 20 70 72 69     tes has been pri
  103bc0:	6e 74 65 64 29 20 2e 2e 2e 2e 2e 2e 2e 0d 0a 00     nted) ..........
  103bd0:	3a 00 00 00 2a 2a 2a 2a 2a 2a 2a 2a 2a 2a 2a 2a     :...************
  103be0:	2a 2a 2a 2a 2a 2a 2a 2a 2a 2a 2a 2a 2a 20 65 6e     ************* en
  103bf0:	64 20 73 63 61 6e 0d 0a 74 6f 74 61 6c 20 73 63     d scan..total sc
  103c00:	61 6e 65 64 3a 00 0d 0a 74 6f 74 61 6c 20 6e 6f     aned:...total no
  103c10:	6e 4e 75 6c 6c 3a 00 62 73 73 5f 74 65 73 74 5f     nNull:.bss_test_
  103c20:	65 6e 64 0d 0a 00 00 00 3e 3e 53 45 43 54 49 4f     end.....>>SECTIO
  103c30:	4e 53 20 41 4e 44 20 43 4f 4e 53 54 52 55 43 54     NS AND CONSTRUCT
  103c40:	4f 52 53 20 49 4e 46 4f 3a 0d 0a 00 5f 74 65 78     ORS INFO:..._tex
  103c50:	74 5f 62 65 67 69 6e 20 3a 00 5f 74 65 78 74 5f     t_begin :._text_
  103c60:	65 6e 64 20 20 20 3a 00 5f 64 61 74 61 5f 62 65     end   :._data_be
  103c70:	67 69 6e 20 3a 00 5f 64 61 74 61 5f 65 6e 64 20     gin :._data_end 
  103c80:	20 20 3a 00 5f 62 73 73 5f 62 65 67 69 6e 20 20       :._bss_begin  
  103c90:	3a 00 5f 62 73 73 5f 65 6e 64 20 20 20 20 3a 00     :._bss_end    :.
  103ca0:	43 6f 6e 73 74 72 75 63 74 6f 72 20 69 6e 66 6f     Constructor info
  103cb0:	3a 0d 0a 00 5f 5f 70 72 65 69 6e 69 74 5f 61 72     :...__preinit_ar
  103cc0:	72 61 79 5f 73 74 61 72 74 3a 00 5f 5f 70 72 65     ray_start:.__pre
  103cd0:	69 6e 69 74 5f 61 72 72 61 79 5f 65 6e 64 20 20     init_array_end  
  103ce0:	3a 00 5f 5f 69 6e 69 74 5f 61 72 72 61 79 5f 73     :.__init_array_s
  103cf0:	74 61 72 74 20 20 20 3a 00 5f 5f 69 6e 69 74 5f     tart   :.__init_
  103d00:	61 72 72 61 79 5f 65 6e 64 20 20 20 20 20 3a 00     array_end     :.
  103d10:	5f 63 74 6f 72 5f 73 74 61 72 74 20 20 20 20 20     _ctor_start     
  103d20:	20 20 20 20 20 3a 00 5f 63 74 6f 72 5f 65 6e 64          :._ctor_end
  103d30:	20 20 20 20 20 20 20 20 20 20 20 20 3a 00 66 90                 :.f.

00103d40 <_ZTV12staticring_t>:
	...
  103d48:	6e 1d 10 00 00 1d 10 00 e2 1d 10 00 0e 1e 10 00     n...............

00103d58 <_ZTV7Queue_p>:
	...
  103d60:	8d 00 10 00 8d 00 10 00 8d 00 10 00 8d 00 10 00     ................
  103d70:	3e 3e 50 4c 41 54 46 4f 52 4d 5f 49 4e 49 54 0d     >>PLATFORM_INIT.
  103d80:	0a 00 50 4c 41 54 46 4f 52 4d 3a 00 50 43 5f 6d     ..PLATFORM:.PC_m
  103d90:	75 6c 74 69 62 6f 6f 74 00 0d 0a 00 43 50 55 3a     ultiboot....CPU:
  103da0:	00 69 33 38 36 00 66 90 53 74 75 62 49 52 51 00     .i386.f.StubIRQ.
  103db0:	47 6c 6f 62 61 6c 20 44 65 73 63 72 69 70 74 6f     Global Descripto
  103dc0:	72 73 20 54 61 62 6c 65 20 47 44 54 3a 0a 00 0d     rs Table GDT:...
  103dd0:	0a 00 00 00 47 6c 6f 62 61 6c 20 44 65 73 63 72     ....Global Descr
  103de0:	69 70 74 6f 72 73 20 54 61 62 6c 65 20 49 44 54     iptors Table IDT
  103df0:	20 28 62 65 67 69 6e 29 3a 0a 00 62 75 73 3d 00      (begin):..bus=.
  103e00:	20 64 65 76 3d 00 20 66 75 6e 63 3d 00 20 76 65      dev=. func=. ve
  103e10:	6e 64 49 44 3d 00 20 64 65 76 49 44 3d 00 20 63     ndID=. devID=. c
  103e20:	6c 61 73 73 5f 6e 61 6d 65 3d 00 0a 3e 3e 3e 20     lass_name=..>>> 
  103e30:	6b 6d 61 69 6e 21 0a 00                             kmain!..

00103e38 <__init_array_start>:
  103e38:	9f                   	lahf   
  103e39:	01 10                	add    %edx,(%eax)
	...
