
kernel:     формат файла elf32-i386


Дизассемблирование раздела .text:

00100000 <_start-0xc>:
  100000:	02 b0 ad 1b 01 00    	add    0x11bad(%eax),%dh
  100006:	00 00                	add    %al,(%eax)
  100008:	fd                   	std    
  100009:	4f                   	dec    %edi
  10000a:	52                   	push   %edx
  10000b:	e4 31                	in     $0x31,%al

0010000c <_start>:
  10000c:	31 ed                	xor    %ebp,%ebp
  10000e:	5e                   	pop    %esi
  10000f:	89 e1                	mov    %esp,%ecx
  100011:	83 e4 f0             	and    $0xfffffff0,%esp
  100014:	50                   	push   %eax
  100015:	54                   	push   %esp
  100016:	52                   	push   %edx
  100017:	68 e0 54 10 00       	push   $0x1054e0
  10001c:	68 70 54 10 00       	push   $0x105470
  100021:	51                   	push   %ecx
  100022:	56                   	push   %esi
  100023:	68 d4 01 10 00       	push   $0x1001d4
  100028:	e8 43 5f 00 00       	call   105f70 <__fini_array_end+0x3c>
  10002d:	f4                   	hlt    
  10002e:	66 90                	xchg   %ax,%ax

00100030 <__x86.get_pc_thunk.bx>:
  100030:	8b 1c 24             	mov    (%esp),%ebx
  100033:	c3                   	ret    
  100034:	66 90                	xchg   %ax,%ax
  100036:	66 90                	xchg   %ax,%ax
  100038:	66 90                	xchg   %ax,%ax
  10003a:	66 90                	xchg   %ax,%ax
  10003c:	66 90                	xchg   %ax,%ax
  10003e:	66 90                	xchg   %ax,%ax

00100040 <deregister_tm_clones>:
  100040:	b8 ff 86 10 00       	mov    $0x1086ff,%eax
  100045:	2d fc 86 10 00       	sub    $0x1086fc,%eax
  10004a:	83 f8 06             	cmp    $0x6,%eax
  10004d:	77 01                	ja     100050 <deregister_tm_clones+0x10>
  10004f:	c3                   	ret    
  100050:	b8 00 00 00 00       	mov    $0x0,%eax
  100055:	85 c0                	test   %eax,%eax
  100057:	74 f6                	je     10004f <deregister_tm_clones+0xf>
  100059:	55                   	push   %ebp
  10005a:	89 e5                	mov    %esp,%ebp
  10005c:	83 ec 18             	sub    $0x18,%esp
  10005f:	c7 04 24 fc 86 10 00 	movl   $0x1086fc,(%esp)
  100066:	ff d0                	call   *%eax
  100068:	c9                   	leave  
  100069:	c3                   	ret    
  10006a:	8d b6 00 00 00 00    	lea    0x0(%esi),%esi

00100070 <register_tm_clones>:
  100070:	b8 fc 86 10 00       	mov    $0x1086fc,%eax
  100075:	2d fc 86 10 00       	sub    $0x1086fc,%eax
  10007a:	c1 f8 02             	sar    $0x2,%eax
  10007d:	89 c2                	mov    %eax,%edx
  10007f:	c1 ea 1f             	shr    $0x1f,%edx
  100082:	01 d0                	add    %edx,%eax
  100084:	d1 f8                	sar    %eax
  100086:	75 01                	jne    100089 <register_tm_clones+0x19>
  100088:	c3                   	ret    
  100089:	ba 00 00 00 00       	mov    $0x0,%edx
  10008e:	85 d2                	test   %edx,%edx
  100090:	74 f6                	je     100088 <register_tm_clones+0x18>
  100092:	55                   	push   %ebp
  100093:	89 e5                	mov    %esp,%ebp
  100095:	83 ec 18             	sub    $0x18,%esp
  100098:	89 44 24 04          	mov    %eax,0x4(%esp)
  10009c:	c7 04 24 fc 86 10 00 	movl   $0x1086fc,(%esp)
  1000a3:	ff d2                	call   *%edx
  1000a5:	c9                   	leave  
  1000a6:	c3                   	ret    
  1000a7:	89 f6                	mov    %esi,%esi
  1000a9:	8d bc 27 00 00 00 00 	lea    0x0(%edi,%eiz,1),%edi

001000b0 <__do_global_dtors_aux>:
  1000b0:	80 3d 00 87 10 00 00 	cmpb   $0x0,0x108700
  1000b7:	75 13                	jne    1000cc <__do_global_dtors_aux+0x1c>
  1000b9:	55                   	push   %ebp
  1000ba:	89 e5                	mov    %esp,%ebp
  1000bc:	83 ec 08             	sub    $0x8,%esp
  1000bf:	e8 7c ff ff ff       	call   100040 <deregister_tm_clones>
  1000c4:	c6 05 00 87 10 00 01 	movb   $0x1,0x108700
  1000cb:	c9                   	leave  
  1000cc:	f3 c3                	repz ret 
  1000ce:	66 90                	xchg   %ax,%ax

001000d0 <frame_dummy>:
  1000d0:	a1 f8 86 10 00       	mov    0x1086f8,%eax
  1000d5:	85 c0                	test   %eax,%eax
  1000d7:	74 1f                	je     1000f8 <frame_dummy+0x28>
  1000d9:	b8 00 00 00 00       	mov    $0x0,%eax
  1000de:	85 c0                	test   %eax,%eax
  1000e0:	74 16                	je     1000f8 <frame_dummy+0x28>
  1000e2:	55                   	push   %ebp
  1000e3:	89 e5                	mov    %esp,%ebp
  1000e5:	83 ec 18             	sub    $0x18,%esp
  1000e8:	c7 04 24 f8 86 10 00 	movl   $0x1086f8,(%esp)
  1000ef:	ff d0                	call   *%eax
  1000f1:	c9                   	leave  
  1000f2:	e9 79 ff ff ff       	jmp    100070 <register_tm_clones>
  1000f7:	90                   	nop
  1000f8:	e9 73 ff ff ff       	jmp    100070 <register_tm_clones>

001000fd <_ZL4outbth>:
  1000fd:	55                   	push   %ebp
  1000fe:	89 e5                	mov    %esp,%ebp
  100100:	83 ec 08             	sub    $0x8,%esp
  100103:	8b 55 08             	mov    0x8(%ebp),%edx
  100106:	8b 45 0c             	mov    0xc(%ebp),%eax
  100109:	66 89 55 fc          	mov    %dx,-0x4(%ebp)
  10010d:	88 45 f8             	mov    %al,-0x8(%ebp)
  100110:	0f b7 55 fc          	movzwl -0x4(%ebp),%edx
  100114:	0f b6 45 f8          	movzbl -0x8(%ebp),%eax
  100118:	ee                   	out    %al,(%dx)
  100119:	c9                   	leave  
  10011a:	c3                   	ret    

0010011b <_ZL3inbt>:
  10011b:	55                   	push   %ebp
  10011c:	89 e5                	mov    %esp,%ebp
  10011e:	83 ec 14             	sub    $0x14,%esp
  100121:	8b 45 08             	mov    0x8(%ebp),%eax
  100124:	66 89 45 ec          	mov    %ax,-0x14(%ebp)
  100128:	0f b7 45 ec          	movzwl -0x14(%ebp),%eax
  10012c:	89 c2                	mov    %eax,%edx
  10012e:	ec                   	in     (%dx),%al
  10012f:	88 45 ff             	mov    %al,-0x1(%ebp)
  100132:	0f b6 45 ff          	movzbl -0x1(%ebp),%eax
  100136:	c9                   	leave  
  100137:	c3                   	ret    

00100138 <_ZL29platform_abstract_irq_handlerP14interrupt_info>:
  100138:	55                   	push   %ebp
  100139:	89 e5                	mov    %esp,%ebp
  10013b:	83 ec 08             	sub    $0x8,%esp
  10013e:	8b 45 08             	mov    0x8(%ebp),%eax
  100141:	8b 40 24             	mov    0x24(%eax),%eax
  100144:	83 f8 27             	cmp    $0x27,%eax
  100147:	76 14                	jbe    10015d <_ZL29platform_abstract_irq_handlerP14interrupt_info+0x25>
  100149:	c7 44 24 04 20 00 00 	movl   $0x20,0x4(%esp)
  100150:	00 
  100151:	c7 04 24 a0 00 00 00 	movl   $0xa0,(%esp)
  100158:	e8 a0 ff ff ff       	call   1000fd <_ZL4outbth>
  10015d:	8b 45 08             	mov    0x8(%ebp),%eax
  100160:	8b 40 24             	mov    0x24(%eax),%eax
  100163:	83 f8 1f             	cmp    $0x1f,%eax
  100166:	76 14                	jbe    10017c <_ZL29platform_abstract_irq_handlerP14interrupt_info+0x44>
  100168:	c7 44 24 04 20 00 00 	movl   $0x20,0x4(%esp)
  10016f:	00 
  100170:	c7 04 24 20 00 00 00 	movl   $0x20,(%esp)
  100177:	e8 81 ff ff ff       	call   1000fd <_ZL4outbth>
  10017c:	c9                   	leave  
  10017d:	c3                   	ret    

0010017e <_Z9DoNothingv>:
  10017e:	55                   	push   %ebp
  10017f:	89 e5                	mov    %esp,%ebp
  100181:	5d                   	pop    %ebp
  100182:	c3                   	ret    

00100183 <_Z15KeyboardHandlerv>:
  100183:	55                   	push   %ebp
  100184:	89 e5                	mov    %esp,%ebp
  100186:	83 ec 18             	sub    $0x18,%esp
  100189:	c7 04 24 60 00 00 00 	movl   $0x60,(%esp)
  100190:	e8 86 ff ff ff       	call   10011b <_ZL3inbt>
  100195:	0f be c0             	movsbl %al,%eax
  100198:	89 04 24             	mov    %eax,(%esp)
  10019b:	e8 3c 48 00 00       	call   1049dc <_Z10scan2asciic>
  1001a0:	0f b6 c0             	movzbl %al,%eax
  1001a3:	89 44 24 04          	mov    %eax,0x4(%esp)
  1001a7:	c7 04 24 a0 8b 10 00 	movl   $0x108ba0,(%esp)
  1001ae:	e8 4b 1b 00 00       	call   101cfe <_ZN8DBStream8rx_writeEh>
  1001b3:	c9                   	leave  
  1001b4:	c3                   	ret    

001001b5 <_Z4sendc>:
  1001b5:	55                   	push   %ebp
  1001b6:	89 e5                	mov    %esp,%ebp
  1001b8:	83 ec 18             	sub    $0x18,%esp
  1001bb:	8b 45 08             	mov    0x8(%ebp),%eax
  1001be:	88 45 f4             	mov    %al,-0xc(%ebp)
  1001c1:	0f be 45 f4          	movsbl -0xc(%ebp),%eax
  1001c5:	89 04 24             	mov    %eax,(%esp)
  1001c8:	e8 24 3a 00 00       	call   103bf1 <debug_putchar>
  1001cd:	b8 01 00 00 00       	mov    $0x1,%eax
  1001d2:	c9                   	leave  
  1001d3:	c3                   	ret    

001001d4 <main>:
  1001d4:	55                   	push   %ebp
  1001d5:	89 e5                	mov    %esp,%ebp
  1001d7:	83 e4 f0             	and    $0xfffffff0,%esp
  1001da:	83 ec 10             	sub    $0x10,%esp
  1001dd:	c7 04 24 ec 54 10 00 	movl   $0x1054ec,(%esp)
  1001e4:	e8 a2 03 00 00       	call   10058b <debug_print>
  1001e9:	e8 00 16 00 00       	call   1017ee <initenv_sections_info>
  1001ee:	e8 e4 14 00 00       	call   1016d7 <initenv_bss_test>
  1001f3:	e8 a2 14 00 00       	call   10169a <initenv_bss_clean>
  1001f8:	e8 29 14 00 00       	call   101626 <initenv_cpp_global_constructors>
  1001fd:	e8 63 3b 00 00       	call   103d65 <_Z13platform_initv>
  100202:	c7 44 24 04 00 01 00 	movl   $0x100,0x4(%esp)
  100209:	00 
  10020a:	c7 04 24 40 8d 10 00 	movl   $0x108d40,(%esp)
  100211:	e8 cc 0d 00 00       	call   100fe2 <_Z17abstract_irq_initPvj>
  100216:	c7 44 24 04 7e 01 10 	movl   $0x10017e,0x4(%esp)
  10021d:	00 
  10021e:	c7 04 24 20 00 00 00 	movl   $0x20,(%esp)
  100225:	e8 e7 0e 00 00       	call   101111 <_Z19abstract_irq_attachjPFvvE>
  10022a:	c7 44 24 04 83 01 10 	movl   $0x100183,0x4(%esp)
  100231:	00 
  100232:	c7 04 24 21 00 00 00 	movl   $0x21,(%esp)
  100239:	e8 d3 0e 00 00       	call   101111 <_Z19abstract_irq_attachjPFvvE>
  10023e:	c7 05 b8 8b 10 00 b5 	movl   $0x1001b5,0x108bb8
  100245:	01 10 00 
  100248:	c7 44 24 08 e8 03 00 	movl   $0x3e8,0x8(%esp)
  10024f:	00 
  100250:	c7 44 24 04 20 87 10 	movl   $0x108720,0x4(%esp)
  100257:	00 
  100258:	c7 04 24 08 8b 10 00 	movl   $0x108b08,(%esp)
  10025f:	e8 c0 37 00 00       	call   103a24 <_ZN12Object_cache6engageEPvj>
  100264:	fb                   	sti    
  100265:	e8 35 36 00 00       	call   10389f <_Z25registry_standart_utilityv>
  10026a:	e8 77 36 00 00       	call   1038e6 <_Z22registry_alloc_utilityv>
  10026f:	c7 04 24 20 8c 10 00 	movl   $0x108c20,(%esp)
  100276:	e8 0d 2a 00 00       	call   102c88 <_ZN11rl_terminal6listenEv>
  10027b:	eb f2                	jmp    10026f <main+0x9b>

0010027d <_Z41__static_initialization_and_destruction_0ii>:
  10027d:	55                   	push   %ebp
  10027e:	89 e5                	mov    %esp,%ebp
  100280:	83 ec 18             	sub    $0x18,%esp
  100283:	83 7d 08 01          	cmpl   $0x1,0x8(%ebp)
  100287:	0f 85 81 00 00 00    	jne    10030e <_Z41__static_initialization_and_destruction_0ii+0x91>
  10028d:	81 7d 0c ff ff 00 00 	cmpl   $0xffff,0xc(%ebp)
  100294:	75 78                	jne    10030e <_Z41__static_initialization_and_destruction_0ii+0x91>
  100296:	c7 44 24 08 00 00 00 	movl   $0x0,0x8(%esp)
  10029d:	00 
  10029e:	c7 44 24 04 10 00 00 	movl   $0x10,0x4(%esp)
  1002a5:	00 
  1002a6:	c7 04 24 08 8b 10 00 	movl   $0x108b08,(%esp)
  1002ad:	e8 d4 36 00 00       	call   103986 <_ZN12Object_cacheC1EjP11Allocator_p>
  1002b2:	c7 04 24 20 8b 10 00 	movl   $0x108b20,(%esp)
  1002b9:	e8 4e 21 00 00       	call   10240c <_ZN12staticring_tC1Ev>
  1002be:	c7 04 24 60 8b 10 00 	movl   $0x108b60,(%esp)
  1002c5:	e8 42 21 00 00       	call   10240c <_ZN12staticring_tC1Ev>
  1002ca:	c7 44 24 08 60 8b 10 	movl   $0x108b60,0x8(%esp)
  1002d1:	00 
  1002d2:	c7 44 24 04 20 8b 10 	movl   $0x108b20,0x4(%esp)
  1002d9:	00 
  1002da:	c7 04 24 a0 8b 10 00 	movl   $0x108ba0,(%esp)
  1002e1:	e8 28 19 00 00       	call   101c0e <_ZN8DBStreamC1EP7Queue_pS1_>
  1002e6:	c7 04 24 e0 8b 10 00 	movl   $0x108be0,(%esp)
  1002ed:	e8 c2 2e 00 00       	call   1031b4 <_ZN10readline_tC1Ev>
  1002f2:	c7 44 24 08 e0 8b 10 	movl   $0x108be0,0x8(%esp)
  1002f9:	00 
  1002fa:	c7 44 24 04 a0 8b 10 	movl   $0x108ba0,0x4(%esp)
  100301:	00 
  100302:	c7 04 24 20 8c 10 00 	movl   $0x108c20,(%esp)
  100309:	e8 a8 28 00 00       	call   102bb6 <_ZN11rl_terminalC1EP6StreamP10readline_t>
  10030e:	c9                   	leave  
  10030f:	c3                   	ret    

00100310 <_GLOBAL__sub_I_O_buf>:
  100310:	55                   	push   %ebp
  100311:	89 e5                	mov    %esp,%ebp
  100313:	83 ec 18             	sub    $0x18,%esp
  100316:	c7 44 24 04 ff ff 00 	movl   $0xffff,0x4(%esp)
  10031d:	00 
  10031e:	c7 04 24 01 00 00 00 	movl   $0x1,(%esp)
  100325:	e8 53 ff ff ff       	call   10027d <_Z41__static_initialization_and_destruction_0ii>
  10032a:	c9                   	leave  
  10032b:	c3                   	ret    

0010032c <_ZL4outbth>:
  10032c:	55                   	push   %ebp
  10032d:	89 e5                	mov    %esp,%ebp
  10032f:	83 ec 08             	sub    $0x8,%esp
  100332:	8b 55 08             	mov    0x8(%ebp),%edx
  100335:	8b 45 0c             	mov    0xc(%ebp),%eax
  100338:	66 89 55 fc          	mov    %dx,-0x4(%ebp)
  10033c:	88 45 f8             	mov    %al,-0x8(%ebp)
  10033f:	0f b7 55 fc          	movzwl -0x4(%ebp),%edx
  100343:	0f b6 45 f8          	movzbl -0x8(%ebp),%eax
  100347:	ee                   	out    %al,(%dx)
  100348:	c9                   	leave  
  100349:	c3                   	ret    

0010034a <_ZL3inbt>:
  10034a:	55                   	push   %ebp
  10034b:	89 e5                	mov    %esp,%ebp
  10034d:	83 ec 14             	sub    $0x14,%esp
  100350:	8b 45 08             	mov    0x8(%ebp),%eax
  100353:	66 89 45 ec          	mov    %ax,-0x14(%ebp)
  100357:	0f b7 45 ec          	movzwl -0x14(%ebp),%eax
  10035b:	89 c2                	mov    %eax,%edx
  10035d:	ec                   	in     (%dx),%al
  10035e:	88 45 ff             	mov    %al,-0x1(%ebp)
  100361:	0f b6 45 ff          	movzbl -0x1(%ebp),%eax
  100365:	c9                   	leave  
  100366:	c3                   	ret    

00100367 <_ZL29platform_abstract_irq_handlerP14interrupt_info>:
  100367:	55                   	push   %ebp
  100368:	89 e5                	mov    %esp,%ebp
  10036a:	83 ec 08             	sub    $0x8,%esp
  10036d:	8b 45 08             	mov    0x8(%ebp),%eax
  100370:	8b 40 24             	mov    0x24(%eax),%eax
  100373:	83 f8 27             	cmp    $0x27,%eax
  100376:	76 14                	jbe    10038c <_ZL29platform_abstract_irq_handlerP14interrupt_info+0x25>
  100378:	c7 44 24 04 20 00 00 	movl   $0x20,0x4(%esp)
  10037f:	00 
  100380:	c7 04 24 a0 00 00 00 	movl   $0xa0,(%esp)
  100387:	e8 a0 ff ff ff       	call   10032c <_ZL4outbth>
  10038c:	8b 45 08             	mov    0x8(%ebp),%eax
  10038f:	8b 40 24             	mov    0x24(%eax),%eax
  100392:	83 f8 1f             	cmp    $0x1f,%eax
  100395:	76 14                	jbe    1003ab <_ZL29platform_abstract_irq_handlerP14interrupt_info+0x44>
  100397:	c7 44 24 04 20 00 00 	movl   $0x20,0x4(%esp)
  10039e:	00 
  10039f:	c7 04 24 20 00 00 00 	movl   $0x20,(%esp)
  1003a6:	e8 81 ff ff ff       	call   10032c <_ZL4outbth>
  1003ab:	c9                   	leave  
  1003ac:	c3                   	ret    

001003ad <debug_write>:
  1003ad:	55                   	push   %ebp
  1003ae:	89 e5                	mov    %esp,%ebp
  1003b0:	83 ec 28             	sub    $0x28,%esp
  1003b3:	c7 45 f4 00 00 00 00 	movl   $0x0,-0xc(%ebp)
  1003ba:	eb 1a                	jmp    1003d6 <debug_write+0x29>
  1003bc:	8b 55 f4             	mov    -0xc(%ebp),%edx
  1003bf:	8b 45 08             	mov    0x8(%ebp),%eax
  1003c2:	01 d0                	add    %edx,%eax
  1003c4:	0f b6 00             	movzbl (%eax),%eax
  1003c7:	0f be c0             	movsbl %al,%eax
  1003ca:	89 04 24             	mov    %eax,(%esp)
  1003cd:	e8 1f 38 00 00       	call   103bf1 <debug_putchar>
  1003d2:	83 45 f4 01          	addl   $0x1,-0xc(%ebp)
  1003d6:	8b 45 f4             	mov    -0xc(%ebp),%eax
  1003d9:	3b 45 0c             	cmp    0xc(%ebp),%eax
  1003dc:	7c de                	jl     1003bc <debug_write+0xf>
  1003de:	c9                   	leave  
  1003df:	c3                   	ret    

001003e0 <debug_printhex_halfbyte>:
  1003e0:	55                   	push   %ebp
  1003e1:	89 e5                	mov    %esp,%ebp
  1003e3:	83 ec 28             	sub    $0x28,%esp
  1003e6:	8b 45 08             	mov    0x8(%ebp),%eax
  1003e9:	88 45 e4             	mov    %al,-0x1c(%ebp)
  1003ec:	0f be 45 e4          	movsbl -0x1c(%ebp),%eax
  1003f0:	83 f8 0f             	cmp    $0xf,%eax
  1003f3:	77 68                	ja     10045d <debug_printhex_halfbyte+0x7d>
  1003f5:	8b 04 85 f8 54 10 00 	mov    0x1054f8(,%eax,4),%eax
  1003fc:	ff e0                	jmp    *%eax
  1003fe:	c6 45 f7 30          	movb   $0x30,-0x9(%ebp)
  100402:	eb 59                	jmp    10045d <debug_printhex_halfbyte+0x7d>
  100404:	c6 45 f7 31          	movb   $0x31,-0x9(%ebp)
  100408:	eb 53                	jmp    10045d <debug_printhex_halfbyte+0x7d>
  10040a:	c6 45 f7 32          	movb   $0x32,-0x9(%ebp)
  10040e:	eb 4d                	jmp    10045d <debug_printhex_halfbyte+0x7d>
  100410:	c6 45 f7 33          	movb   $0x33,-0x9(%ebp)
  100414:	eb 47                	jmp    10045d <debug_printhex_halfbyte+0x7d>
  100416:	c6 45 f7 34          	movb   $0x34,-0x9(%ebp)
  10041a:	eb 41                	jmp    10045d <debug_printhex_halfbyte+0x7d>
  10041c:	c6 45 f7 35          	movb   $0x35,-0x9(%ebp)
  100420:	eb 3b                	jmp    10045d <debug_printhex_halfbyte+0x7d>
  100422:	c6 45 f7 36          	movb   $0x36,-0x9(%ebp)
  100426:	eb 35                	jmp    10045d <debug_printhex_halfbyte+0x7d>
  100428:	c6 45 f7 37          	movb   $0x37,-0x9(%ebp)
  10042c:	eb 2f                	jmp    10045d <debug_printhex_halfbyte+0x7d>
  10042e:	c6 45 f7 38          	movb   $0x38,-0x9(%ebp)
  100432:	eb 29                	jmp    10045d <debug_printhex_halfbyte+0x7d>
  100434:	c6 45 f7 39          	movb   $0x39,-0x9(%ebp)
  100438:	eb 23                	jmp    10045d <debug_printhex_halfbyte+0x7d>
  10043a:	c6 45 f7 41          	movb   $0x41,-0x9(%ebp)
  10043e:	eb 1d                	jmp    10045d <debug_printhex_halfbyte+0x7d>
  100440:	c6 45 f7 42          	movb   $0x42,-0x9(%ebp)
  100444:	eb 17                	jmp    10045d <debug_printhex_halfbyte+0x7d>
  100446:	c6 45 f7 43          	movb   $0x43,-0x9(%ebp)
  10044a:	eb 11                	jmp    10045d <debug_printhex_halfbyte+0x7d>
  10044c:	c6 45 f7 44          	movb   $0x44,-0x9(%ebp)
  100450:	eb 0b                	jmp    10045d <debug_printhex_halfbyte+0x7d>
  100452:	c6 45 f7 45          	movb   $0x45,-0x9(%ebp)
  100456:	eb 05                	jmp    10045d <debug_printhex_halfbyte+0x7d>
  100458:	c6 45 f7 46          	movb   $0x46,-0x9(%ebp)
  10045c:	90                   	nop
  10045d:	0f be 45 f7          	movsbl -0x9(%ebp),%eax
  100461:	89 04 24             	mov    %eax,(%esp)
  100464:	e8 88 37 00 00       	call   103bf1 <debug_putchar>
  100469:	c9                   	leave  
  10046a:	c3                   	ret    

0010046b <debug_printhex_byte>:
  10046b:	55                   	push   %ebp
  10046c:	89 e5                	mov    %esp,%ebp
  10046e:	83 ec 18             	sub    $0x18,%esp
  100471:	8b 45 08             	mov    0x8(%ebp),%eax
  100474:	88 45 f4             	mov    %al,-0xc(%ebp)
  100477:	0f be 45 f4          	movsbl -0xc(%ebp),%eax
  10047b:	25 f0 00 00 00       	and    $0xf0,%eax
  100480:	c1 f8 04             	sar    $0x4,%eax
  100483:	0f be c0             	movsbl %al,%eax
  100486:	89 04 24             	mov    %eax,(%esp)
  100489:	e8 52 ff ff ff       	call   1003e0 <debug_printhex_halfbyte>
  10048e:	0f be 45 f4          	movsbl -0xc(%ebp),%eax
  100492:	83 e0 0f             	and    $0xf,%eax
  100495:	89 04 24             	mov    %eax,(%esp)
  100498:	e8 43 ff ff ff       	call   1003e0 <debug_printhex_halfbyte>
  10049d:	c9                   	leave  
  10049e:	c3                   	ret    

0010049f <debug_printhex_int32>:
  10049f:	55                   	push   %ebp
  1004a0:	89 e5                	mov    %esp,%ebp
  1004a2:	83 ec 28             	sub    $0x28,%esp
  1004a5:	8d 45 08             	lea    0x8(%ebp),%eax
  1004a8:	89 45 f4             	mov    %eax,-0xc(%ebp)
  1004ab:	c7 04 24 30 00 00 00 	movl   $0x30,(%esp)
  1004b2:	e8 3a 37 00 00       	call   103bf1 <debug_putchar>
  1004b7:	c7 04 24 78 00 00 00 	movl   $0x78,(%esp)
  1004be:	e8 2e 37 00 00       	call   103bf1 <debug_putchar>
  1004c3:	8b 45 f4             	mov    -0xc(%ebp),%eax
  1004c6:	83 c0 03             	add    $0x3,%eax
  1004c9:	0f b6 00             	movzbl (%eax),%eax
  1004cc:	0f be c0             	movsbl %al,%eax
  1004cf:	89 04 24             	mov    %eax,(%esp)
  1004d2:	e8 94 ff ff ff       	call   10046b <debug_printhex_byte>
  1004d7:	8b 45 f4             	mov    -0xc(%ebp),%eax
  1004da:	83 c0 02             	add    $0x2,%eax
  1004dd:	0f b6 00             	movzbl (%eax),%eax
  1004e0:	0f be c0             	movsbl %al,%eax
  1004e3:	89 04 24             	mov    %eax,(%esp)
  1004e6:	e8 80 ff ff ff       	call   10046b <debug_printhex_byte>
  1004eb:	8b 45 f4             	mov    -0xc(%ebp),%eax
  1004ee:	83 c0 01             	add    $0x1,%eax
  1004f1:	0f b6 00             	movzbl (%eax),%eax
  1004f4:	0f be c0             	movsbl %al,%eax
  1004f7:	89 04 24             	mov    %eax,(%esp)
  1004fa:	e8 6c ff ff ff       	call   10046b <debug_printhex_byte>
  1004ff:	8b 45 f4             	mov    -0xc(%ebp),%eax
  100502:	0f b6 00             	movzbl (%eax),%eax
  100505:	0f be c0             	movsbl %al,%eax
  100508:	89 04 24             	mov    %eax,(%esp)
  10050b:	e8 5b ff ff ff       	call   10046b <debug_printhex_byte>
  100510:	c9                   	leave  
  100511:	c3                   	ret    

00100512 <debug_printhex_int16>:
  100512:	55                   	push   %ebp
  100513:	89 e5                	mov    %esp,%ebp
  100515:	83 ec 28             	sub    $0x28,%esp
  100518:	8b 45 08             	mov    0x8(%ebp),%eax
  10051b:	66 89 45 e4          	mov    %ax,-0x1c(%ebp)
  10051f:	8d 45 e4             	lea    -0x1c(%ebp),%eax
  100522:	89 45 f4             	mov    %eax,-0xc(%ebp)
  100525:	c7 04 24 30 00 00 00 	movl   $0x30,(%esp)
  10052c:	e8 c0 36 00 00       	call   103bf1 <debug_putchar>
  100531:	c7 04 24 78 00 00 00 	movl   $0x78,(%esp)
  100538:	e8 b4 36 00 00       	call   103bf1 <debug_putchar>
  10053d:	8b 45 f4             	mov    -0xc(%ebp),%eax
  100540:	83 c0 01             	add    $0x1,%eax
  100543:	0f b6 00             	movzbl (%eax),%eax
  100546:	0f be c0             	movsbl %al,%eax
  100549:	89 04 24             	mov    %eax,(%esp)
  10054c:	e8 1a ff ff ff       	call   10046b <debug_printhex_byte>
  100551:	8b 45 f4             	mov    -0xc(%ebp),%eax
  100554:	0f b6 00             	movzbl (%eax),%eax
  100557:	0f be c0             	movsbl %al,%eax
  10055a:	89 04 24             	mov    %eax,(%esp)
  10055d:	e8 09 ff ff ff       	call   10046b <debug_printhex_byte>
  100562:	c9                   	leave  
  100563:	c3                   	ret    

00100564 <debug_strlen>:
  100564:	55                   	push   %ebp
  100565:	89 e5                	mov    %esp,%ebp
  100567:	83 ec 10             	sub    $0x10,%esp
  10056a:	c7 45 fc 00 00 00 00 	movl   $0x0,-0x4(%ebp)
  100571:	eb 04                	jmp    100577 <debug_strlen+0x13>
  100573:	83 45 fc 01          	addl   $0x1,-0x4(%ebp)
  100577:	8b 55 fc             	mov    -0x4(%ebp),%edx
  10057a:	8b 45 08             	mov    0x8(%ebp),%eax
  10057d:	01 d0                	add    %edx,%eax
  10057f:	0f b6 00             	movzbl (%eax),%eax
  100582:	84 c0                	test   %al,%al
  100584:	75 ed                	jne    100573 <debug_strlen+0xf>
  100586:	8b 45 fc             	mov    -0x4(%ebp),%eax
  100589:	c9                   	leave  
  10058a:	c3                   	ret    

0010058b <debug_print>:
  10058b:	55                   	push   %ebp
  10058c:	89 e5                	mov    %esp,%ebp
  10058e:	83 ec 18             	sub    $0x18,%esp
  100591:	8b 45 08             	mov    0x8(%ebp),%eax
  100594:	89 04 24             	mov    %eax,(%esp)
  100597:	e8 c8 ff ff ff       	call   100564 <debug_strlen>
  10059c:	89 44 24 04          	mov    %eax,0x4(%esp)
  1005a0:	8b 45 08             	mov    0x8(%ebp),%eax
  1005a3:	89 04 24             	mov    %eax,(%esp)
  1005a6:	e8 02 fe ff ff       	call   1003ad <debug_write>
  1005ab:	c9                   	leave  
  1005ac:	c3                   	ret    

001005ad <debug_print_dump>:
  1005ad:	55                   	push   %ebp
  1005ae:	89 e5                	mov    %esp,%ebp
  1005b0:	83 ec 28             	sub    $0x28,%esp
  1005b3:	8b 45 08             	mov    0x8(%ebp),%eax
  1005b6:	89 45 f4             	mov    %eax,-0xc(%ebp)
  1005b9:	8b 45 08             	mov    0x8(%ebp),%eax
  1005bc:	89 45 e8             	mov    %eax,-0x18(%ebp)
  1005bf:	c7 45 ec 00 00 00 00 	movl   $0x0,-0x14(%ebp)
  1005c6:	c7 45 f0 00 00 00 00 	movl   $0x0,-0x10(%ebp)
  1005cd:	c7 45 ec 00 00 00 00 	movl   $0x0,-0x14(%ebp)
  1005d4:	eb 7e                	jmp    100654 <debug_print_dump+0xa7>
  1005d6:	83 7d f0 00          	cmpl   $0x0,-0x10(%ebp)
  1005da:	75 17                	jne    1005f3 <debug_print_dump+0x46>
  1005dc:	8b 45 e8             	mov    -0x18(%ebp),%eax
  1005df:	89 04 24             	mov    %eax,(%esp)
  1005e2:	e8 b8 fe ff ff       	call   10049f <debug_printhex_int32>
  1005e7:	c7 04 24 38 55 10 00 	movl   $0x105538,(%esp)
  1005ee:	e8 98 ff ff ff       	call   10058b <debug_print>
  1005f3:	8b 45 ec             	mov    -0x14(%ebp),%eax
  1005f6:	8b 55 f4             	mov    -0xc(%ebp),%edx
  1005f9:	01 d0                	add    %edx,%eax
  1005fb:	0f b6 00             	movzbl (%eax),%eax
  1005fe:	0f be c0             	movsbl %al,%eax
  100601:	89 04 24             	mov    %eax,(%esp)
  100604:	e8 62 fe ff ff       	call   10046b <debug_printhex_byte>
  100609:	83 7d f0 07          	cmpl   $0x7,-0x10(%ebp)
  10060d:	75 12                	jne    100621 <debug_print_dump+0x74>
  10060f:	c7 04 24 3b 55 10 00 	movl   $0x10553b,(%esp)
  100616:	e8 70 ff ff ff       	call   10058b <debug_print>
  10061b:	83 45 f0 01          	addl   $0x1,-0x10(%ebp)
  10061f:	eb 2f                	jmp    100650 <debug_print_dump+0xa3>
  100621:	83 7d f0 0f          	cmpl   $0xf,-0x10(%ebp)
  100625:	75 19                	jne    100640 <debug_print_dump+0x93>
  100627:	c7 04 24 3d 55 10 00 	movl   $0x10553d,(%esp)
  10062e:	e8 58 ff ff ff       	call   10058b <debug_print>
  100633:	c7 45 f0 00 00 00 00 	movl   $0x0,-0x10(%ebp)
  10063a:	83 45 e8 10          	addl   $0x10,-0x18(%ebp)
  10063e:	eb 10                	jmp    100650 <debug_print_dump+0xa3>
  100640:	c7 04 24 3f 55 10 00 	movl   $0x10553f,(%esp)
  100647:	e8 3f ff ff ff       	call   10058b <debug_print>
  10064c:	83 45 f0 01          	addl   $0x1,-0x10(%ebp)
  100650:	83 45 ec 01          	addl   $0x1,-0x14(%ebp)
  100654:	8b 45 ec             	mov    -0x14(%ebp),%eax
  100657:	3b 45 0c             	cmp    0xc(%ebp),%eax
  10065a:	0f 82 76 ff ff ff    	jb     1005d6 <debug_print_dump+0x29>
  100660:	c9                   	leave  
  100661:	c3                   	ret    

00100662 <delay_cpu>:
  100662:	55                   	push   %ebp
  100663:	89 e5                	mov    %esp,%ebp
  100665:	83 ec 10             	sub    $0x10,%esp
  100668:	8b 45 08             	mov    0x8(%ebp),%eax
  10066b:	69 c0 d0 07 00 00    	imul   $0x7d0,%eax,%eax
  100671:	ba 00 00 00 00       	mov    $0x0,%edx
  100676:	89 45 f8             	mov    %eax,-0x8(%ebp)
  100679:	89 55 fc             	mov    %edx,-0x4(%ebp)
  10067c:	90                   	nop
  10067d:	8b 45 f8             	mov    -0x8(%ebp),%eax
  100680:	8b 55 fc             	mov    -0x4(%ebp),%edx
  100683:	83 c0 ff             	add    $0xffffffff,%eax
  100686:	83 d2 ff             	adc    $0xffffffff,%edx
  100689:	89 45 f8             	mov    %eax,-0x8(%ebp)
  10068c:	89 55 fc             	mov    %edx,-0x4(%ebp)
  10068f:	8b 45 f8             	mov    -0x8(%ebp),%eax
  100692:	8b 55 fc             	mov    -0x4(%ebp),%edx
  100695:	09 d0                	or     %edx,%eax
  100697:	85 c0                	test   %eax,%eax
  100699:	0f 94 c0             	sete   %al
  10069c:	84 c0                	test   %al,%al
  10069e:	74 02                	je     1006a2 <delay_cpu+0x40>
  1006a0:	eb 02                	jmp    1006a4 <delay_cpu+0x42>
  1006a2:	eb d8                	jmp    10067c <delay_cpu+0x1a>
  1006a4:	c9                   	leave  
  1006a5:	c3                   	ret    

001006a6 <_ZL4outbth>:
  1006a6:	55                   	push   %ebp
  1006a7:	89 e5                	mov    %esp,%ebp
  1006a9:	83 ec 08             	sub    $0x8,%esp
  1006ac:	8b 55 08             	mov    0x8(%ebp),%edx
  1006af:	8b 45 0c             	mov    0xc(%ebp),%eax
  1006b2:	66 89 55 fc          	mov    %dx,-0x4(%ebp)
  1006b6:	88 45 f8             	mov    %al,-0x8(%ebp)
  1006b9:	0f b7 55 fc          	movzwl -0x4(%ebp),%edx
  1006bd:	0f b6 45 f8          	movzbl -0x8(%ebp),%eax
  1006c1:	ee                   	out    %al,(%dx)
  1006c2:	c9                   	leave  
  1006c3:	c3                   	ret    

001006c4 <_ZL3inbt>:
  1006c4:	55                   	push   %ebp
  1006c5:	89 e5                	mov    %esp,%ebp
  1006c7:	83 ec 14             	sub    $0x14,%esp
  1006ca:	8b 45 08             	mov    0x8(%ebp),%eax
  1006cd:	66 89 45 ec          	mov    %ax,-0x14(%ebp)
  1006d1:	0f b7 45 ec          	movzwl -0x14(%ebp),%eax
  1006d5:	89 c2                	mov    %eax,%edx
  1006d7:	ec                   	in     (%dx),%al
  1006d8:	88 45 ff             	mov    %al,-0x1(%ebp)
  1006db:	0f b6 45 ff          	movzbl -0x1(%ebp),%eax
  1006df:	c9                   	leave  
  1006e0:	c3                   	ret    

001006e1 <_ZL29platform_abstract_irq_handlerP14interrupt_info>:
  1006e1:	55                   	push   %ebp
  1006e2:	89 e5                	mov    %esp,%ebp
  1006e4:	83 ec 08             	sub    $0x8,%esp
  1006e7:	8b 45 08             	mov    0x8(%ebp),%eax
  1006ea:	8b 40 24             	mov    0x24(%eax),%eax
  1006ed:	83 f8 27             	cmp    $0x27,%eax
  1006f0:	76 14                	jbe    100706 <_ZL29platform_abstract_irq_handlerP14interrupt_info+0x25>
  1006f2:	c7 44 24 04 20 00 00 	movl   $0x20,0x4(%esp)
  1006f9:	00 
  1006fa:	c7 04 24 a0 00 00 00 	movl   $0xa0,(%esp)
  100701:	e8 a0 ff ff ff       	call   1006a6 <_ZL4outbth>
  100706:	8b 45 08             	mov    0x8(%ebp),%eax
  100709:	8b 40 24             	mov    0x24(%eax),%eax
  10070c:	83 f8 1f             	cmp    $0x1f,%eax
  10070f:	76 14                	jbe    100725 <_ZL29platform_abstract_irq_handlerP14interrupt_info+0x44>
  100711:	c7 44 24 04 20 00 00 	movl   $0x20,0x4(%esp)
  100718:	00 
  100719:	c7 04 24 20 00 00 00 	movl   $0x20,(%esp)
  100720:	e8 81 ff ff ff       	call   1006a6 <_ZL4outbth>
  100725:	c9                   	leave  
  100726:	c3                   	ret    

00100727 <_Z11systemErrorPKc>:
  100727:	55                   	push   %ebp
  100728:	89 e5                	mov    %esp,%ebp
  10072a:	83 ec 18             	sub    $0x18,%esp
  10072d:	c7 04 24 41 55 10 00 	movl   $0x105541,(%esp)
  100734:	e8 52 fe ff ff       	call   10058b <debug_print>
  100739:	8b 45 08             	mov    0x8(%ebp),%eax
  10073c:	89 04 24             	mov    %eax,(%esp)
  10073f:	e8 47 fe ff ff       	call   10058b <debug_print>
  100744:	c7 44 24 04 02 00 00 	movl   $0x2,0x4(%esp)
  10074b:	00 
  10074c:	c7 04 24 51 55 10 00 	movl   $0x105551,(%esp)
  100753:	e8 55 fc ff ff       	call   1003ad <debug_write>
  100758:	e8 79 36 00 00       	call   103dd6 <_Z20systemError_platformv>
  10075d:	eb fe                	jmp    10075d <_Z11systemErrorPKc+0x36>

0010075f <_ZL4outbth>:
  10075f:	55                   	push   %ebp
  100760:	89 e5                	mov    %esp,%ebp
  100762:	83 ec 08             	sub    $0x8,%esp
  100765:	8b 55 08             	mov    0x8(%ebp),%edx
  100768:	8b 45 0c             	mov    0xc(%ebp),%eax
  10076b:	66 89 55 fc          	mov    %dx,-0x4(%ebp)
  10076f:	88 45 f8             	mov    %al,-0x8(%ebp)
  100772:	0f b7 55 fc          	movzwl -0x4(%ebp),%edx
  100776:	0f b6 45 f8          	movzbl -0x8(%ebp),%eax
  10077a:	ee                   	out    %al,(%dx)
  10077b:	c9                   	leave  
  10077c:	c3                   	ret    

0010077d <_ZL3inbt>:
  10077d:	55                   	push   %ebp
  10077e:	89 e5                	mov    %esp,%ebp
  100780:	83 ec 14             	sub    $0x14,%esp
  100783:	8b 45 08             	mov    0x8(%ebp),%eax
  100786:	66 89 45 ec          	mov    %ax,-0x14(%ebp)
  10078a:	0f b7 45 ec          	movzwl -0x14(%ebp),%eax
  10078e:	89 c2                	mov    %eax,%edx
  100790:	ec                   	in     (%dx),%al
  100791:	88 45 ff             	mov    %al,-0x1(%ebp)
  100794:	0f b6 45 ff          	movzbl -0x1(%ebp),%eax
  100798:	c9                   	leave  
  100799:	c3                   	ret    

0010079a <_ZL29platform_abstract_irq_handlerP14interrupt_info>:
  10079a:	55                   	push   %ebp
  10079b:	89 e5                	mov    %esp,%ebp
  10079d:	83 ec 08             	sub    $0x8,%esp
  1007a0:	8b 45 08             	mov    0x8(%ebp),%eax
  1007a3:	8b 40 24             	mov    0x24(%eax),%eax
  1007a6:	83 f8 27             	cmp    $0x27,%eax
  1007a9:	76 14                	jbe    1007bf <_ZL29platform_abstract_irq_handlerP14interrupt_info+0x25>
  1007ab:	c7 44 24 04 20 00 00 	movl   $0x20,0x4(%esp)
  1007b2:	00 
  1007b3:	c7 04 24 a0 00 00 00 	movl   $0xa0,(%esp)
  1007ba:	e8 a0 ff ff ff       	call   10075f <_ZL4outbth>
  1007bf:	8b 45 08             	mov    0x8(%ebp),%eax
  1007c2:	8b 40 24             	mov    0x24(%eax),%eax
  1007c5:	83 f8 1f             	cmp    $0x1f,%eax
  1007c8:	76 14                	jbe    1007de <_ZL29platform_abstract_irq_handlerP14interrupt_info+0x44>
  1007ca:	c7 44 24 04 20 00 00 	movl   $0x20,0x4(%esp)
  1007d1:	00 
  1007d2:	c7 04 24 20 00 00 00 	movl   $0x20,(%esp)
  1007d9:	e8 81 ff ff ff       	call   10075f <_ZL4outbth>
  1007de:	c9                   	leave  
  1007df:	c3                   	ret    

001007e0 <_ZN5Print5writeEPKhj>:
  1007e0:	55                   	push   %ebp
  1007e1:	89 e5                	mov    %esp,%ebp
  1007e3:	83 ec 28             	sub    $0x28,%esp
  1007e6:	8b 45 0c             	mov    0xc(%ebp),%eax
  1007e9:	89 45 f0             	mov    %eax,-0x10(%ebp)
  1007ec:	c7 45 f4 00 00 00 00 	movl   $0x0,-0xc(%ebp)
  1007f3:	eb 25                	jmp    10081a <_ZN5Print5writeEPKhj+0x3a>
  1007f5:	8b 45 08             	mov    0x8(%ebp),%eax
  1007f8:	8b 00                	mov    (%eax),%eax
  1007fa:	8b 10                	mov    (%eax),%edx
  1007fc:	8b 45 f0             	mov    -0x10(%ebp),%eax
  1007ff:	8d 48 01             	lea    0x1(%eax),%ecx
  100802:	89 4d f0             	mov    %ecx,-0x10(%ebp)
  100805:	0f b6 00             	movzbl (%eax),%eax
  100808:	0f b6 c0             	movzbl %al,%eax
  10080b:	89 44 24 04          	mov    %eax,0x4(%esp)
  10080f:	8b 45 08             	mov    0x8(%ebp),%eax
  100812:	89 04 24             	mov    %eax,(%esp)
  100815:	ff d2                	call   *%edx
  100817:	01 45 f4             	add    %eax,-0xc(%ebp)
  10081a:	8b 45 10             	mov    0x10(%ebp),%eax
  10081d:	8d 50 ff             	lea    -0x1(%eax),%edx
  100820:	89 55 10             	mov    %edx,0x10(%ebp)
  100823:	85 c0                	test   %eax,%eax
  100825:	0f 95 c0             	setne  %al
  100828:	84 c0                	test   %al,%al
  10082a:	75 c9                	jne    1007f5 <_ZN5Print5writeEPKhj+0x15>
  10082c:	8b 45 f4             	mov    -0xc(%ebp),%eax
  10082f:	c9                   	leave  
  100830:	c3                   	ret    
  100831:	90                   	nop

00100832 <_ZN5Print5writeEPKcj>:
  100832:	55                   	push   %ebp
  100833:	89 e5                	mov    %esp,%ebp
  100835:	83 ec 18             	sub    $0x18,%esp
  100838:	8b 45 08             	mov    0x8(%ebp),%eax
  10083b:	8b 00                	mov    (%eax),%eax
  10083d:	83 c0 04             	add    $0x4,%eax
  100840:	8b 00                	mov    (%eax),%eax
  100842:	8b 55 10             	mov    0x10(%ebp),%edx
  100845:	89 54 24 08          	mov    %edx,0x8(%esp)
  100849:	8b 55 0c             	mov    0xc(%ebp),%edx
  10084c:	89 54 24 04          	mov    %edx,0x4(%esp)
  100850:	8b 55 08             	mov    0x8(%ebp),%edx
  100853:	89 14 24             	mov    %edx,(%esp)
  100856:	ff d0                	call   *%eax
  100858:	c9                   	leave  
  100859:	c3                   	ret    

0010085a <_ZN5Print5writeEPKc>:
  10085a:	55                   	push   %ebp
  10085b:	89 e5                	mov    %esp,%ebp
  10085d:	53                   	push   %ebx
  10085e:	83 ec 14             	sub    $0x14,%esp
  100861:	83 7d 0c 00          	cmpl   $0x0,0xc(%ebp)
  100865:	75 07                	jne    10086e <_ZN5Print5writeEPKc+0x14>
  100867:	b8 00 00 00 00       	mov    $0x0,%eax
  10086c:	eb 28                	jmp    100896 <_ZN5Print5writeEPKc+0x3c>
  10086e:	8b 45 08             	mov    0x8(%ebp),%eax
  100871:	8b 00                	mov    (%eax),%eax
  100873:	83 c0 04             	add    $0x4,%eax
  100876:	8b 18                	mov    (%eax),%ebx
  100878:	8b 45 0c             	mov    0xc(%ebp),%eax
  10087b:	89 04 24             	mov    %eax,(%esp)
  10087e:	e8 c1 08 00 00       	call   101144 <_Z6strlenPKc>
  100883:	89 44 24 08          	mov    %eax,0x8(%esp)
  100887:	8b 45 0c             	mov    0xc(%ebp),%eax
  10088a:	89 44 24 04          	mov    %eax,0x4(%esp)
  10088e:	8b 45 08             	mov    0x8(%ebp),%eax
  100891:	89 04 24             	mov    %eax,(%esp)
  100894:	ff d3                	call   *%ebx
  100896:	83 c4 14             	add    $0x14,%esp
  100899:	5b                   	pop    %ebx
  10089a:	5d                   	pop    %ebp
  10089b:	c3                   	ret    

0010089c <_ZN5Print5printEPKc>:
  10089c:	55                   	push   %ebp
  10089d:	89 e5                	mov    %esp,%ebp
  10089f:	83 ec 18             	sub    $0x18,%esp
  1008a2:	8b 45 0c             	mov    0xc(%ebp),%eax
  1008a5:	89 44 24 04          	mov    %eax,0x4(%esp)
  1008a9:	8b 45 08             	mov    0x8(%ebp),%eax
  1008ac:	89 04 24             	mov    %eax,(%esp)
  1008af:	e8 a6 ff ff ff       	call   10085a <_ZN5Print5writeEPKc>
  1008b4:	c9                   	leave  
  1008b5:	c3                   	ret    

001008b6 <_ZN5Print5printEc>:
  1008b6:	55                   	push   %ebp
  1008b7:	89 e5                	mov    %esp,%ebp
  1008b9:	83 ec 18             	sub    $0x18,%esp
  1008bc:	8b 45 0c             	mov    0xc(%ebp),%eax
  1008bf:	88 45 f4             	mov    %al,-0xc(%ebp)
  1008c2:	8b 45 08             	mov    0x8(%ebp),%eax
  1008c5:	8b 00                	mov    (%eax),%eax
  1008c7:	8b 00                	mov    (%eax),%eax
  1008c9:	0f b6 55 f4          	movzbl -0xc(%ebp),%edx
  1008cd:	0f b6 d2             	movzbl %dl,%edx
  1008d0:	89 54 24 04          	mov    %edx,0x4(%esp)
  1008d4:	8b 55 08             	mov    0x8(%ebp),%edx
  1008d7:	89 14 24             	mov    %edx,(%esp)
  1008da:	ff d0                	call   *%eax
  1008dc:	c9                   	leave  
  1008dd:	c3                   	ret    

001008de <_ZN5Print5printEhi>:
  1008de:	55                   	push   %ebp
  1008df:	89 e5                	mov    %esp,%ebp
  1008e1:	83 ec 18             	sub    $0x18,%esp
  1008e4:	8b 45 0c             	mov    0xc(%ebp),%eax
  1008e7:	88 45 f4             	mov    %al,-0xc(%ebp)
  1008ea:	0f b6 45 f4          	movzbl -0xc(%ebp),%eax
  1008ee:	8b 55 10             	mov    0x10(%ebp),%edx
  1008f1:	89 54 24 08          	mov    %edx,0x8(%esp)
  1008f5:	89 44 24 04          	mov    %eax,0x4(%esp)
  1008f9:	8b 45 08             	mov    0x8(%ebp),%eax
  1008fc:	89 04 24             	mov    %eax,(%esp)
  1008ff:	e8 ee 00 00 00       	call   1009f2 <_ZN5Print5printEmi>
  100904:	c9                   	leave  
  100905:	c3                   	ret    

00100906 <_ZN5Print5printEii>:
  100906:	55                   	push   %ebp
  100907:	89 e5                	mov    %esp,%ebp
  100909:	83 ec 18             	sub    $0x18,%esp
  10090c:	8b 45 10             	mov    0x10(%ebp),%eax
  10090f:	89 44 24 08          	mov    %eax,0x8(%esp)
  100913:	8b 45 0c             	mov    0xc(%ebp),%eax
  100916:	89 44 24 04          	mov    %eax,0x4(%esp)
  10091a:	8b 45 08             	mov    0x8(%ebp),%eax
  10091d:	89 04 24             	mov    %eax,(%esp)
  100920:	e8 25 00 00 00       	call   10094a <_ZN5Print5printEli>
  100925:	c9                   	leave  
  100926:	c3                   	ret    
  100927:	90                   	nop

00100928 <_ZN5Print5printEji>:
  100928:	55                   	push   %ebp
  100929:	89 e5                	mov    %esp,%ebp
  10092b:	83 ec 18             	sub    $0x18,%esp
  10092e:	8b 45 10             	mov    0x10(%ebp),%eax
  100931:	89 44 24 08          	mov    %eax,0x8(%esp)
  100935:	8b 45 0c             	mov    0xc(%ebp),%eax
  100938:	89 44 24 04          	mov    %eax,0x4(%esp)
  10093c:	8b 45 08             	mov    0x8(%ebp),%eax
  10093f:	89 04 24             	mov    %eax,(%esp)
  100942:	e8 ab 00 00 00       	call   1009f2 <_ZN5Print5printEmi>
  100947:	c9                   	leave  
  100948:	c3                   	ret    
  100949:	90                   	nop

0010094a <_ZN5Print5printEli>:
  10094a:	55                   	push   %ebp
  10094b:	89 e5                	mov    %esp,%ebp
  10094d:	83 ec 28             	sub    $0x28,%esp
  100950:	83 7d 10 00          	cmpl   $0x0,0x10(%ebp)
  100954:	75 1b                	jne    100971 <_ZN5Print5printEli+0x27>
  100956:	8b 45 08             	mov    0x8(%ebp),%eax
  100959:	8b 00                	mov    (%eax),%eax
  10095b:	8b 00                	mov    (%eax),%eax
  10095d:	8b 55 0c             	mov    0xc(%ebp),%edx
  100960:	0f b6 d2             	movzbl %dl,%edx
  100963:	89 54 24 04          	mov    %edx,0x4(%esp)
  100967:	8b 55 08             	mov    0x8(%ebp),%edx
  10096a:	89 14 24             	mov    %edx,(%esp)
  10096d:	ff d0                	call   *%eax
  10096f:	eb 7e                	jmp    1009ef <_ZN5Print5printEli+0xa5>
  100971:	83 7d 10 0a          	cmpl   $0xa,0x10(%ebp)
  100975:	75 5c                	jne    1009d3 <_ZN5Print5printEli+0x89>
  100977:	83 7d 0c 00          	cmpl   $0x0,0xc(%ebp)
  10097b:	79 3a                	jns    1009b7 <_ZN5Print5printEli+0x6d>
  10097d:	c7 44 24 04 2d 00 00 	movl   $0x2d,0x4(%esp)
  100984:	00 
  100985:	8b 45 08             	mov    0x8(%ebp),%eax
  100988:	89 04 24             	mov    %eax,(%esp)
  10098b:	e8 26 ff ff ff       	call   1008b6 <_ZN5Print5printEc>
  100990:	89 45 f4             	mov    %eax,-0xc(%ebp)
  100993:	f7 5d 0c             	negl   0xc(%ebp)
  100996:	8b 45 0c             	mov    0xc(%ebp),%eax
  100999:	c7 44 24 08 0a 00 00 	movl   $0xa,0x8(%esp)
  1009a0:	00 
  1009a1:	89 44 24 04          	mov    %eax,0x4(%esp)
  1009a5:	8b 45 08             	mov    0x8(%ebp),%eax
  1009a8:	89 04 24             	mov    %eax,(%esp)
  1009ab:	e8 aa 02 00 00       	call   100c5a <_ZN5Print11printNumberEmh>
  1009b0:	8b 55 f4             	mov    -0xc(%ebp),%edx
  1009b3:	01 d0                	add    %edx,%eax
  1009b5:	eb 38                	jmp    1009ef <_ZN5Print5printEli+0xa5>
  1009b7:	8b 45 0c             	mov    0xc(%ebp),%eax
  1009ba:	c7 44 24 08 0a 00 00 	movl   $0xa,0x8(%esp)
  1009c1:	00 
  1009c2:	89 44 24 04          	mov    %eax,0x4(%esp)
  1009c6:	8b 45 08             	mov    0x8(%ebp),%eax
  1009c9:	89 04 24             	mov    %eax,(%esp)
  1009cc:	e8 89 02 00 00       	call   100c5a <_ZN5Print11printNumberEmh>
  1009d1:	eb 1c                	jmp    1009ef <_ZN5Print5printEli+0xa5>
  1009d3:	8b 45 10             	mov    0x10(%ebp),%eax
  1009d6:	0f b6 d0             	movzbl %al,%edx
  1009d9:	8b 45 0c             	mov    0xc(%ebp),%eax
  1009dc:	89 54 24 08          	mov    %edx,0x8(%esp)
  1009e0:	89 44 24 04          	mov    %eax,0x4(%esp)
  1009e4:	8b 45 08             	mov    0x8(%ebp),%eax
  1009e7:	89 04 24             	mov    %eax,(%esp)
  1009ea:	e8 6b 02 00 00       	call   100c5a <_ZN5Print11printNumberEmh>
  1009ef:	c9                   	leave  
  1009f0:	c3                   	ret    
  1009f1:	90                   	nop

001009f2 <_ZN5Print5printEmi>:
  1009f2:	55                   	push   %ebp
  1009f3:	89 e5                	mov    %esp,%ebp
  1009f5:	83 ec 18             	sub    $0x18,%esp
  1009f8:	83 7d 10 00          	cmpl   $0x0,0x10(%ebp)
  1009fc:	75 1b                	jne    100a19 <_ZN5Print5printEmi+0x27>
  1009fe:	8b 45 08             	mov    0x8(%ebp),%eax
  100a01:	8b 00                	mov    (%eax),%eax
  100a03:	8b 00                	mov    (%eax),%eax
  100a05:	8b 55 0c             	mov    0xc(%ebp),%edx
  100a08:	0f b6 d2             	movzbl %dl,%edx
  100a0b:	89 54 24 04          	mov    %edx,0x4(%esp)
  100a0f:	8b 55 08             	mov    0x8(%ebp),%edx
  100a12:	89 14 24             	mov    %edx,(%esp)
  100a15:	ff d0                	call   *%eax
  100a17:	eb 1c                	jmp    100a35 <_ZN5Print5printEmi+0x43>
  100a19:	8b 45 10             	mov    0x10(%ebp),%eax
  100a1c:	0f b6 c0             	movzbl %al,%eax
  100a1f:	89 44 24 08          	mov    %eax,0x8(%esp)
  100a23:	8b 45 0c             	mov    0xc(%ebp),%eax
  100a26:	89 44 24 04          	mov    %eax,0x4(%esp)
  100a2a:	8b 45 08             	mov    0x8(%ebp),%eax
  100a2d:	89 04 24             	mov    %eax,(%esp)
  100a30:	e8 25 02 00 00       	call   100c5a <_ZN5Print11printNumberEmh>
  100a35:	c9                   	leave  
  100a36:	c3                   	ret    
  100a37:	90                   	nop

00100a38 <_ZN5Print5printEdi>:
  100a38:	55                   	push   %ebp
  100a39:	89 e5                	mov    %esp,%ebp
  100a3b:	83 ec 28             	sub    $0x28,%esp
  100a3e:	8b 45 0c             	mov    0xc(%ebp),%eax
  100a41:	89 45 f0             	mov    %eax,-0x10(%ebp)
  100a44:	8b 45 10             	mov    0x10(%ebp),%eax
  100a47:	89 45 f4             	mov    %eax,-0xc(%ebp)
  100a4a:	8b 45 14             	mov    0x14(%ebp),%eax
  100a4d:	0f b6 c0             	movzbl %al,%eax
  100a50:	89 44 24 0c          	mov    %eax,0xc(%esp)
  100a54:	dd 45 f0             	fldl   -0x10(%ebp)
  100a57:	dd 5c 24 04          	fstpl  0x4(%esp)
  100a5b:	8b 45 08             	mov    0x8(%ebp),%eax
  100a5e:	89 04 24             	mov    %eax,(%esp)
  100a61:	e8 a6 02 00 00       	call   100d0c <_ZN5Print10printFloatEdh>
  100a66:	c9                   	leave  
  100a67:	c3                   	ret    

00100a68 <_ZN5Print7printlnEv>:
  100a68:	55                   	push   %ebp
  100a69:	89 e5                	mov    %esp,%ebp
  100a6b:	83 ec 28             	sub    $0x28,%esp
  100a6e:	c7 44 24 04 0d 00 00 	movl   $0xd,0x4(%esp)
  100a75:	00 
  100a76:	8b 45 08             	mov    0x8(%ebp),%eax
  100a79:	89 04 24             	mov    %eax,(%esp)
  100a7c:	e8 35 fe ff ff       	call   1008b6 <_ZN5Print5printEc>
  100a81:	89 45 f4             	mov    %eax,-0xc(%ebp)
  100a84:	c7 44 24 04 0a 00 00 	movl   $0xa,0x4(%esp)
  100a8b:	00 
  100a8c:	8b 45 08             	mov    0x8(%ebp),%eax
  100a8f:	89 04 24             	mov    %eax,(%esp)
  100a92:	e8 1f fe ff ff       	call   1008b6 <_ZN5Print5printEc>
  100a97:	01 45 f4             	add    %eax,-0xc(%ebp)
  100a9a:	8b 45 f4             	mov    -0xc(%ebp),%eax
  100a9d:	c9                   	leave  
  100a9e:	c3                   	ret    
  100a9f:	90                   	nop

00100aa0 <_ZN5Print7printlnEPKc>:
  100aa0:	55                   	push   %ebp
  100aa1:	89 e5                	mov    %esp,%ebp
  100aa3:	83 ec 28             	sub    $0x28,%esp
  100aa6:	8b 45 0c             	mov    0xc(%ebp),%eax
  100aa9:	89 44 24 04          	mov    %eax,0x4(%esp)
  100aad:	8b 45 08             	mov    0x8(%ebp),%eax
  100ab0:	89 04 24             	mov    %eax,(%esp)
  100ab3:	e8 e4 fd ff ff       	call   10089c <_ZN5Print5printEPKc>
  100ab8:	89 45 f4             	mov    %eax,-0xc(%ebp)
  100abb:	8b 45 08             	mov    0x8(%ebp),%eax
  100abe:	89 04 24             	mov    %eax,(%esp)
  100ac1:	e8 a2 ff ff ff       	call   100a68 <_ZN5Print7printlnEv>
  100ac6:	01 45 f4             	add    %eax,-0xc(%ebp)
  100ac9:	8b 45 f4             	mov    -0xc(%ebp),%eax
  100acc:	c9                   	leave  
  100acd:	c3                   	ret    

00100ace <_ZN5Print7printlnEc>:
  100ace:	55                   	push   %ebp
  100acf:	89 e5                	mov    %esp,%ebp
  100ad1:	83 ec 28             	sub    $0x28,%esp
  100ad4:	8b 45 0c             	mov    0xc(%ebp),%eax
  100ad7:	88 45 e4             	mov    %al,-0x1c(%ebp)
  100ada:	0f be 45 e4          	movsbl -0x1c(%ebp),%eax
  100ade:	89 44 24 04          	mov    %eax,0x4(%esp)
  100ae2:	8b 45 08             	mov    0x8(%ebp),%eax
  100ae5:	89 04 24             	mov    %eax,(%esp)
  100ae8:	e8 c9 fd ff ff       	call   1008b6 <_ZN5Print5printEc>
  100aed:	89 45 f4             	mov    %eax,-0xc(%ebp)
  100af0:	8b 45 08             	mov    0x8(%ebp),%eax
  100af3:	89 04 24             	mov    %eax,(%esp)
  100af6:	e8 6d ff ff ff       	call   100a68 <_ZN5Print7printlnEv>
  100afb:	01 45 f4             	add    %eax,-0xc(%ebp)
  100afe:	8b 45 f4             	mov    -0xc(%ebp),%eax
  100b01:	c9                   	leave  
  100b02:	c3                   	ret    
  100b03:	90                   	nop

00100b04 <_ZN5Print7printlnEhi>:
  100b04:	55                   	push   %ebp
  100b05:	89 e5                	mov    %esp,%ebp
  100b07:	83 ec 28             	sub    $0x28,%esp
  100b0a:	8b 45 0c             	mov    0xc(%ebp),%eax
  100b0d:	88 45 e4             	mov    %al,-0x1c(%ebp)
  100b10:	0f b6 45 e4          	movzbl -0x1c(%ebp),%eax
  100b14:	8b 55 10             	mov    0x10(%ebp),%edx
  100b17:	89 54 24 08          	mov    %edx,0x8(%esp)
  100b1b:	89 44 24 04          	mov    %eax,0x4(%esp)
  100b1f:	8b 45 08             	mov    0x8(%ebp),%eax
  100b22:	89 04 24             	mov    %eax,(%esp)
  100b25:	e8 b4 fd ff ff       	call   1008de <_ZN5Print5printEhi>
  100b2a:	89 45 f4             	mov    %eax,-0xc(%ebp)
  100b2d:	8b 45 08             	mov    0x8(%ebp),%eax
  100b30:	89 04 24             	mov    %eax,(%esp)
  100b33:	e8 30 ff ff ff       	call   100a68 <_ZN5Print7printlnEv>
  100b38:	01 45 f4             	add    %eax,-0xc(%ebp)
  100b3b:	8b 45 f4             	mov    -0xc(%ebp),%eax
  100b3e:	c9                   	leave  
  100b3f:	c3                   	ret    

00100b40 <_ZN5Print7printlnEii>:
  100b40:	55                   	push   %ebp
  100b41:	89 e5                	mov    %esp,%ebp
  100b43:	83 ec 28             	sub    $0x28,%esp
  100b46:	8b 45 10             	mov    0x10(%ebp),%eax
  100b49:	89 44 24 08          	mov    %eax,0x8(%esp)
  100b4d:	8b 45 0c             	mov    0xc(%ebp),%eax
  100b50:	89 44 24 04          	mov    %eax,0x4(%esp)
  100b54:	8b 45 08             	mov    0x8(%ebp),%eax
  100b57:	89 04 24             	mov    %eax,(%esp)
  100b5a:	e8 a7 fd ff ff       	call   100906 <_ZN5Print5printEii>
  100b5f:	89 45 f4             	mov    %eax,-0xc(%ebp)
  100b62:	8b 45 08             	mov    0x8(%ebp),%eax
  100b65:	89 04 24             	mov    %eax,(%esp)
  100b68:	e8 fb fe ff ff       	call   100a68 <_ZN5Print7printlnEv>
  100b6d:	01 45 f4             	add    %eax,-0xc(%ebp)
  100b70:	8b 45 f4             	mov    -0xc(%ebp),%eax
  100b73:	c9                   	leave  
  100b74:	c3                   	ret    
  100b75:	90                   	nop

00100b76 <_ZN5Print7printlnEji>:
  100b76:	55                   	push   %ebp
  100b77:	89 e5                	mov    %esp,%ebp
  100b79:	83 ec 28             	sub    $0x28,%esp
  100b7c:	8b 45 10             	mov    0x10(%ebp),%eax
  100b7f:	89 44 24 08          	mov    %eax,0x8(%esp)
  100b83:	8b 45 0c             	mov    0xc(%ebp),%eax
  100b86:	89 44 24 04          	mov    %eax,0x4(%esp)
  100b8a:	8b 45 08             	mov    0x8(%ebp),%eax
  100b8d:	89 04 24             	mov    %eax,(%esp)
  100b90:	e8 93 fd ff ff       	call   100928 <_ZN5Print5printEji>
  100b95:	89 45 f4             	mov    %eax,-0xc(%ebp)
  100b98:	8b 45 08             	mov    0x8(%ebp),%eax
  100b9b:	89 04 24             	mov    %eax,(%esp)
  100b9e:	e8 c5 fe ff ff       	call   100a68 <_ZN5Print7printlnEv>
  100ba3:	01 45 f4             	add    %eax,-0xc(%ebp)
  100ba6:	8b 45 f4             	mov    -0xc(%ebp),%eax
  100ba9:	c9                   	leave  
  100baa:	c3                   	ret    
  100bab:	90                   	nop

00100bac <_ZN5Print7printlnEli>:
  100bac:	55                   	push   %ebp
  100bad:	89 e5                	mov    %esp,%ebp
  100baf:	83 ec 28             	sub    $0x28,%esp
  100bb2:	8b 45 10             	mov    0x10(%ebp),%eax
  100bb5:	89 44 24 08          	mov    %eax,0x8(%esp)
  100bb9:	8b 45 0c             	mov    0xc(%ebp),%eax
  100bbc:	89 44 24 04          	mov    %eax,0x4(%esp)
  100bc0:	8b 45 08             	mov    0x8(%ebp),%eax
  100bc3:	89 04 24             	mov    %eax,(%esp)
  100bc6:	e8 7f fd ff ff       	call   10094a <_ZN5Print5printEli>
  100bcb:	89 45 f4             	mov    %eax,-0xc(%ebp)
  100bce:	8b 45 08             	mov    0x8(%ebp),%eax
  100bd1:	89 04 24             	mov    %eax,(%esp)
  100bd4:	e8 8f fe ff ff       	call   100a68 <_ZN5Print7printlnEv>
  100bd9:	01 45 f4             	add    %eax,-0xc(%ebp)
  100bdc:	8b 45 f4             	mov    -0xc(%ebp),%eax
  100bdf:	c9                   	leave  
  100be0:	c3                   	ret    
  100be1:	90                   	nop

00100be2 <_ZN5Print7printlnEmi>:
  100be2:	55                   	push   %ebp
  100be3:	89 e5                	mov    %esp,%ebp
  100be5:	83 ec 28             	sub    $0x28,%esp
  100be8:	8b 45 10             	mov    0x10(%ebp),%eax
  100beb:	89 44 24 08          	mov    %eax,0x8(%esp)
  100bef:	8b 45 0c             	mov    0xc(%ebp),%eax
  100bf2:	89 44 24 04          	mov    %eax,0x4(%esp)
  100bf6:	8b 45 08             	mov    0x8(%ebp),%eax
  100bf9:	89 04 24             	mov    %eax,(%esp)
  100bfc:	e8 f1 fd ff ff       	call   1009f2 <_ZN5Print5printEmi>
  100c01:	89 45 f4             	mov    %eax,-0xc(%ebp)
  100c04:	8b 45 08             	mov    0x8(%ebp),%eax
  100c07:	89 04 24             	mov    %eax,(%esp)
  100c0a:	e8 59 fe ff ff       	call   100a68 <_ZN5Print7printlnEv>
  100c0f:	01 45 f4             	add    %eax,-0xc(%ebp)
  100c12:	8b 45 f4             	mov    -0xc(%ebp),%eax
  100c15:	c9                   	leave  
  100c16:	c3                   	ret    
  100c17:	90                   	nop

00100c18 <_ZN5Print7printlnEdi>:
  100c18:	55                   	push   %ebp
  100c19:	89 e5                	mov    %esp,%ebp
  100c1b:	83 ec 38             	sub    $0x38,%esp
  100c1e:	8b 45 0c             	mov    0xc(%ebp),%eax
  100c21:	89 45 e0             	mov    %eax,-0x20(%ebp)
  100c24:	8b 45 10             	mov    0x10(%ebp),%eax
  100c27:	89 45 e4             	mov    %eax,-0x1c(%ebp)
  100c2a:	8b 45 14             	mov    0x14(%ebp),%eax
  100c2d:	89 44 24 0c          	mov    %eax,0xc(%esp)
  100c31:	dd 45 e0             	fldl   -0x20(%ebp)
  100c34:	dd 5c 24 04          	fstpl  0x4(%esp)
  100c38:	8b 45 08             	mov    0x8(%ebp),%eax
  100c3b:	89 04 24             	mov    %eax,(%esp)
  100c3e:	e8 f5 fd ff ff       	call   100a38 <_ZN5Print5printEdi>
  100c43:	89 45 f4             	mov    %eax,-0xc(%ebp)
  100c46:	8b 45 08             	mov    0x8(%ebp),%eax
  100c49:	89 04 24             	mov    %eax,(%esp)
  100c4c:	e8 17 fe ff ff       	call   100a68 <_ZN5Print7printlnEv>
  100c51:	01 45 f4             	add    %eax,-0xc(%ebp)
  100c54:	8b 45 f4             	mov    -0xc(%ebp),%eax
  100c57:	c9                   	leave  
  100c58:	c3                   	ret    
  100c59:	90                   	nop

00100c5a <_ZN5Print11printNumberEmh>:
  100c5a:	55                   	push   %ebp
  100c5b:	89 e5                	mov    %esp,%ebp
  100c5d:	53                   	push   %ebx
  100c5e:	83 ec 54             	sub    $0x54,%esp
  100c61:	8b 45 10             	mov    0x10(%ebp),%eax
  100c64:	8b 55 08             	mov    0x8(%ebp),%edx
  100c67:	89 55 b4             	mov    %edx,-0x4c(%ebp)
  100c6a:	88 45 b0             	mov    %al,-0x50(%ebp)
  100c6d:	65 a1 14 00 00 00    	mov    %gs:0x14,%eax
  100c73:	89 45 f4             	mov    %eax,-0xc(%ebp)
  100c76:	31 c0                	xor    %eax,%eax
  100c78:	b8 20 00 00 00       	mov    $0x20,%eax
  100c7d:	8d 55 d3             	lea    -0x2d(%ebp),%edx
  100c80:	01 d0                	add    %edx,%eax
  100c82:	89 45 c8             	mov    %eax,-0x38(%ebp)
  100c85:	8b 45 c8             	mov    -0x38(%ebp),%eax
  100c88:	c6 00 00             	movb   $0x0,(%eax)
  100c8b:	80 7d b0 01          	cmpb   $0x1,-0x50(%ebp)
  100c8f:	77 04                	ja     100c95 <_ZN5Print11printNumberEmh+0x3b>
  100c91:	c6 45 b0 0a          	movb   $0xa,-0x50(%ebp)
  100c95:	8b 45 0c             	mov    0xc(%ebp),%eax
  100c98:	89 45 cc             	mov    %eax,-0x34(%ebp)
  100c9b:	0f b6 5d b0          	movzbl -0x50(%ebp),%ebx
  100c9f:	8b 45 0c             	mov    0xc(%ebp),%eax
  100ca2:	ba 00 00 00 00       	mov    $0x0,%edx
  100ca7:	f7 f3                	div    %ebx
  100ca9:	89 45 0c             	mov    %eax,0xc(%ebp)
  100cac:	8b 45 cc             	mov    -0x34(%ebp),%eax
  100caf:	89 c2                	mov    %eax,%edx
  100cb1:	8b 45 0c             	mov    0xc(%ebp),%eax
  100cb4:	f6 65 b0             	mulb   -0x50(%ebp)
  100cb7:	29 c2                	sub    %eax,%edx
  100cb9:	89 d0                	mov    %edx,%eax
  100cbb:	88 45 c7             	mov    %al,-0x39(%ebp)
  100cbe:	83 6d c8 01          	subl   $0x1,-0x38(%ebp)
  100cc2:	80 7d c7 09          	cmpb   $0x9,-0x39(%ebp)
  100cc6:	7f 09                	jg     100cd1 <_ZN5Print11printNumberEmh+0x77>
  100cc8:	0f b6 45 c7          	movzbl -0x39(%ebp),%eax
  100ccc:	83 c0 30             	add    $0x30,%eax
  100ccf:	eb 07                	jmp    100cd8 <_ZN5Print11printNumberEmh+0x7e>
  100cd1:	0f b6 45 c7          	movzbl -0x39(%ebp),%eax
  100cd5:	83 c0 37             	add    $0x37,%eax
  100cd8:	8b 55 c8             	mov    -0x38(%ebp),%edx
  100cdb:	88 02                	mov    %al,(%edx)
  100cdd:	83 7d 0c 00          	cmpl   $0x0,0xc(%ebp)
  100ce1:	75 b2                	jne    100c95 <_ZN5Print11printNumberEmh+0x3b>
  100ce3:	8b 45 c8             	mov    -0x38(%ebp),%eax
  100ce6:	89 44 24 04          	mov    %eax,0x4(%esp)
  100cea:	8b 45 b4             	mov    -0x4c(%ebp),%eax
  100ced:	89 04 24             	mov    %eax,(%esp)
  100cf0:	e8 65 fb ff ff       	call   10085a <_ZN5Print5writeEPKc>
  100cf5:	8b 4d f4             	mov    -0xc(%ebp),%ecx
  100cf8:	65 33 0d 14 00 00 00 	xor    %gs:0x14,%ecx
  100cff:	74 05                	je     100d06 <_ZN5Print11printNumberEmh+0xac>
  100d01:	e8 8a 52 00 00       	call   105f90 <__fini_array_end+0x5c>
  100d06:	83 c4 54             	add    $0x54,%esp
  100d09:	5b                   	pop    %ebx
  100d0a:	5d                   	pop    %ebp
  100d0b:	c3                   	ret    

00100d0c <_ZN5Print10printFloatEdh>:
  100d0c:	55                   	push   %ebp
  100d0d:	89 e5                	mov    %esp,%ebp
  100d0f:	83 ec 58             	sub    $0x58,%esp
  100d12:	8b 45 14             	mov    0x14(%ebp),%eax
  100d15:	8b 55 0c             	mov    0xc(%ebp),%edx
  100d18:	89 55 d0             	mov    %edx,-0x30(%ebp)
  100d1b:	8b 55 10             	mov    0x10(%ebp),%edx
  100d1e:	89 55 d4             	mov    %edx,-0x2c(%ebp)
  100d21:	88 45 cc             	mov    %al,-0x34(%ebp)
  100d24:	c7 45 dc 00 00 00 00 	movl   $0x0,-0x24(%ebp)
  100d2b:	dd 45 d0             	fldl   -0x30(%ebp)
  100d2e:	dd 1c 24             	fstpl  (%esp)
  100d31:	e8 6a 52 00 00       	call   105fa0 <__fini_array_end+0x6c>
  100d36:	85 c0                	test   %eax,%eax
  100d38:	0f 95 c0             	setne  %al
  100d3b:	84 c0                	test   %al,%al
  100d3d:	74 18                	je     100d57 <_ZN5Print10printFloatEdh+0x4b>
  100d3f:	c7 44 24 04 58 55 10 	movl   $0x105558,0x4(%esp)
  100d46:	00 
  100d47:	8b 45 08             	mov    0x8(%ebp),%eax
  100d4a:	89 04 24             	mov    %eax,(%esp)
  100d4d:	e8 4a fb ff ff       	call   10089c <_ZN5Print5printEPKc>
  100d52:	e9 b7 01 00 00       	jmp    100f0e <_ZN5Print10printFloatEdh+0x202>
  100d57:	dd 45 d0             	fldl   -0x30(%ebp)
  100d5a:	dd 1c 24             	fstpl  (%esp)
  100d5d:	e8 fe 51 00 00       	call   105f60 <__fini_array_end+0x2c>
  100d62:	85 c0                	test   %eax,%eax
  100d64:	0f 95 c0             	setne  %al
  100d67:	84 c0                	test   %al,%al
  100d69:	74 18                	je     100d83 <_ZN5Print10printFloatEdh+0x77>
  100d6b:	c7 44 24 04 5c 55 10 	movl   $0x10555c,0x4(%esp)
  100d72:	00 
  100d73:	8b 45 08             	mov    0x8(%ebp),%eax
  100d76:	89 04 24             	mov    %eax,(%esp)
  100d79:	e8 1e fb ff ff       	call   10089c <_ZN5Print5printEPKc>
  100d7e:	e9 8b 01 00 00       	jmp    100f0e <_ZN5Print10printFloatEdh+0x202>
  100d83:	dd 45 d0             	fldl   -0x30(%ebp)
  100d86:	dd 05 68 55 10 00    	fldl   0x105568
  100d8c:	d9 c9                	fxch   %st(1)
  100d8e:	df e9                	fucomip %st(1),%st
  100d90:	dd d8                	fstp   %st(0)
  100d92:	76 18                	jbe    100dac <_ZN5Print10printFloatEdh+0xa0>
  100d94:	c7 44 24 04 60 55 10 	movl   $0x105560,0x4(%esp)
  100d9b:	00 
  100d9c:	8b 45 08             	mov    0x8(%ebp),%eax
  100d9f:	89 04 24             	mov    %eax,(%esp)
  100da2:	e8 f5 fa ff ff       	call   10089c <_ZN5Print5printEPKc>
  100da7:	e9 62 01 00 00       	jmp    100f0e <_ZN5Print10printFloatEdh+0x202>
  100dac:	dd 05 70 55 10 00    	fldl   0x105570
  100db2:	dd 45 d0             	fldl   -0x30(%ebp)
  100db5:	d9 c9                	fxch   %st(1)
  100db7:	df e9                	fucomip %st(1),%st
  100db9:	dd d8                	fstp   %st(0)
  100dbb:	76 18                	jbe    100dd5 <_ZN5Print10printFloatEdh+0xc9>
  100dbd:	c7 44 24 04 60 55 10 	movl   $0x105560,0x4(%esp)
  100dc4:	00 
  100dc5:	8b 45 08             	mov    0x8(%ebp),%eax
  100dc8:	89 04 24             	mov    %eax,(%esp)
  100dcb:	e8 cc fa ff ff       	call   10089c <_ZN5Print5printEPKc>
  100dd0:	e9 39 01 00 00       	jmp    100f0e <_ZN5Print10printFloatEdh+0x202>
  100dd5:	d9 ee                	fldz   
  100dd7:	dd 45 d0             	fldl   -0x30(%ebp)
  100dda:	d9 c9                	fxch   %st(1)
  100ddc:	df e9                	fucomip %st(1),%st
  100dde:	dd d8                	fstp   %st(0)
  100de0:	76 1e                	jbe    100e00 <_ZN5Print10printFloatEdh+0xf4>
  100de2:	c7 44 24 04 2d 00 00 	movl   $0x2d,0x4(%esp)
  100de9:	00 
  100dea:	8b 45 08             	mov    0x8(%ebp),%eax
  100ded:	89 04 24             	mov    %eax,(%esp)
  100df0:	e8 c1 fa ff ff       	call   1008b6 <_ZN5Print5printEc>
  100df5:	01 45 dc             	add    %eax,-0x24(%ebp)
  100df8:	dd 45 d0             	fldl   -0x30(%ebp)
  100dfb:	d9 e0                	fchs   
  100dfd:	dd 5d d0             	fstpl  -0x30(%ebp)
  100e00:	dd 05 78 55 10 00    	fldl   0x105578
  100e06:	dd 5d e8             	fstpl  -0x18(%ebp)
  100e09:	c6 45 db 00          	movb   $0x0,-0x25(%ebp)
  100e0d:	eb 12                	jmp    100e21 <_ZN5Print10printFloatEdh+0x115>
  100e0f:	dd 45 e8             	fldl   -0x18(%ebp)
  100e12:	dd 05 80 55 10 00    	fldl   0x105580
  100e18:	de f9                	fdivrp %st,%st(1)
  100e1a:	dd 5d e8             	fstpl  -0x18(%ebp)
  100e1d:	80 45 db 01          	addb   $0x1,-0x25(%ebp)
  100e21:	0f b6 45 db          	movzbl -0x25(%ebp),%eax
  100e25:	3a 45 cc             	cmp    -0x34(%ebp),%al
  100e28:	72 e5                	jb     100e0f <_ZN5Print10printFloatEdh+0x103>
  100e2a:	dd 45 d0             	fldl   -0x30(%ebp)
  100e2d:	dc 45 e8             	faddl  -0x18(%ebp)
  100e30:	dd 5d d0             	fstpl  -0x30(%ebp)
  100e33:	dd 45 d0             	fldl   -0x30(%ebp)
  100e36:	d9 7d ce             	fnstcw -0x32(%ebp)
  100e39:	0f b7 45 ce          	movzwl -0x32(%ebp),%eax
  100e3d:	b4 0c                	mov    $0xc,%ah
  100e3f:	66 89 45 ca          	mov    %ax,-0x36(%ebp)
  100e43:	d9 6d ca             	fldcw  -0x36(%ebp)
  100e46:	df 7d c0             	fistpll -0x40(%ebp)
  100e49:	d9 6d ce             	fldcw  -0x32(%ebp)
  100e4c:	8b 45 c0             	mov    -0x40(%ebp),%eax
  100e4f:	8b 55 c4             	mov    -0x3c(%ebp),%edx
  100e52:	89 45 e0             	mov    %eax,-0x20(%ebp)
  100e55:	8b 45 e0             	mov    -0x20(%ebp),%eax
  100e58:	ba 00 00 00 00       	mov    $0x0,%edx
  100e5d:	89 45 c0             	mov    %eax,-0x40(%ebp)
  100e60:	89 55 c4             	mov    %edx,-0x3c(%ebp)
  100e63:	df 6d c0             	fildll -0x40(%ebp)
  100e66:	dd 45 d0             	fldl   -0x30(%ebp)
  100e69:	de e1                	fsubp  %st,%st(1)
  100e6b:	dd 5d f0             	fstpl  -0x10(%ebp)
  100e6e:	c7 44 24 08 0a 00 00 	movl   $0xa,0x8(%esp)
  100e75:	00 
  100e76:	8b 45 e0             	mov    -0x20(%ebp),%eax
  100e79:	89 44 24 04          	mov    %eax,0x4(%esp)
  100e7d:	8b 45 08             	mov    0x8(%ebp),%eax
  100e80:	89 04 24             	mov    %eax,(%esp)
  100e83:	e8 6a fb ff ff       	call   1009f2 <_ZN5Print5printEmi>
  100e88:	01 45 dc             	add    %eax,-0x24(%ebp)
  100e8b:	80 7d cc 00          	cmpb   $0x0,-0x34(%ebp)
  100e8f:	74 16                	je     100ea7 <_ZN5Print10printFloatEdh+0x19b>
  100e91:	c7 44 24 04 64 55 10 	movl   $0x105564,0x4(%esp)
  100e98:	00 
  100e99:	8b 45 08             	mov    0x8(%ebp),%eax
  100e9c:	89 04 24             	mov    %eax,(%esp)
  100e9f:	e8 f8 f9 ff ff       	call   10089c <_ZN5Print5printEPKc>
  100ea4:	01 45 dc             	add    %eax,-0x24(%ebp)
  100ea7:	eb 4f                	jmp    100ef8 <_ZN5Print10printFloatEdh+0x1ec>
  100ea9:	dd 45 f0             	fldl   -0x10(%ebp)
  100eac:	dd 05 80 55 10 00    	fldl   0x105580
  100eb2:	de c9                	fmulp  %st,%st(1)
  100eb4:	dd 5d f0             	fstpl  -0x10(%ebp)
  100eb7:	dd 45 f0             	fldl   -0x10(%ebp)
  100eba:	d9 7d ce             	fnstcw -0x32(%ebp)
  100ebd:	0f b7 45 ce          	movzwl -0x32(%ebp),%eax
  100ec1:	b4 0c                	mov    $0xc,%ah
  100ec3:	66 89 45 ca          	mov    %ax,-0x36(%ebp)
  100ec7:	d9 6d ca             	fldcw  -0x36(%ebp)
  100eca:	db 5d e4             	fistpl -0x1c(%ebp)
  100ecd:	d9 6d ce             	fldcw  -0x32(%ebp)
  100ed0:	c7 44 24 08 0a 00 00 	movl   $0xa,0x8(%esp)
  100ed7:	00 
  100ed8:	8b 45 e4             	mov    -0x1c(%ebp),%eax
  100edb:	89 44 24 04          	mov    %eax,0x4(%esp)
  100edf:	8b 45 08             	mov    0x8(%ebp),%eax
  100ee2:	89 04 24             	mov    %eax,(%esp)
  100ee5:	e8 1c fa ff ff       	call   100906 <_ZN5Print5printEii>
  100eea:	01 45 dc             	add    %eax,-0x24(%ebp)
  100eed:	db 45 e4             	fildl  -0x1c(%ebp)
  100ef0:	dd 45 f0             	fldl   -0x10(%ebp)
  100ef3:	de e1                	fsubp  %st,%st(1)
  100ef5:	dd 5d f0             	fstpl  -0x10(%ebp)
  100ef8:	0f b6 45 cc          	movzbl -0x34(%ebp),%eax
  100efc:	8d 50 ff             	lea    -0x1(%eax),%edx
  100eff:	88 55 cc             	mov    %dl,-0x34(%ebp)
  100f02:	84 c0                	test   %al,%al
  100f04:	0f 95 c0             	setne  %al
  100f07:	84 c0                	test   %al,%al
  100f09:	75 9e                	jne    100ea9 <_ZN5Print10printFloatEdh+0x19d>
  100f0b:	8b 45 dc             	mov    -0x24(%ebp),%eax
  100f0e:	c9                   	leave  
  100f0f:	c3                   	ret    

00100f10 <_ZL4outbth>:
  100f10:	55                   	push   %ebp
  100f11:	89 e5                	mov    %esp,%ebp
  100f13:	83 ec 08             	sub    $0x8,%esp
  100f16:	8b 55 08             	mov    0x8(%ebp),%edx
  100f19:	8b 45 0c             	mov    0xc(%ebp),%eax
  100f1c:	66 89 55 fc          	mov    %dx,-0x4(%ebp)
  100f20:	88 45 f8             	mov    %al,-0x8(%ebp)
  100f23:	0f b7 55 fc          	movzwl -0x4(%ebp),%edx
  100f27:	0f b6 45 f8          	movzbl -0x8(%ebp),%eax
  100f2b:	ee                   	out    %al,(%dx)
  100f2c:	c9                   	leave  
  100f2d:	c3                   	ret    

00100f2e <_ZL3inbt>:
  100f2e:	55                   	push   %ebp
  100f2f:	89 e5                	mov    %esp,%ebp
  100f31:	83 ec 14             	sub    $0x14,%esp
  100f34:	8b 45 08             	mov    0x8(%ebp),%eax
  100f37:	66 89 45 ec          	mov    %ax,-0x14(%ebp)
  100f3b:	0f b7 45 ec          	movzwl -0x14(%ebp),%eax
  100f3f:	89 c2                	mov    %eax,%edx
  100f41:	ec                   	in     (%dx),%al
  100f42:	88 45 ff             	mov    %al,-0x1(%ebp)
  100f45:	0f b6 45 ff          	movzbl -0x1(%ebp),%eax
  100f49:	c9                   	leave  
  100f4a:	c3                   	ret    

00100f4b <_ZL29platform_abstract_irq_handlerP14interrupt_info>:
  100f4b:	55                   	push   %ebp
  100f4c:	89 e5                	mov    %esp,%ebp
  100f4e:	83 ec 08             	sub    $0x8,%esp
  100f51:	8b 45 08             	mov    0x8(%ebp),%eax
  100f54:	8b 40 24             	mov    0x24(%eax),%eax
  100f57:	83 f8 27             	cmp    $0x27,%eax
  100f5a:	76 14                	jbe    100f70 <_ZL29platform_abstract_irq_handlerP14interrupt_info+0x25>
  100f5c:	c7 44 24 04 20 00 00 	movl   $0x20,0x4(%esp)
  100f63:	00 
  100f64:	c7 04 24 a0 00 00 00 	movl   $0xa0,(%esp)
  100f6b:	e8 a0 ff ff ff       	call   100f10 <_ZL4outbth>
  100f70:	8b 45 08             	mov    0x8(%ebp),%eax
  100f73:	8b 40 24             	mov    0x24(%eax),%eax
  100f76:	83 f8 1f             	cmp    $0x1f,%eax
  100f79:	76 14                	jbe    100f8f <_ZL29platform_abstract_irq_handlerP14interrupt_info+0x44>
  100f7b:	c7 44 24 04 20 00 00 	movl   $0x20,0x4(%esp)
  100f82:	00 
  100f83:	c7 04 24 20 00 00 00 	movl   $0x20,(%esp)
  100f8a:	e8 81 ff ff ff       	call   100f10 <_ZL4outbth>
  100f8f:	c9                   	leave  
  100f90:	c3                   	ret    

00100f91 <_Z16abstract_StubISRP14interrupt_info>:
  100f91:	55                   	push   %ebp
  100f92:	89 e5                	mov    %esp,%ebp
  100f94:	83 ec 18             	sub    $0x18,%esp
  100f97:	c7 04 24 a8 55 10 00 	movl   $0x1055a8,(%esp)
  100f9e:	e8 e8 f5 ff ff       	call   10058b <debug_print>
  100fa3:	8b 45 08             	mov    0x8(%ebp),%eax
  100fa6:	8b 40 24             	mov    0x24(%eax),%eax
  100fa9:	89 04 24             	mov    %eax,(%esp)
  100fac:	e8 ee f4 ff ff       	call   10049f <debug_printhex_int32>
  100fb1:	c7 44 24 04 02 00 00 	movl   $0x2,0x4(%esp)
  100fb8:	00 
  100fb9:	c7 04 24 c6 55 10 00 	movl   $0x1055c6,(%esp)
  100fc0:	e8 e8 f3 ff ff       	call   1003ad <debug_write>
  100fc5:	c7 04 24 cc 55 10 00 	movl   $0x1055cc,(%esp)
  100fcc:	e8 56 f7 ff ff       	call   100727 <_Z11systemErrorPKc>
  100fd1:	c9                   	leave  
  100fd2:	c3                   	ret    

00100fd3 <_Z23abstract_irq_table_sizej>:
  100fd3:	55                   	push   %ebp
  100fd4:	89 e5                	mov    %esp,%ebp
  100fd6:	8b 55 08             	mov    0x8(%ebp),%edx
  100fd9:	89 d0                	mov    %edx,%eax
  100fdb:	c1 e0 03             	shl    $0x3,%eax
  100fde:	01 d0                	add    %edx,%eax
  100fe0:	5d                   	pop    %ebp
  100fe1:	c3                   	ret    

00100fe2 <_Z17abstract_irq_initPvj>:
  100fe2:	55                   	push   %ebp
  100fe3:	89 e5                	mov    %esp,%ebp
  100fe5:	83 ec 28             	sub    $0x28,%esp
  100fe8:	8b 45 08             	mov    0x8(%ebp),%eax
  100feb:	a3 40 96 10 00       	mov    %eax,0x109640
  100ff0:	8b 55 0c             	mov    0xc(%ebp),%edx
  100ff3:	89 d0                	mov    %edx,%eax
  100ff5:	c1 e0 03             	shl    $0x3,%eax
  100ff8:	01 d0                	add    %edx,%eax
  100ffa:	89 44 24 08          	mov    %eax,0x8(%esp)
  100ffe:	c7 44 24 04 00 00 00 	movl   $0x0,0x4(%esp)
  101005:	00 
  101006:	8b 45 08             	mov    0x8(%ebp),%eax
  101009:	89 04 24             	mov    %eax,(%esp)
  10100c:	e8 1f 05 00 00       	call   101530 <_Z6memsetPvij>
  101011:	c7 45 f0 00 00 00 00 	movl   $0x0,-0x10(%ebp)
  101018:	eb 1c                	jmp    101036 <_Z17abstract_irq_initPvj+0x54>
  10101a:	8b 0d 40 96 10 00    	mov    0x109640,%ecx
  101020:	8b 55 f0             	mov    -0x10(%ebp),%edx
  101023:	89 d0                	mov    %edx,%eax
  101025:	c1 e0 03             	shl    $0x3,%eax
  101028:	01 d0                	add    %edx,%eax
  10102a:	01 c8                	add    %ecx,%eax
  10102c:	c7 00 91 0f 10 00    	movl   $0x100f91,(%eax)
  101032:	83 45 f0 01          	addl   $0x1,-0x10(%ebp)
  101036:	8b 45 f0             	mov    -0x10(%ebp),%eax
  101039:	3b 45 0c             	cmp    0xc(%ebp),%eax
  10103c:	72 dc                	jb     10101a <_Z17abstract_irq_initPvj+0x38>
  10103e:	c7 45 f4 00 00 00 00 	movl   $0x0,-0xc(%ebp)
  101045:	eb 1a                	jmp    101061 <_Z17abstract_irq_initPvj+0x7f>
  101047:	8b 0d 40 96 10 00    	mov    0x109640,%ecx
  10104d:	8b 55 f4             	mov    -0xc(%ebp),%edx
  101050:	89 d0                	mov    %edx,%eax
  101052:	c1 e0 03             	shl    $0x3,%eax
  101055:	01 d0                	add    %edx,%eax
  101057:	01 c8                	add    %ecx,%eax
  101059:	c6 40 08 01          	movb   $0x1,0x8(%eax)
  10105d:	83 45 f4 01          	addl   $0x1,-0xc(%ebp)
  101061:	8b 45 f4             	mov    -0xc(%ebp),%eax
  101064:	3b 45 0c             	cmp    0xc(%ebp),%eax
  101067:	72 de                	jb     101047 <_Z17abstract_irq_initPvj+0x65>
  101069:	c6 05 44 96 10 00 01 	movb   $0x1,0x109644
  101070:	c9                   	leave  
  101071:	c3                   	ret    

00101072 <abstract_irq_controller>:
  101072:	55                   	push   %ebp
  101073:	89 e5                	mov    %esp,%ebp
  101075:	53                   	push   %ebx
  101076:	83 ec 24             	sub    $0x24,%esp
  101079:	0f b6 05 44 96 10 00 	movzbl 0x109644,%eax
  101080:	84 c0                	test   %al,%al
  101082:	75 0c                	jne    101090 <abstract_irq_controller+0x1e>
  101084:	c7 04 24 ec 55 10 00 	movl   $0x1055ec,(%esp)
  10108b:	e8 97 f6 ff ff       	call   100727 <_Z11systemErrorPKc>
  101090:	8b 45 2c             	mov    0x2c(%ebp),%eax
  101093:	89 45 f4             	mov    %eax,-0xc(%ebp)
  101096:	8b 0d 40 96 10 00    	mov    0x109640,%ecx
  10109c:	8b 55 f4             	mov    -0xc(%ebp),%edx
  10109f:	89 d0                	mov    %edx,%eax
  1010a1:	c1 e0 03             	shl    $0x3,%eax
  1010a4:	01 d0                	add    %edx,%eax
  1010a6:	01 c8                	add    %ecx,%eax
  1010a8:	8b 50 04             	mov    0x4(%eax),%edx
  1010ab:	83 c2 01             	add    $0x1,%edx
  1010ae:	89 50 04             	mov    %edx,0x4(%eax)
  1010b1:	8d 45 08             	lea    0x8(%ebp),%eax
  1010b4:	89 04 24             	mov    %eax,(%esp)
  1010b7:	e8 8f fe ff ff       	call   100f4b <_ZL29platform_abstract_irq_handlerP14interrupt_info>
  1010bc:	8b 0d 40 96 10 00    	mov    0x109640,%ecx
  1010c2:	8b 55 f4             	mov    -0xc(%ebp),%edx
  1010c5:	89 d0                	mov    %edx,%eax
  1010c7:	c1 e0 03             	shl    $0x3,%eax
  1010ca:	01 d0                	add    %edx,%eax
  1010cc:	01 c8                	add    %ecx,%eax
  1010ce:	8b 00                	mov    (%eax),%eax
  1010d0:	8d 5d 08             	lea    0x8(%ebp),%ebx
  1010d3:	89 1c 24             	mov    %ebx,(%esp)
  1010d6:	ff d0                	call   *%eax
  1010d8:	83 c4 24             	add    $0x24,%esp
  1010db:	5b                   	pop    %ebx
  1010dc:	5d                   	pop    %ebp
  1010dd:	c3                   	ret    

001010de <_Z25abstract_irq_debug_attachjPFvP14interrupt_infoE>:
  1010de:	55                   	push   %ebp
  1010df:	89 e5                	mov    %esp,%ebp
  1010e1:	8b 0d 40 96 10 00    	mov    0x109640,%ecx
  1010e7:	8b 55 08             	mov    0x8(%ebp),%edx
  1010ea:	89 d0                	mov    %edx,%eax
  1010ec:	c1 e0 03             	shl    $0x3,%eax
  1010ef:	01 d0                	add    %edx,%eax
  1010f1:	8d 14 01             	lea    (%ecx,%eax,1),%edx
  1010f4:	8b 45 0c             	mov    0xc(%ebp),%eax
  1010f7:	89 02                	mov    %eax,(%edx)
  1010f9:	8b 0d 40 96 10 00    	mov    0x109640,%ecx
  1010ff:	8b 55 08             	mov    0x8(%ebp),%edx
  101102:	89 d0                	mov    %edx,%eax
  101104:	c1 e0 03             	shl    $0x3,%eax
  101107:	01 d0                	add    %edx,%eax
  101109:	01 c8                	add    %ecx,%eax
  10110b:	c6 40 08 01          	movb   $0x1,0x8(%eax)
  10110f:	5d                   	pop    %ebp
  101110:	c3                   	ret    

00101111 <_Z19abstract_irq_attachjPFvvE>:
  101111:	55                   	push   %ebp
  101112:	89 e5                	mov    %esp,%ebp
  101114:	8b 0d 40 96 10 00    	mov    0x109640,%ecx
  10111a:	8b 55 08             	mov    0x8(%ebp),%edx
  10111d:	89 d0                	mov    %edx,%eax
  10111f:	c1 e0 03             	shl    $0x3,%eax
  101122:	01 d0                	add    %edx,%eax
  101124:	8d 14 01             	lea    (%ecx,%eax,1),%edx
  101127:	8b 45 0c             	mov    0xc(%ebp),%eax
  10112a:	89 02                	mov    %eax,(%edx)
  10112c:	8b 0d 40 96 10 00    	mov    0x109640,%ecx
  101132:	8b 55 08             	mov    0x8(%ebp),%edx
  101135:	89 d0                	mov    %edx,%eax
  101137:	c1 e0 03             	shl    $0x3,%eax
  10113a:	01 d0                	add    %edx,%eax
  10113c:	01 c8                	add    %ecx,%eax
  10113e:	c6 40 08 00          	movb   $0x0,0x8(%eax)
  101142:	5d                   	pop    %ebp
  101143:	c3                   	ret    

00101144 <_Z6strlenPKc>:
  101144:	55                   	push   %ebp
  101145:	89 e5                	mov    %esp,%ebp
  101147:	83 ec 10             	sub    $0x10,%esp
  10114a:	c7 45 fc 00 00 00 00 	movl   $0x0,-0x4(%ebp)
  101151:	eb 04                	jmp    101157 <_Z6strlenPKc+0x13>
  101153:	83 45 fc 01          	addl   $0x1,-0x4(%ebp)
  101157:	8b 45 fc             	mov    -0x4(%ebp),%eax
  10115a:	8b 55 08             	mov    0x8(%ebp),%edx
  10115d:	01 d0                	add    %edx,%eax
  10115f:	0f b6 00             	movzbl (%eax),%eax
  101162:	84 c0                	test   %al,%al
  101164:	75 ed                	jne    101153 <_Z6strlenPKc+0xf>
  101166:	8b 45 fc             	mov    -0x4(%ebp),%eax
  101169:	c9                   	leave  
  10116a:	c3                   	ret    

0010116b <_ZL4outbth>:
  10116b:	55                   	push   %ebp
  10116c:	89 e5                	mov    %esp,%ebp
  10116e:	83 ec 08             	sub    $0x8,%esp
  101171:	8b 55 08             	mov    0x8(%ebp),%edx
  101174:	8b 45 0c             	mov    0xc(%ebp),%eax
  101177:	66 89 55 fc          	mov    %dx,-0x4(%ebp)
  10117b:	88 45 f8             	mov    %al,-0x8(%ebp)
  10117e:	0f b7 55 fc          	movzwl -0x4(%ebp),%edx
  101182:	0f b6 45 f8          	movzbl -0x8(%ebp),%eax
  101186:	ee                   	out    %al,(%dx)
  101187:	c9                   	leave  
  101188:	c3                   	ret    

00101189 <_ZL3inbt>:
  101189:	55                   	push   %ebp
  10118a:	89 e5                	mov    %esp,%ebp
  10118c:	83 ec 14             	sub    $0x14,%esp
  10118f:	8b 45 08             	mov    0x8(%ebp),%eax
  101192:	66 89 45 ec          	mov    %ax,-0x14(%ebp)
  101196:	0f b7 45 ec          	movzwl -0x14(%ebp),%eax
  10119a:	89 c2                	mov    %eax,%edx
  10119c:	ec                   	in     (%dx),%al
  10119d:	88 45 ff             	mov    %al,-0x1(%ebp)
  1011a0:	0f b6 45 ff          	movzbl -0x1(%ebp),%eax
  1011a4:	c9                   	leave  
  1011a5:	c3                   	ret    

001011a6 <_ZL29platform_abstract_irq_handlerP14interrupt_info>:
  1011a6:	55                   	push   %ebp
  1011a7:	89 e5                	mov    %esp,%ebp
  1011a9:	83 ec 08             	sub    $0x8,%esp
  1011ac:	8b 45 08             	mov    0x8(%ebp),%eax
  1011af:	8b 40 24             	mov    0x24(%eax),%eax
  1011b2:	83 f8 27             	cmp    $0x27,%eax
  1011b5:	76 14                	jbe    1011cb <_ZL29platform_abstract_irq_handlerP14interrupt_info+0x25>
  1011b7:	c7 44 24 04 20 00 00 	movl   $0x20,0x4(%esp)
  1011be:	00 
  1011bf:	c7 04 24 a0 00 00 00 	movl   $0xa0,(%esp)
  1011c6:	e8 a0 ff ff ff       	call   10116b <_ZL4outbth>
  1011cb:	8b 45 08             	mov    0x8(%ebp),%eax
  1011ce:	8b 40 24             	mov    0x24(%eax),%eax
  1011d1:	83 f8 1f             	cmp    $0x1f,%eax
  1011d4:	76 14                	jbe    1011ea <_ZL29platform_abstract_irq_handlerP14interrupt_info+0x44>
  1011d6:	c7 44 24 04 20 00 00 	movl   $0x20,0x4(%esp)
  1011dd:	00 
  1011de:	c7 04 24 20 00 00 00 	movl   $0x20,(%esp)
  1011e5:	e8 81 ff ff ff       	call   10116b <_ZL4outbth>
  1011ea:	c9                   	leave  
  1011eb:	c3                   	ret    

001011ec <_Z6strcpyPcPKc>:
  1011ec:	55                   	push   %ebp
  1011ed:	89 e5                	mov    %esp,%ebp
  1011ef:	83 ec 18             	sub    $0x18,%esp
  1011f2:	8b 45 0c             	mov    0xc(%ebp),%eax
  1011f5:	89 04 24             	mov    %eax,(%esp)
  1011f8:	e8 47 ff ff ff       	call   101144 <_Z6strlenPKc>
  1011fd:	83 c0 01             	add    $0x1,%eax
  101200:	89 44 24 08          	mov    %eax,0x8(%esp)
  101204:	8b 45 0c             	mov    0xc(%ebp),%eax
  101207:	89 44 24 04          	mov    %eax,0x4(%esp)
  10120b:	8b 45 08             	mov    0x8(%ebp),%eax
  10120e:	89 04 24             	mov    %eax,(%esp)
  101211:	e8 3c 02 00 00       	call   101452 <_Z7memmovePvPKvj>
  101216:	8b 45 08             	mov    0x8(%ebp),%eax
  101219:	c9                   	leave  
  10121a:	c3                   	ret    

0010121b <_Z12num2base_strPcji>:
  10121b:	55                   	push   %ebp
  10121c:	89 e5                	mov    %esp,%ebp
  10121e:	53                   	push   %ebx
  10121f:	83 ec 24             	sub    $0x24,%esp
  101222:	c7 45 f0 00 00 00 00 	movl   $0x0,-0x10(%ebp)
  101229:	8b 45 0c             	mov    0xc(%ebp),%eax
  10122c:	89 45 e8             	mov    %eax,-0x18(%ebp)
  10122f:	c7 45 ec 00 00 00 00 	movl   $0x0,-0x14(%ebp)
  101236:	c7 45 f4 00 00 00 00 	movl   $0x0,-0xc(%ebp)
  10123d:	8b 4d 10             	mov    0x10(%ebp),%ecx
  101240:	8b 45 e8             	mov    -0x18(%ebp),%eax
  101243:	ba 00 00 00 00       	mov    $0x0,%edx
  101248:	f7 f1                	div    %ecx
  10124a:	89 55 f0             	mov    %edx,-0x10(%ebp)
  10124d:	8b 5d 10             	mov    0x10(%ebp),%ebx
  101250:	8b 45 e8             	mov    -0x18(%ebp),%eax
  101253:	ba 00 00 00 00       	mov    $0x0,%edx
  101258:	f7 f3                	div    %ebx
  10125a:	89 45 e8             	mov    %eax,-0x18(%ebp)
  10125d:	8b 55 ec             	mov    -0x14(%ebp),%edx
  101260:	8b 45 08             	mov    0x8(%ebp),%eax
  101263:	01 c2                	add    %eax,%edx
  101265:	83 7d f0 09          	cmpl   $0x9,-0x10(%ebp)
  101269:	77 08                	ja     101273 <_Z12num2base_strPcji+0x58>
  10126b:	8b 45 f0             	mov    -0x10(%ebp),%eax
  10126e:	83 c0 30             	add    $0x30,%eax
  101271:	eb 06                	jmp    101279 <_Z12num2base_strPcji+0x5e>
  101273:	8b 45 f0             	mov    -0x10(%ebp),%eax
  101276:	83 c0 37             	add    $0x37,%eax
  101279:	88 02                	mov    %al,(%edx)
  10127b:	83 45 ec 01          	addl   $0x1,-0x14(%ebp)
  10127f:	8b 45 10             	mov    0x10(%ebp),%eax
  101282:	3b 45 e8             	cmp    -0x18(%ebp),%eax
  101285:	76 b6                	jbe    10123d <_Z12num2base_strPcji+0x22>
  101287:	83 7d e8 00          	cmpl   $0x0,-0x18(%ebp)
  10128b:	74 2f                	je     1012bc <_Z12num2base_strPcji+0xa1>
  10128d:	8b 55 ec             	mov    -0x14(%ebp),%edx
  101290:	8b 45 08             	mov    0x8(%ebp),%eax
  101293:	01 c2                	add    %eax,%edx
  101295:	83 7d e8 09          	cmpl   $0x9,-0x18(%ebp)
  101299:	77 08                	ja     1012a3 <_Z12num2base_strPcji+0x88>
  10129b:	8b 45 e8             	mov    -0x18(%ebp),%eax
  10129e:	83 c0 30             	add    $0x30,%eax
  1012a1:	eb 06                	jmp    1012a9 <_Z12num2base_strPcji+0x8e>
  1012a3:	8b 45 e8             	mov    -0x18(%ebp),%eax
  1012a6:	83 c0 37             	add    $0x37,%eax
  1012a9:	88 02                	mov    %al,(%edx)
  1012ab:	83 45 ec 01          	addl   $0x1,-0x14(%ebp)
  1012af:	8b 55 ec             	mov    -0x14(%ebp),%edx
  1012b2:	8b 45 08             	mov    0x8(%ebp),%eax
  1012b5:	01 d0                	add    %edx,%eax
  1012b7:	c6 00 00             	movb   $0x0,(%eax)
  1012ba:	eb 0b                	jmp    1012c7 <_Z12num2base_strPcji+0xac>
  1012bc:	8b 55 ec             	mov    -0x14(%ebp),%edx
  1012bf:	8b 45 08             	mov    0x8(%ebp),%eax
  1012c2:	01 d0                	add    %edx,%eax
  1012c4:	c6 00 00             	movb   $0x0,(%eax)
  1012c7:	8b 45 08             	mov    0x8(%ebp),%eax
  1012ca:	89 04 24             	mov    %eax,(%esp)
  1012cd:	e8 06 00 00 00       	call   1012d8 <_Z11str_reversePc>
  1012d2:	83 c4 24             	add    $0x24,%esp
  1012d5:	5b                   	pop    %ebx
  1012d6:	5d                   	pop    %ebp
  1012d7:	c3                   	ret    

001012d8 <_Z11str_reversePc>:
  1012d8:	55                   	push   %ebp
  1012d9:	89 e5                	mov    %esp,%ebp
  1012db:	83 ec 28             	sub    $0x28,%esp
  1012de:	8b 45 08             	mov    0x8(%ebp),%eax
  1012e1:	89 04 24             	mov    %eax,(%esp)
  1012e4:	e8 5b fe ff ff       	call   101144 <_Z6strlenPKc>
  1012e9:	89 45 f4             	mov    %eax,-0xc(%ebp)
  1012ec:	c7 45 f0 00 00 00 00 	movl   $0x0,-0x10(%ebp)
  1012f3:	eb 2a                	jmp    10131f <_Z11str_reversePc+0x47>
  1012f5:	8b 55 f4             	mov    -0xc(%ebp),%edx
  1012f8:	8b 45 f0             	mov    -0x10(%ebp),%eax
  1012fb:	29 c2                	sub    %eax,%edx
  1012fd:	89 d0                	mov    %edx,%eax
  1012ff:	8d 50 ff             	lea    -0x1(%eax),%edx
  101302:	8b 45 08             	mov    0x8(%ebp),%eax
  101305:	01 c2                	add    %eax,%edx
  101307:	8b 4d f0             	mov    -0x10(%ebp),%ecx
  10130a:	8b 45 08             	mov    0x8(%ebp),%eax
  10130d:	01 c8                	add    %ecx,%eax
  10130f:	89 54 24 04          	mov    %edx,0x4(%esp)
  101313:	89 04 24             	mov    %eax,(%esp)
  101316:	e8 17 00 00 00       	call   101332 <_Z9swap_charPcS_>
  10131b:	83 45 f0 01          	addl   $0x1,-0x10(%ebp)
  10131f:	8b 45 f4             	mov    -0xc(%ebp),%eax
  101322:	89 c2                	mov    %eax,%edx
  101324:	c1 ea 1f             	shr    $0x1f,%edx
  101327:	01 d0                	add    %edx,%eax
  101329:	d1 f8                	sar    %eax
  10132b:	3b 45 f0             	cmp    -0x10(%ebp),%eax
  10132e:	7f c5                	jg     1012f5 <_Z11str_reversePc+0x1d>
  101330:	c9                   	leave  
  101331:	c3                   	ret    

00101332 <_Z9swap_charPcS_>:
  101332:	55                   	push   %ebp
  101333:	89 e5                	mov    %esp,%ebp
  101335:	8b 45 08             	mov    0x8(%ebp),%eax
  101338:	0f b6 10             	movzbl (%eax),%edx
  10133b:	8b 45 0c             	mov    0xc(%ebp),%eax
  10133e:	0f b6 00             	movzbl (%eax),%eax
  101341:	31 c2                	xor    %eax,%edx
  101343:	8b 45 08             	mov    0x8(%ebp),%eax
  101346:	88 10                	mov    %dl,(%eax)
  101348:	8b 45 08             	mov    0x8(%ebp),%eax
  10134b:	0f b6 10             	movzbl (%eax),%edx
  10134e:	8b 45 0c             	mov    0xc(%ebp),%eax
  101351:	0f b6 00             	movzbl (%eax),%eax
  101354:	31 c2                	xor    %eax,%edx
  101356:	8b 45 0c             	mov    0xc(%ebp),%eax
  101359:	88 10                	mov    %dl,(%eax)
  10135b:	8b 45 08             	mov    0x8(%ebp),%eax
  10135e:	0f b6 10             	movzbl (%eax),%edx
  101361:	8b 45 0c             	mov    0xc(%ebp),%eax
  101364:	0f b6 00             	movzbl (%eax),%eax
  101367:	31 c2                	xor    %eax,%edx
  101369:	8b 45 08             	mov    0x8(%ebp),%eax
  10136c:	88 10                	mov    %dl,(%eax)
  10136e:	5d                   	pop    %ebp
  10136f:	c3                   	ret    

00101370 <_Z9strformatPcic>:
  101370:	55                   	push   %ebp
  101371:	89 e5                	mov    %esp,%ebp
  101373:	83 ec 28             	sub    $0x28,%esp
  101376:	8b 45 10             	mov    0x10(%ebp),%eax
  101379:	88 45 e4             	mov    %al,-0x1c(%ebp)
  10137c:	8b 45 08             	mov    0x8(%ebp),%eax
  10137f:	89 04 24             	mov    %eax,(%esp)
  101382:	e8 bd fd ff ff       	call   101144 <_Z6strlenPKc>
  101387:	89 45 f4             	mov    %eax,-0xc(%ebp)
  10138a:	8b 45 f4             	mov    -0xc(%ebp),%eax
  10138d:	3b 45 0c             	cmp    0xc(%ebp),%eax
  101390:	7d 1c                	jge    1013ae <_Z9strformatPcic+0x3e>
  101392:	8b 55 0c             	mov    0xc(%ebp),%edx
  101395:	8b 45 f4             	mov    -0xc(%ebp),%eax
  101398:	29 c2                	sub    %eax,%edx
  10139a:	8b 45 08             	mov    0x8(%ebp),%eax
  10139d:	01 c2                	add    %eax,%edx
  10139f:	8b 45 08             	mov    0x8(%ebp),%eax
  1013a2:	89 44 24 04          	mov    %eax,0x4(%esp)
  1013a6:	89 14 24             	mov    %edx,(%esp)
  1013a9:	e8 3e fe ff ff       	call   1011ec <_Z6strcpyPcPKc>
  1013ae:	c7 45 f0 00 00 00 00 	movl   $0x0,-0x10(%ebp)
  1013b5:	eb 12                	jmp    1013c9 <_Z9strformatPcic+0x59>
  1013b7:	8b 55 f0             	mov    -0x10(%ebp),%edx
  1013ba:	8b 45 08             	mov    0x8(%ebp),%eax
  1013bd:	01 c2                	add    %eax,%edx
  1013bf:	0f b6 45 e4          	movzbl -0x1c(%ebp),%eax
  1013c3:	88 02                	mov    %al,(%edx)
  1013c5:	83 45 f0 01          	addl   $0x1,-0x10(%ebp)
  1013c9:	8b 45 f4             	mov    -0xc(%ebp),%eax
  1013cc:	8b 55 0c             	mov    0xc(%ebp),%edx
  1013cf:	29 c2                	sub    %eax,%edx
  1013d1:	89 d0                	mov    %edx,%eax
  1013d3:	3b 45 f0             	cmp    -0x10(%ebp),%eax
  1013d6:	7f df                	jg     1013b7 <_Z9strformatPcic+0x47>
  1013d8:	c9                   	leave  
  1013d9:	c3                   	ret    

001013da <_Z6strcmpPKcS0_>:
  1013da:	55                   	push   %ebp
  1013db:	89 e5                	mov    %esp,%ebp
  1013dd:	eb 36                	jmp    101415 <_Z6strcmpPKcS0_+0x3b>
  1013df:	8b 45 08             	mov    0x8(%ebp),%eax
  1013e2:	0f b6 10             	movzbl (%eax),%edx
  1013e5:	8b 45 0c             	mov    0xc(%ebp),%eax
  1013e8:	0f b6 00             	movzbl (%eax),%eax
  1013eb:	38 c2                	cmp    %al,%dl
  1013ed:	7d 07                	jge    1013f6 <_Z6strcmpPKcS0_+0x1c>
  1013ef:	b8 ff ff ff ff       	mov    $0xffffffff,%eax
  1013f4:	eb 5a                	jmp    101450 <_Z6strcmpPKcS0_+0x76>
  1013f6:	8b 45 08             	mov    0x8(%ebp),%eax
  1013f9:	0f b6 10             	movzbl (%eax),%edx
  1013fc:	8b 45 0c             	mov    0xc(%ebp),%eax
  1013ff:	0f b6 00             	movzbl (%eax),%eax
  101402:	38 c2                	cmp    %al,%dl
  101404:	7e 07                	jle    10140d <_Z6strcmpPKcS0_+0x33>
  101406:	b8 01 00 00 00       	mov    $0x1,%eax
  10140b:	eb 43                	jmp    101450 <_Z6strcmpPKcS0_+0x76>
  10140d:	83 45 08 01          	addl   $0x1,0x8(%ebp)
  101411:	83 45 0c 01          	addl   $0x1,0xc(%ebp)
  101415:	8b 45 08             	mov    0x8(%ebp),%eax
  101418:	0f b6 00             	movzbl (%eax),%eax
  10141b:	84 c0                	test   %al,%al
  10141d:	74 0a                	je     101429 <_Z6strcmpPKcS0_+0x4f>
  10141f:	8b 45 0c             	mov    0xc(%ebp),%eax
  101422:	0f b6 00             	movzbl (%eax),%eax
  101425:	84 c0                	test   %al,%al
  101427:	75 b6                	jne    1013df <_Z6strcmpPKcS0_+0x5>
  101429:	8b 45 08             	mov    0x8(%ebp),%eax
  10142c:	0f b6 00             	movzbl (%eax),%eax
  10142f:	84 c0                	test   %al,%al
  101431:	75 18                	jne    10144b <_Z6strcmpPKcS0_+0x71>
  101433:	8b 45 0c             	mov    0xc(%ebp),%eax
  101436:	0f b6 00             	movzbl (%eax),%eax
  101439:	84 c0                	test   %al,%al
  10143b:	74 07                	je     101444 <_Z6strcmpPKcS0_+0x6a>
  10143d:	b8 01 00 00 00       	mov    $0x1,%eax
  101442:	eb 0c                	jmp    101450 <_Z6strcmpPKcS0_+0x76>
  101444:	b8 00 00 00 00       	mov    $0x0,%eax
  101449:	eb 05                	jmp    101450 <_Z6strcmpPKcS0_+0x76>
  10144b:	b8 ff ff ff ff       	mov    $0xffffffff,%eax
  101450:	5d                   	pop    %ebp
  101451:	c3                   	ret    

00101452 <_Z7memmovePvPKvj>:
  101452:	55                   	push   %ebp
  101453:	89 e5                	mov    %esp,%ebp
  101455:	83 ec 20             	sub    $0x20,%esp
  101458:	8b 45 08             	mov    0x8(%ebp),%eax
  10145b:	89 45 ec             	mov    %eax,-0x14(%ebp)
  10145e:	8b 45 0c             	mov    0xc(%ebp),%eax
  101461:	89 45 f0             	mov    %eax,-0x10(%ebp)
  101464:	8b 45 ec             	mov    -0x14(%ebp),%eax
  101467:	3b 45 f0             	cmp    -0x10(%ebp),%eax
  10146a:	76 43                	jbe    1014af <_Z7memmovePvPKvj+0x5d>
  10146c:	8b 45 10             	mov    0x10(%ebp),%eax
  10146f:	8d 50 ff             	lea    -0x1(%eax),%edx
  101472:	8b 45 f0             	mov    -0x10(%ebp),%eax
  101475:	01 d0                	add    %edx,%eax
  101477:	89 45 f4             	mov    %eax,-0xc(%ebp)
  10147a:	8b 55 ec             	mov    -0x14(%ebp),%edx
  10147d:	8b 45 f0             	mov    -0x10(%ebp),%eax
  101480:	29 c2                	sub    %eax,%edx
  101482:	89 d0                	mov    %edx,%eax
  101484:	89 45 f8             	mov    %eax,-0x8(%ebp)
  101487:	eb 1b                	jmp    1014a4 <_Z7memmovePvPKvj+0x52>
  101489:	8b 55 f8             	mov    -0x8(%ebp),%edx
  10148c:	8b 45 f4             	mov    -0xc(%ebp),%eax
  10148f:	8d 0c 02             	lea    (%edx,%eax,1),%ecx
  101492:	8b 45 f4             	mov    -0xc(%ebp),%eax
  101495:	8d 50 ff             	lea    -0x1(%eax),%edx
  101498:	89 55 f4             	mov    %edx,-0xc(%ebp)
  10149b:	0f b6 00             	movzbl (%eax),%eax
  10149e:	88 01                	mov    %al,(%ecx)
  1014a0:	83 6d 10 01          	subl   $0x1,0x10(%ebp)
  1014a4:	83 7d 10 00          	cmpl   $0x0,0x10(%ebp)
  1014a8:	75 df                	jne    101489 <_Z7memmovePvPKvj+0x37>
  1014aa:	8b 45 ec             	mov    -0x14(%ebp),%eax
  1014ad:	eb 43                	jmp    1014f2 <_Z7memmovePvPKvj+0xa0>
  1014af:	8b 45 ec             	mov    -0x14(%ebp),%eax
  1014b2:	3b 45 f0             	cmp    -0x10(%ebp),%eax
  1014b5:	73 2e                	jae    1014e5 <_Z7memmovePvPKvj+0x93>
  1014b7:	8b 45 ec             	mov    -0x14(%ebp),%eax
  1014ba:	89 45 fc             	mov    %eax,-0x4(%ebp)
  1014bd:	eb 1b                	jmp    1014da <_Z7memmovePvPKvj+0x88>
  1014bf:	8b 45 ec             	mov    -0x14(%ebp),%eax
  1014c2:	8d 50 01             	lea    0x1(%eax),%edx
  1014c5:	89 55 ec             	mov    %edx,-0x14(%ebp)
  1014c8:	8b 55 f0             	mov    -0x10(%ebp),%edx
  1014cb:	8d 4a 01             	lea    0x1(%edx),%ecx
  1014ce:	89 4d f0             	mov    %ecx,-0x10(%ebp)
  1014d1:	0f b6 12             	movzbl (%edx),%edx
  1014d4:	88 10                	mov    %dl,(%eax)
  1014d6:	83 6d 10 01          	subl   $0x1,0x10(%ebp)
  1014da:	83 7d 10 00          	cmpl   $0x0,0x10(%ebp)
  1014de:	75 df                	jne    1014bf <_Z7memmovePvPKvj+0x6d>
  1014e0:	8b 45 fc             	mov    -0x4(%ebp),%eax
  1014e3:	eb 0d                	jmp    1014f2 <_Z7memmovePvPKvj+0xa0>
  1014e5:	8b 45 ec             	mov    -0x14(%ebp),%eax
  1014e8:	3b 45 f0             	cmp    -0x10(%ebp),%eax
  1014eb:	75 05                	jne    1014f2 <_Z7memmovePvPKvj+0xa0>
  1014ed:	8b 45 ec             	mov    -0x14(%ebp),%eax
  1014f0:	eb 00                	jmp    1014f2 <_Z7memmovePvPKvj+0xa0>
  1014f2:	c9                   	leave  
  1014f3:	c3                   	ret    

001014f4 <_Z6memcpyPvPKvj>:
  1014f4:	55                   	push   %ebp
  1014f5:	89 e5                	mov    %esp,%ebp
  1014f7:	83 ec 10             	sub    $0x10,%esp
  1014fa:	8b 45 08             	mov    0x8(%ebp),%eax
  1014fd:	89 45 f8             	mov    %eax,-0x8(%ebp)
  101500:	8b 45 0c             	mov    0xc(%ebp),%eax
  101503:	89 45 fc             	mov    %eax,-0x4(%ebp)
  101506:	eb 1b                	jmp    101523 <_Z6memcpyPvPKvj+0x2f>
  101508:	8b 45 f8             	mov    -0x8(%ebp),%eax
  10150b:	8d 50 01             	lea    0x1(%eax),%edx
  10150e:	89 55 f8             	mov    %edx,-0x8(%ebp)
  101511:	8b 55 fc             	mov    -0x4(%ebp),%edx
  101514:	8d 4a 01             	lea    0x1(%edx),%ecx
  101517:	89 4d fc             	mov    %ecx,-0x4(%ebp)
  10151a:	0f b6 12             	movzbl (%edx),%edx
  10151d:	88 10                	mov    %dl,(%eax)
  10151f:	83 6d 10 01          	subl   $0x1,0x10(%ebp)
  101523:	83 7d 10 00          	cmpl   $0x0,0x10(%ebp)
  101527:	75 df                	jne    101508 <_Z6memcpyPvPKvj+0x14>
  101529:	b8 00 00 00 00       	mov    $0x0,%eax
  10152e:	c9                   	leave  
  10152f:	c3                   	ret    

00101530 <_Z6memsetPvij>:
  101530:	55                   	push   %ebp
  101531:	89 e5                	mov    %esp,%ebp
  101533:	eb 14                	jmp    101549 <_Z6memsetPvij+0x19>
  101535:	8b 45 10             	mov    0x10(%ebp),%eax
  101538:	8d 50 ff             	lea    -0x1(%eax),%edx
  10153b:	8b 45 08             	mov    0x8(%ebp),%eax
  10153e:	01 c2                	add    %eax,%edx
  101540:	8b 45 0c             	mov    0xc(%ebp),%eax
  101543:	88 02                	mov    %al,(%edx)
  101545:	83 6d 10 01          	subl   $0x1,0x10(%ebp)
  101549:	83 7d 10 00          	cmpl   $0x0,0x10(%ebp)
  10154d:	75 e6                	jne    101535 <_Z6memsetPvij+0x5>
  10154f:	5d                   	pop    %ebp
  101550:	c3                   	ret    

00101551 <_ZL4outbth>:
  101551:	55                   	push   %ebp
  101552:	89 e5                	mov    %esp,%ebp
  101554:	83 ec 08             	sub    $0x8,%esp
  101557:	8b 55 08             	mov    0x8(%ebp),%edx
  10155a:	8b 45 0c             	mov    0xc(%ebp),%eax
  10155d:	66 89 55 fc          	mov    %dx,-0x4(%ebp)
  101561:	88 45 f8             	mov    %al,-0x8(%ebp)
  101564:	0f b7 55 fc          	movzwl -0x4(%ebp),%edx
  101568:	0f b6 45 f8          	movzbl -0x8(%ebp),%eax
  10156c:	ee                   	out    %al,(%dx)
  10156d:	c9                   	leave  
  10156e:	c3                   	ret    

0010156f <_ZL3inbt>:
  10156f:	55                   	push   %ebp
  101570:	89 e5                	mov    %esp,%ebp
  101572:	83 ec 14             	sub    $0x14,%esp
  101575:	8b 45 08             	mov    0x8(%ebp),%eax
  101578:	66 89 45 ec          	mov    %ax,-0x14(%ebp)
  10157c:	0f b7 45 ec          	movzwl -0x14(%ebp),%eax
  101580:	89 c2                	mov    %eax,%edx
  101582:	ec                   	in     (%dx),%al
  101583:	88 45 ff             	mov    %al,-0x1(%ebp)
  101586:	0f b6 45 ff          	movzbl -0x1(%ebp),%eax
  10158a:	c9                   	leave  
  10158b:	c3                   	ret    

0010158c <_ZL29platform_abstract_irq_handlerP14interrupt_info>:
  10158c:	55                   	push   %ebp
  10158d:	89 e5                	mov    %esp,%ebp
  10158f:	83 ec 08             	sub    $0x8,%esp
  101592:	8b 45 08             	mov    0x8(%ebp),%eax
  101595:	8b 40 24             	mov    0x24(%eax),%eax
  101598:	83 f8 27             	cmp    $0x27,%eax
  10159b:	76 14                	jbe    1015b1 <_ZL29platform_abstract_irq_handlerP14interrupt_info+0x25>
  10159d:	c7 44 24 04 20 00 00 	movl   $0x20,0x4(%esp)
  1015a4:	00 
  1015a5:	c7 04 24 a0 00 00 00 	movl   $0xa0,(%esp)
  1015ac:	e8 a0 ff ff ff       	call   101551 <_ZL4outbth>
  1015b1:	8b 45 08             	mov    0x8(%ebp),%eax
  1015b4:	8b 40 24             	mov    0x24(%eax),%eax
  1015b7:	83 f8 1f             	cmp    $0x1f,%eax
  1015ba:	76 14                	jbe    1015d0 <_ZL29platform_abstract_irq_handlerP14interrupt_info+0x44>
  1015bc:	c7 44 24 04 20 00 00 	movl   $0x20,0x4(%esp)
  1015c3:	00 
  1015c4:	c7 04 24 20 00 00 00 	movl   $0x20,(%esp)
  1015cb:	e8 81 ff ff ff       	call   101551 <_ZL4outbth>
  1015d0:	c9                   	leave  
  1015d1:	c3                   	ret    

001015d2 <_ZL17call_constructorsPmS_>:
  1015d2:	55                   	push   %ebp
  1015d3:	89 e5                	mov    %esp,%ebp
  1015d5:	83 ec 28             	sub    $0x28,%esp
  1015d8:	8b 45 08             	mov    0x8(%ebp),%eax
  1015db:	89 45 f0             	mov    %eax,-0x10(%ebp)
  1015de:	eb 3c                	jmp    10161c <_ZL17call_constructorsPmS_+0x4a>
  1015e0:	c7 04 24 10 56 10 00 	movl   $0x105610,(%esp)
  1015e7:	e8 9f ef ff ff       	call   10058b <debug_print>
  1015ec:	8b 45 f0             	mov    -0x10(%ebp),%eax
  1015ef:	89 04 24             	mov    %eax,(%esp)
  1015f2:	e8 a8 ee ff ff       	call   10049f <debug_printhex_int32>
  1015f7:	c7 44 24 04 02 00 00 	movl   $0x2,0x4(%esp)
  1015fe:	00 
  1015ff:	c7 04 24 1d 56 10 00 	movl   $0x10561d,(%esp)
  101606:	e8 a2 ed ff ff       	call   1003ad <debug_write>
  10160b:	8b 45 f0             	mov    -0x10(%ebp),%eax
  10160e:	8b 00                	mov    (%eax),%eax
  101610:	89 45 f4             	mov    %eax,-0xc(%ebp)
  101613:	8b 45 f4             	mov    -0xc(%ebp),%eax
  101616:	ff d0                	call   *%eax
  101618:	83 45 f0 04          	addl   $0x4,-0x10(%ebp)
  10161c:	8b 45 f0             	mov    -0x10(%ebp),%eax
  10161f:	3b 45 0c             	cmp    0xc(%ebp),%eax
  101622:	72 bc                	jb     1015e0 <_ZL17call_constructorsPmS_+0xe>
  101624:	c9                   	leave  
  101625:	c3                   	ret    

00101626 <initenv_cpp_global_constructors>:
  101626:	55                   	push   %ebp
  101627:	89 e5                	mov    %esp,%ebp
  101629:	83 ec 18             	sub    $0x18,%esp
  10162c:	c7 04 24 20 56 10 00 	movl   $0x105620,(%esp)
  101633:	e8 53 ef ff ff       	call   10058b <debug_print>
  101638:	c7 04 24 3d 56 10 00 	movl   $0x10563d,(%esp)
  10163f:	e8 47 ef ff ff       	call   10058b <debug_print>
  101644:	c7 44 24 04 14 5f 10 	movl   $0x105f14,0x4(%esp)
  10164b:	00 
  10164c:	c7 04 24 14 5f 10 00 	movl   $0x105f14,(%esp)
  101653:	e8 7a ff ff ff       	call   1015d2 <_ZL17call_constructorsPmS_>
  101658:	c7 44 24 04 1c 5f 10 	movl   $0x105f1c,0x4(%esp)
  10165f:	00 
  101660:	c7 04 24 14 5f 10 00 	movl   $0x105f14,(%esp)
  101667:	e8 66 ff ff ff       	call   1015d2 <_ZL17call_constructorsPmS_>
  10166c:	c7 44 24 04 34 5f 10 	movl   $0x105f34,0x4(%esp)
  101673:	00 
  101674:	c7 04 24 34 5f 10 00 	movl   $0x105f34,(%esp)
  10167b:	e8 52 ff ff ff       	call   1015d2 <_ZL17call_constructorsPmS_>
  101680:	c7 04 24 4c 56 10 00 	movl   $0x10564c,(%esp)
  101687:	e8 ff ee ff ff       	call   10058b <debug_print>
  10168c:	c7 04 24 60 56 10 00 	movl   $0x105660,(%esp)
  101693:	e8 f3 ee ff ff       	call   10058b <debug_print>
  101698:	c9                   	leave  
  101699:	c3                   	ret    

0010169a <initenv_bss_clean>:
  10169a:	55                   	push   %ebp
  10169b:	89 e5                	mov    %esp,%ebp
  10169d:	83 ec 28             	sub    $0x28,%esp
  1016a0:	c7 04 24 8c 56 10 00 	movl   $0x10568c,(%esp)
  1016a7:	e8 df ee ff ff       	call   10058b <debug_print>
  1016ac:	c7 45 f4 00 87 10 00 	movl   $0x108700,-0xc(%ebp)
  1016b3:	eb 0a                	jmp    1016bf <initenv_bss_clean+0x25>
  1016b5:	8b 45 f4             	mov    -0xc(%ebp),%eax
  1016b8:	c6 00 00             	movb   $0x0,(%eax)
  1016bb:	83 45 f4 01          	addl   $0x1,-0xc(%ebp)
  1016bf:	b8 bc 9e 10 00       	mov    $0x109ebc,%eax
  1016c4:	39 45 f4             	cmp    %eax,-0xc(%ebp)
  1016c7:	72 ec                	jb     1016b5 <initenv_bss_clean+0x1b>
  1016c9:	c7 04 24 9e 56 10 00 	movl   $0x10569e,(%esp)
  1016d0:	e8 b6 ee ff ff       	call   10058b <debug_print>
  1016d5:	c9                   	leave  
  1016d6:	c3                   	ret    

001016d7 <initenv_bss_test>:
  1016d7:	55                   	push   %ebp
  1016d8:	89 e5                	mov    %esp,%ebp
  1016da:	83 ec 28             	sub    $0x28,%esp
  1016dd:	c7 45 ec 00 00 00 00 	movl   $0x0,-0x14(%ebp)
  1016e4:	c7 45 f0 00 00 00 00 	movl   $0x0,-0x10(%ebp)
  1016eb:	c7 04 24 a3 56 10 00 	movl   $0x1056a3,(%esp)
  1016f2:	e8 94 ee ff ff       	call   10058b <debug_print>
  1016f7:	c7 04 24 b1 56 10 00 	movl   $0x1056b1,(%esp)
  1016fe:	e8 88 ee ff ff       	call   10058b <debug_print>
  101703:	ba bc 9e 10 00       	mov    $0x109ebc,%edx
  101708:	b8 00 87 10 00       	mov    $0x108700,%eax
  10170d:	29 c2                	sub    %eax,%edx
  10170f:	89 d0                	mov    %edx,%eax
  101711:	89 04 24             	mov    %eax,(%esp)
  101714:	e8 86 ed ff ff       	call   10049f <debug_printhex_int32>
  101719:	c7 44 24 04 02 00 00 	movl   $0x2,0x4(%esp)
  101720:	00 
  101721:	c7 04 24 1d 56 10 00 	movl   $0x10561d,(%esp)
  101728:	e8 80 ec ff ff       	call   1003ad <debug_write>
  10172d:	c7 04 24 c0 56 10 00 	movl   $0x1056c0,(%esp)
  101734:	e8 52 ee ff ff       	call   10058b <debug_print>
  101739:	c7 45 f4 00 87 10 00 	movl   $0x108700,-0xc(%ebp)
  101740:	eb 52                	jmp    101794 <initenv_bss_test+0xbd>
  101742:	83 45 f0 01          	addl   $0x1,-0x10(%ebp)
  101746:	8b 45 f4             	mov    -0xc(%ebp),%eax
  101749:	0f b6 00             	movzbl (%eax),%eax
  10174c:	84 c0                	test   %al,%al
  10174e:	74 40                	je     101790 <initenv_bss_test+0xb9>
  101750:	8b 45 f4             	mov    -0xc(%ebp),%eax
  101753:	89 04 24             	mov    %eax,(%esp)
  101756:	e8 44 ed ff ff       	call   10049f <debug_printhex_int32>
  10175b:	c7 04 24 00 57 10 00 	movl   $0x105700,(%esp)
  101762:	e8 24 ee ff ff       	call   10058b <debug_print>
  101767:	8b 45 f4             	mov    -0xc(%ebp),%eax
  10176a:	0f b6 00             	movzbl (%eax),%eax
  10176d:	0f be c0             	movsbl %al,%eax
  101770:	89 04 24             	mov    %eax,(%esp)
  101773:	e8 f3 ec ff ff       	call   10046b <debug_printhex_byte>
  101778:	c7 44 24 04 02 00 00 	movl   $0x2,0x4(%esp)
  10177f:	00 
  101780:	c7 04 24 1d 56 10 00 	movl   $0x10561d,(%esp)
  101787:	e8 21 ec ff ff       	call   1003ad <debug_write>
  10178c:	83 45 ec 01          	addl   $0x1,-0x14(%ebp)
  101790:	83 45 f4 01          	addl   $0x1,-0xc(%ebp)
  101794:	b8 bc 9e 10 00       	mov    $0x109ebc,%eax
  101799:	39 45 f4             	cmp    %eax,-0xc(%ebp)
  10179c:	72 a4                	jb     101742 <initenv_bss_test+0x6b>
  10179e:	c7 04 24 04 57 10 00 	movl   $0x105704,(%esp)
  1017a5:	e8 e1 ed ff ff       	call   10058b <debug_print>
  1017aa:	8b 45 f0             	mov    -0x10(%ebp),%eax
  1017ad:	89 04 24             	mov    %eax,(%esp)
  1017b0:	e8 ea ec ff ff       	call   10049f <debug_printhex_int32>
  1017b5:	c7 04 24 36 57 10 00 	movl   $0x105736,(%esp)
  1017bc:	e8 ca ed ff ff       	call   10058b <debug_print>
  1017c1:	8b 45 ec             	mov    -0x14(%ebp),%eax
  1017c4:	89 04 24             	mov    %eax,(%esp)
  1017c7:	e8 d3 ec ff ff       	call   10049f <debug_printhex_int32>
  1017cc:	c7 44 24 04 02 00 00 	movl   $0x2,0x4(%esp)
  1017d3:	00 
  1017d4:	c7 04 24 1d 56 10 00 	movl   $0x10561d,(%esp)
  1017db:	e8 cd eb ff ff       	call   1003ad <debug_write>
  1017e0:	c7 04 24 47 57 10 00 	movl   $0x105747,(%esp)
  1017e7:	e8 9f ed ff ff       	call   10058b <debug_print>
  1017ec:	c9                   	leave  
  1017ed:	c3                   	ret    

001017ee <initenv_sections_info>:
  1017ee:	55                   	push   %ebp
  1017ef:	89 e5                	mov    %esp,%ebp
  1017f1:	83 ec 18             	sub    $0x18,%esp
  1017f4:	c7 04 24 58 57 10 00 	movl   $0x105758,(%esp)
  1017fb:	e8 8b ed ff ff       	call   10058b <debug_print>
  101800:	c7 04 24 7c 57 10 00 	movl   $0x10577c,(%esp)
  101807:	e8 7f ed ff ff       	call   10058b <debug_print>
  10180c:	b8 00 00 10 00       	mov    $0x100000,%eax
  101811:	89 04 24             	mov    %eax,(%esp)
  101814:	e8 86 ec ff ff       	call   10049f <debug_printhex_int32>
  101819:	c7 44 24 04 02 00 00 	movl   $0x2,0x4(%esp)
  101820:	00 
  101821:	c7 04 24 1d 56 10 00 	movl   $0x10561d,(%esp)
  101828:	e8 80 eb ff ff       	call   1003ad <debug_write>
  10182d:	c7 04 24 8a 57 10 00 	movl   $0x10578a,(%esp)
  101834:	e8 52 ed ff ff       	call   10058b <debug_print>
  101839:	b8 34 5f 10 00       	mov    $0x105f34,%eax
  10183e:	89 04 24             	mov    %eax,(%esp)
  101841:	e8 59 ec ff ff       	call   10049f <debug_printhex_int32>
  101846:	c7 44 24 04 02 00 00 	movl   $0x2,0x4(%esp)
  10184d:	00 
  10184e:	c7 04 24 1d 56 10 00 	movl   $0x10561d,(%esp)
  101855:	e8 53 eb ff ff       	call   1003ad <debug_write>
  10185a:	c7 04 24 98 57 10 00 	movl   $0x105798,(%esp)
  101861:	e8 25 ed ff ff       	call   10058b <debug_print>
  101866:	b8 20 83 10 00       	mov    $0x108320,%eax
  10186b:	89 04 24             	mov    %eax,(%esp)
  10186e:	e8 2c ec ff ff       	call   10049f <debug_printhex_int32>
  101873:	c7 44 24 04 02 00 00 	movl   $0x2,0x4(%esp)
  10187a:	00 
  10187b:	c7 04 24 1d 56 10 00 	movl   $0x10561d,(%esp)
  101882:	e8 26 eb ff ff       	call   1003ad <debug_write>
  101887:	c7 04 24 a6 57 10 00 	movl   $0x1057a6,(%esp)
  10188e:	e8 f8 ec ff ff       	call   10058b <debug_print>
  101893:	b8 f0 85 10 00       	mov    $0x1085f0,%eax
  101898:	89 04 24             	mov    %eax,(%esp)
  10189b:	e8 ff eb ff ff       	call   10049f <debug_printhex_int32>
  1018a0:	c7 44 24 04 02 00 00 	movl   $0x2,0x4(%esp)
  1018a7:	00 
  1018a8:	c7 04 24 1d 56 10 00 	movl   $0x10561d,(%esp)
  1018af:	e8 f9 ea ff ff       	call   1003ad <debug_write>
  1018b4:	c7 04 24 b4 57 10 00 	movl   $0x1057b4,(%esp)
  1018bb:	e8 cb ec ff ff       	call   10058b <debug_print>
  1018c0:	b8 00 87 10 00       	mov    $0x108700,%eax
  1018c5:	89 04 24             	mov    %eax,(%esp)
  1018c8:	e8 d2 eb ff ff       	call   10049f <debug_printhex_int32>
  1018cd:	c7 44 24 04 02 00 00 	movl   $0x2,0x4(%esp)
  1018d4:	00 
  1018d5:	c7 04 24 1d 56 10 00 	movl   $0x10561d,(%esp)
  1018dc:	e8 cc ea ff ff       	call   1003ad <debug_write>
  1018e1:	c7 04 24 c2 57 10 00 	movl   $0x1057c2,(%esp)
  1018e8:	e8 9e ec ff ff       	call   10058b <debug_print>
  1018ed:	b8 bc 9e 10 00       	mov    $0x109ebc,%eax
  1018f2:	89 04 24             	mov    %eax,(%esp)
  1018f5:	e8 a5 eb ff ff       	call   10049f <debug_printhex_int32>
  1018fa:	c7 44 24 04 02 00 00 	movl   $0x2,0x4(%esp)
  101901:	00 
  101902:	c7 04 24 1d 56 10 00 	movl   $0x10561d,(%esp)
  101909:	e8 9f ea ff ff       	call   1003ad <debug_write>
  10190e:	c7 04 24 d0 57 10 00 	movl   $0x1057d0,(%esp)
  101915:	e8 71 ec ff ff       	call   10058b <debug_print>
  10191a:	c7 04 24 e4 57 10 00 	movl   $0x1057e4,(%esp)
  101921:	e8 65 ec ff ff       	call   10058b <debug_print>
  101926:	b8 14 5f 10 00       	mov    $0x105f14,%eax
  10192b:	89 04 24             	mov    %eax,(%esp)
  10192e:	e8 6c eb ff ff       	call   10049f <debug_printhex_int32>
  101933:	c7 44 24 04 02 00 00 	movl   $0x2,0x4(%esp)
  10193a:	00 
  10193b:	c7 04 24 1d 56 10 00 	movl   $0x10561d,(%esp)
  101942:	e8 66 ea ff ff       	call   1003ad <debug_write>
  101947:	c7 04 24 fb 57 10 00 	movl   $0x1057fb,(%esp)
  10194e:	e8 38 ec ff ff       	call   10058b <debug_print>
  101953:	b8 14 5f 10 00       	mov    $0x105f14,%eax
  101958:	89 04 24             	mov    %eax,(%esp)
  10195b:	e8 3f eb ff ff       	call   10049f <debug_printhex_int32>
  101960:	c7 44 24 04 02 00 00 	movl   $0x2,0x4(%esp)
  101967:	00 
  101968:	c7 04 24 1d 56 10 00 	movl   $0x10561d,(%esp)
  10196f:	e8 39 ea ff ff       	call   1003ad <debug_write>
  101974:	c7 04 24 12 58 10 00 	movl   $0x105812,(%esp)
  10197b:	e8 0b ec ff ff       	call   10058b <debug_print>
  101980:	b8 14 5f 10 00       	mov    $0x105f14,%eax
  101985:	89 04 24             	mov    %eax,(%esp)
  101988:	e8 12 eb ff ff       	call   10049f <debug_printhex_int32>
  10198d:	c7 44 24 04 02 00 00 	movl   $0x2,0x4(%esp)
  101994:	00 
  101995:	c7 04 24 1d 56 10 00 	movl   $0x10561d,(%esp)
  10199c:	e8 0c ea ff ff       	call   1003ad <debug_write>
  1019a1:	c7 04 24 29 58 10 00 	movl   $0x105829,(%esp)
  1019a8:	e8 de eb ff ff       	call   10058b <debug_print>
  1019ad:	b8 1c 5f 10 00       	mov    $0x105f1c,%eax
  1019b2:	89 04 24             	mov    %eax,(%esp)
  1019b5:	e8 e5 ea ff ff       	call   10049f <debug_printhex_int32>
  1019ba:	c7 44 24 04 02 00 00 	movl   $0x2,0x4(%esp)
  1019c1:	00 
  1019c2:	c7 04 24 1d 56 10 00 	movl   $0x10561d,(%esp)
  1019c9:	e8 df e9 ff ff       	call   1003ad <debug_write>
  1019ce:	c7 04 24 40 58 10 00 	movl   $0x105840,(%esp)
  1019d5:	e8 b1 eb ff ff       	call   10058b <debug_print>
  1019da:	b8 34 5f 10 00       	mov    $0x105f34,%eax
  1019df:	89 04 24             	mov    %eax,(%esp)
  1019e2:	e8 b8 ea ff ff       	call   10049f <debug_printhex_int32>
  1019e7:	c7 44 24 04 02 00 00 	movl   $0x2,0x4(%esp)
  1019ee:	00 
  1019ef:	c7 04 24 1d 56 10 00 	movl   $0x10561d,(%esp)
  1019f6:	e8 b2 e9 ff ff       	call   1003ad <debug_write>
  1019fb:	c7 04 24 57 58 10 00 	movl   $0x105857,(%esp)
  101a02:	e8 84 eb ff ff       	call   10058b <debug_print>
  101a07:	b8 34 5f 10 00       	mov    $0x105f34,%eax
  101a0c:	89 04 24             	mov    %eax,(%esp)
  101a0f:	e8 8b ea ff ff       	call   10049f <debug_printhex_int32>
  101a14:	c7 44 24 04 02 00 00 	movl   $0x2,0x4(%esp)
  101a1b:	00 
  101a1c:	c7 04 24 1d 56 10 00 	movl   $0x10561d,(%esp)
  101a23:	e8 85 e9 ff ff       	call   1003ad <debug_write>
  101a28:	c9                   	leave  
  101a29:	c3                   	ret    

00101a2a <_ZL4outbth>:
  101a2a:	55                   	push   %ebp
  101a2b:	89 e5                	mov    %esp,%ebp
  101a2d:	83 ec 08             	sub    $0x8,%esp
  101a30:	8b 55 08             	mov    0x8(%ebp),%edx
  101a33:	8b 45 0c             	mov    0xc(%ebp),%eax
  101a36:	66 89 55 fc          	mov    %dx,-0x4(%ebp)
  101a3a:	88 45 f8             	mov    %al,-0x8(%ebp)
  101a3d:	0f b7 55 fc          	movzwl -0x4(%ebp),%edx
  101a41:	0f b6 45 f8          	movzbl -0x8(%ebp),%eax
  101a45:	ee                   	out    %al,(%dx)
  101a46:	c9                   	leave  
  101a47:	c3                   	ret    

00101a48 <_ZL3inbt>:
  101a48:	55                   	push   %ebp
  101a49:	89 e5                	mov    %esp,%ebp
  101a4b:	83 ec 14             	sub    $0x14,%esp
  101a4e:	8b 45 08             	mov    0x8(%ebp),%eax
  101a51:	66 89 45 ec          	mov    %ax,-0x14(%ebp)
  101a55:	0f b7 45 ec          	movzwl -0x14(%ebp),%eax
  101a59:	89 c2                	mov    %eax,%edx
  101a5b:	ec                   	in     (%dx),%al
  101a5c:	88 45 ff             	mov    %al,-0x1(%ebp)
  101a5f:	0f b6 45 ff          	movzbl -0x1(%ebp),%eax
  101a63:	c9                   	leave  
  101a64:	c3                   	ret    

00101a65 <_ZL29platform_abstract_irq_handlerP14interrupt_info>:
  101a65:	55                   	push   %ebp
  101a66:	89 e5                	mov    %esp,%ebp
  101a68:	83 ec 08             	sub    $0x8,%esp
  101a6b:	8b 45 08             	mov    0x8(%ebp),%eax
  101a6e:	8b 40 24             	mov    0x24(%eax),%eax
  101a71:	83 f8 27             	cmp    $0x27,%eax
  101a74:	76 14                	jbe    101a8a <_ZL29platform_abstract_irq_handlerP14interrupt_info+0x25>
  101a76:	c7 44 24 04 20 00 00 	movl   $0x20,0x4(%esp)
  101a7d:	00 
  101a7e:	c7 04 24 a0 00 00 00 	movl   $0xa0,(%esp)
  101a85:	e8 a0 ff ff ff       	call   101a2a <_ZL4outbth>
  101a8a:	8b 45 08             	mov    0x8(%ebp),%eax
  101a8d:	8b 40 24             	mov    0x24(%eax),%eax
  101a90:	83 f8 1f             	cmp    $0x1f,%eax
  101a93:	76 14                	jbe    101aa9 <_ZL29platform_abstract_irq_handlerP14interrupt_info+0x44>
  101a95:	c7 44 24 04 20 00 00 	movl   $0x20,0x4(%esp)
  101a9c:	00 
  101a9d:	c7 04 24 20 00 00 00 	movl   $0x20,(%esp)
  101aa4:	e8 81 ff ff ff       	call   101a2a <_ZL4outbth>
  101aa9:	c9                   	leave  
  101aaa:	c3                   	ret    
  101aab:	90                   	nop

00101aac <_ZN8DBStreamC1Ejjh>:
  101aac:	55                   	push   %ebp
  101aad:	89 e5                	mov    %esp,%ebp
  101aaf:	56                   	push   %esi
  101ab0:	53                   	push   %ebx
  101ab1:	83 ec 10             	sub    $0x10,%esp
  101ab4:	8b 45 14             	mov    0x14(%ebp),%eax
  101ab7:	88 45 f4             	mov    %al,-0xc(%ebp)
  101aba:	8b 45 08             	mov    0x8(%ebp),%eax
  101abd:	89 04 24             	mov    %eax,(%esp)
  101ac0:	e8 bf 02 00 00       	call   101d84 <_ZN6StreamC1Ev>
  101ac5:	8b 45 08             	mov    0x8(%ebp),%eax
  101ac8:	c7 00 88 58 10 00    	movl   $0x105888,(%eax)
  101ace:	80 7d f4 00          	cmpb   $0x0,-0xc(%ebp)
  101ad2:	75 46                	jne    101b1a <_ZN8DBStreamC1Ejjh+0x6e>
  101ad4:	c7 04 24 18 00 00 00 	movl   $0x18,(%esp)
  101adb:	e8 39 20 00 00       	call   103b19 <_Znwj>
  101ae0:	89 c3                	mov    %eax,%ebx
  101ae2:	8b 45 0c             	mov    0xc(%ebp),%eax
  101ae5:	89 44 24 04          	mov    %eax,0x4(%esp)
  101ae9:	89 1c 24             	mov    %ebx,(%esp)
  101aec:	e8 3b 03 00 00       	call   101e2c <_ZN6ring_tC1Ej>
  101af1:	8b 45 08             	mov    0x8(%ebp),%eax
  101af4:	89 58 10             	mov    %ebx,0x10(%eax)
  101af7:	c7 04 24 18 00 00 00 	movl   $0x18,(%esp)
  101afe:	e8 16 20 00 00       	call   103b19 <_Znwj>
  101b03:	89 c3                	mov    %eax,%ebx
  101b05:	8b 45 10             	mov    0x10(%ebp),%eax
  101b08:	89 44 24 04          	mov    %eax,0x4(%esp)
  101b0c:	89 1c 24             	mov    %ebx,(%esp)
  101b0f:	e8 18 03 00 00       	call   101e2c <_ZN6ring_tC1Ej>
  101b14:	8b 45 08             	mov    0x8(%ebp),%eax
  101b17:	89 58 14             	mov    %ebx,0x14(%eax)
  101b1a:	80 7d f4 01          	cmpb   $0x1,-0xc(%ebp)
  101b1e:	75 46                	jne    101b66 <_ZN8DBStreamC1Ejjh+0xba>
  101b20:	c7 04 24 20 00 00 00 	movl   $0x20,(%esp)
  101b27:	e8 ed 1f 00 00       	call   103b19 <_Znwj>
  101b2c:	89 c3                	mov    %eax,%ebx
  101b2e:	8b 45 0c             	mov    0xc(%ebp),%eax
  101b31:	89 44 24 04          	mov    %eax,0x4(%esp)
  101b35:	89 1c 24             	mov    %ebx,(%esp)
  101b38:	e8 15 06 00 00       	call   102152 <_ZN11dynamicringC1Ei>
  101b3d:	8b 45 08             	mov    0x8(%ebp),%eax
  101b40:	89 58 10             	mov    %ebx,0x10(%eax)
  101b43:	c7 04 24 20 00 00 00 	movl   $0x20,(%esp)
  101b4a:	e8 ca 1f 00 00       	call   103b19 <_Znwj>
  101b4f:	89 c3                	mov    %eax,%ebx
  101b51:	8b 45 10             	mov    0x10(%ebp),%eax
  101b54:	89 44 24 04          	mov    %eax,0x4(%esp)
  101b58:	89 1c 24             	mov    %ebx,(%esp)
  101b5b:	e8 f2 05 00 00       	call   102152 <_ZN11dynamicringC1Ei>
  101b60:	8b 45 08             	mov    0x8(%ebp),%eax
  101b63:	89 58 14             	mov    %ebx,0x14(%eax)
  101b66:	8b 45 08             	mov    0x8(%ebp),%eax
  101b69:	c7 40 1c 00 00 00 00 	movl   $0x0,0x1c(%eax)
  101b70:	8b 45 08             	mov    0x8(%ebp),%eax
  101b73:	c7 40 20 00 00 00 00 	movl   $0x0,0x20(%eax)
  101b7a:	8b 45 08             	mov    0x8(%ebp),%eax
  101b7d:	c7 40 24 00 00 00 00 	movl   $0x0,0x24(%eax)
  101b84:	eb 50                	jmp    101bd6 <_ZN8DBStreamC1Ejjh+0x12a>
  101b86:	89 c6                	mov    %eax,%esi
  101b88:	89 1c 24             	mov    %ebx,(%esp)
  101b8b:	e8 ac 1f 00 00       	call   103b3c <_ZdlPv>
  101b90:	89 f0                	mov    %esi,%eax
  101b92:	89 04 24             	mov    %eax,(%esp)
  101b95:	e8 26 44 00 00       	call   105fc0 <__fini_array_end+0x8c>
  101b9a:	89 c6                	mov    %eax,%esi
  101b9c:	89 1c 24             	mov    %ebx,(%esp)
  101b9f:	e8 98 1f 00 00       	call   103b3c <_ZdlPv>
  101ba4:	89 f0                	mov    %esi,%eax
  101ba6:	89 04 24             	mov    %eax,(%esp)
  101ba9:	e8 12 44 00 00       	call   105fc0 <__fini_array_end+0x8c>
  101bae:	89 c6                	mov    %eax,%esi
  101bb0:	89 1c 24             	mov    %ebx,(%esp)
  101bb3:	e8 84 1f 00 00       	call   103b3c <_ZdlPv>
  101bb8:	89 f0                	mov    %esi,%eax
  101bba:	89 04 24             	mov    %eax,(%esp)
  101bbd:	e8 fe 43 00 00       	call   105fc0 <__fini_array_end+0x8c>
  101bc2:	89 c6                	mov    %eax,%esi
  101bc4:	89 1c 24             	mov    %ebx,(%esp)
  101bc7:	e8 70 1f 00 00       	call   103b3c <_ZdlPv>
  101bcc:	89 f0                	mov    %esi,%eax
  101bce:	89 04 24             	mov    %eax,(%esp)
  101bd1:	e8 ea 43 00 00       	call   105fc0 <__fini_array_end+0x8c>
  101bd6:	83 c4 10             	add    $0x10,%esp
  101bd9:	5b                   	pop    %ebx
  101bda:	5e                   	pop    %esi
  101bdb:	5d                   	pop    %ebp
  101bdc:	c3                   	ret    
  101bdd:	90                   	nop

00101bde <_ZN8DBStreamC1Ev>:
  101bde:	55                   	push   %ebp
  101bdf:	89 e5                	mov    %esp,%ebp
  101be1:	83 ec 18             	sub    $0x18,%esp
  101be4:	8b 45 08             	mov    0x8(%ebp),%eax
  101be7:	89 04 24             	mov    %eax,(%esp)
  101bea:	e8 95 01 00 00       	call   101d84 <_ZN6StreamC1Ev>
  101bef:	8b 45 08             	mov    0x8(%ebp),%eax
  101bf2:	c7 00 88 58 10 00    	movl   $0x105888,(%eax)
  101bf8:	8b 45 08             	mov    0x8(%ebp),%eax
  101bfb:	c7 40 1c 00 00 00 00 	movl   $0x0,0x1c(%eax)
  101c02:	8b 45 08             	mov    0x8(%ebp),%eax
  101c05:	c7 40 20 00 00 00 00 	movl   $0x0,0x20(%eax)
  101c0c:	c9                   	leave  
  101c0d:	c3                   	ret    

00101c0e <_ZN8DBStreamC1EP7Queue_pS1_>:
  101c0e:	55                   	push   %ebp
  101c0f:	89 e5                	mov    %esp,%ebp
  101c11:	83 ec 18             	sub    $0x18,%esp
  101c14:	8b 45 08             	mov    0x8(%ebp),%eax
  101c17:	89 04 24             	mov    %eax,(%esp)
  101c1a:	e8 65 01 00 00       	call   101d84 <_ZN6StreamC1Ev>
  101c1f:	8b 45 08             	mov    0x8(%ebp),%eax
  101c22:	c7 00 88 58 10 00    	movl   $0x105888,(%eax)
  101c28:	8b 45 08             	mov    0x8(%ebp),%eax
  101c2b:	8b 55 0c             	mov    0xc(%ebp),%edx
  101c2e:	89 50 14             	mov    %edx,0x14(%eax)
  101c31:	8b 45 08             	mov    0x8(%ebp),%eax
  101c34:	8b 55 10             	mov    0x10(%ebp),%edx
  101c37:	89 50 10             	mov    %edx,0x10(%eax)
  101c3a:	8b 45 08             	mov    0x8(%ebp),%eax
  101c3d:	c7 40 1c 00 00 00 00 	movl   $0x0,0x1c(%eax)
  101c44:	8b 45 08             	mov    0x8(%ebp),%eax
  101c47:	c7 40 20 00 00 00 00 	movl   $0x0,0x20(%eax)
  101c4e:	8b 45 08             	mov    0x8(%ebp),%eax
  101c51:	c7 40 18 00 00 00 00 	movl   $0x0,0x18(%eax)
  101c58:	c9                   	leave  
  101c59:	c3                   	ret    

00101c5a <_ZN8DBStream5writeEh>:
  101c5a:	55                   	push   %ebp
  101c5b:	89 e5                	mov    %esp,%ebp
  101c5d:	83 ec 28             	sub    $0x28,%esp
  101c60:	8b 45 0c             	mov    0xc(%ebp),%eax
  101c63:	88 45 e4             	mov    %al,-0x1c(%ebp)
  101c66:	80 7d e4 00          	cmpb   $0x0,-0x1c(%ebp)
  101c6a:	75 07                	jne    101c73 <_ZN8DBStream5writeEh+0x19>
  101c6c:	b8 00 00 00 00       	mov    $0x0,%eax
  101c71:	eb 69                	jmp    101cdc <_ZN8DBStream5writeEh+0x82>
  101c73:	8b 45 08             	mov    0x8(%ebp),%eax
  101c76:	8b 40 18             	mov    0x18(%eax),%eax
  101c79:	0f b6 55 e4          	movzbl -0x1c(%ebp),%edx
  101c7d:	0f be d2             	movsbl %dl,%edx
  101c80:	89 14 24             	mov    %edx,(%esp)
  101c83:	ff d0                	call   *%eax
  101c85:	85 c0                	test   %eax,%eax
  101c87:	0f 95 c0             	setne  %al
  101c8a:	84 c0                	test   %al,%al
  101c8c:	74 07                	je     101c95 <_ZN8DBStream5writeEh+0x3b>
  101c8e:	b8 01 00 00 00       	mov    $0x1,%eax
  101c93:	eb 47                	jmp    101cdc <_ZN8DBStream5writeEh+0x82>
  101c95:	8b 45 08             	mov    0x8(%ebp),%eax
  101c98:	8b 40 10             	mov    0x10(%eax),%eax
  101c9b:	8b 00                	mov    (%eax),%eax
  101c9d:	8b 00                	mov    (%eax),%eax
  101c9f:	0f b6 55 e4          	movzbl -0x1c(%ebp),%edx
  101ca3:	0f be ca             	movsbl %dl,%ecx
  101ca6:	8b 55 08             	mov    0x8(%ebp),%edx
  101ca9:	8b 52 10             	mov    0x10(%edx),%edx
  101cac:	89 4c 24 04          	mov    %ecx,0x4(%esp)
  101cb0:	89 14 24             	mov    %edx,(%esp)
  101cb3:	ff d0                	call   *%eax
  101cb5:	89 45 f4             	mov    %eax,-0xc(%ebp)
  101cb8:	83 7d f4 00          	cmpl   $0x0,-0xc(%ebp)
  101cbc:	75 19                	jne    101cd7 <_ZN8DBStream5writeEh+0x7d>
  101cbe:	8b 45 08             	mov    0x8(%ebp),%eax
  101cc1:	8b 40 1c             	mov    0x1c(%eax),%eax
  101cc4:	85 c0                	test   %eax,%eax
  101cc6:	74 08                	je     101cd0 <_ZN8DBStream5writeEh+0x76>
  101cc8:	8b 45 08             	mov    0x8(%ebp),%eax
  101ccb:	8b 40 1c             	mov    0x1c(%eax),%eax
  101cce:	ff d0                	call   *%eax
  101cd0:	b8 01 00 00 00       	mov    $0x1,%eax
  101cd5:	eb 05                	jmp    101cdc <_ZN8DBStream5writeEh+0x82>
  101cd7:	b8 00 00 00 00       	mov    $0x0,%eax
  101cdc:	c9                   	leave  
  101cdd:	c3                   	ret    

00101cde <_ZN8DBStream7tx_readEv>:
  101cde:	55                   	push   %ebp
  101cdf:	89 e5                	mov    %esp,%ebp
  101ce1:	83 ec 18             	sub    $0x18,%esp
  101ce4:	8b 45 08             	mov    0x8(%ebp),%eax
  101ce7:	8b 40 10             	mov    0x10(%eax),%eax
  101cea:	8b 00                	mov    (%eax),%eax
  101cec:	83 c0 04             	add    $0x4,%eax
  101cef:	8b 00                	mov    (%eax),%eax
  101cf1:	8b 55 08             	mov    0x8(%ebp),%edx
  101cf4:	8b 52 10             	mov    0x10(%edx),%edx
  101cf7:	89 14 24             	mov    %edx,(%esp)
  101cfa:	ff d0                	call   *%eax
  101cfc:	c9                   	leave  
  101cfd:	c3                   	ret    

00101cfe <_ZN8DBStream8rx_writeEh>:
  101cfe:	55                   	push   %ebp
  101cff:	89 e5                	mov    %esp,%ebp
  101d01:	83 ec 18             	sub    $0x18,%esp
  101d04:	8b 45 0c             	mov    0xc(%ebp),%eax
  101d07:	88 45 f4             	mov    %al,-0xc(%ebp)
  101d0a:	80 7d f4 00          	cmpb   $0x0,-0xc(%ebp)
  101d0e:	75 07                	jne    101d17 <_ZN8DBStream8rx_writeEh+0x19>
  101d10:	b8 00 00 00 00       	mov    $0x0,%eax
  101d15:	eb 20                	jmp    101d37 <_ZN8DBStream8rx_writeEh+0x39>
  101d17:	8b 45 08             	mov    0x8(%ebp),%eax
  101d1a:	8b 40 14             	mov    0x14(%eax),%eax
  101d1d:	8b 00                	mov    (%eax),%eax
  101d1f:	8b 00                	mov    (%eax),%eax
  101d21:	0f b6 55 f4          	movzbl -0xc(%ebp),%edx
  101d25:	0f be ca             	movsbl %dl,%ecx
  101d28:	8b 55 08             	mov    0x8(%ebp),%edx
  101d2b:	8b 52 14             	mov    0x14(%edx),%edx
  101d2e:	89 4c 24 04          	mov    %ecx,0x4(%esp)
  101d32:	89 14 24             	mov    %edx,(%esp)
  101d35:	ff d0                	call   *%eax
  101d37:	c9                   	leave  
  101d38:	c3                   	ret    
  101d39:	90                   	nop

00101d3a <_ZN8DBStream9availableEv>:
  101d3a:	55                   	push   %ebp
  101d3b:	89 e5                	mov    %esp,%ebp
  101d3d:	5d                   	pop    %ebp
  101d3e:	c3                   	ret    
  101d3f:	90                   	nop

00101d40 <_ZN8DBStream4readEv>:
  101d40:	55                   	push   %ebp
  101d41:	89 e5                	mov    %esp,%ebp
  101d43:	83 ec 18             	sub    $0x18,%esp
  101d46:	8b 45 08             	mov    0x8(%ebp),%eax
  101d49:	8b 40 14             	mov    0x14(%eax),%eax
  101d4c:	8b 00                	mov    (%eax),%eax
  101d4e:	83 c0 04             	add    $0x4,%eax
  101d51:	8b 00                	mov    (%eax),%eax
  101d53:	8b 55 08             	mov    0x8(%ebp),%edx
  101d56:	8b 52 14             	mov    0x14(%edx),%edx
  101d59:	89 14 24             	mov    %edx,(%esp)
  101d5c:	ff d0                	call   *%eax
  101d5e:	c9                   	leave  
  101d5f:	c3                   	ret    

00101d60 <_ZN8DBStream4peekEv>:
  101d60:	55                   	push   %ebp
  101d61:	89 e5                	mov    %esp,%ebp
  101d63:	5d                   	pop    %ebp
  101d64:	c3                   	ret    
  101d65:	90                   	nop

00101d66 <_ZN8DBStream5flushEv>:
  101d66:	55                   	push   %ebp
  101d67:	89 e5                	mov    %esp,%ebp
  101d69:	5d                   	pop    %ebp
  101d6a:	c3                   	ret    
  101d6b:	90                   	nop

00101d6c <_ZN5PrintC1Ev>:
  101d6c:	55                   	push   %ebp
  101d6d:	89 e5                	mov    %esp,%ebp
  101d6f:	8b 45 08             	mov    0x8(%ebp),%eax
  101d72:	c7 00 90 55 10 00    	movl   $0x105590,(%eax)
  101d78:	8b 45 08             	mov    0x8(%ebp),%eax
  101d7b:	c7 40 04 00 00 00 00 	movl   $0x0,0x4(%eax)
  101d82:	5d                   	pop    %ebp
  101d83:	c3                   	ret    

00101d84 <_ZN6StreamC1Ev>:
  101d84:	55                   	push   %ebp
  101d85:	89 e5                	mov    %esp,%ebp
  101d87:	83 ec 18             	sub    $0x18,%esp
  101d8a:	8b 45 08             	mov    0x8(%ebp),%eax
  101d8d:	89 04 24             	mov    %eax,(%esp)
  101d90:	e8 d7 ff ff ff       	call   101d6c <_ZN5PrintC1Ev>
  101d95:	8b 45 08             	mov    0x8(%ebp),%eax
  101d98:	c7 00 a8 58 10 00    	movl   $0x1058a8,(%eax)
  101d9e:	8b 45 08             	mov    0x8(%ebp),%eax
  101da1:	c7 40 08 e8 03 00 00 	movl   $0x3e8,0x8(%eax)
  101da8:	c9                   	leave  
  101da9:	c3                   	ret    

00101daa <_ZL4outbth>:
  101daa:	55                   	push   %ebp
  101dab:	89 e5                	mov    %esp,%ebp
  101dad:	83 ec 08             	sub    $0x8,%esp
  101db0:	8b 55 08             	mov    0x8(%ebp),%edx
  101db3:	8b 45 0c             	mov    0xc(%ebp),%eax
  101db6:	66 89 55 fc          	mov    %dx,-0x4(%ebp)
  101dba:	88 45 f8             	mov    %al,-0x8(%ebp)
  101dbd:	0f b7 55 fc          	movzwl -0x4(%ebp),%edx
  101dc1:	0f b6 45 f8          	movzbl -0x8(%ebp),%eax
  101dc5:	ee                   	out    %al,(%dx)
  101dc6:	c9                   	leave  
  101dc7:	c3                   	ret    

00101dc8 <_ZL3inbt>:
  101dc8:	55                   	push   %ebp
  101dc9:	89 e5                	mov    %esp,%ebp
  101dcb:	83 ec 14             	sub    $0x14,%esp
  101dce:	8b 45 08             	mov    0x8(%ebp),%eax
  101dd1:	66 89 45 ec          	mov    %ax,-0x14(%ebp)
  101dd5:	0f b7 45 ec          	movzwl -0x14(%ebp),%eax
  101dd9:	89 c2                	mov    %eax,%edx
  101ddb:	ec                   	in     (%dx),%al
  101ddc:	88 45 ff             	mov    %al,-0x1(%ebp)
  101ddf:	0f b6 45 ff          	movzbl -0x1(%ebp),%eax
  101de3:	c9                   	leave  
  101de4:	c3                   	ret    

00101de5 <_ZL29platform_abstract_irq_handlerP14interrupt_info>:
  101de5:	55                   	push   %ebp
  101de6:	89 e5                	mov    %esp,%ebp
  101de8:	83 ec 08             	sub    $0x8,%esp
  101deb:	8b 45 08             	mov    0x8(%ebp),%eax
  101dee:	8b 40 24             	mov    0x24(%eax),%eax
  101df1:	83 f8 27             	cmp    $0x27,%eax
  101df4:	76 14                	jbe    101e0a <_ZL29platform_abstract_irq_handlerP14interrupt_info+0x25>
  101df6:	c7 44 24 04 20 00 00 	movl   $0x20,0x4(%esp)
  101dfd:	00 
  101dfe:	c7 04 24 a0 00 00 00 	movl   $0xa0,(%esp)
  101e05:	e8 a0 ff ff ff       	call   101daa <_ZL4outbth>
  101e0a:	8b 45 08             	mov    0x8(%ebp),%eax
  101e0d:	8b 40 24             	mov    0x24(%eax),%eax
  101e10:	83 f8 1f             	cmp    $0x1f,%eax
  101e13:	76 14                	jbe    101e29 <_ZL29platform_abstract_irq_handlerP14interrupt_info+0x44>
  101e15:	c7 44 24 04 20 00 00 	movl   $0x20,0x4(%esp)
  101e1c:	00 
  101e1d:	c7 04 24 20 00 00 00 	movl   $0x20,(%esp)
  101e24:	e8 81 ff ff ff       	call   101daa <_ZL4outbth>
  101e29:	c9                   	leave  
  101e2a:	c3                   	ret    
  101e2b:	90                   	nop

00101e2c <_ZN6ring_tC1Ej>:
  101e2c:	55                   	push   %ebp
  101e2d:	89 e5                	mov    %esp,%ebp
  101e2f:	83 ec 18             	sub    $0x18,%esp
  101e32:	8b 45 08             	mov    0x8(%ebp),%eax
  101e35:	89 04 24             	mov    %eax,(%esp)
  101e38:	e8 29 07 00 00       	call   102566 <_ZN7Queue_pC1Ev>
  101e3d:	8b 45 08             	mov    0x8(%ebp),%eax
  101e40:	c7 00 f8 58 10 00    	movl   $0x1058f8,(%eax)
  101e46:	8b 45 08             	mov    0x8(%ebp),%eax
  101e49:	8b 55 0c             	mov    0xc(%ebp),%edx
  101e4c:	89 50 10             	mov    %edx,0x10(%eax)
  101e4f:	a1 28 83 10 00       	mov    0x108328,%eax
  101e54:	8b 00                	mov    (%eax),%eax
  101e56:	8b 00                	mov    (%eax),%eax
  101e58:	8b 15 28 83 10 00    	mov    0x108328,%edx
  101e5e:	8b 4d 0c             	mov    0xc(%ebp),%ecx
  101e61:	89 4c 24 04          	mov    %ecx,0x4(%esp)
  101e65:	89 14 24             	mov    %edx,(%esp)
  101e68:	ff d0                	call   *%eax
  101e6a:	8b 55 08             	mov    0x8(%ebp),%edx
  101e6d:	89 42 14             	mov    %eax,0x14(%edx)
  101e70:	8b 45 08             	mov    0x8(%ebp),%eax
  101e73:	c7 40 08 00 00 00 00 	movl   $0x0,0x8(%eax)
  101e7a:	8b 45 08             	mov    0x8(%ebp),%eax
  101e7d:	c7 40 0c 00 00 00 00 	movl   $0x0,0xc(%eax)
  101e84:	8b 45 08             	mov    0x8(%ebp),%eax
  101e87:	c6 40 04 00          	movb   $0x0,0x4(%eax)
  101e8b:	c9                   	leave  
  101e8c:	c3                   	ret    
  101e8d:	90                   	nop

00101e8e <_ZN6ring_tC1EPvj>:
  101e8e:	55                   	push   %ebp
  101e8f:	89 e5                	mov    %esp,%ebp
  101e91:	83 ec 18             	sub    $0x18,%esp
  101e94:	8b 45 08             	mov    0x8(%ebp),%eax
  101e97:	89 04 24             	mov    %eax,(%esp)
  101e9a:	e8 c7 06 00 00       	call   102566 <_ZN7Queue_pC1Ev>
  101e9f:	8b 45 08             	mov    0x8(%ebp),%eax
  101ea2:	c7 00 f8 58 10 00    	movl   $0x1058f8,(%eax)
  101ea8:	8b 45 08             	mov    0x8(%ebp),%eax
  101eab:	8b 55 10             	mov    0x10(%ebp),%edx
  101eae:	89 50 10             	mov    %edx,0x10(%eax)
  101eb1:	8b 45 08             	mov    0x8(%ebp),%eax
  101eb4:	8b 55 0c             	mov    0xc(%ebp),%edx
  101eb7:	89 50 14             	mov    %edx,0x14(%eax)
  101eba:	8b 45 08             	mov    0x8(%ebp),%eax
  101ebd:	c7 40 08 00 00 00 00 	movl   $0x0,0x8(%eax)
  101ec4:	8b 45 08             	mov    0x8(%ebp),%eax
  101ec7:	c7 40 0c 00 00 00 00 	movl   $0x0,0xc(%eax)
  101ece:	8b 45 08             	mov    0x8(%ebp),%eax
  101ed1:	c6 40 04 00          	movb   $0x0,0x4(%eax)
  101ed5:	c9                   	leave  
  101ed6:	c3                   	ret    
  101ed7:	90                   	nop

00101ed8 <_ZN6ring_tD1Ev>:
  101ed8:	55                   	push   %ebp
  101ed9:	89 e5                	mov    %esp,%ebp
  101edb:	83 ec 18             	sub    $0x18,%esp
  101ede:	8b 45 08             	mov    0x8(%ebp),%eax
  101ee1:	c7 00 f8 58 10 00    	movl   $0x1058f8,(%eax)
  101ee7:	a1 28 83 10 00       	mov    0x108328,%eax
  101eec:	8b 00                	mov    (%eax),%eax
  101eee:	83 c0 04             	add    $0x4,%eax
  101ef1:	8b 00                	mov    (%eax),%eax
  101ef3:	8b 55 08             	mov    0x8(%ebp),%edx
  101ef6:	8b 4a 14             	mov    0x14(%edx),%ecx
  101ef9:	8b 15 28 83 10 00    	mov    0x108328,%edx
  101eff:	89 4c 24 04          	mov    %ecx,0x4(%esp)
  101f03:	89 14 24             	mov    %edx,(%esp)
  101f06:	ff d0                	call   *%eax
  101f08:	c9                   	leave  
  101f09:	c3                   	ret    

00101f0a <_ZN6ring_t3popEv>:
  101f0a:	55                   	push   %ebp
  101f0b:	89 e5                	mov    %esp,%ebp
  101f0d:	83 ec 10             	sub    $0x10,%esp
  101f10:	8b 45 08             	mov    0x8(%ebp),%eax
  101f13:	0f b6 40 04          	movzbl 0x4(%eax),%eax
  101f17:	84 c0                	test   %al,%al
  101f19:	75 07                	jne    101f22 <_ZN6ring_t3popEv+0x18>
  101f1b:	b8 00 00 00 00       	mov    $0x0,%eax
  101f20:	eb 56                	jmp    101f78 <_ZN6ring_t3popEv+0x6e>
  101f22:	8b 45 08             	mov    0x8(%ebp),%eax
  101f25:	8b 50 14             	mov    0x14(%eax),%edx
  101f28:	8b 45 08             	mov    0x8(%ebp),%eax
  101f2b:	8b 40 08             	mov    0x8(%eax),%eax
  101f2e:	01 d0                	add    %edx,%eax
  101f30:	0f b6 00             	movzbl (%eax),%eax
  101f33:	88 45 ff             	mov    %al,-0x1(%ebp)
  101f36:	8b 45 08             	mov    0x8(%ebp),%eax
  101f39:	8b 40 08             	mov    0x8(%eax),%eax
  101f3c:	8d 50 01             	lea    0x1(%eax),%edx
  101f3f:	8b 45 08             	mov    0x8(%ebp),%eax
  101f42:	8b 48 10             	mov    0x10(%eax),%ecx
  101f45:	89 d0                	mov    %edx,%eax
  101f47:	ba 00 00 00 00       	mov    $0x0,%edx
  101f4c:	f7 f1                	div    %ecx
  101f4e:	8b 45 08             	mov    0x8(%ebp),%eax
  101f51:	89 50 08             	mov    %edx,0x8(%eax)
  101f54:	8b 45 08             	mov    0x8(%ebp),%eax
  101f57:	8b 50 0c             	mov    0xc(%eax),%edx
  101f5a:	8b 45 08             	mov    0x8(%ebp),%eax
  101f5d:	8b 40 08             	mov    0x8(%eax),%eax
  101f60:	39 c2                	cmp    %eax,%edx
  101f62:	75 09                	jne    101f6d <_ZN6ring_t3popEv+0x63>
  101f64:	8b 45 08             	mov    0x8(%ebp),%eax
  101f67:	c6 40 04 00          	movb   $0x0,0x4(%eax)
  101f6b:	eb 07                	jmp    101f74 <_ZN6ring_t3popEv+0x6a>
  101f6d:	8b 45 08             	mov    0x8(%ebp),%eax
  101f70:	c6 40 04 01          	movb   $0x1,0x4(%eax)
  101f74:	0f be 45 ff          	movsbl -0x1(%ebp),%eax
  101f78:	c9                   	leave  
  101f79:	c3                   	ret    

00101f7a <_ZN6ring_t4pushEc>:
  101f7a:	55                   	push   %ebp
  101f7b:	89 e5                	mov    %esp,%ebp
  101f7d:	83 ec 04             	sub    $0x4,%esp
  101f80:	8b 45 0c             	mov    0xc(%ebp),%eax
  101f83:	88 45 fc             	mov    %al,-0x4(%ebp)
  101f86:	8b 45 08             	mov    0x8(%ebp),%eax
  101f89:	0f b6 40 04          	movzbl 0x4(%eax),%eax
  101f8d:	3c 02                	cmp    $0x2,%al
  101f8f:	75 07                	jne    101f98 <_ZN6ring_t4pushEc+0x1e>
  101f91:	b8 00 00 00 00       	mov    $0x0,%eax
  101f96:	eb 57                	jmp    101fef <_ZN6ring_t4pushEc+0x75>
  101f98:	8b 45 08             	mov    0x8(%ebp),%eax
  101f9b:	8b 50 14             	mov    0x14(%eax),%edx
  101f9e:	8b 45 08             	mov    0x8(%ebp),%eax
  101fa1:	8b 40 0c             	mov    0xc(%eax),%eax
  101fa4:	01 c2                	add    %eax,%edx
  101fa6:	0f b6 45 fc          	movzbl -0x4(%ebp),%eax
  101faa:	88 02                	mov    %al,(%edx)
  101fac:	8b 45 08             	mov    0x8(%ebp),%eax
  101faf:	8b 40 0c             	mov    0xc(%eax),%eax
  101fb2:	8d 50 01             	lea    0x1(%eax),%edx
  101fb5:	8b 45 08             	mov    0x8(%ebp),%eax
  101fb8:	8b 48 10             	mov    0x10(%eax),%ecx
  101fbb:	89 d0                	mov    %edx,%eax
  101fbd:	ba 00 00 00 00       	mov    $0x0,%edx
  101fc2:	f7 f1                	div    %ecx
  101fc4:	8b 45 08             	mov    0x8(%ebp),%eax
  101fc7:	89 50 0c             	mov    %edx,0xc(%eax)
  101fca:	8b 45 08             	mov    0x8(%ebp),%eax
  101fcd:	8b 50 0c             	mov    0xc(%eax),%edx
  101fd0:	8b 45 08             	mov    0x8(%ebp),%eax
  101fd3:	8b 40 08             	mov    0x8(%eax),%eax
  101fd6:	39 c2                	cmp    %eax,%edx
  101fd8:	75 09                	jne    101fe3 <_ZN6ring_t4pushEc+0x69>
  101fda:	8b 45 08             	mov    0x8(%ebp),%eax
  101fdd:	c6 40 04 02          	movb   $0x2,0x4(%eax)
  101fe1:	eb 07                	jmp    101fea <_ZN6ring_t4pushEc+0x70>
  101fe3:	8b 45 08             	mov    0x8(%ebp),%eax
  101fe6:	c6 40 04 01          	movb   $0x1,0x4(%eax)
  101fea:	b8 00 00 00 00       	mov    $0x0,%eax
  101fef:	c9                   	leave  
  101ff0:	c3                   	ret    
  101ff1:	90                   	nop

00101ff2 <_ZN6ring_t9availableEv>:
  101ff2:	55                   	push   %ebp
  101ff3:	89 e5                	mov    %esp,%ebp
  101ff5:	8b 45 08             	mov    0x8(%ebp),%eax
  101ff8:	8b 50 0c             	mov    0xc(%eax),%edx
  101ffb:	8b 45 08             	mov    0x8(%ebp),%eax
  101ffe:	8b 40 08             	mov    0x8(%eax),%eax
  102001:	29 c2                	sub    %eax,%edx
  102003:	8b 45 08             	mov    0x8(%ebp),%eax
  102006:	8b 40 10             	mov    0x10(%eax),%eax
  102009:	01 c2                	add    %eax,%edx
  10200b:	8b 45 08             	mov    0x8(%ebp),%eax
  10200e:	8b 48 10             	mov    0x10(%eax),%ecx
  102011:	89 d0                	mov    %edx,%eax
  102013:	ba 00 00 00 00       	mov    $0x0,%edx
  102018:	f7 f1                	div    %ecx
  10201a:	89 d0                	mov    %edx,%eax
  10201c:	5d                   	pop    %ebp
  10201d:	c3                   	ret    

0010201e <_ZN6ring_t4peekEi>:
  10201e:	55                   	push   %ebp
  10201f:	89 e5                	mov    %esp,%ebp
  102021:	b8 00 00 00 00       	mov    $0x0,%eax
  102026:	5d                   	pop    %ebp
  102027:	c3                   	ret    

00102028 <_ZL4outbth>:
  102028:	55                   	push   %ebp
  102029:	89 e5                	mov    %esp,%ebp
  10202b:	83 ec 08             	sub    $0x8,%esp
  10202e:	8b 55 08             	mov    0x8(%ebp),%edx
  102031:	8b 45 0c             	mov    0xc(%ebp),%eax
  102034:	66 89 55 fc          	mov    %dx,-0x4(%ebp)
  102038:	88 45 f8             	mov    %al,-0x8(%ebp)
  10203b:	0f b7 55 fc          	movzwl -0x4(%ebp),%edx
  10203f:	0f b6 45 f8          	movzbl -0x8(%ebp),%eax
  102043:	ee                   	out    %al,(%dx)
  102044:	c9                   	leave  
  102045:	c3                   	ret    

00102046 <_ZL3inbt>:
  102046:	55                   	push   %ebp
  102047:	89 e5                	mov    %esp,%ebp
  102049:	83 ec 14             	sub    $0x14,%esp
  10204c:	8b 45 08             	mov    0x8(%ebp),%eax
  10204f:	66 89 45 ec          	mov    %ax,-0x14(%ebp)
  102053:	0f b7 45 ec          	movzwl -0x14(%ebp),%eax
  102057:	89 c2                	mov    %eax,%edx
  102059:	ec                   	in     (%dx),%al
  10205a:	88 45 ff             	mov    %al,-0x1(%ebp)
  10205d:	0f b6 45 ff          	movzbl -0x1(%ebp),%eax
  102061:	c9                   	leave  
  102062:	c3                   	ret    

00102063 <_ZL29platform_abstract_irq_handlerP14interrupt_info>:
  102063:	55                   	push   %ebp
  102064:	89 e5                	mov    %esp,%ebp
  102066:	83 ec 08             	sub    $0x8,%esp
  102069:	8b 45 08             	mov    0x8(%ebp),%eax
  10206c:	8b 40 24             	mov    0x24(%eax),%eax
  10206f:	83 f8 27             	cmp    $0x27,%eax
  102072:	76 14                	jbe    102088 <_ZL29platform_abstract_irq_handlerP14interrupt_info+0x25>
  102074:	c7 44 24 04 20 00 00 	movl   $0x20,0x4(%esp)
  10207b:	00 
  10207c:	c7 04 24 a0 00 00 00 	movl   $0xa0,(%esp)
  102083:	e8 a0 ff ff ff       	call   102028 <_ZL4outbth>
  102088:	8b 45 08             	mov    0x8(%ebp),%eax
  10208b:	8b 40 24             	mov    0x24(%eax),%eax
  10208e:	83 f8 1f             	cmp    $0x1f,%eax
  102091:	76 14                	jbe    1020a7 <_ZL29platform_abstract_irq_handlerP14interrupt_info+0x44>
  102093:	c7 44 24 04 20 00 00 	movl   $0x20,0x4(%esp)
  10209a:	00 
  10209b:	c7 04 24 20 00 00 00 	movl   $0x20,(%esp)
  1020a2:	e8 81 ff ff ff       	call   102028 <_ZL4outbth>
  1020a7:	c9                   	leave  
  1020a8:	c3                   	ret    

001020a9 <_ZL14INIT_LIST_HEADP9list_head>:
  1020a9:	55                   	push   %ebp
  1020aa:	89 e5                	mov    %esp,%ebp
  1020ac:	8b 45 08             	mov    0x8(%ebp),%eax
  1020af:	8b 55 08             	mov    0x8(%ebp),%edx
  1020b2:	89 10                	mov    %edx,(%eax)
  1020b4:	8b 45 08             	mov    0x8(%ebp),%eax
  1020b7:	8b 55 08             	mov    0x8(%ebp),%edx
  1020ba:	89 50 04             	mov    %edx,0x4(%eax)
  1020bd:	5d                   	pop    %ebp
  1020be:	c3                   	ret    

001020bf <_ZL10__list_addP9list_headS0_S0_>:
  1020bf:	55                   	push   %ebp
  1020c0:	89 e5                	mov    %esp,%ebp
  1020c2:	8b 45 10             	mov    0x10(%ebp),%eax
  1020c5:	8b 55 08             	mov    0x8(%ebp),%edx
  1020c8:	89 50 04             	mov    %edx,0x4(%eax)
  1020cb:	8b 45 08             	mov    0x8(%ebp),%eax
  1020ce:	8b 55 10             	mov    0x10(%ebp),%edx
  1020d1:	89 10                	mov    %edx,(%eax)
  1020d3:	8b 45 08             	mov    0x8(%ebp),%eax
  1020d6:	8b 55 0c             	mov    0xc(%ebp),%edx
  1020d9:	89 50 04             	mov    %edx,0x4(%eax)
  1020dc:	8b 45 0c             	mov    0xc(%ebp),%eax
  1020df:	8b 55 08             	mov    0x8(%ebp),%edx
  1020e2:	89 10                	mov    %edx,(%eax)
  1020e4:	5d                   	pop    %ebp
  1020e5:	c3                   	ret    

001020e6 <_ZL13list_add_tailP9list_headS0_>:
  1020e6:	55                   	push   %ebp
  1020e7:	89 e5                	mov    %esp,%ebp
  1020e9:	83 ec 0c             	sub    $0xc,%esp
  1020ec:	8b 45 0c             	mov    0xc(%ebp),%eax
  1020ef:	8b 40 04             	mov    0x4(%eax),%eax
  1020f2:	8b 55 0c             	mov    0xc(%ebp),%edx
  1020f5:	89 54 24 08          	mov    %edx,0x8(%esp)
  1020f9:	89 44 24 04          	mov    %eax,0x4(%esp)
  1020fd:	8b 45 08             	mov    0x8(%ebp),%eax
  102100:	89 04 24             	mov    %eax,(%esp)
  102103:	e8 b7 ff ff ff       	call   1020bf <_ZL10__list_addP9list_headS0_S0_>
  102108:	c9                   	leave  
  102109:	c3                   	ret    

0010210a <_ZL10__list_delP9list_headS0_>:
  10210a:	55                   	push   %ebp
  10210b:	89 e5                	mov    %esp,%ebp
  10210d:	8b 45 0c             	mov    0xc(%ebp),%eax
  102110:	8b 55 08             	mov    0x8(%ebp),%edx
  102113:	89 50 04             	mov    %edx,0x4(%eax)
  102116:	8b 45 08             	mov    0x8(%ebp),%eax
  102119:	8b 55 0c             	mov    0xc(%ebp),%edx
  10211c:	89 10                	mov    %edx,(%eax)
  10211e:	5d                   	pop    %ebp
  10211f:	c3                   	ret    

00102120 <_ZL8list_delP9list_head>:
  102120:	55                   	push   %ebp
  102121:	89 e5                	mov    %esp,%ebp
  102123:	83 ec 08             	sub    $0x8,%esp
  102126:	8b 45 08             	mov    0x8(%ebp),%eax
  102129:	8b 10                	mov    (%eax),%edx
  10212b:	8b 45 08             	mov    0x8(%ebp),%eax
  10212e:	8b 40 04             	mov    0x4(%eax),%eax
  102131:	89 54 24 04          	mov    %edx,0x4(%esp)
  102135:	89 04 24             	mov    %eax,(%esp)
  102138:	e8 cd ff ff ff       	call   10210a <_ZL10__list_delP9list_headS0_>
  10213d:	8b 45 08             	mov    0x8(%ebp),%eax
  102140:	c7 00 00 00 00 00    	movl   $0x0,(%eax)
  102146:	8b 45 08             	mov    0x8(%ebp),%eax
  102149:	c7 40 04 00 00 00 00 	movl   $0x0,0x4(%eax)
  102150:	c9                   	leave  
  102151:	c3                   	ret    

00102152 <_ZN11dynamicringC1Ei>:
  102152:	55                   	push   %ebp
  102153:	89 e5                	mov    %esp,%ebp
  102155:	83 ec 18             	sub    $0x18,%esp
  102158:	8b 45 08             	mov    0x8(%ebp),%eax
  10215b:	89 04 24             	mov    %eax,(%esp)
  10215e:	e8 03 04 00 00       	call   102566 <_ZN7Queue_pC1Ev>
  102163:	8b 45 08             	mov    0x8(%ebp),%eax
  102166:	c7 00 38 59 10 00    	movl   $0x105938,(%eax)
  10216c:	8b 45 08             	mov    0x8(%ebp),%eax
  10216f:	8b 55 0c             	mov    0xc(%ebp),%edx
  102172:	89 50 10             	mov    %edx,0x10(%eax)
  102175:	8b 45 08             	mov    0x8(%ebp),%eax
  102178:	c7 40 14 00 00 00 00 	movl   $0x0,0x14(%eax)
  10217f:	8b 45 08             	mov    0x8(%ebp),%eax
  102182:	83 c0 08             	add    $0x8,%eax
  102185:	89 04 24             	mov    %eax,(%esp)
  102188:	e8 1c ff ff ff       	call   1020a9 <_ZL14INIT_LIST_HEADP9list_head>
  10218d:	8b 45 08             	mov    0x8(%ebp),%eax
  102190:	89 04 24             	mov    %eax,(%esp)
  102193:	e8 0e 00 00 00       	call   1021a6 <_ZN11dynamicring11engage_ringEv>
  102198:	8b 45 08             	mov    0x8(%ebp),%eax
  10219b:	8b 50 1c             	mov    0x1c(%eax),%edx
  10219e:	8b 45 08             	mov    0x8(%ebp),%eax
  1021a1:	89 50 18             	mov    %edx,0x18(%eax)
  1021a4:	c9                   	leave  
  1021a5:	c3                   	ret    

001021a6 <_ZN11dynamicring11engage_ringEv>:
  1021a6:	55                   	push   %ebp
  1021a7:	89 e5                	mov    %esp,%ebp
  1021a9:	56                   	push   %esi
  1021aa:	53                   	push   %ebx
  1021ab:	83 ec 20             	sub    $0x20,%esp
  1021ae:	c7 04 24 0c 00 00 00 	movl   $0xc,(%esp)
  1021b5:	e8 5f 19 00 00       	call   103b19 <_Znwj>
  1021ba:	89 45 f4             	mov    %eax,-0xc(%ebp)
  1021bd:	c7 04 24 18 00 00 00 	movl   $0x18,(%esp)
  1021c4:	e8 50 19 00 00       	call   103b19 <_Znwj>
  1021c9:	89 c3                	mov    %eax,%ebx
  1021cb:	8b 45 08             	mov    0x8(%ebp),%eax
  1021ce:	8b 40 10             	mov    0x10(%eax),%eax
  1021d1:	89 44 24 04          	mov    %eax,0x4(%esp)
  1021d5:	89 1c 24             	mov    %ebx,(%esp)
  1021d8:	e8 4f fc ff ff       	call   101e2c <_ZN6ring_tC1Ej>
  1021dd:	8b 45 f4             	mov    -0xc(%ebp),%eax
  1021e0:	89 18                	mov    %ebx,(%eax)
  1021e2:	8b 45 08             	mov    0x8(%ebp),%eax
  1021e5:	8d 50 08             	lea    0x8(%eax),%edx
  1021e8:	8b 45 f4             	mov    -0xc(%ebp),%eax
  1021eb:	83 c0 04             	add    $0x4,%eax
  1021ee:	89 54 24 04          	mov    %edx,0x4(%esp)
  1021f2:	89 04 24             	mov    %eax,(%esp)
  1021f5:	e8 ec fe ff ff       	call   1020e6 <_ZL13list_add_tailP9list_headS0_>
  1021fa:	8b 45 08             	mov    0x8(%ebp),%eax
  1021fd:	8b 55 f4             	mov    -0xc(%ebp),%edx
  102200:	89 50 1c             	mov    %edx,0x1c(%eax)
  102203:	8b 45 08             	mov    0x8(%ebp),%eax
  102206:	8b 40 14             	mov    0x14(%eax),%eax
  102209:	8d 50 01             	lea    0x1(%eax),%edx
  10220c:	8b 45 08             	mov    0x8(%ebp),%eax
  10220f:	89 50 14             	mov    %edx,0x14(%eax)
  102212:	eb 14                	jmp    102228 <_ZN11dynamicring11engage_ringEv+0x82>
  102214:	89 c6                	mov    %eax,%esi
  102216:	89 1c 24             	mov    %ebx,(%esp)
  102219:	e8 1e 19 00 00       	call   103b3c <_ZdlPv>
  10221e:	89 f0                	mov    %esi,%eax
  102220:	89 04 24             	mov    %eax,(%esp)
  102223:	e8 98 3d 00 00       	call   105fc0 <__fini_array_end+0x8c>
  102228:	83 c4 20             	add    $0x20,%esp
  10222b:	5b                   	pop    %ebx
  10222c:	5e                   	pop    %esi
  10222d:	5d                   	pop    %ebp
  10222e:	c3                   	ret    
  10222f:	90                   	nop

00102230 <_ZN11dynamicring12absolve_ringEv>:
  102230:	55                   	push   %ebp
  102231:	89 e5                	mov    %esp,%ebp
  102233:	53                   	push   %ebx
  102234:	83 ec 24             	sub    $0x24,%esp
  102237:	8b 45 08             	mov    0x8(%ebp),%eax
  10223a:	8b 40 18             	mov    0x18(%eax),%eax
  10223d:	8b 40 04             	mov    0x4(%eax),%eax
  102240:	89 45 f0             	mov    %eax,-0x10(%ebp)
  102243:	8b 45 f0             	mov    -0x10(%ebp),%eax
  102246:	83 e8 04             	sub    $0x4,%eax
  102249:	89 45 f4             	mov    %eax,-0xc(%ebp)
  10224c:	8b 45 08             	mov    0x8(%ebp),%eax
  10224f:	8b 40 18             	mov    0x18(%eax),%eax
  102252:	83 c0 04             	add    $0x4,%eax
  102255:	89 04 24             	mov    %eax,(%esp)
  102258:	e8 c3 fe ff ff       	call   102120 <_ZL8list_delP9list_head>
  10225d:	8b 45 08             	mov    0x8(%ebp),%eax
  102260:	8b 40 18             	mov    0x18(%eax),%eax
  102263:	8b 18                	mov    (%eax),%ebx
  102265:	85 db                	test   %ebx,%ebx
  102267:	74 10                	je     102279 <_ZN11dynamicring12absolve_ringEv+0x49>
  102269:	89 1c 24             	mov    %ebx,(%esp)
  10226c:	e8 67 fc ff ff       	call   101ed8 <_ZN6ring_tD1Ev>
  102271:	89 1c 24             	mov    %ebx,(%esp)
  102274:	e8 c3 18 00 00       	call   103b3c <_ZdlPv>
  102279:	8b 45 08             	mov    0x8(%ebp),%eax
  10227c:	8b 40 18             	mov    0x18(%eax),%eax
  10227f:	89 04 24             	mov    %eax,(%esp)
  102282:	e8 b5 18 00 00       	call   103b3c <_ZdlPv>
  102287:	8b 45 08             	mov    0x8(%ebp),%eax
  10228a:	8b 55 f4             	mov    -0xc(%ebp),%edx
  10228d:	89 50 18             	mov    %edx,0x18(%eax)
  102290:	8b 45 08             	mov    0x8(%ebp),%eax
  102293:	8b 40 14             	mov    0x14(%eax),%eax
  102296:	8d 50 ff             	lea    -0x1(%eax),%edx
  102299:	8b 45 08             	mov    0x8(%ebp),%eax
  10229c:	89 50 14             	mov    %edx,0x14(%eax)
  10229f:	83 c4 24             	add    $0x24,%esp
  1022a2:	5b                   	pop    %ebx
  1022a3:	5d                   	pop    %ebp
  1022a4:	c3                   	ret    
  1022a5:	90                   	nop

001022a6 <_ZN11dynamicring4peekEi>:
  1022a6:	55                   	push   %ebp
  1022a7:	89 e5                	mov    %esp,%ebp
  1022a9:	5d                   	pop    %ebp
  1022aa:	c3                   	ret    
  1022ab:	90                   	nop

001022ac <_ZN11dynamicring9availableEv>:
  1022ac:	55                   	push   %ebp
  1022ad:	89 e5                	mov    %esp,%ebp
  1022af:	5d                   	pop    %ebp
  1022b0:	c3                   	ret    
  1022b1:	90                   	nop

001022b2 <_ZN11dynamicring4pushEc>:
  1022b2:	55                   	push   %ebp
  1022b3:	89 e5                	mov    %esp,%ebp
  1022b5:	83 ec 18             	sub    $0x18,%esp
  1022b8:	8b 45 0c             	mov    0xc(%ebp),%eax
  1022bb:	88 45 f4             	mov    %al,-0xc(%ebp)
  1022be:	8b 45 08             	mov    0x8(%ebp),%eax
  1022c1:	8b 40 1c             	mov    0x1c(%eax),%eax
  1022c4:	8b 00                	mov    (%eax),%eax
  1022c6:	8b 00                	mov    (%eax),%eax
  1022c8:	8b 00                	mov    (%eax),%eax
  1022ca:	0f be 4d f4          	movsbl -0xc(%ebp),%ecx
  1022ce:	8b 55 08             	mov    0x8(%ebp),%edx
  1022d1:	8b 52 1c             	mov    0x1c(%edx),%edx
  1022d4:	8b 12                	mov    (%edx),%edx
  1022d6:	89 4c 24 04          	mov    %ecx,0x4(%esp)
  1022da:	89 14 24             	mov    %edx,(%esp)
  1022dd:	ff d0                	call   *%eax
  1022df:	85 c0                	test   %eax,%eax
  1022e1:	0f 95 c0             	setne  %al
  1022e4:	84 c0                	test   %al,%al
  1022e6:	74 2c                	je     102314 <_ZN11dynamicring4pushEc+0x62>
  1022e8:	8b 45 08             	mov    0x8(%ebp),%eax
  1022eb:	89 04 24             	mov    %eax,(%esp)
  1022ee:	e8 b3 fe ff ff       	call   1021a6 <_ZN11dynamicring11engage_ringEv>
  1022f3:	8b 45 08             	mov    0x8(%ebp),%eax
  1022f6:	8b 40 1c             	mov    0x1c(%eax),%eax
  1022f9:	8b 00                	mov    (%eax),%eax
  1022fb:	8b 00                	mov    (%eax),%eax
  1022fd:	8b 00                	mov    (%eax),%eax
  1022ff:	0f be 4d f4          	movsbl -0xc(%ebp),%ecx
  102303:	8b 55 08             	mov    0x8(%ebp),%edx
  102306:	8b 52 1c             	mov    0x1c(%edx),%edx
  102309:	8b 12                	mov    (%edx),%edx
  10230b:	89 4c 24 04          	mov    %ecx,0x4(%esp)
  10230f:	89 14 24             	mov    %edx,(%esp)
  102312:	ff d0                	call   *%eax
  102314:	b8 00 00 00 00       	mov    $0x0,%eax
  102319:	c9                   	leave  
  10231a:	c3                   	ret    
  10231b:	90                   	nop

0010231c <_ZN11dynamicring3popEv>:
  10231c:	55                   	push   %ebp
  10231d:	89 e5                	mov    %esp,%ebp
  10231f:	83 ec 28             	sub    $0x28,%esp
  102322:	8b 45 08             	mov    0x8(%ebp),%eax
  102325:	8b 40 18             	mov    0x18(%eax),%eax
  102328:	8b 00                	mov    (%eax),%eax
  10232a:	8b 00                	mov    (%eax),%eax
  10232c:	83 c0 04             	add    $0x4,%eax
  10232f:	8b 00                	mov    (%eax),%eax
  102331:	8b 55 08             	mov    0x8(%ebp),%edx
  102334:	8b 52 18             	mov    0x18(%edx),%edx
  102337:	8b 12                	mov    (%edx),%edx
  102339:	89 14 24             	mov    %edx,(%esp)
  10233c:	ff d0                	call   *%eax
  10233e:	89 45 f4             	mov    %eax,-0xc(%ebp)
  102341:	83 7d f4 00          	cmpl   $0x0,-0xc(%ebp)
  102345:	75 3e                	jne    102385 <_ZN11dynamicring3popEv+0x69>
  102347:	8b 45 08             	mov    0x8(%ebp),%eax
  10234a:	8b 40 14             	mov    0x14(%eax),%eax
  10234d:	83 f8 01             	cmp    $0x1,%eax
  102350:	7e 2c                	jle    10237e <_ZN11dynamicring3popEv+0x62>
  102352:	8b 45 08             	mov    0x8(%ebp),%eax
  102355:	89 04 24             	mov    %eax,(%esp)
  102358:	e8 d3 fe ff ff       	call   102230 <_ZN11dynamicring12absolve_ringEv>
  10235d:	8b 45 08             	mov    0x8(%ebp),%eax
  102360:	8b 40 18             	mov    0x18(%eax),%eax
  102363:	8b 00                	mov    (%eax),%eax
  102365:	8b 00                	mov    (%eax),%eax
  102367:	83 c0 04             	add    $0x4,%eax
  10236a:	8b 00                	mov    (%eax),%eax
  10236c:	8b 55 08             	mov    0x8(%ebp),%edx
  10236f:	8b 52 18             	mov    0x18(%edx),%edx
  102372:	8b 12                	mov    (%edx),%edx
  102374:	89 14 24             	mov    %edx,(%esp)
  102377:	ff d0                	call   *%eax
  102379:	89 45 f4             	mov    %eax,-0xc(%ebp)
  10237c:	eb 07                	jmp    102385 <_ZN11dynamicring3popEv+0x69>
  10237e:	b8 00 00 00 00       	mov    $0x0,%eax
  102383:	eb 03                	jmp    102388 <_ZN11dynamicring3popEv+0x6c>
  102385:	8b 45 f4             	mov    -0xc(%ebp),%eax
  102388:	c9                   	leave  
  102389:	c3                   	ret    

0010238a <_ZL4outbth>:
  10238a:	55                   	push   %ebp
  10238b:	89 e5                	mov    %esp,%ebp
  10238d:	83 ec 08             	sub    $0x8,%esp
  102390:	8b 55 08             	mov    0x8(%ebp),%edx
  102393:	8b 45 0c             	mov    0xc(%ebp),%eax
  102396:	66 89 55 fc          	mov    %dx,-0x4(%ebp)
  10239a:	88 45 f8             	mov    %al,-0x8(%ebp)
  10239d:	0f b7 55 fc          	movzwl -0x4(%ebp),%edx
  1023a1:	0f b6 45 f8          	movzbl -0x8(%ebp),%eax
  1023a5:	ee                   	out    %al,(%dx)
  1023a6:	c9                   	leave  
  1023a7:	c3                   	ret    

001023a8 <_ZL3inbt>:
  1023a8:	55                   	push   %ebp
  1023a9:	89 e5                	mov    %esp,%ebp
  1023ab:	83 ec 14             	sub    $0x14,%esp
  1023ae:	8b 45 08             	mov    0x8(%ebp),%eax
  1023b1:	66 89 45 ec          	mov    %ax,-0x14(%ebp)
  1023b5:	0f b7 45 ec          	movzwl -0x14(%ebp),%eax
  1023b9:	89 c2                	mov    %eax,%edx
  1023bb:	ec                   	in     (%dx),%al
  1023bc:	88 45 ff             	mov    %al,-0x1(%ebp)
  1023bf:	0f b6 45 ff          	movzbl -0x1(%ebp),%eax
  1023c3:	c9                   	leave  
  1023c4:	c3                   	ret    

001023c5 <_ZL29platform_abstract_irq_handlerP14interrupt_info>:
  1023c5:	55                   	push   %ebp
  1023c6:	89 e5                	mov    %esp,%ebp
  1023c8:	83 ec 08             	sub    $0x8,%esp
  1023cb:	8b 45 08             	mov    0x8(%ebp),%eax
  1023ce:	8b 40 24             	mov    0x24(%eax),%eax
  1023d1:	83 f8 27             	cmp    $0x27,%eax
  1023d4:	76 14                	jbe    1023ea <_ZL29platform_abstract_irq_handlerP14interrupt_info+0x25>
  1023d6:	c7 44 24 04 20 00 00 	movl   $0x20,0x4(%esp)
  1023dd:	00 
  1023de:	c7 04 24 a0 00 00 00 	movl   $0xa0,(%esp)
  1023e5:	e8 a0 ff ff ff       	call   10238a <_ZL4outbth>
  1023ea:	8b 45 08             	mov    0x8(%ebp),%eax
  1023ed:	8b 40 24             	mov    0x24(%eax),%eax
  1023f0:	83 f8 1f             	cmp    $0x1f,%eax
  1023f3:	76 14                	jbe    102409 <_ZL29platform_abstract_irq_handlerP14interrupt_info+0x44>
  1023f5:	c7 44 24 04 20 00 00 	movl   $0x20,0x4(%esp)
  1023fc:	00 
  1023fd:	c7 04 24 20 00 00 00 	movl   $0x20,(%esp)
  102404:	e8 81 ff ff ff       	call   10238a <_ZL4outbth>
  102409:	c9                   	leave  
  10240a:	c3                   	ret    
  10240b:	90                   	nop

0010240c <_ZN12staticring_tC1Ev>:
  10240c:	55                   	push   %ebp
  10240d:	89 e5                	mov    %esp,%ebp
  10240f:	83 ec 18             	sub    $0x18,%esp
  102412:	8b 45 08             	mov    0x8(%ebp),%eax
  102415:	89 04 24             	mov    %eax,(%esp)
  102418:	e8 49 01 00 00       	call   102566 <_ZN7Queue_pC1Ev>
  10241d:	8b 45 08             	mov    0x8(%ebp),%eax
  102420:	c7 00 70 59 10 00    	movl   $0x105970,(%eax)
  102426:	8b 45 08             	mov    0x8(%ebp),%eax
  102429:	c7 40 10 28 00 00 00 	movl   $0x28,0x10(%eax)
  102430:	8b 45 08             	mov    0x8(%ebp),%eax
  102433:	c7 40 08 00 00 00 00 	movl   $0x0,0x8(%eax)
  10243a:	8b 45 08             	mov    0x8(%ebp),%eax
  10243d:	c7 40 0c 00 00 00 00 	movl   $0x0,0xc(%eax)
  102444:	8b 45 08             	mov    0x8(%ebp),%eax
  102447:	c6 40 04 00          	movb   $0x0,0x4(%eax)
  10244b:	c9                   	leave  
  10244c:	c3                   	ret    
  10244d:	90                   	nop

0010244e <_ZN12staticring_t3popEv>:
  10244e:	55                   	push   %ebp
  10244f:	89 e5                	mov    %esp,%ebp
  102451:	83 ec 10             	sub    $0x10,%esp
  102454:	8b 45 08             	mov    0x8(%ebp),%eax
  102457:	0f b6 40 04          	movzbl 0x4(%eax),%eax
  10245b:	84 c0                	test   %al,%al
  10245d:	75 07                	jne    102466 <_ZN12staticring_t3popEv+0x18>
  10245f:	b8 00 00 00 00       	mov    $0x0,%eax
  102464:	eb 53                	jmp    1024b9 <_ZN12staticring_t3popEv+0x6b>
  102466:	8b 45 08             	mov    0x8(%ebp),%eax
  102469:	8b 40 08             	mov    0x8(%eax),%eax
  10246c:	8b 55 08             	mov    0x8(%ebp),%edx
  10246f:	0f b6 44 02 14       	movzbl 0x14(%edx,%eax,1),%eax
  102474:	88 45 ff             	mov    %al,-0x1(%ebp)
  102477:	8b 45 08             	mov    0x8(%ebp),%eax
  10247a:	8b 40 08             	mov    0x8(%eax),%eax
  10247d:	8d 50 01             	lea    0x1(%eax),%edx
  102480:	8b 45 08             	mov    0x8(%ebp),%eax
  102483:	8b 48 10             	mov    0x10(%eax),%ecx
  102486:	89 d0                	mov    %edx,%eax
  102488:	ba 00 00 00 00       	mov    $0x0,%edx
  10248d:	f7 f1                	div    %ecx
  10248f:	8b 45 08             	mov    0x8(%ebp),%eax
  102492:	89 50 08             	mov    %edx,0x8(%eax)
  102495:	8b 45 08             	mov    0x8(%ebp),%eax
  102498:	8b 50 0c             	mov    0xc(%eax),%edx
  10249b:	8b 45 08             	mov    0x8(%ebp),%eax
  10249e:	8b 40 08             	mov    0x8(%eax),%eax
  1024a1:	39 c2                	cmp    %eax,%edx
  1024a3:	75 09                	jne    1024ae <_ZN12staticring_t3popEv+0x60>
  1024a5:	8b 45 08             	mov    0x8(%ebp),%eax
  1024a8:	c6 40 04 00          	movb   $0x0,0x4(%eax)
  1024ac:	eb 07                	jmp    1024b5 <_ZN12staticring_t3popEv+0x67>
  1024ae:	8b 45 08             	mov    0x8(%ebp),%eax
  1024b1:	c6 40 04 01          	movb   $0x1,0x4(%eax)
  1024b5:	0f be 45 ff          	movsbl -0x1(%ebp),%eax
  1024b9:	c9                   	leave  
  1024ba:	c3                   	ret    
  1024bb:	90                   	nop

001024bc <_ZN12staticring_t4pushEc>:
  1024bc:	55                   	push   %ebp
  1024bd:	89 e5                	mov    %esp,%ebp
  1024bf:	83 ec 04             	sub    $0x4,%esp
  1024c2:	8b 45 0c             	mov    0xc(%ebp),%eax
  1024c5:	88 45 fc             	mov    %al,-0x4(%ebp)
  1024c8:	8b 45 08             	mov    0x8(%ebp),%eax
  1024cb:	0f b6 40 04          	movzbl 0x4(%eax),%eax
  1024cf:	3c 02                	cmp    $0x2,%al
  1024d1:	75 07                	jne    1024da <_ZN12staticring_t4pushEc+0x1e>
  1024d3:	b8 00 00 00 00       	mov    $0x0,%eax
  1024d8:	eb 54                	jmp    10252e <_ZN12staticring_t4pushEc+0x72>
  1024da:	8b 45 08             	mov    0x8(%ebp),%eax
  1024dd:	8b 40 0c             	mov    0xc(%eax),%eax
  1024e0:	8b 55 08             	mov    0x8(%ebp),%edx
  1024e3:	0f b6 4d fc          	movzbl -0x4(%ebp),%ecx
  1024e7:	88 4c 02 14          	mov    %cl,0x14(%edx,%eax,1)
  1024eb:	8b 45 08             	mov    0x8(%ebp),%eax
  1024ee:	8b 40 0c             	mov    0xc(%eax),%eax
  1024f1:	8d 50 01             	lea    0x1(%eax),%edx
  1024f4:	8b 45 08             	mov    0x8(%ebp),%eax
  1024f7:	8b 48 10             	mov    0x10(%eax),%ecx
  1024fa:	89 d0                	mov    %edx,%eax
  1024fc:	ba 00 00 00 00       	mov    $0x0,%edx
  102501:	f7 f1                	div    %ecx
  102503:	8b 45 08             	mov    0x8(%ebp),%eax
  102506:	89 50 0c             	mov    %edx,0xc(%eax)
  102509:	8b 45 08             	mov    0x8(%ebp),%eax
  10250c:	8b 50 0c             	mov    0xc(%eax),%edx
  10250f:	8b 45 08             	mov    0x8(%ebp),%eax
  102512:	8b 40 08             	mov    0x8(%eax),%eax
  102515:	39 c2                	cmp    %eax,%edx
  102517:	75 09                	jne    102522 <_ZN12staticring_t4pushEc+0x66>
  102519:	8b 45 08             	mov    0x8(%ebp),%eax
  10251c:	c6 40 04 02          	movb   $0x2,0x4(%eax)
  102520:	eb 07                	jmp    102529 <_ZN12staticring_t4pushEc+0x6d>
  102522:	8b 45 08             	mov    0x8(%ebp),%eax
  102525:	c6 40 04 01          	movb   $0x1,0x4(%eax)
  102529:	b8 01 00 00 00       	mov    $0x1,%eax
  10252e:	c9                   	leave  
  10252f:	c3                   	ret    

00102530 <_ZN12staticring_t9availableEv>:
  102530:	55                   	push   %ebp
  102531:	89 e5                	mov    %esp,%ebp
  102533:	8b 45 08             	mov    0x8(%ebp),%eax
  102536:	8b 50 0c             	mov    0xc(%eax),%edx
  102539:	8b 45 08             	mov    0x8(%ebp),%eax
  10253c:	8b 40 08             	mov    0x8(%eax),%eax
  10253f:	29 c2                	sub    %eax,%edx
  102541:	8b 45 08             	mov    0x8(%ebp),%eax
  102544:	8b 40 10             	mov    0x10(%eax),%eax
  102547:	01 c2                	add    %eax,%edx
  102549:	8b 45 08             	mov    0x8(%ebp),%eax
  10254c:	8b 48 10             	mov    0x10(%eax),%ecx
  10254f:	89 d0                	mov    %edx,%eax
  102551:	ba 00 00 00 00       	mov    $0x0,%edx
  102556:	f7 f1                	div    %ecx
  102558:	89 d0                	mov    %edx,%eax
  10255a:	5d                   	pop    %ebp
  10255b:	c3                   	ret    

0010255c <_ZN12staticring_t4peekEi>:
  10255c:	55                   	push   %ebp
  10255d:	89 e5                	mov    %esp,%ebp
  10255f:	b8 00 00 00 00       	mov    $0x0,%eax
  102564:	5d                   	pop    %ebp
  102565:	c3                   	ret    

00102566 <_ZN7Queue_pC1Ev>:
  102566:	55                   	push   %ebp
  102567:	89 e5                	mov    %esp,%ebp
  102569:	8b 45 08             	mov    0x8(%ebp),%eax
  10256c:	c7 00 a8 59 10 00    	movl   $0x1059a8,(%eax)
  102572:	8b 45 08             	mov    0x8(%ebp),%eax
  102575:	c6 40 04 00          	movb   $0x0,0x4(%eax)
  102579:	5d                   	pop    %ebp
  10257a:	c3                   	ret    
  10257b:	90                   	nop

0010257c <_ZL4outbth>:
  10257c:	55                   	push   %ebp
  10257d:	89 e5                	mov    %esp,%ebp
  10257f:	83 ec 08             	sub    $0x8,%esp
  102582:	8b 55 08             	mov    0x8(%ebp),%edx
  102585:	8b 45 0c             	mov    0xc(%ebp),%eax
  102588:	66 89 55 fc          	mov    %dx,-0x4(%ebp)
  10258c:	88 45 f8             	mov    %al,-0x8(%ebp)
  10258f:	0f b7 55 fc          	movzwl -0x4(%ebp),%edx
  102593:	0f b6 45 f8          	movzbl -0x8(%ebp),%eax
  102597:	ee                   	out    %al,(%dx)
  102598:	c9                   	leave  
  102599:	c3                   	ret    

0010259a <_ZL3inbt>:
  10259a:	55                   	push   %ebp
  10259b:	89 e5                	mov    %esp,%ebp
  10259d:	83 ec 14             	sub    $0x14,%esp
  1025a0:	8b 45 08             	mov    0x8(%ebp),%eax
  1025a3:	66 89 45 ec          	mov    %ax,-0x14(%ebp)
  1025a7:	0f b7 45 ec          	movzwl -0x14(%ebp),%eax
  1025ab:	89 c2                	mov    %eax,%edx
  1025ad:	ec                   	in     (%dx),%al
  1025ae:	88 45 ff             	mov    %al,-0x1(%ebp)
  1025b1:	0f b6 45 ff          	movzbl -0x1(%ebp),%eax
  1025b5:	c9                   	leave  
  1025b6:	c3                   	ret    

001025b7 <_ZL29platform_abstract_irq_handlerP14interrupt_info>:
  1025b7:	55                   	push   %ebp
  1025b8:	89 e5                	mov    %esp,%ebp
  1025ba:	83 ec 08             	sub    $0x8,%esp
  1025bd:	8b 45 08             	mov    0x8(%ebp),%eax
  1025c0:	8b 40 24             	mov    0x24(%eax),%eax
  1025c3:	83 f8 27             	cmp    $0x27,%eax
  1025c6:	76 14                	jbe    1025dc <_ZL29platform_abstract_irq_handlerP14interrupt_info+0x25>
  1025c8:	c7 44 24 04 20 00 00 	movl   $0x20,0x4(%esp)
  1025cf:	00 
  1025d0:	c7 04 24 a0 00 00 00 	movl   $0xa0,(%esp)
  1025d7:	e8 a0 ff ff ff       	call   10257c <_ZL4outbth>
  1025dc:	8b 45 08             	mov    0x8(%ebp),%eax
  1025df:	8b 40 24             	mov    0x24(%eax),%eax
  1025e2:	83 f8 1f             	cmp    $0x1f,%eax
  1025e5:	76 14                	jbe    1025fb <_ZL29platform_abstract_irq_handlerP14interrupt_info+0x44>
  1025e7:	c7 44 24 04 20 00 00 	movl   $0x20,0x4(%esp)
  1025ee:	00 
  1025ef:	c7 04 24 20 00 00 00 	movl   $0x20,(%esp)
  1025f6:	e8 81 ff ff ff       	call   10257c <_ZL4outbth>
  1025fb:	c9                   	leave  
  1025fc:	c3                   	ret    
  1025fd:	90                   	nop

001025fe <_ZN14ring_history_t16hist_erase_olderEv>:
  1025fe:	55                   	push   %ebp
  1025ff:	89 e5                	mov    %esp,%ebp
  102601:	83 ec 10             	sub    $0x10,%esp
  102604:	8b 45 08             	mov    0x8(%ebp),%eax
  102607:	8b 88 00 01 00 00    	mov    0x100(%eax),%ecx
  10260d:	8b 45 08             	mov    0x8(%ebp),%eax
  102610:	8b 80 00 01 00 00    	mov    0x100(%eax),%eax
  102616:	8b 55 08             	mov    0x8(%ebp),%edx
  102619:	0f b6 04 02          	movzbl (%edx,%eax,1),%eax
  10261d:	0f be c0             	movsbl %al,%eax
  102620:	01 c8                	add    %ecx,%eax
  102622:	83 c0 01             	add    $0x1,%eax
  102625:	89 45 fc             	mov    %eax,-0x4(%ebp)
  102628:	81 7d fc ff 00 00 00 	cmpl   $0xff,-0x4(%ebp)
  10262f:	7e 07                	jle    102638 <_ZN14ring_history_t16hist_erase_olderEv+0x3a>
  102631:	81 6d fc 00 01 00 00 	subl   $0x100,-0x4(%ebp)
  102638:	8b 45 08             	mov    0x8(%ebp),%eax
  10263b:	8b 55 fc             	mov    -0x4(%ebp),%edx
  10263e:	89 90 00 01 00 00    	mov    %edx,0x100(%eax)
  102644:	c9                   	leave  
  102645:	c3                   	ret    

00102646 <_ZN14ring_history_t21hist_is_space_for_newEi>:
  102646:	55                   	push   %ebp
  102647:	89 e5                	mov    %esp,%ebp
  102649:	8b 45 08             	mov    0x8(%ebp),%eax
  10264c:	8b 80 00 01 00 00    	mov    0x100(%eax),%eax
  102652:	8b 55 08             	mov    0x8(%ebp),%edx
  102655:	0f b6 04 02          	movzbl (%edx,%eax,1),%eax
  102659:	84 c0                	test   %al,%al
  10265b:	75 07                	jne    102664 <_ZN14ring_history_t21hist_is_space_for_newEi+0x1e>
  10265d:	b8 01 00 00 00       	mov    $0x1,%eax
  102662:	eb 6a                	jmp    1026ce <_ZN14ring_history_t21hist_is_space_for_newEi+0x88>
  102664:	8b 45 08             	mov    0x8(%ebp),%eax
  102667:	8b 90 04 01 00 00    	mov    0x104(%eax),%edx
  10266d:	8b 45 08             	mov    0x8(%ebp),%eax
  102670:	8b 80 00 01 00 00    	mov    0x100(%eax),%eax
  102676:	39 c2                	cmp    %eax,%edx
  102678:	7c 2a                	jl     1026a4 <_ZN14ring_history_t21hist_is_space_for_newEi+0x5e>
  10267a:	8b 45 08             	mov    0x8(%ebp),%eax
  10267d:	8b 80 04 01 00 00    	mov    0x104(%eax),%eax
  102683:	ba 00 01 00 00       	mov    $0x100,%edx
  102688:	29 c2                	sub    %eax,%edx
  10268a:	8b 45 08             	mov    0x8(%ebp),%eax
  10268d:	8b 80 00 01 00 00    	mov    0x100(%eax),%eax
  102693:	01 d0                	add    %edx,%eax
  102695:	83 e8 01             	sub    $0x1,%eax
  102698:	3b 45 0c             	cmp    0xc(%ebp),%eax
  10269b:	7e 2c                	jle    1026c9 <_ZN14ring_history_t21hist_is_space_for_newEi+0x83>
  10269d:	b8 01 00 00 00       	mov    $0x1,%eax
  1026a2:	eb 2a                	jmp    1026ce <_ZN14ring_history_t21hist_is_space_for_newEi+0x88>
  1026a4:	8b 45 08             	mov    0x8(%ebp),%eax
  1026a7:	8b 90 00 01 00 00    	mov    0x100(%eax),%edx
  1026ad:	8b 45 08             	mov    0x8(%ebp),%eax
  1026b0:	8b 80 04 01 00 00    	mov    0x104(%eax),%eax
  1026b6:	29 c2                	sub    %eax,%edx
  1026b8:	89 d0                	mov    %edx,%eax
  1026ba:	83 e8 01             	sub    $0x1,%eax
  1026bd:	3b 45 0c             	cmp    0xc(%ebp),%eax
  1026c0:	7e 07                	jle    1026c9 <_ZN14ring_history_t21hist_is_space_for_newEi+0x83>
  1026c2:	b8 01 00 00 00       	mov    $0x1,%eax
  1026c7:	eb 05                	jmp    1026ce <_ZN14ring_history_t21hist_is_space_for_newEi+0x88>
  1026c9:	b8 00 00 00 00       	mov    $0x0,%eax
  1026ce:	5d                   	pop    %ebp
  1026cf:	c3                   	ret    

001026d0 <_ZN14ring_history_t14hist_save_lineEPci>:
  1026d0:	55                   	push   %ebp
  1026d1:	89 e5                	mov    %esp,%ebp
  1026d3:	83 ec 28             	sub    $0x28,%esp
  1026d6:	81 7d 10 fe 00 00 00 	cmpl   $0xfe,0x10(%ebp)
  1026dd:	7e 05                	jle    1026e4 <_ZN14ring_history_t14hist_save_lineEPci+0x14>
  1026df:	e9 66 01 00 00       	jmp    10284a <_ZN14ring_history_t14hist_save_lineEPci+0x17a>
  1026e4:	eb 0b                	jmp    1026f1 <_ZN14ring_history_t14hist_save_lineEPci+0x21>
  1026e6:	8b 45 08             	mov    0x8(%ebp),%eax
  1026e9:	89 04 24             	mov    %eax,(%esp)
  1026ec:	e8 0d ff ff ff       	call   1025fe <_ZN14ring_history_t16hist_erase_olderEv>
  1026f1:	8b 45 10             	mov    0x10(%ebp),%eax
  1026f4:	89 44 24 04          	mov    %eax,0x4(%esp)
  1026f8:	8b 45 08             	mov    0x8(%ebp),%eax
  1026fb:	89 04 24             	mov    %eax,(%esp)
  1026fe:	e8 43 ff ff ff       	call   102646 <_ZN14ring_history_t21hist_is_space_for_newEi>
  102703:	85 c0                	test   %eax,%eax
  102705:	0f 94 c0             	sete   %al
  102708:	84 c0                	test   %al,%al
  10270a:	75 da                	jne    1026e6 <_ZN14ring_history_t14hist_save_lineEPci+0x16>
  10270c:	8b 45 08             	mov    0x8(%ebp),%eax
  10270f:	8b 80 00 01 00 00    	mov    0x100(%eax),%eax
  102715:	8b 55 08             	mov    0x8(%ebp),%edx
  102718:	0f b6 04 02          	movzbl (%edx,%eax,1),%eax
  10271c:	84 c0                	test   %al,%al
  10271e:	75 14                	jne    102734 <_ZN14ring_history_t14hist_save_lineEPci+0x64>
  102720:	8b 45 08             	mov    0x8(%ebp),%eax
  102723:	8b 80 00 01 00 00    	mov    0x100(%eax),%eax
  102729:	8b 55 10             	mov    0x10(%ebp),%edx
  10272c:	89 d1                	mov    %edx,%ecx
  10272e:	8b 55 08             	mov    0x8(%ebp),%edx
  102731:	88 0c 02             	mov    %cl,(%edx,%eax,1)
  102734:	8b 45 08             	mov    0x8(%ebp),%eax
  102737:	8b 80 04 01 00 00    	mov    0x104(%eax),%eax
  10273d:	ba ff 00 00 00       	mov    $0xff,%edx
  102742:	29 c2                	sub    %eax,%edx
  102744:	89 d0                	mov    %edx,%eax
  102746:	3b 45 10             	cmp    0x10(%ebp),%eax
  102749:	7e 29                	jle    102774 <_ZN14ring_history_t14hist_save_lineEPci+0xa4>
  10274b:	8b 45 10             	mov    0x10(%ebp),%eax
  10274e:	8b 55 08             	mov    0x8(%ebp),%edx
  102751:	8b 92 04 01 00 00    	mov    0x104(%edx),%edx
  102757:	8d 4a 01             	lea    0x1(%edx),%ecx
  10275a:	8b 55 08             	mov    0x8(%ebp),%edx
  10275d:	01 ca                	add    %ecx,%edx
  10275f:	89 44 24 08          	mov    %eax,0x8(%esp)
  102763:	8b 45 0c             	mov    0xc(%ebp),%eax
  102766:	89 44 24 04          	mov    %eax,0x4(%esp)
  10276a:	89 14 24             	mov    %edx,(%esp)
  10276d:	e8 82 ed ff ff       	call   1014f4 <_Z6memcpyPvPKvj>
  102772:	eb 63                	jmp    1027d7 <_ZN14ring_history_t14hist_save_lineEPci+0x107>
  102774:	8b 45 08             	mov    0x8(%ebp),%eax
  102777:	8b 80 04 01 00 00    	mov    0x104(%eax),%eax
  10277d:	ba ff 00 00 00       	mov    $0xff,%edx
  102782:	29 c2                	sub    %eax,%edx
  102784:	89 d0                	mov    %edx,%eax
  102786:	89 45 f4             	mov    %eax,-0xc(%ebp)
  102789:	8b 45 f4             	mov    -0xc(%ebp),%eax
  10278c:	8b 55 08             	mov    0x8(%ebp),%edx
  10278f:	8b 92 04 01 00 00    	mov    0x104(%edx),%edx
  102795:	8d 4a 01             	lea    0x1(%edx),%ecx
  102798:	8b 55 08             	mov    0x8(%ebp),%edx
  10279b:	01 ca                	add    %ecx,%edx
  10279d:	89 44 24 08          	mov    %eax,0x8(%esp)
  1027a1:	8b 45 0c             	mov    0xc(%ebp),%eax
  1027a4:	89 44 24 04          	mov    %eax,0x4(%esp)
  1027a8:	89 14 24             	mov    %edx,(%esp)
  1027ab:	e8 44 ed ff ff       	call   1014f4 <_Z6memcpyPvPKvj>
  1027b0:	8b 45 f4             	mov    -0xc(%ebp),%eax
  1027b3:	8b 55 10             	mov    0x10(%ebp),%edx
  1027b6:	29 c2                	sub    %eax,%edx
  1027b8:	89 d0                	mov    %edx,%eax
  1027ba:	89 c2                	mov    %eax,%edx
  1027bc:	8b 4d f4             	mov    -0xc(%ebp),%ecx
  1027bf:	8b 45 0c             	mov    0xc(%ebp),%eax
  1027c2:	01 c1                	add    %eax,%ecx
  1027c4:	8b 45 08             	mov    0x8(%ebp),%eax
  1027c7:	89 54 24 08          	mov    %edx,0x8(%esp)
  1027cb:	89 4c 24 04          	mov    %ecx,0x4(%esp)
  1027cf:	89 04 24             	mov    %eax,(%esp)
  1027d2:	e8 1d ed ff ff       	call   1014f4 <_Z6memcpyPvPKvj>
  1027d7:	8b 45 08             	mov    0x8(%ebp),%eax
  1027da:	8b 80 04 01 00 00    	mov    0x104(%eax),%eax
  1027e0:	8b 55 10             	mov    0x10(%ebp),%edx
  1027e3:	89 d1                	mov    %edx,%ecx
  1027e5:	8b 55 08             	mov    0x8(%ebp),%edx
  1027e8:	88 0c 02             	mov    %cl,(%edx,%eax,1)
  1027eb:	8b 45 08             	mov    0x8(%ebp),%eax
  1027ee:	8b 90 04 01 00 00    	mov    0x104(%eax),%edx
  1027f4:	8b 45 10             	mov    0x10(%ebp),%eax
  1027f7:	01 d0                	add    %edx,%eax
  1027f9:	8d 50 01             	lea    0x1(%eax),%edx
  1027fc:	8b 45 08             	mov    0x8(%ebp),%eax
  1027ff:	89 90 04 01 00 00    	mov    %edx,0x104(%eax)
  102805:	8b 45 08             	mov    0x8(%ebp),%eax
  102808:	8b 80 04 01 00 00    	mov    0x104(%eax),%eax
  10280e:	3d ff 00 00 00       	cmp    $0xff,%eax
  102813:	7e 18                	jle    10282d <_ZN14ring_history_t14hist_save_lineEPci+0x15d>
  102815:	8b 45 08             	mov    0x8(%ebp),%eax
  102818:	8b 80 04 01 00 00    	mov    0x104(%eax),%eax
  10281e:	8d 90 00 ff ff ff    	lea    -0x100(%eax),%edx
  102824:	8b 45 08             	mov    0x8(%ebp),%eax
  102827:	89 90 04 01 00 00    	mov    %edx,0x104(%eax)
  10282d:	8b 45 08             	mov    0x8(%ebp),%eax
  102830:	8b 80 04 01 00 00    	mov    0x104(%eax),%eax
  102836:	8b 55 08             	mov    0x8(%ebp),%edx
  102839:	c6 04 02 00          	movb   $0x0,(%edx,%eax,1)
  10283d:	8b 45 08             	mov    0x8(%ebp),%eax
  102840:	c7 80 08 01 00 00 00 	movl   $0x0,0x108(%eax)
  102847:	00 00 00 
  10284a:	c9                   	leave  
  10284b:	c3                   	ret    

0010284c <_ZN14ring_history_t17hist_restore_lineEPci>:
  10284c:	55                   	push   %ebp
  10284d:	89 e5                	mov    %esp,%ebp
  10284f:	53                   	push   %ebx
  102850:	83 ec 34             	sub    $0x34,%esp
  102853:	c7 45 d8 00 00 00 00 	movl   $0x0,-0x28(%ebp)
  10285a:	8b 45 08             	mov    0x8(%ebp),%eax
  10285d:	8b 80 00 01 00 00    	mov    0x100(%eax),%eax
  102863:	89 45 dc             	mov    %eax,-0x24(%ebp)
  102866:	eb 28                	jmp    102890 <_ZN14ring_history_t17hist_restore_lineEPci+0x44>
  102868:	8b 55 08             	mov    0x8(%ebp),%edx
  10286b:	8b 45 dc             	mov    -0x24(%ebp),%eax
  10286e:	01 d0                	add    %edx,%eax
  102870:	0f b6 00             	movzbl (%eax),%eax
  102873:	0f be c0             	movsbl %al,%eax
  102876:	83 c0 01             	add    $0x1,%eax
  102879:	01 45 dc             	add    %eax,-0x24(%ebp)
  10287c:	81 7d dc ff 00 00 00 	cmpl   $0xff,-0x24(%ebp)
  102883:	7e 07                	jle    10288c <_ZN14ring_history_t17hist_restore_lineEPci+0x40>
  102885:	81 6d dc 00 01 00 00 	subl   $0x100,-0x24(%ebp)
  10288c:	83 45 d8 01          	addl   $0x1,-0x28(%ebp)
  102890:	8b 55 08             	mov    0x8(%ebp),%edx
  102893:	8b 45 dc             	mov    -0x24(%ebp),%eax
  102896:	01 d0                	add    %edx,%eax
  102898:	0f b6 00             	movzbl (%eax),%eax
  10289b:	84 c0                	test   %al,%al
  10289d:	75 c9                	jne    102868 <_ZN14ring_history_t17hist_restore_lineEPci+0x1c>
  10289f:	83 7d 10 00          	cmpl   $0x0,0x10(%ebp)
  1028a3:	0f 85 95 01 00 00    	jne    102a3e <_ZN14ring_history_t17hist_restore_lineEPci+0x1f2>
  1028a9:	8b 45 08             	mov    0x8(%ebp),%eax
  1028ac:	8b 80 08 01 00 00    	mov    0x108(%eax),%eax
  1028b2:	3b 45 d8             	cmp    -0x28(%ebp),%eax
  1028b5:	0f 8f 79 01 00 00    	jg     102a34 <_ZN14ring_history_t17hist_restore_lineEPci+0x1e8>
  1028bb:	8b 45 08             	mov    0x8(%ebp),%eax
  1028be:	8b 80 00 01 00 00    	mov    0x100(%eax),%eax
  1028c4:	89 45 e0             	mov    %eax,-0x20(%ebp)
  1028c7:	c7 45 e4 00 00 00 00 	movl   $0x0,-0x1c(%ebp)
  1028ce:	eb 28                	jmp    1028f8 <_ZN14ring_history_t17hist_restore_lineEPci+0xac>
  1028d0:	8b 55 08             	mov    0x8(%ebp),%edx
  1028d3:	8b 45 e0             	mov    -0x20(%ebp),%eax
  1028d6:	01 d0                	add    %edx,%eax
  1028d8:	0f b6 00             	movzbl (%eax),%eax
  1028db:	0f be c0             	movsbl %al,%eax
  1028de:	83 c0 01             	add    $0x1,%eax
  1028e1:	01 45 e0             	add    %eax,-0x20(%ebp)
  1028e4:	81 7d e0 ff 00 00 00 	cmpl   $0xff,-0x20(%ebp)
  1028eb:	7e 07                	jle    1028f4 <_ZN14ring_history_t17hist_restore_lineEPci+0xa8>
  1028ed:	81 6d e0 00 01 00 00 	subl   $0x100,-0x20(%ebp)
  1028f4:	83 45 e4 01          	addl   $0x1,-0x1c(%ebp)
  1028f8:	8b 55 08             	mov    0x8(%ebp),%edx
  1028fb:	8b 45 e0             	mov    -0x20(%ebp),%eax
  1028fe:	01 d0                	add    %edx,%eax
  102900:	0f b6 00             	movzbl (%eax),%eax
  102903:	84 c0                	test   %al,%al
  102905:	74 1a                	je     102921 <_ZN14ring_history_t17hist_restore_lineEPci+0xd5>
  102907:	8b 45 e4             	mov    -0x1c(%ebp),%eax
  10290a:	8b 55 d8             	mov    -0x28(%ebp),%edx
  10290d:	29 c2                	sub    %eax,%edx
  10290f:	89 d0                	mov    %edx,%eax
  102911:	8d 50 ff             	lea    -0x1(%eax),%edx
  102914:	8b 45 08             	mov    0x8(%ebp),%eax
  102917:	8b 80 08 01 00 00    	mov    0x108(%eax),%eax
  10291d:	39 c2                	cmp    %eax,%edx
  10291f:	75 af                	jne    1028d0 <_ZN14ring_history_t17hist_restore_lineEPci+0x84>
  102921:	8b 55 08             	mov    0x8(%ebp),%edx
  102924:	8b 45 e0             	mov    -0x20(%ebp),%eax
  102927:	01 d0                	add    %edx,%eax
  102929:	0f b6 00             	movzbl (%eax),%eax
  10292c:	84 c0                	test   %al,%al
  10292e:	0f 84 00 01 00 00    	je     102a34 <_ZN14ring_history_t17hist_restore_lineEPci+0x1e8>
  102934:	8b 45 08             	mov    0x8(%ebp),%eax
  102937:	8b 80 08 01 00 00    	mov    0x108(%eax),%eax
  10293d:	8d 50 01             	lea    0x1(%eax),%edx
  102940:	8b 45 08             	mov    0x8(%ebp),%eax
  102943:	89 90 08 01 00 00    	mov    %edx,0x108(%eax)
  102949:	8b 55 08             	mov    0x8(%ebp),%edx
  10294c:	8b 45 e0             	mov    -0x20(%ebp),%eax
  10294f:	01 d0                	add    %edx,%eax
  102951:	0f b6 00             	movzbl (%eax),%eax
  102954:	0f be d0             	movsbl %al,%edx
  102957:	8b 45 e0             	mov    -0x20(%ebp),%eax
  10295a:	01 d0                	add    %edx,%eax
  10295c:	3d ff 00 00 00       	cmp    $0xff,%eax
  102961:	7f 49                	jg     1029ac <_ZN14ring_history_t17hist_restore_lineEPci+0x160>
  102963:	c7 44 24 08 32 00 00 	movl   $0x32,0x8(%esp)
  10296a:	00 
  10296b:	c7 44 24 04 00 00 00 	movl   $0x0,0x4(%esp)
  102972:	00 
  102973:	8b 45 0c             	mov    0xc(%ebp),%eax
  102976:	89 04 24             	mov    %eax,(%esp)
  102979:	e8 b2 eb ff ff       	call   101530 <_Z6memsetPvij>
  10297e:	8b 55 08             	mov    0x8(%ebp),%edx
  102981:	8b 45 e0             	mov    -0x20(%ebp),%eax
  102984:	01 d0                	add    %edx,%eax
  102986:	0f b6 00             	movzbl (%eax),%eax
  102989:	0f be c0             	movsbl %al,%eax
  10298c:	8b 55 e0             	mov    -0x20(%ebp),%edx
  10298f:	8d 4a 01             	lea    0x1(%edx),%ecx
  102992:	8b 55 08             	mov    0x8(%ebp),%edx
  102995:	01 ca                	add    %ecx,%edx
  102997:	89 44 24 08          	mov    %eax,0x8(%esp)
  10299b:	89 54 24 04          	mov    %edx,0x4(%esp)
  10299f:	8b 45 0c             	mov    0xc(%ebp),%eax
  1029a2:	89 04 24             	mov    %eax,(%esp)
  1029a5:	e8 4a eb ff ff       	call   1014f4 <_Z6memcpyPvPKvj>
  1029aa:	eb 75                	jmp    102a21 <_ZN14ring_history_t17hist_restore_lineEPci+0x1d5>
  1029ac:	b8 ff 00 00 00       	mov    $0xff,%eax
  1029b1:	2b 45 e0             	sub    -0x20(%ebp),%eax
  1029b4:	89 45 f0             	mov    %eax,-0x10(%ebp)
  1029b7:	c7 44 24 08 32 00 00 	movl   $0x32,0x8(%esp)
  1029be:	00 
  1029bf:	c7 44 24 04 00 00 00 	movl   $0x0,0x4(%esp)
  1029c6:	00 
  1029c7:	8b 45 0c             	mov    0xc(%ebp),%eax
  1029ca:	89 04 24             	mov    %eax,(%esp)
  1029cd:	e8 5e eb ff ff       	call   101530 <_Z6memsetPvij>
  1029d2:	8b 45 f0             	mov    -0x10(%ebp),%eax
  1029d5:	8b 55 e0             	mov    -0x20(%ebp),%edx
  1029d8:	8d 4a 01             	lea    0x1(%edx),%ecx
  1029db:	8b 55 08             	mov    0x8(%ebp),%edx
  1029de:	01 ca                	add    %ecx,%edx
  1029e0:	89 44 24 08          	mov    %eax,0x8(%esp)
  1029e4:	89 54 24 04          	mov    %edx,0x4(%esp)
  1029e8:	8b 45 0c             	mov    0xc(%ebp),%eax
  1029eb:	89 04 24             	mov    %eax,(%esp)
  1029ee:	e8 01 eb ff ff       	call   1014f4 <_Z6memcpyPvPKvj>
  1029f3:	8b 55 08             	mov    0x8(%ebp),%edx
  1029f6:	8b 45 e0             	mov    -0x20(%ebp),%eax
  1029f9:	01 d0                	add    %edx,%eax
  1029fb:	0f b6 00             	movzbl (%eax),%eax
  1029fe:	0f be c0             	movsbl %al,%eax
  102a01:	2b 45 f0             	sub    -0x10(%ebp),%eax
  102a04:	89 c2                	mov    %eax,%edx
  102a06:	8b 45 08             	mov    0x8(%ebp),%eax
  102a09:	8b 5d f0             	mov    -0x10(%ebp),%ebx
  102a0c:	8b 4d 0c             	mov    0xc(%ebp),%ecx
  102a0f:	01 d9                	add    %ebx,%ecx
  102a11:	89 54 24 08          	mov    %edx,0x8(%esp)
  102a15:	89 44 24 04          	mov    %eax,0x4(%esp)
  102a19:	89 0c 24             	mov    %ecx,(%esp)
  102a1c:	e8 d3 ea ff ff       	call   1014f4 <_Z6memcpyPvPKvj>
  102a21:	8b 55 08             	mov    0x8(%ebp),%edx
  102a24:	8b 45 e0             	mov    -0x20(%ebp),%eax
  102a27:	01 d0                	add    %edx,%eax
  102a29:	0f b6 00             	movzbl (%eax),%eax
  102a2c:	0f be c0             	movsbl %al,%eax
  102a2f:	e9 48 01 00 00       	jmp    102b7c <_ZN14ring_history_t17hist_restore_lineEPci+0x330>
  102a34:	b8 ff ff ff ff       	mov    $0xffffffff,%eax
  102a39:	e9 3e 01 00 00       	jmp    102b7c <_ZN14ring_history_t17hist_restore_lineEPci+0x330>
  102a3e:	8b 45 08             	mov    0x8(%ebp),%eax
  102a41:	8b 80 08 01 00 00    	mov    0x108(%eax),%eax
  102a47:	85 c0                	test   %eax,%eax
  102a49:	0f 8e 28 01 00 00    	jle    102b77 <_ZN14ring_history_t17hist_restore_lineEPci+0x32b>
  102a4f:	8b 45 08             	mov    0x8(%ebp),%eax
  102a52:	8b 80 08 01 00 00    	mov    0x108(%eax),%eax
  102a58:	8d 50 ff             	lea    -0x1(%eax),%edx
  102a5b:	8b 45 08             	mov    0x8(%ebp),%eax
  102a5e:	89 90 08 01 00 00    	mov    %edx,0x108(%eax)
  102a64:	8b 45 08             	mov    0x8(%ebp),%eax
  102a67:	8b 80 00 01 00 00    	mov    0x100(%eax),%eax
  102a6d:	89 45 e8             	mov    %eax,-0x18(%ebp)
  102a70:	c7 45 ec 00 00 00 00 	movl   $0x0,-0x14(%ebp)
  102a77:	eb 28                	jmp    102aa1 <_ZN14ring_history_t17hist_restore_lineEPci+0x255>
  102a79:	8b 55 08             	mov    0x8(%ebp),%edx
  102a7c:	8b 45 e8             	mov    -0x18(%ebp),%eax
  102a7f:	01 d0                	add    %edx,%eax
  102a81:	0f b6 00             	movzbl (%eax),%eax
  102a84:	0f be c0             	movsbl %al,%eax
  102a87:	83 c0 01             	add    $0x1,%eax
  102a8a:	01 45 e8             	add    %eax,-0x18(%ebp)
  102a8d:	81 7d e8 ff 00 00 00 	cmpl   $0xff,-0x18(%ebp)
  102a94:	7e 07                	jle    102a9d <_ZN14ring_history_t17hist_restore_lineEPci+0x251>
  102a96:	81 6d e8 00 01 00 00 	subl   $0x100,-0x18(%ebp)
  102a9d:	83 45 ec 01          	addl   $0x1,-0x14(%ebp)
  102aa1:	8b 55 08             	mov    0x8(%ebp),%edx
  102aa4:	8b 45 e8             	mov    -0x18(%ebp),%eax
  102aa7:	01 d0                	add    %edx,%eax
  102aa9:	0f b6 00             	movzbl (%eax),%eax
  102aac:	84 c0                	test   %al,%al
  102aae:	74 15                	je     102ac5 <_ZN14ring_history_t17hist_restore_lineEPci+0x279>
  102ab0:	8b 45 ec             	mov    -0x14(%ebp),%eax
  102ab3:	8b 55 d8             	mov    -0x28(%ebp),%edx
  102ab6:	29 c2                	sub    %eax,%edx
  102ab8:	8b 45 08             	mov    0x8(%ebp),%eax
  102abb:	8b 80 08 01 00 00    	mov    0x108(%eax),%eax
  102ac1:	39 c2                	cmp    %eax,%edx
  102ac3:	75 b4                	jne    102a79 <_ZN14ring_history_t17hist_restore_lineEPci+0x22d>
  102ac5:	8b 55 08             	mov    0x8(%ebp),%edx
  102ac8:	8b 45 e8             	mov    -0x18(%ebp),%eax
  102acb:	01 d0                	add    %edx,%eax
  102acd:	0f b6 00             	movzbl (%eax),%eax
  102ad0:	0f be d0             	movsbl %al,%edx
  102ad3:	8b 45 e8             	mov    -0x18(%ebp),%eax
  102ad6:	01 d0                	add    %edx,%eax
  102ad8:	3d ff 00 00 00       	cmp    $0xff,%eax
  102add:	7f 2e                	jg     102b0d <_ZN14ring_history_t17hist_restore_lineEPci+0x2c1>
  102adf:	8b 55 08             	mov    0x8(%ebp),%edx
  102ae2:	8b 45 e8             	mov    -0x18(%ebp),%eax
  102ae5:	01 d0                	add    %edx,%eax
  102ae7:	0f b6 00             	movzbl (%eax),%eax
  102aea:	0f be c0             	movsbl %al,%eax
  102aed:	8b 55 e8             	mov    -0x18(%ebp),%edx
  102af0:	8d 4a 01             	lea    0x1(%edx),%ecx
  102af3:	8b 55 08             	mov    0x8(%ebp),%edx
  102af6:	01 ca                	add    %ecx,%edx
  102af8:	89 44 24 08          	mov    %eax,0x8(%esp)
  102afc:	89 54 24 04          	mov    %edx,0x4(%esp)
  102b00:	8b 45 0c             	mov    0xc(%ebp),%eax
  102b03:	89 04 24             	mov    %eax,(%esp)
  102b06:	e8 e9 e9 ff ff       	call   1014f4 <_Z6memcpyPvPKvj>
  102b0b:	eb 5a                	jmp    102b67 <_ZN14ring_history_t17hist_restore_lineEPci+0x31b>
  102b0d:	b8 ff 00 00 00       	mov    $0xff,%eax
  102b12:	2b 45 e8             	sub    -0x18(%ebp),%eax
  102b15:	89 45 f4             	mov    %eax,-0xc(%ebp)
  102b18:	8b 45 f4             	mov    -0xc(%ebp),%eax
  102b1b:	8b 55 e8             	mov    -0x18(%ebp),%edx
  102b1e:	8d 4a 01             	lea    0x1(%edx),%ecx
  102b21:	8b 55 08             	mov    0x8(%ebp),%edx
  102b24:	01 ca                	add    %ecx,%edx
  102b26:	89 44 24 08          	mov    %eax,0x8(%esp)
  102b2a:	89 54 24 04          	mov    %edx,0x4(%esp)
  102b2e:	8b 45 0c             	mov    0xc(%ebp),%eax
  102b31:	89 04 24             	mov    %eax,(%esp)
  102b34:	e8 bb e9 ff ff       	call   1014f4 <_Z6memcpyPvPKvj>
  102b39:	8b 55 08             	mov    0x8(%ebp),%edx
  102b3c:	8b 45 e8             	mov    -0x18(%ebp),%eax
  102b3f:	01 d0                	add    %edx,%eax
  102b41:	0f b6 00             	movzbl (%eax),%eax
  102b44:	0f be c0             	movsbl %al,%eax
  102b47:	2b 45 f4             	sub    -0xc(%ebp),%eax
  102b4a:	89 c2                	mov    %eax,%edx
  102b4c:	8b 45 08             	mov    0x8(%ebp),%eax
  102b4f:	8b 5d f4             	mov    -0xc(%ebp),%ebx
  102b52:	8b 4d 0c             	mov    0xc(%ebp),%ecx
  102b55:	01 d9                	add    %ebx,%ecx
  102b57:	89 54 24 08          	mov    %edx,0x8(%esp)
  102b5b:	89 44 24 04          	mov    %eax,0x4(%esp)
  102b5f:	89 0c 24             	mov    %ecx,(%esp)
  102b62:	e8 8d e9 ff ff       	call   1014f4 <_Z6memcpyPvPKvj>
  102b67:	8b 55 08             	mov    0x8(%ebp),%edx
  102b6a:	8b 45 e8             	mov    -0x18(%ebp),%eax
  102b6d:	01 d0                	add    %edx,%eax
  102b6f:	0f b6 00             	movzbl (%eax),%eax
  102b72:	0f be c0             	movsbl %al,%eax
  102b75:	eb 05                	jmp    102b7c <_ZN14ring_history_t17hist_restore_lineEPci+0x330>
  102b77:	b8 00 00 00 00       	mov    $0x0,%eax
  102b7c:	83 c4 34             	add    $0x34,%esp
  102b7f:	5b                   	pop    %ebx
  102b80:	5d                   	pop    %ebp
  102b81:	c3                   	ret    

00102b82 <_ZN11rl_terminal12print_promptEv>:
  102b82:	55                   	push   %ebp
  102b83:	89 e5                	mov    %esp,%ebp
  102b85:	83 ec 18             	sub    $0x18,%esp
  102b88:	8b 45 08             	mov    0x8(%ebp),%eax
  102b8b:	8b 40 04             	mov    0x4(%eax),%eax
  102b8e:	c7 44 24 04 c5 59 10 	movl   $0x1059c5,0x4(%esp)
  102b95:	00 
  102b96:	89 04 24             	mov    %eax,(%esp)
  102b99:	e8 fe dc ff ff       	call   10089c <_ZN5Print5printEPKc>
  102b9e:	8b 45 08             	mov    0x8(%ebp),%eax
  102ba1:	8b 40 04             	mov    0x4(%eax),%eax
  102ba4:	c7 44 24 04 cd 59 10 	movl   $0x1059cd,0x4(%esp)
  102bab:	00 
  102bac:	89 04 24             	mov    %eax,(%esp)
  102baf:	e8 e8 dc ff ff       	call   10089c <_ZN5Print5printEPKc>
  102bb4:	c9                   	leave  
  102bb5:	c3                   	ret    

00102bb6 <_ZN11rl_terminalC1EP6StreamP10readline_t>:
  102bb6:	55                   	push   %ebp
  102bb7:	89 e5                	mov    %esp,%ebp
  102bb9:	83 ec 18             	sub    $0x18,%esp
  102bbc:	8b 45 10             	mov    0x10(%ebp),%eax
  102bbf:	89 44 24 08          	mov    %eax,0x8(%esp)
  102bc3:	8b 45 0c             	mov    0xc(%ebp),%eax
  102bc6:	89 44 24 04          	mov    %eax,0x4(%esp)
  102bca:	8b 45 08             	mov    0x8(%ebp),%eax
  102bcd:	89 04 24             	mov    %eax,(%esp)
  102bd0:	e8 03 00 00 00       	call   102bd8 <_ZN11rl_terminal4initEP6StreamP10readline_t>
  102bd5:	c9                   	leave  
  102bd6:	c3                   	ret    
  102bd7:	90                   	nop

00102bd8 <_ZN11rl_terminal4initEP6StreamP10readline_t>:
  102bd8:	55                   	push   %ebp
  102bd9:	89 e5                	mov    %esp,%ebp
  102bdb:	8b 45 08             	mov    0x8(%ebp),%eax
  102bde:	8b 55 0c             	mov    0xc(%ebp),%edx
  102be1:	89 50 04             	mov    %edx,0x4(%eax)
  102be4:	8b 45 08             	mov    0x8(%ebp),%eax
  102be7:	8b 55 10             	mov    0x10(%ebp),%edx
  102bea:	89 10                	mov    %edx,(%eax)
  102bec:	8b 45 08             	mov    0x8(%ebp),%eax
  102bef:	c7 40 08 00 00 00 00 	movl   $0x0,0x8(%eax)
  102bf6:	5d                   	pop    %ebp
  102bf7:	c3                   	ret    

00102bf8 <_ZN11rl_terminal16new_line_handlerEv>:
  102bf8:	55                   	push   %ebp
  102bf9:	89 e5                	mov    %esp,%ebp
  102bfb:	83 ec 28             	sub    $0x28,%esp
  102bfe:	a1 18 8b 10 00       	mov    0x108b18,%eax
  102c03:	89 45 f0             	mov    %eax,-0x10(%ebp)
  102c06:	8b 45 08             	mov    0x8(%ebp),%eax
  102c09:	8b 40 04             	mov    0x4(%eax),%eax
  102c0c:	a3 18 8b 10 00       	mov    %eax,0x108b18
  102c11:	8b 45 08             	mov    0x8(%ebp),%eax
  102c14:	8b 00                	mov    (%eax),%eax
  102c16:	89 04 24             	mov    %eax,(%esp)
  102c19:	e8 c4 05 00 00       	call   1031e2 <_ZN10readline_t8get_lineEv>
  102c1e:	89 45 f4             	mov    %eax,-0xc(%ebp)
  102c21:	8b 45 08             	mov    0x8(%ebp),%eax
  102c24:	8b 00                	mov    (%eax),%eax
  102c26:	8b 40 38             	mov    0x38(%eax),%eax
  102c29:	85 c0                	test   %eax,%eax
  102c2b:	7e 2c                	jle    102c59 <_ZN11rl_terminal16new_line_handlerEv+0x61>
  102c2d:	8b 45 08             	mov    0x8(%ebp),%eax
  102c30:	8b 00                	mov    (%eax),%eax
  102c32:	8b 40 38             	mov    0x38(%eax),%eax
  102c35:	8b 55 08             	mov    0x8(%ebp),%edx
  102c38:	83 c2 0c             	add    $0xc,%edx
  102c3b:	89 44 24 08          	mov    %eax,0x8(%esp)
  102c3f:	8b 45 f4             	mov    -0xc(%ebp),%eax
  102c42:	89 44 24 04          	mov    %eax,0x4(%esp)
  102c46:	89 14 24             	mov    %edx,(%esp)
  102c49:	e8 82 fa ff ff       	call   1026d0 <_ZN14ring_history_t14hist_save_lineEPci>
  102c4e:	8b 45 f4             	mov    -0xc(%ebp),%eax
  102c51:	89 04 24             	mov    %eax,(%esp)
  102c54:	e8 e9 0a 00 00       	call   103742 <_Z7executePc>
  102c59:	8b 45 f0             	mov    -0x10(%ebp),%eax
  102c5c:	a3 18 8b 10 00       	mov    %eax,0x108b18
  102c61:	8b 45 08             	mov    0x8(%ebp),%eax
  102c64:	89 04 24             	mov    %eax,(%esp)
  102c67:	e8 16 ff ff ff       	call   102b82 <_ZN11rl_terminal12print_promptEv>
  102c6c:	8b 45 08             	mov    0x8(%ebp),%eax
  102c6f:	c7 80 14 01 00 00 00 	movl   $0x0,0x114(%eax)
  102c76:	00 00 00 
  102c79:	8b 45 08             	mov    0x8(%ebp),%eax
  102c7c:	8b 00                	mov    (%eax),%eax
  102c7e:	89 04 24             	mov    %eax,(%esp)
  102c81:	e8 42 05 00 00       	call   1031c8 <_ZN10readline_t4initEv>
  102c86:	c9                   	leave  
  102c87:	c3                   	ret    

00102c88 <_ZN11rl_terminal6listenEv>:
  102c88:	55                   	push   %ebp
  102c89:	89 e5                	mov    %esp,%ebp
  102c8b:	83 ec 28             	sub    $0x28,%esp
  102c8e:	8b 45 08             	mov    0x8(%ebp),%eax
  102c91:	8b 40 08             	mov    0x8(%eax),%eax
  102c94:	85 c0                	test   %eax,%eax
  102c96:	75 15                	jne    102cad <_ZN11rl_terminal6listenEv+0x25>
  102c98:	8b 45 08             	mov    0x8(%ebp),%eax
  102c9b:	89 04 24             	mov    %eax,(%esp)
  102c9e:	e8 df fe ff ff       	call   102b82 <_ZN11rl_terminal12print_promptEv>
  102ca3:	8b 45 08             	mov    0x8(%ebp),%eax
  102ca6:	c7 40 08 01 00 00 00 	movl   $0x1,0x8(%eax)
  102cad:	8b 45 08             	mov    0x8(%ebp),%eax
  102cb0:	8b 40 04             	mov    0x4(%eax),%eax
  102cb3:	8b 00                	mov    (%eax),%eax
  102cb5:	83 c0 0c             	add    $0xc,%eax
  102cb8:	8b 00                	mov    (%eax),%eax
  102cba:	8b 55 08             	mov    0x8(%ebp),%edx
  102cbd:	8b 52 04             	mov    0x4(%edx),%edx
  102cc0:	89 14 24             	mov    %edx,(%esp)
  102cc3:	ff d0                	call   *%eax
  102cc5:	89 45 f4             	mov    %eax,-0xc(%ebp)
  102cc8:	83 7d f4 00          	cmpl   $0x0,-0xc(%ebp)
  102ccc:	0f 84 3a 01 00 00    	je     102e0c <_ZN11rl_terminal6listenEv+0x184>
  102cd2:	83 7d f4 ff          	cmpl   $0xffffffff,-0xc(%ebp)
  102cd6:	0f 84 30 01 00 00    	je     102e0c <_ZN11rl_terminal6listenEv+0x184>
  102cdc:	8b 45 08             	mov    0x8(%ebp),%eax
  102cdf:	0f b6 80 18 01 00 00 	movzbl 0x118(%eax),%eax
  102ce6:	84 c0                	test   %al,%al
  102ce8:	74 31                	je     102d1b <_ZN11rl_terminal6listenEv+0x93>
  102cea:	8b 45 f4             	mov    -0xc(%ebp),%eax
  102ced:	0f be c0             	movsbl %al,%eax
  102cf0:	89 44 24 04          	mov    %eax,0x4(%esp)
  102cf4:	8b 45 08             	mov    0x8(%ebp),%eax
  102cf7:	89 04 24             	mov    %eax,(%esp)
  102cfa:	e8 f3 01 00 00       	call   102ef2 <_ZN11rl_terminal14escape_processEc>
  102cff:	85 c0                	test   %eax,%eax
  102d01:	0f 95 c0             	setne  %al
  102d04:	84 c0                	test   %al,%al
  102d06:	0f 84 00 01 00 00    	je     102e0c <_ZN11rl_terminal6listenEv+0x184>
  102d0c:	8b 45 08             	mov    0x8(%ebp),%eax
  102d0f:	c6 80 18 01 00 00 00 	movb   $0x0,0x118(%eax)
  102d16:	e9 f1 00 00 00       	jmp    102e0c <_ZN11rl_terminal6listenEv+0x184>
  102d1b:	83 7d f4 7f          	cmpl   $0x7f,-0xc(%ebp)
  102d1f:	0f 87 99 00 00 00    	ja     102dbe <_ZN11rl_terminal6listenEv+0x136>
  102d25:	8b 45 f4             	mov    -0xc(%ebp),%eax
  102d28:	c1 e0 02             	shl    $0x2,%eax
  102d2b:	05 d4 59 10 00       	add    $0x1059d4,%eax
  102d30:	8b 00                	mov    (%eax),%eax
  102d32:	ff e0                	jmp    *%eax
  102d34:	c7 44 24 04 0a 00 00 	movl   $0xa,0x4(%esp)
  102d3b:	00 
  102d3c:	8b 45 08             	mov    0x8(%ebp),%eax
  102d3f:	89 04 24             	mov    %eax,(%esp)
  102d42:	e8 1b 04 00 00       	call   103162 <_ZN11rl_terminal13terminal_charEc>
  102d47:	8b 45 08             	mov    0x8(%ebp),%eax
  102d4a:	89 04 24             	mov    %eax,(%esp)
  102d4d:	e8 a6 fe ff ff       	call   102bf8 <_ZN11rl_terminal16new_line_handlerEv>
  102d52:	e9 b5 00 00 00       	jmp    102e0c <_ZN11rl_terminal6listenEv+0x184>
  102d57:	8b 45 08             	mov    0x8(%ebp),%eax
  102d5a:	c6 80 18 01 00 00 01 	movb   $0x1,0x118(%eax)
  102d61:	e9 a6 00 00 00       	jmp    102e0c <_ZN11rl_terminal6listenEv+0x184>
  102d66:	8b 45 08             	mov    0x8(%ebp),%eax
  102d69:	8b 00                	mov    (%eax),%eax
  102d6b:	89 04 24             	mov    %eax,(%esp)
  102d6e:	e8 23 06 00 00       	call   103396 <_ZN10readline_t9backspaceEv>
  102d73:	85 c0                	test   %eax,%eax
  102d75:	0f 95 c0             	setne  %al
  102d78:	84 c0                	test   %al,%al
  102d7a:	74 0b                	je     102d87 <_ZN11rl_terminal6listenEv+0xff>
  102d7c:	8b 45 08             	mov    0x8(%ebp),%eax
  102d7f:	89 04 24             	mov    %eax,(%esp)
  102d82:	e8 9f 03 00 00       	call   103126 <_ZN11rl_terminal18terminal_backspaceEv>
  102d87:	8b 45 08             	mov    0x8(%ebp),%eax
  102d8a:	8b 00                	mov    (%eax),%eax
  102d8c:	8b 50 38             	mov    0x38(%eax),%edx
  102d8f:	8b 45 08             	mov    0x8(%ebp),%eax
  102d92:	8b 00                	mov    (%eax),%eax
  102d94:	8b 40 34             	mov    0x34(%eax),%eax
  102d97:	39 c2                	cmp    %eax,%edx
  102d99:	74 21                	je     102dbc <_ZN11rl_terminal6listenEv+0x134>
  102d9b:	8b 45 08             	mov    0x8(%ebp),%eax
  102d9e:	8b 40 04             	mov    0x4(%eax),%eax
  102da1:	c7 44 24 04 cf 59 10 	movl   $0x1059cf,0x4(%esp)
  102da8:	00 
  102da9:	89 04 24             	mov    %eax,(%esp)
  102dac:	e8 eb da ff ff       	call   10089c <_ZN5Print5printEPKc>
  102db1:	8b 45 08             	mov    0x8(%ebp),%eax
  102db4:	89 04 24             	mov    %eax,(%esp)
  102db7:	e8 52 00 00 00       	call   102e0e <_ZN11rl_terminal16terminal_rewriteEv>
  102dbc:	eb 4e                	jmp    102e0c <_ZN11rl_terminal6listenEv+0x184>
  102dbe:	8b 45 f4             	mov    -0xc(%ebp),%eax
  102dc1:	0f be d0             	movsbl %al,%edx
  102dc4:	8b 45 08             	mov    0x8(%ebp),%eax
  102dc7:	8b 00                	mov    (%eax),%eax
  102dc9:	89 54 24 04          	mov    %edx,0x4(%esp)
  102dcd:	89 04 24             	mov    %eax,(%esp)
  102dd0:	e8 d3 04 00 00       	call   1032a8 <_ZN10readline_t11insert_charEc>
  102dd5:	8b 45 f4             	mov    -0xc(%ebp),%eax
  102dd8:	0f be c0             	movsbl %al,%eax
  102ddb:	89 44 24 04          	mov    %eax,0x4(%esp)
  102ddf:	8b 45 08             	mov    0x8(%ebp),%eax
  102de2:	89 04 24             	mov    %eax,(%esp)
  102de5:	e8 78 03 00 00       	call   103162 <_ZN11rl_terminal13terminal_charEc>
  102dea:	8b 45 08             	mov    0x8(%ebp),%eax
  102ded:	8b 00                	mov    (%eax),%eax
  102def:	8b 50 38             	mov    0x38(%eax),%edx
  102df2:	8b 45 08             	mov    0x8(%ebp),%eax
  102df5:	8b 00                	mov    (%eax),%eax
  102df7:	8b 40 34             	mov    0x34(%eax),%eax
  102dfa:	39 c2                	cmp    %eax,%edx
  102dfc:	74 0e                	je     102e0c <_ZN11rl_terminal6listenEv+0x184>
  102dfe:	8b 45 08             	mov    0x8(%ebp),%eax
  102e01:	89 04 24             	mov    %eax,(%esp)
  102e04:	e8 05 00 00 00       	call   102e0e <_ZN11rl_terminal16terminal_rewriteEv>
  102e09:	eb 01                	jmp    102e0c <_ZN11rl_terminal6listenEv+0x184>
  102e0b:	90                   	nop
  102e0c:	c9                   	leave  
  102e0d:	c3                   	ret    

00102e0e <_ZN11rl_terminal16terminal_rewriteEv>:
  102e0e:	55                   	push   %ebp
  102e0f:	89 e5                	mov    %esp,%ebp
  102e11:	83 ec 18             	sub    $0x18,%esp
  102e14:	8b 45 08             	mov    0x8(%ebp),%eax
  102e17:	8b 00                	mov    (%eax),%eax
  102e19:	8b 50 38             	mov    0x38(%eax),%edx
  102e1c:	8b 45 08             	mov    0x8(%ebp),%eax
  102e1f:	8b 00                	mov    (%eax),%eax
  102e21:	8b 40 34             	mov    0x34(%eax),%eax
  102e24:	29 c2                	sub    %eax,%edx
  102e26:	8b 45 08             	mov    0x8(%ebp),%eax
  102e29:	8b 08                	mov    (%eax),%ecx
  102e2b:	8b 45 08             	mov    0x8(%ebp),%eax
  102e2e:	8b 00                	mov    (%eax),%eax
  102e30:	8b 40 34             	mov    0x34(%eax),%eax
  102e33:	01 c8                	add    %ecx,%eax
  102e35:	89 54 24 08          	mov    %edx,0x8(%esp)
  102e39:	89 44 24 04          	mov    %eax,0x4(%esp)
  102e3d:	8b 45 08             	mov    0x8(%ebp),%eax
  102e40:	89 04 24             	mov    %eax,(%esp)
  102e43:	e8 48 03 00 00       	call   103190 <_ZN11rl_terminal14terminal_writeEPci>
  102e48:	8b 45 08             	mov    0x8(%ebp),%eax
  102e4b:	8b 00                	mov    (%eax),%eax
  102e4d:	8b 50 34             	mov    0x34(%eax),%edx
  102e50:	8b 45 08             	mov    0x8(%ebp),%eax
  102e53:	8b 00                	mov    (%eax),%eax
  102e55:	8b 40 38             	mov    0x38(%eax),%eax
  102e58:	29 c2                	sub    %eax,%edx
  102e5a:	89 d0                	mov    %edx,%eax
  102e5c:	89 44 24 04          	mov    %eax,0x4(%esp)
  102e60:	8b 45 08             	mov    0x8(%ebp),%eax
  102e63:	89 04 24             	mov    %eax,(%esp)
  102e66:	e8 03 00 00 00       	call   102e6e <_ZN11rl_terminal20terminal_move_cursorEi>
  102e6b:	c9                   	leave  
  102e6c:	c3                   	ret    
  102e6d:	90                   	nop

00102e6e <_ZN11rl_terminal20terminal_move_cursorEi>:
  102e6e:	55                   	push   %ebp
  102e6f:	89 e5                	mov    %esp,%ebp
  102e71:	83 ec 18             	sub    $0x18,%esp
  102e74:	83 7d 0c 00          	cmpl   $0x0,0xc(%ebp)
  102e78:	75 02                	jne    102e7c <_ZN11rl_terminal20terminal_move_cursorEi+0xe>
  102e7a:	eb 73                	jmp    102eef <_ZN11rl_terminal20terminal_move_cursorEi+0x81>
  102e7c:	8b 45 08             	mov    0x8(%ebp),%eax
  102e7f:	8b 40 04             	mov    0x4(%eax),%eax
  102e82:	c7 44 24 04 d4 5b 10 	movl   $0x105bd4,0x4(%esp)
  102e89:	00 
  102e8a:	89 04 24             	mov    %eax,(%esp)
  102e8d:	e8 0a da ff ff       	call   10089c <_ZN5Print5printEPKc>
  102e92:	8b 45 0c             	mov    0xc(%ebp),%eax
  102e95:	99                   	cltd   
  102e96:	89 d0                	mov    %edx,%eax
  102e98:	33 45 0c             	xor    0xc(%ebp),%eax
  102e9b:	29 d0                	sub    %edx,%eax
  102e9d:	8b 55 08             	mov    0x8(%ebp),%edx
  102ea0:	8b 52 04             	mov    0x4(%edx),%edx
  102ea3:	c7 44 24 08 0a 00 00 	movl   $0xa,0x8(%esp)
  102eaa:	00 
  102eab:	89 44 24 04          	mov    %eax,0x4(%esp)
  102eaf:	89 14 24             	mov    %edx,(%esp)
  102eb2:	e8 4f da ff ff       	call   100906 <_ZN5Print5printEii>
  102eb7:	83 7d 0c 00          	cmpl   $0x0,0xc(%ebp)
  102ebb:	7e 16                	jle    102ed3 <_ZN11rl_terminal20terminal_move_cursorEi+0x65>
  102ebd:	8b 45 08             	mov    0x8(%ebp),%eax
  102ec0:	8b 40 04             	mov    0x4(%eax),%eax
  102ec3:	c7 44 24 04 d7 5b 10 	movl   $0x105bd7,0x4(%esp)
  102eca:	00 
  102ecb:	89 04 24             	mov    %eax,(%esp)
  102ece:	e8 c9 d9 ff ff       	call   10089c <_ZN5Print5printEPKc>
  102ed3:	83 7d 0c 00          	cmpl   $0x0,0xc(%ebp)
  102ed7:	79 16                	jns    102eef <_ZN11rl_terminal20terminal_move_cursorEi+0x81>
  102ed9:	8b 45 08             	mov    0x8(%ebp),%eax
  102edc:	8b 40 04             	mov    0x4(%eax),%eax
  102edf:	c7 44 24 04 d9 5b 10 	movl   $0x105bd9,0x4(%esp)
  102ee6:	00 
  102ee7:	89 04 24             	mov    %eax,(%esp)
  102eea:	e8 ad d9 ff ff       	call   10089c <_ZN5Print5printEPKc>
  102eef:	c9                   	leave  
  102ef0:	c3                   	ret    
  102ef1:	90                   	nop

00102ef2 <_ZN11rl_terminal14escape_processEc>:
  102ef2:	55                   	push   %ebp
  102ef3:	89 e5                	mov    %esp,%ebp
  102ef5:	83 ec 18             	sub    $0x18,%esp
  102ef8:	8b 45 0c             	mov    0xc(%ebp),%eax
  102efb:	88 45 f4             	mov    %al,-0xc(%ebp)
  102efe:	80 7d f4 5b          	cmpb   $0x5b,-0xc(%ebp)
  102f02:	75 14                	jne    102f18 <_ZN11rl_terminal14escape_processEc+0x26>
  102f04:	8b 45 08             	mov    0x8(%ebp),%eax
  102f07:	c6 80 19 01 00 00 01 	movb   $0x1,0x119(%eax)
  102f0e:	b8 00 00 00 00       	mov    $0x0,%eax
  102f13:	e9 77 01 00 00       	jmp    10308f <_ZN11rl_terminal14escape_processEc+0x19d>
  102f18:	8b 45 08             	mov    0x8(%ebp),%eax
  102f1b:	0f b6 80 19 01 00 00 	movzbl 0x119(%eax),%eax
  102f22:	3c 01                	cmp    $0x1,%al
  102f24:	0f 85 35 01 00 00    	jne    10305f <_ZN11rl_terminal14escape_processEc+0x16d>
  102f2a:	80 7d f4 41          	cmpb   $0x41,-0xc(%ebp)
  102f2e:	75 1d                	jne    102f4d <_ZN11rl_terminal14escape_processEc+0x5b>
  102f30:	c7 44 24 04 00 00 00 	movl   $0x0,0x4(%esp)
  102f37:	00 
  102f38:	8b 45 08             	mov    0x8(%ebp),%eax
  102f3b:	89 04 24             	mov    %eax,(%esp)
  102f3e:	e8 4f 01 00 00       	call   103092 <_ZN11rl_terminal11hist_searchEi>
  102f43:	b8 01 00 00 00       	mov    $0x1,%eax
  102f48:	e9 42 01 00 00       	jmp    10308f <_ZN11rl_terminal14escape_processEc+0x19d>
  102f4d:	80 7d f4 42          	cmpb   $0x42,-0xc(%ebp)
  102f51:	75 1d                	jne    102f70 <_ZN11rl_terminal14escape_processEc+0x7e>
  102f53:	c7 44 24 04 01 00 00 	movl   $0x1,0x4(%esp)
  102f5a:	00 
  102f5b:	8b 45 08             	mov    0x8(%ebp),%eax
  102f5e:	89 04 24             	mov    %eax,(%esp)
  102f61:	e8 2c 01 00 00       	call   103092 <_ZN11rl_terminal11hist_searchEi>
  102f66:	b8 01 00 00 00       	mov    $0x1,%eax
  102f6b:	e9 1f 01 00 00       	jmp    10308f <_ZN11rl_terminal14escape_processEc+0x19d>
  102f70:	80 7d f4 43          	cmpb   $0x43,-0xc(%ebp)
  102f74:	75 2e                	jne    102fa4 <_ZN11rl_terminal14escape_processEc+0xb2>
  102f76:	8b 45 08             	mov    0x8(%ebp),%eax
  102f79:	8b 00                	mov    (%eax),%eax
  102f7b:	c7 44 24 04 01 00 00 	movl   $0x1,0x4(%esp)
  102f82:	00 
  102f83:	89 04 24             	mov    %eax,(%esp)
  102f86:	e8 af 03 00 00       	call   10333a <_ZN10readline_t11move_cursorEi>
  102f8b:	89 44 24 04          	mov    %eax,0x4(%esp)
  102f8f:	8b 45 08             	mov    0x8(%ebp),%eax
  102f92:	89 04 24             	mov    %eax,(%esp)
  102f95:	e8 d4 fe ff ff       	call   102e6e <_ZN11rl_terminal20terminal_move_cursorEi>
  102f9a:	b8 01 00 00 00       	mov    $0x1,%eax
  102f9f:	e9 eb 00 00 00       	jmp    10308f <_ZN11rl_terminal14escape_processEc+0x19d>
  102fa4:	80 7d f4 44          	cmpb   $0x44,-0xc(%ebp)
  102fa8:	75 2e                	jne    102fd8 <_ZN11rl_terminal14escape_processEc+0xe6>
  102faa:	8b 45 08             	mov    0x8(%ebp),%eax
  102fad:	8b 00                	mov    (%eax),%eax
  102faf:	c7 44 24 04 ff ff ff 	movl   $0xffffffff,0x4(%esp)
  102fb6:	ff 
  102fb7:	89 04 24             	mov    %eax,(%esp)
  102fba:	e8 7b 03 00 00       	call   10333a <_ZN10readline_t11move_cursorEi>
  102fbf:	89 44 24 04          	mov    %eax,0x4(%esp)
  102fc3:	8b 45 08             	mov    0x8(%ebp),%eax
  102fc6:	89 04 24             	mov    %eax,(%esp)
  102fc9:	e8 a0 fe ff ff       	call   102e6e <_ZN11rl_terminal20terminal_move_cursorEi>
  102fce:	b8 01 00 00 00       	mov    $0x1,%eax
  102fd3:	e9 b7 00 00 00       	jmp    10308f <_ZN11rl_terminal14escape_processEc+0x19d>
  102fd8:	80 7d f4 37          	cmpb   $0x37,-0xc(%ebp)
  102fdc:	75 0a                	jne    102fe8 <_ZN11rl_terminal14escape_processEc+0xf6>
  102fde:	b8 00 00 00 00       	mov    $0x0,%eax
  102fe3:	e9 a7 00 00 00       	jmp    10308f <_ZN11rl_terminal14escape_processEc+0x19d>
  102fe8:	80 7d f4 38          	cmpb   $0x38,-0xc(%ebp)
  102fec:	75 0a                	jne    102ff8 <_ZN11rl_terminal14escape_processEc+0x106>
  102fee:	b8 00 00 00 00       	mov    $0x0,%eax
  102ff3:	e9 97 00 00 00       	jmp    10308f <_ZN11rl_terminal14escape_processEc+0x19d>
  102ff8:	80 7d f4 33          	cmpb   $0x33,-0xc(%ebp)
  102ffc:	0f 85 8d 00 00 00    	jne    10308f <_ZN11rl_terminal14escape_processEc+0x19d>
  103002:	8b 45 08             	mov    0x8(%ebp),%eax
  103005:	8b 00                	mov    (%eax),%eax
  103007:	89 04 24             	mov    %eax,(%esp)
  10300a:	e8 07 04 00 00       	call   103416 <_ZN10readline_t3delEv>
  10300f:	85 c0                	test   %eax,%eax
  103011:	0f 95 c0             	setne  %al
  103014:	84 c0                	test   %al,%al
  103016:	74 0b                	je     103023 <_ZN11rl_terminal14escape_processEc+0x131>
  103018:	8b 45 08             	mov    0x8(%ebp),%eax
  10301b:	89 04 24             	mov    %eax,(%esp)
  10301e:	e8 21 01 00 00       	call   103144 <_ZN11rl_terminal12terminal_delEv>
  103023:	8b 45 08             	mov    0x8(%ebp),%eax
  103026:	8b 00                	mov    (%eax),%eax
  103028:	8b 50 38             	mov    0x38(%eax),%edx
  10302b:	8b 45 08             	mov    0x8(%ebp),%eax
  10302e:	8b 00                	mov    (%eax),%eax
  103030:	8b 40 34             	mov    0x34(%eax),%eax
  103033:	39 c2                	cmp    %eax,%edx
  103035:	74 21                	je     103058 <_ZN11rl_terminal14escape_processEc+0x166>
  103037:	8b 45 08             	mov    0x8(%ebp),%eax
  10303a:	8b 40 04             	mov    0x4(%eax),%eax
  10303d:	c7 44 24 04 cf 59 10 	movl   $0x1059cf,0x4(%esp)
  103044:	00 
  103045:	89 04 24             	mov    %eax,(%esp)
  103048:	e8 4f d8 ff ff       	call   10089c <_ZN5Print5printEPKc>
  10304d:	8b 45 08             	mov    0x8(%ebp),%eax
  103050:	89 04 24             	mov    %eax,(%esp)
  103053:	e8 b6 fd ff ff       	call   102e0e <_ZN11rl_terminal16terminal_rewriteEv>
  103058:	b8 00 00 00 00       	mov    $0x0,%eax
  10305d:	eb 30                	jmp    10308f <_ZN11rl_terminal14escape_processEc+0x19d>
  10305f:	80 7d f4 7e          	cmpb   $0x7e,-0xc(%ebp)
  103063:	75 2a                	jne    10308f <_ZN11rl_terminal14escape_processEc+0x19d>
  103065:	8b 45 08             	mov    0x8(%ebp),%eax
  103068:	0f b6 80 19 01 00 00 	movzbl 0x119(%eax),%eax
  10306f:	3c 02                	cmp    $0x2,%al
  103071:	75 07                	jne    10307a <_ZN11rl_terminal14escape_processEc+0x188>
  103073:	b8 01 00 00 00       	mov    $0x1,%eax
  103078:	eb 15                	jmp    10308f <_ZN11rl_terminal14escape_processEc+0x19d>
  10307a:	8b 45 08             	mov    0x8(%ebp),%eax
  10307d:	0f b6 80 19 01 00 00 	movzbl 0x119(%eax),%eax
  103084:	3c 03                	cmp    $0x3,%al
  103086:	75 07                	jne    10308f <_ZN11rl_terminal14escape_processEc+0x19d>
  103088:	b8 01 00 00 00       	mov    $0x1,%eax
  10308d:	eb 00                	jmp    10308f <_ZN11rl_terminal14escape_processEc+0x19d>
  10308f:	c9                   	leave  
  103090:	c3                   	ret    
  103091:	90                   	nop

00103092 <_ZN11rl_terminal11hist_searchEi>:
  103092:	55                   	push   %ebp
  103093:	89 e5                	mov    %esp,%ebp
  103095:	83 ec 28             	sub    $0x28,%esp
  103098:	8b 45 08             	mov    0x8(%ebp),%eax
  10309b:	8b 00                	mov    (%eax),%eax
  10309d:	8b 55 08             	mov    0x8(%ebp),%edx
  1030a0:	8d 4a 0c             	lea    0xc(%edx),%ecx
  1030a3:	8b 55 0c             	mov    0xc(%ebp),%edx
  1030a6:	89 54 24 08          	mov    %edx,0x8(%esp)
  1030aa:	89 44 24 04          	mov    %eax,0x4(%esp)
  1030ae:	89 0c 24             	mov    %ecx,(%esp)
  1030b1:	e8 96 f7 ff ff       	call   10284c <_ZN14ring_history_t17hist_restore_lineEPci>
  1030b6:	89 45 f4             	mov    %eax,-0xc(%ebp)
  1030b9:	83 7d f4 00          	cmpl   $0x0,-0xc(%ebp)
  1030bd:	78 64                	js     103123 <_ZN11rl_terminal11hist_searchEi+0x91>
  1030bf:	8b 45 08             	mov    0x8(%ebp),%eax
  1030c2:	8b 00                	mov    (%eax),%eax
  1030c4:	8b 40 34             	mov    0x34(%eax),%eax
  1030c7:	f7 d8                	neg    %eax
  1030c9:	89 44 24 04          	mov    %eax,0x4(%esp)
  1030cd:	8b 45 08             	mov    0x8(%ebp),%eax
  1030d0:	89 04 24             	mov    %eax,(%esp)
  1030d3:	e8 96 fd ff ff       	call   102e6e <_ZN11rl_terminal20terminal_move_cursorEi>
  1030d8:	8b 45 08             	mov    0x8(%ebp),%eax
  1030db:	8b 10                	mov    (%eax),%edx
  1030dd:	8b 45 08             	mov    0x8(%ebp),%eax
  1030e0:	8b 00                	mov    (%eax),%eax
  1030e2:	8b 4d f4             	mov    -0xc(%ebp),%ecx
  1030e5:	89 48 38             	mov    %ecx,0x38(%eax)
  1030e8:	8b 40 38             	mov    0x38(%eax),%eax
  1030eb:	89 42 34             	mov    %eax,0x34(%edx)
  1030ee:	8b 45 08             	mov    0x8(%ebp),%eax
  1030f1:	8b 40 04             	mov    0x4(%eax),%eax
  1030f4:	c7 44 24 04 cf 59 10 	movl   $0x1059cf,0x4(%esp)
  1030fb:	00 
  1030fc:	89 04 24             	mov    %eax,(%esp)
  1030ff:	e8 98 d7 ff ff       	call   10089c <_ZN5Print5printEPKc>
  103104:	8b 45 08             	mov    0x8(%ebp),%eax
  103107:	8b 00                	mov    (%eax),%eax
  103109:	89 04 24             	mov    %eax,(%esp)
  10310c:	e8 d1 00 00 00       	call   1031e2 <_ZN10readline_t8get_lineEv>
  103111:	8b 55 08             	mov    0x8(%ebp),%edx
  103114:	8b 52 04             	mov    0x4(%edx),%edx
  103117:	89 44 24 04          	mov    %eax,0x4(%esp)
  10311b:	89 14 24             	mov    %edx,(%esp)
  10311e:	e8 79 d7 ff ff       	call   10089c <_ZN5Print5printEPKc>
  103123:	c9                   	leave  
  103124:	c3                   	ret    
  103125:	90                   	nop

00103126 <_ZN11rl_terminal18terminal_backspaceEv>:
  103126:	55                   	push   %ebp
  103127:	89 e5                	mov    %esp,%ebp
  103129:	83 ec 18             	sub    $0x18,%esp
  10312c:	8b 45 08             	mov    0x8(%ebp),%eax
  10312f:	8b 40 04             	mov    0x4(%eax),%eax
  103132:	c7 44 24 04 b8 59 10 	movl   $0x1059b8,0x4(%esp)
  103139:	00 
  10313a:	89 04 24             	mov    %eax,(%esp)
  10313d:	e8 5a d7 ff ff       	call   10089c <_ZN5Print5printEPKc>
  103142:	c9                   	leave  
  103143:	c3                   	ret    

00103144 <_ZN11rl_terminal12terminal_delEv>:
  103144:	55                   	push   %ebp
  103145:	89 e5                	mov    %esp,%ebp
  103147:	83 ec 18             	sub    $0x18,%esp
  10314a:	8b 45 08             	mov    0x8(%ebp),%eax
  10314d:	8b 40 04             	mov    0x4(%eax),%eax
  103150:	c7 44 24 04 c0 59 10 	movl   $0x1059c0,0x4(%esp)
  103157:	00 
  103158:	89 04 24             	mov    %eax,(%esp)
  10315b:	e8 3c d7 ff ff       	call   10089c <_ZN5Print5printEPKc>
  103160:	c9                   	leave  
  103161:	c3                   	ret    

00103162 <_ZN11rl_terminal13terminal_charEc>:
  103162:	55                   	push   %ebp
  103163:	89 e5                	mov    %esp,%ebp
  103165:	83 ec 18             	sub    $0x18,%esp
  103168:	8b 45 0c             	mov    0xc(%ebp),%eax
  10316b:	88 45 f4             	mov    %al,-0xc(%ebp)
  10316e:	8b 45 08             	mov    0x8(%ebp),%eax
  103171:	8b 40 04             	mov    0x4(%eax),%eax
  103174:	8b 00                	mov    (%eax),%eax
  103176:	8b 00                	mov    (%eax),%eax
  103178:	0f b6 55 f4          	movzbl -0xc(%ebp),%edx
  10317c:	0f b6 ca             	movzbl %dl,%ecx
  10317f:	8b 55 08             	mov    0x8(%ebp),%edx
  103182:	8b 52 04             	mov    0x4(%edx),%edx
  103185:	89 4c 24 04          	mov    %ecx,0x4(%esp)
  103189:	89 14 24             	mov    %edx,(%esp)
  10318c:	ff d0                	call   *%eax
  10318e:	c9                   	leave  
  10318f:	c3                   	ret    

00103190 <_ZN11rl_terminal14terminal_writeEPci>:
  103190:	55                   	push   %ebp
  103191:	89 e5                	mov    %esp,%ebp
  103193:	83 ec 18             	sub    $0x18,%esp
  103196:	8b 55 10             	mov    0x10(%ebp),%edx
  103199:	8b 45 08             	mov    0x8(%ebp),%eax
  10319c:	8b 40 04             	mov    0x4(%eax),%eax
  10319f:	89 54 24 08          	mov    %edx,0x8(%esp)
  1031a3:	8b 55 0c             	mov    0xc(%ebp),%edx
  1031a6:	89 54 24 04          	mov    %edx,0x4(%esp)
  1031aa:	89 04 24             	mov    %eax,(%esp)
  1031ad:	e8 80 d6 ff ff       	call   100832 <_ZN5Print5writeEPKcj>
  1031b2:	c9                   	leave  
  1031b3:	c3                   	ret    

001031b4 <_ZN10readline_tC1Ev>:
  1031b4:	55                   	push   %ebp
  1031b5:	89 e5                	mov    %esp,%ebp
  1031b7:	83 ec 18             	sub    $0x18,%esp
  1031ba:	8b 45 08             	mov    0x8(%ebp),%eax
  1031bd:	89 04 24             	mov    %eax,(%esp)
  1031c0:	e8 03 00 00 00       	call   1031c8 <_ZN10readline_t4initEv>
  1031c5:	c9                   	leave  
  1031c6:	c3                   	ret    
  1031c7:	90                   	nop

001031c8 <_ZN10readline_t4initEv>:
  1031c8:	55                   	push   %ebp
  1031c9:	89 e5                	mov    %esp,%ebp
  1031cb:	8b 45 08             	mov    0x8(%ebp),%eax
  1031ce:	c7 40 34 00 00 00 00 	movl   $0x0,0x34(%eax)
  1031d5:	8b 45 08             	mov    0x8(%ebp),%eax
  1031d8:	c7 40 38 00 00 00 00 	movl   $0x0,0x38(%eax)
  1031df:	5d                   	pop    %ebp
  1031e0:	c3                   	ret    
  1031e1:	90                   	nop

001031e2 <_ZN10readline_t8get_lineEv>:
  1031e2:	55                   	push   %ebp
  1031e3:	89 e5                	mov    %esp,%ebp
  1031e5:	8b 45 08             	mov    0x8(%ebp),%eax
  1031e8:	8b 40 38             	mov    0x38(%eax),%eax
  1031eb:	8b 55 08             	mov    0x8(%ebp),%edx
  1031ee:	c6 04 02 00          	movb   $0x0,(%edx,%eax,1)
  1031f2:	8b 45 08             	mov    0x8(%ebp),%eax
  1031f5:	5d                   	pop    %ebp
  1031f6:	c3                   	ret    

001031f7 <_ZL4outbth>:
  1031f7:	55                   	push   %ebp
  1031f8:	89 e5                	mov    %esp,%ebp
  1031fa:	83 ec 08             	sub    $0x8,%esp
  1031fd:	8b 55 08             	mov    0x8(%ebp),%edx
  103200:	8b 45 0c             	mov    0xc(%ebp),%eax
  103203:	66 89 55 fc          	mov    %dx,-0x4(%ebp)
  103207:	88 45 f8             	mov    %al,-0x8(%ebp)
  10320a:	0f b7 55 fc          	movzwl -0x4(%ebp),%edx
  10320e:	0f b6 45 f8          	movzbl -0x8(%ebp),%eax
  103212:	ee                   	out    %al,(%dx)
  103213:	c9                   	leave  
  103214:	c3                   	ret    

00103215 <_ZL3inbt>:
  103215:	55                   	push   %ebp
  103216:	89 e5                	mov    %esp,%ebp
  103218:	83 ec 14             	sub    $0x14,%esp
  10321b:	8b 45 08             	mov    0x8(%ebp),%eax
  10321e:	66 89 45 ec          	mov    %ax,-0x14(%ebp)
  103222:	0f b7 45 ec          	movzwl -0x14(%ebp),%eax
  103226:	89 c2                	mov    %eax,%edx
  103228:	ec                   	in     (%dx),%al
  103229:	88 45 ff             	mov    %al,-0x1(%ebp)
  10322c:	0f b6 45 ff          	movzbl -0x1(%ebp),%eax
  103230:	c9                   	leave  
  103231:	c3                   	ret    

00103232 <_ZL29platform_abstract_irq_handlerP14interrupt_info>:
  103232:	55                   	push   %ebp
  103233:	89 e5                	mov    %esp,%ebp
  103235:	83 ec 08             	sub    $0x8,%esp
  103238:	8b 45 08             	mov    0x8(%ebp),%eax
  10323b:	8b 40 24             	mov    0x24(%eax),%eax
  10323e:	83 f8 27             	cmp    $0x27,%eax
  103241:	76 14                	jbe    103257 <_ZL29platform_abstract_irq_handlerP14interrupt_info+0x25>
  103243:	c7 44 24 04 20 00 00 	movl   $0x20,0x4(%esp)
  10324a:	00 
  10324b:	c7 04 24 a0 00 00 00 	movl   $0xa0,(%esp)
  103252:	e8 a0 ff ff ff       	call   1031f7 <_ZL4outbth>
  103257:	8b 45 08             	mov    0x8(%ebp),%eax
  10325a:	8b 40 24             	mov    0x24(%eax),%eax
  10325d:	83 f8 1f             	cmp    $0x1f,%eax
  103260:	76 14                	jbe    103276 <_ZL29platform_abstract_irq_handlerP14interrupt_info+0x44>
  103262:	c7 44 24 04 20 00 00 	movl   $0x20,0x4(%esp)
  103269:	00 
  10326a:	c7 04 24 20 00 00 00 	movl   $0x20,(%esp)
  103271:	e8 81 ff ff ff       	call   1031f7 <_ZL4outbth>
  103276:	c9                   	leave  
  103277:	c3                   	ret    

00103278 <_ZN10readline_t11insert_textEPc>:
  103278:	55                   	push   %ebp
  103279:	89 e5                	mov    %esp,%ebp
  10327b:	83 ec 18             	sub    $0x18,%esp
  10327e:	eb 1c                	jmp    10329c <_ZN10readline_t11insert_textEPc+0x24>
  103280:	8b 45 0c             	mov    0xc(%ebp),%eax
  103283:	0f b6 00             	movzbl (%eax),%eax
  103286:	0f be c0             	movsbl %al,%eax
  103289:	89 44 24 04          	mov    %eax,0x4(%esp)
  10328d:	8b 45 08             	mov    0x8(%ebp),%eax
  103290:	89 04 24             	mov    %eax,(%esp)
  103293:	e8 10 00 00 00       	call   1032a8 <_ZN10readline_t11insert_charEc>
  103298:	83 45 0c 01          	addl   $0x1,0xc(%ebp)
  10329c:	8b 45 0c             	mov    0xc(%ebp),%eax
  10329f:	0f b6 00             	movzbl (%eax),%eax
  1032a2:	84 c0                	test   %al,%al
  1032a4:	75 da                	jne    103280 <_ZN10readline_t11insert_textEPc+0x8>
  1032a6:	c9                   	leave  
  1032a7:	c3                   	ret    

001032a8 <_ZN10readline_t11insert_charEc>:
  1032a8:	55                   	push   %ebp
  1032a9:	89 e5                	mov    %esp,%ebp
  1032ab:	53                   	push   %ebx
  1032ac:	83 ec 14             	sub    $0x14,%esp
  1032af:	8b 45 0c             	mov    0xc(%ebp),%eax
  1032b2:	88 45 f4             	mov    %al,-0xc(%ebp)
  1032b5:	8b 45 08             	mov    0x8(%ebp),%eax
  1032b8:	8b 40 38             	mov    0x38(%eax),%eax
  1032bb:	8d 50 01             	lea    0x1(%eax),%edx
  1032be:	8b 45 08             	mov    0x8(%ebp),%eax
  1032c1:	89 50 38             	mov    %edx,0x38(%eax)
  1032c4:	8b 45 08             	mov    0x8(%ebp),%eax
  1032c7:	8b 50 34             	mov    0x34(%eax),%edx
  1032ca:	8b 45 08             	mov    0x8(%ebp),%eax
  1032cd:	8b 40 38             	mov    0x38(%eax),%eax
  1032d0:	83 e8 01             	sub    $0x1,%eax
  1032d3:	39 c2                	cmp    %eax,%edx
  1032d5:	74 3e                	je     103315 <_ZN10readline_t11insert_charEc+0x6d>
  1032d7:	8b 45 08             	mov    0x8(%ebp),%eax
  1032da:	8b 50 38             	mov    0x38(%eax),%edx
  1032dd:	8b 45 08             	mov    0x8(%ebp),%eax
  1032e0:	8b 40 34             	mov    0x34(%eax),%eax
  1032e3:	29 c2                	sub    %eax,%edx
  1032e5:	89 d0                	mov    %edx,%eax
  1032e7:	83 e8 01             	sub    $0x1,%eax
  1032ea:	8b 55 08             	mov    0x8(%ebp),%edx
  1032ed:	8b 52 34             	mov    0x34(%edx),%edx
  1032f0:	89 d1                	mov    %edx,%ecx
  1032f2:	8b 55 08             	mov    0x8(%ebp),%edx
  1032f5:	01 d1                	add    %edx,%ecx
  1032f7:	8b 55 08             	mov    0x8(%ebp),%edx
  1032fa:	8b 52 34             	mov    0x34(%edx),%edx
  1032fd:	8d 5a 01             	lea    0x1(%edx),%ebx
  103300:	8b 55 08             	mov    0x8(%ebp),%edx
  103303:	01 da                	add    %ebx,%edx
  103305:	89 44 24 08          	mov    %eax,0x8(%esp)
  103309:	89 4c 24 04          	mov    %ecx,0x4(%esp)
  10330d:	89 14 24             	mov    %edx,(%esp)
  103310:	e8 3d e1 ff ff       	call   101452 <_Z7memmovePvPKvj>
  103315:	8b 45 08             	mov    0x8(%ebp),%eax
  103318:	8b 40 34             	mov    0x34(%eax),%eax
  10331b:	8b 55 08             	mov    0x8(%ebp),%edx
  10331e:	0f b6 4d f4          	movzbl -0xc(%ebp),%ecx
  103322:	88 0c 02             	mov    %cl,(%edx,%eax,1)
  103325:	8b 45 08             	mov    0x8(%ebp),%eax
  103328:	8b 40 34             	mov    0x34(%eax),%eax
  10332b:	8d 50 01             	lea    0x1(%eax),%edx
  10332e:	8b 45 08             	mov    0x8(%ebp),%eax
  103331:	89 50 34             	mov    %edx,0x34(%eax)
  103334:	83 c4 14             	add    $0x14,%esp
  103337:	5b                   	pop    %ebx
  103338:	5d                   	pop    %ebp
  103339:	c3                   	ret    

0010333a <_ZN10readline_t11move_cursorEi>:
  10333a:	55                   	push   %ebp
  10333b:	89 e5                	mov    %esp,%ebp
  10333d:	83 ec 10             	sub    $0x10,%esp
  103340:	8b 45 08             	mov    0x8(%ebp),%eax
  103343:	8b 40 34             	mov    0x34(%eax),%eax
  103346:	89 45 fc             	mov    %eax,-0x4(%ebp)
  103349:	8b 45 08             	mov    0x8(%ebp),%eax
  10334c:	8b 50 34             	mov    0x34(%eax),%edx
  10334f:	8b 45 0c             	mov    0xc(%ebp),%eax
  103352:	01 c2                	add    %eax,%edx
  103354:	8b 45 08             	mov    0x8(%ebp),%eax
  103357:	89 50 34             	mov    %edx,0x34(%eax)
  10335a:	8b 45 08             	mov    0x8(%ebp),%eax
  10335d:	8b 40 34             	mov    0x34(%eax),%eax
  103360:	85 c0                	test   %eax,%eax
  103362:	79 0a                	jns    10336e <_ZN10readline_t11move_cursorEi+0x34>
  103364:	8b 45 08             	mov    0x8(%ebp),%eax
  103367:	c7 40 34 00 00 00 00 	movl   $0x0,0x34(%eax)
  10336e:	8b 45 08             	mov    0x8(%ebp),%eax
  103371:	8b 50 34             	mov    0x34(%eax),%edx
  103374:	8b 45 08             	mov    0x8(%ebp),%eax
  103377:	8b 40 38             	mov    0x38(%eax),%eax
  10337a:	39 c2                	cmp    %eax,%edx
  10337c:	7e 0c                	jle    10338a <_ZN10readline_t11move_cursorEi+0x50>
  10337e:	8b 45 08             	mov    0x8(%ebp),%eax
  103381:	8b 50 38             	mov    0x38(%eax),%edx
  103384:	8b 45 08             	mov    0x8(%ebp),%eax
  103387:	89 50 34             	mov    %edx,0x34(%eax)
  10338a:	8b 45 08             	mov    0x8(%ebp),%eax
  10338d:	8b 40 34             	mov    0x34(%eax),%eax
  103390:	2b 45 fc             	sub    -0x4(%ebp),%eax
  103393:	c9                   	leave  
  103394:	c3                   	ret    
  103395:	90                   	nop

00103396 <_ZN10readline_t9backspaceEv>:
  103396:	55                   	push   %ebp
  103397:	89 e5                	mov    %esp,%ebp
  103399:	53                   	push   %ebx
  10339a:	83 ec 14             	sub    $0x14,%esp
  10339d:	8b 45 08             	mov    0x8(%ebp),%eax
  1033a0:	8b 40 34             	mov    0x34(%eax),%eax
  1033a3:	85 c0                	test   %eax,%eax
  1033a5:	7e 63                	jle    10340a <_ZN10readline_t9backspaceEv+0x74>
  1033a7:	8b 45 08             	mov    0x8(%ebp),%eax
  1033aa:	8b 50 38             	mov    0x38(%eax),%edx
  1033ad:	8b 45 08             	mov    0x8(%ebp),%eax
  1033b0:	8b 40 34             	mov    0x34(%eax),%eax
  1033b3:	29 c2                	sub    %eax,%edx
  1033b5:	89 d0                	mov    %edx,%eax
  1033b7:	83 c0 01             	add    $0x1,%eax
  1033ba:	8b 55 08             	mov    0x8(%ebp),%edx
  1033bd:	8b 52 34             	mov    0x34(%edx),%edx
  1033c0:	89 d1                	mov    %edx,%ecx
  1033c2:	8b 55 08             	mov    0x8(%ebp),%edx
  1033c5:	01 d1                	add    %edx,%ecx
  1033c7:	8b 55 08             	mov    0x8(%ebp),%edx
  1033ca:	8b 52 34             	mov    0x34(%edx),%edx
  1033cd:	8d 5a ff             	lea    -0x1(%edx),%ebx
  1033d0:	8b 55 08             	mov    0x8(%ebp),%edx
  1033d3:	01 da                	add    %ebx,%edx
  1033d5:	89 44 24 08          	mov    %eax,0x8(%esp)
  1033d9:	89 4c 24 04          	mov    %ecx,0x4(%esp)
  1033dd:	89 14 24             	mov    %edx,(%esp)
  1033e0:	e8 6d e0 ff ff       	call   101452 <_Z7memmovePvPKvj>
  1033e5:	8b 45 08             	mov    0x8(%ebp),%eax
  1033e8:	8b 40 34             	mov    0x34(%eax),%eax
  1033eb:	8d 50 ff             	lea    -0x1(%eax),%edx
  1033ee:	8b 45 08             	mov    0x8(%ebp),%eax
  1033f1:	89 50 34             	mov    %edx,0x34(%eax)
  1033f4:	8b 45 08             	mov    0x8(%ebp),%eax
  1033f7:	8b 40 38             	mov    0x38(%eax),%eax
  1033fa:	8d 50 ff             	lea    -0x1(%eax),%edx
  1033fd:	8b 45 08             	mov    0x8(%ebp),%eax
  103400:	89 50 38             	mov    %edx,0x38(%eax)
  103403:	b8 01 00 00 00       	mov    $0x1,%eax
  103408:	eb 05                	jmp    10340f <_ZN10readline_t9backspaceEv+0x79>
  10340a:	b8 00 00 00 00       	mov    $0x0,%eax
  10340f:	83 c4 14             	add    $0x14,%esp
  103412:	5b                   	pop    %ebx
  103413:	5d                   	pop    %ebp
  103414:	c3                   	ret    
  103415:	90                   	nop

00103416 <_ZN10readline_t3delEv>:
  103416:	55                   	push   %ebp
  103417:	89 e5                	mov    %esp,%ebp
  103419:	53                   	push   %ebx
  10341a:	83 ec 14             	sub    $0x14,%esp
  10341d:	8b 45 08             	mov    0x8(%ebp),%eax
  103420:	8b 50 38             	mov    0x38(%eax),%edx
  103423:	8b 45 08             	mov    0x8(%ebp),%eax
  103426:	8b 40 34             	mov    0x34(%eax),%eax
  103429:	29 c2                	sub    %eax,%edx
  10342b:	89 d0                	mov    %edx,%eax
  10342d:	85 c0                	test   %eax,%eax
  10342f:	7e 54                	jle    103485 <_ZN10readline_t3delEv+0x6f>
  103431:	8b 45 08             	mov    0x8(%ebp),%eax
  103434:	8b 50 38             	mov    0x38(%eax),%edx
  103437:	8b 45 08             	mov    0x8(%ebp),%eax
  10343a:	8b 40 34             	mov    0x34(%eax),%eax
  10343d:	29 c2                	sub    %eax,%edx
  10343f:	89 d0                	mov    %edx,%eax
  103441:	83 e8 01             	sub    $0x1,%eax
  103444:	8b 55 08             	mov    0x8(%ebp),%edx
  103447:	8b 52 34             	mov    0x34(%edx),%edx
  10344a:	8d 4a 01             	lea    0x1(%edx),%ecx
  10344d:	8b 55 08             	mov    0x8(%ebp),%edx
  103450:	01 d1                	add    %edx,%ecx
  103452:	8b 55 08             	mov    0x8(%ebp),%edx
  103455:	8b 52 34             	mov    0x34(%edx),%edx
  103458:	89 d3                	mov    %edx,%ebx
  10345a:	8b 55 08             	mov    0x8(%ebp),%edx
  10345d:	01 da                	add    %ebx,%edx
  10345f:	89 44 24 08          	mov    %eax,0x8(%esp)
  103463:	89 4c 24 04          	mov    %ecx,0x4(%esp)
  103467:	89 14 24             	mov    %edx,(%esp)
  10346a:	e8 e3 df ff ff       	call   101452 <_Z7memmovePvPKvj>
  10346f:	8b 45 08             	mov    0x8(%ebp),%eax
  103472:	8b 40 38             	mov    0x38(%eax),%eax
  103475:	8d 50 ff             	lea    -0x1(%eax),%edx
  103478:	8b 45 08             	mov    0x8(%ebp),%eax
  10347b:	89 50 38             	mov    %edx,0x38(%eax)
  10347e:	b8 01 00 00 00       	mov    $0x1,%eax
  103483:	eb 05                	jmp    10348a <_ZN10readline_t3delEv+0x74>
  103485:	b8 00 00 00 00       	mov    $0x0,%eax
  10348a:	83 c4 14             	add    $0x14,%esp
  10348d:	5b                   	pop    %ebx
  10348e:	5d                   	pop    %ebp
  10348f:	c3                   	ret    

00103490 <_ZL10__list_addP9list_headS0_S0_>:
  103490:	55                   	push   %ebp
  103491:	89 e5                	mov    %esp,%ebp
  103493:	8b 45 10             	mov    0x10(%ebp),%eax
  103496:	8b 55 08             	mov    0x8(%ebp),%edx
  103499:	89 50 04             	mov    %edx,0x4(%eax)
  10349c:	8b 45 08             	mov    0x8(%ebp),%eax
  10349f:	8b 55 10             	mov    0x10(%ebp),%edx
  1034a2:	89 10                	mov    %edx,(%eax)
  1034a4:	8b 45 08             	mov    0x8(%ebp),%eax
  1034a7:	8b 55 0c             	mov    0xc(%ebp),%edx
  1034aa:	89 50 04             	mov    %edx,0x4(%eax)
  1034ad:	8b 45 0c             	mov    0xc(%ebp),%eax
  1034b0:	8b 55 08             	mov    0x8(%ebp),%edx
  1034b3:	89 10                	mov    %edx,(%eax)
  1034b5:	5d                   	pop    %ebp
  1034b6:	c3                   	ret    

001034b7 <_ZL13list_add_tailP9list_headS0_>:
  1034b7:	55                   	push   %ebp
  1034b8:	89 e5                	mov    %esp,%ebp
  1034ba:	83 ec 0c             	sub    $0xc,%esp
  1034bd:	8b 45 0c             	mov    0xc(%ebp),%eax
  1034c0:	8b 40 04             	mov    0x4(%eax),%eax
  1034c3:	8b 55 0c             	mov    0xc(%ebp),%edx
  1034c6:	89 54 24 08          	mov    %edx,0x8(%esp)
  1034ca:	89 44 24 04          	mov    %eax,0x4(%esp)
  1034ce:	8b 45 08             	mov    0x8(%ebp),%eax
  1034d1:	89 04 24             	mov    %eax,(%esp)
  1034d4:	e8 b7 ff ff ff       	call   103490 <_ZL10__list_addP9list_headS0_S0_>
  1034d9:	c9                   	leave  
  1034da:	c3                   	ret    

001034db <_ZL4outbth>:
  1034db:	55                   	push   %ebp
  1034dc:	89 e5                	mov    %esp,%ebp
  1034de:	83 ec 08             	sub    $0x8,%esp
  1034e1:	8b 55 08             	mov    0x8(%ebp),%edx
  1034e4:	8b 45 0c             	mov    0xc(%ebp),%eax
  1034e7:	66 89 55 fc          	mov    %dx,-0x4(%ebp)
  1034eb:	88 45 f8             	mov    %al,-0x8(%ebp)
  1034ee:	0f b7 55 fc          	movzwl -0x4(%ebp),%edx
  1034f2:	0f b6 45 f8          	movzbl -0x8(%ebp),%eax
  1034f6:	ee                   	out    %al,(%dx)
  1034f7:	c9                   	leave  
  1034f8:	c3                   	ret    

001034f9 <_ZL3inbt>:
  1034f9:	55                   	push   %ebp
  1034fa:	89 e5                	mov    %esp,%ebp
  1034fc:	83 ec 14             	sub    $0x14,%esp
  1034ff:	8b 45 08             	mov    0x8(%ebp),%eax
  103502:	66 89 45 ec          	mov    %ax,-0x14(%ebp)
  103506:	0f b7 45 ec          	movzwl -0x14(%ebp),%eax
  10350a:	89 c2                	mov    %eax,%edx
  10350c:	ec                   	in     (%dx),%al
  10350d:	88 45 ff             	mov    %al,-0x1(%ebp)
  103510:	0f b6 45 ff          	movzbl -0x1(%ebp),%eax
  103514:	c9                   	leave  
  103515:	c3                   	ret    

00103516 <_ZL29platform_abstract_irq_handlerP14interrupt_info>:
  103516:	55                   	push   %ebp
  103517:	89 e5                	mov    %esp,%ebp
  103519:	83 ec 08             	sub    $0x8,%esp
  10351c:	8b 45 08             	mov    0x8(%ebp),%eax
  10351f:	8b 40 24             	mov    0x24(%eax),%eax
  103522:	83 f8 27             	cmp    $0x27,%eax
  103525:	76 14                	jbe    10353b <_ZL29platform_abstract_irq_handlerP14interrupt_info+0x25>
  103527:	c7 44 24 04 20 00 00 	movl   $0x20,0x4(%esp)
  10352e:	00 
  10352f:	c7 04 24 a0 00 00 00 	movl   $0xa0,(%esp)
  103536:	e8 a0 ff ff ff       	call   1034db <_ZL4outbth>
  10353b:	8b 45 08             	mov    0x8(%ebp),%eax
  10353e:	8b 40 24             	mov    0x24(%eax),%eax
  103541:	83 f8 1f             	cmp    $0x1f,%eax
  103544:	76 14                	jbe    10355a <_ZL29platform_abstract_irq_handlerP14interrupt_info+0x44>
  103546:	c7 44 24 04 20 00 00 	movl   $0x20,0x4(%esp)
  10354d:	00 
  10354e:	c7 04 24 20 00 00 00 	movl   $0x20,(%esp)
  103555:	e8 81 ff ff ff       	call   1034db <_ZL4outbth>
  10355a:	c9                   	leave  
  10355b:	c3                   	ret    

0010355c <_Z11command_addPcj>:
  10355c:	55                   	push   %ebp
  10355d:	89 e5                	mov    %esp,%ebp
  10355f:	83 ec 28             	sub    $0x28,%esp
  103562:	c7 04 24 10 00 00 00 	movl   $0x10,(%esp)
  103569:	e8 ab 05 00 00       	call   103b19 <_Znwj>
  10356e:	89 45 f4             	mov    %eax,-0xc(%ebp)
  103571:	8b 45 f4             	mov    -0xc(%ebp),%eax
  103574:	83 c0 04             	add    $0x4,%eax
  103577:	c7 44 24 04 2c 83 10 	movl   $0x10832c,0x4(%esp)
  10357e:	00 
  10357f:	89 04 24             	mov    %eax,(%esp)
  103582:	e8 30 ff ff ff       	call   1034b7 <_ZL13list_add_tailP9list_headS0_>
  103587:	8b 45 f4             	mov    -0xc(%ebp),%eax
  10358a:	8b 55 08             	mov    0x8(%ebp),%edx
  10358d:	89 10                	mov    %edx,(%eax)
  10358f:	8b 45 f4             	mov    -0xc(%ebp),%eax
  103592:	8b 55 0c             	mov    0xc(%ebp),%edx
  103595:	89 50 0c             	mov    %edx,0xc(%eax)
  103598:	c9                   	leave  
  103599:	c3                   	ret    

0010359a <_Z13command_printv>:
  10359a:	55                   	push   %ebp
  10359b:	89 e5                	mov    %esp,%ebp
  10359d:	83 ec 28             	sub    $0x28,%esp
  1035a0:	a1 2c 83 10 00       	mov    0x10832c,%eax
  1035a5:	89 45 f0             	mov    %eax,-0x10(%ebp)
  1035a8:	8b 45 f0             	mov    -0x10(%ebp),%eax
  1035ab:	83 e8 04             	sub    $0x4,%eax
  1035ae:	89 45 ec             	mov    %eax,-0x14(%ebp)
  1035b1:	eb 35                	jmp    1035e8 <_Z13command_printv+0x4e>
  1035b3:	8b 45 ec             	mov    -0x14(%ebp),%eax
  1035b6:	8b 10                	mov    (%eax),%edx
  1035b8:	a1 18 8b 10 00       	mov    0x108b18,%eax
  1035bd:	89 54 24 04          	mov    %edx,0x4(%esp)
  1035c1:	89 04 24             	mov    %eax,(%esp)
  1035c4:	e8 d3 d2 ff ff       	call   10089c <_ZN5Print5printEPKc>
  1035c9:	a1 18 8b 10 00       	mov    0x108b18,%eax
  1035ce:	89 04 24             	mov    %eax,(%esp)
  1035d1:	e8 92 d4 ff ff       	call   100a68 <_ZN5Print7printlnEv>
  1035d6:	8b 45 ec             	mov    -0x14(%ebp),%eax
  1035d9:	8b 40 04             	mov    0x4(%eax),%eax
  1035dc:	89 45 f4             	mov    %eax,-0xc(%ebp)
  1035df:	8b 45 f4             	mov    -0xc(%ebp),%eax
  1035e2:	83 e8 04             	sub    $0x4,%eax
  1035e5:	89 45 ec             	mov    %eax,-0x14(%ebp)
  1035e8:	8b 45 ec             	mov    -0x14(%ebp),%eax
  1035eb:	83 c0 04             	add    $0x4,%eax
  1035ee:	3d 2c 83 10 00       	cmp    $0x10832c,%eax
  1035f3:	75 be                	jne    1035b3 <_Z13command_printv+0x19>
  1035f5:	c9                   	leave  
  1035f6:	c3                   	ret    

001035f7 <_Z11interpreteriPKPKc>:
  1035f7:	55                   	push   %ebp
  1035f8:	89 e5                	mov    %esp,%ebp
  1035fa:	83 ec 28             	sub    $0x28,%esp
  1035fd:	a1 2c 83 10 00       	mov    0x10832c,%eax
  103602:	89 45 f0             	mov    %eax,-0x10(%ebp)
  103605:	8b 45 f0             	mov    -0x10(%ebp),%eax
  103608:	83 e8 04             	sub    $0x4,%eax
  10360b:	89 45 ec             	mov    %eax,-0x14(%ebp)
  10360e:	eb 4d                	jmp    10365d <_Z11interpreteriPKPKc+0x66>
  103610:	8b 45 ec             	mov    -0x14(%ebp),%eax
  103613:	8b 10                	mov    (%eax),%edx
  103615:	8b 45 0c             	mov    0xc(%ebp),%eax
  103618:	8b 00                	mov    (%eax),%eax
  10361a:	89 54 24 04          	mov    %edx,0x4(%esp)
  10361e:	89 04 24             	mov    %eax,(%esp)
  103621:	e8 b4 dd ff ff       	call   1013da <_Z6strcmpPKcS0_>
  103626:	85 c0                	test   %eax,%eax
  103628:	0f 94 c0             	sete   %al
  10362b:	84 c0                	test   %al,%al
  10362d:	74 1c                	je     10364b <_Z11interpreteriPKPKc+0x54>
  10362f:	8b 45 ec             	mov    -0x14(%ebp),%eax
  103632:	8b 40 0c             	mov    0xc(%eax),%eax
  103635:	8b 55 0c             	mov    0xc(%ebp),%edx
  103638:	89 54 24 04          	mov    %edx,0x4(%esp)
  10363c:	8b 55 08             	mov    0x8(%ebp),%edx
  10363f:	89 14 24             	mov    %edx,(%esp)
  103642:	ff d0                	call   *%eax
  103644:	b8 00 00 00 00       	mov    $0x0,%eax
  103649:	eb 64                	jmp    1036af <_Z11interpreteriPKPKc+0xb8>
  10364b:	8b 45 ec             	mov    -0x14(%ebp),%eax
  10364e:	8b 40 04             	mov    0x4(%eax),%eax
  103651:	89 45 f4             	mov    %eax,-0xc(%ebp)
  103654:	8b 45 f4             	mov    -0xc(%ebp),%eax
  103657:	83 e8 04             	sub    $0x4,%eax
  10365a:	89 45 ec             	mov    %eax,-0x14(%ebp)
  10365d:	8b 45 ec             	mov    -0x14(%ebp),%eax
  103660:	83 c0 04             	add    $0x4,%eax
  103663:	3d 2c 83 10 00       	cmp    $0x10832c,%eax
  103668:	75 a6                	jne    103610 <_Z11interpreteriPKPKc+0x19>
  10366a:	a1 18 8b 10 00       	mov    0x108b18,%eax
  10366f:	c7 44 24 04 dc 5b 10 	movl   $0x105bdc,0x4(%esp)
  103676:	00 
  103677:	89 04 24             	mov    %eax,(%esp)
  10367a:	e8 1d d2 ff ff       	call   10089c <_ZN5Print5printEPKc>
  10367f:	8b 45 0c             	mov    0xc(%ebp),%eax
  103682:	8b 10                	mov    (%eax),%edx
  103684:	a1 18 8b 10 00       	mov    0x108b18,%eax
  103689:	89 54 24 04          	mov    %edx,0x4(%esp)
  10368d:	89 04 24             	mov    %eax,(%esp)
  103690:	e8 07 d2 ff ff       	call   10089c <_ZN5Print5printEPKc>
  103695:	a1 18 8b 10 00       	mov    0x108b18,%eax
  10369a:	c7 44 24 04 e8 5b 10 	movl   $0x105be8,0x4(%esp)
  1036a1:	00 
  1036a2:	89 04 24             	mov    %eax,(%esp)
  1036a5:	e8 f6 d3 ff ff       	call   100aa0 <_ZN5Print7printlnEPKc>
  1036aa:	b8 00 00 00 00       	mov    $0x0,%eax
  1036af:	c9                   	leave  
  1036b0:	c3                   	ret    

001036b1 <_Z5splitPcR7argvc_t>:
  1036b1:	55                   	push   %ebp
  1036b2:	89 e5                	mov    %esp,%ebp
  1036b4:	8b 45 0c             	mov    0xc(%ebp),%eax
  1036b7:	c7 40 04 00 00 00 00 	movl   $0x0,0x4(%eax)
  1036be:	eb 76                	jmp    103736 <_Z5splitPcR7argvc_t+0x85>
  1036c0:	eb 04                	jmp    1036c6 <_Z5splitPcR7argvc_t+0x15>
  1036c2:	83 45 08 01          	addl   $0x1,0x8(%ebp)
  1036c6:	8b 45 08             	mov    0x8(%ebp),%eax
  1036c9:	0f b6 00             	movzbl (%eax),%eax
  1036cc:	84 c0                	test   %al,%al
  1036ce:	74 0a                	je     1036da <_Z5splitPcR7argvc_t+0x29>
  1036d0:	8b 45 08             	mov    0x8(%ebp),%eax
  1036d3:	0f b6 00             	movzbl (%eax),%eax
  1036d6:	3c 20                	cmp    $0x20,%al
  1036d8:	74 e8                	je     1036c2 <_Z5splitPcR7argvc_t+0x11>
  1036da:	8b 45 08             	mov    0x8(%ebp),%eax
  1036dd:	0f b6 00             	movzbl (%eax),%eax
  1036e0:	84 c0                	test   %al,%al
  1036e2:	74 24                	je     103708 <_Z5splitPcR7argvc_t+0x57>
  1036e4:	8b 45 0c             	mov    0xc(%ebp),%eax
  1036e7:	8b 10                	mov    (%eax),%edx
  1036e9:	8b 45 0c             	mov    0xc(%ebp),%eax
  1036ec:	8b 40 04             	mov    0x4(%eax),%eax
  1036ef:	c1 e0 02             	shl    $0x2,%eax
  1036f2:	01 c2                	add    %eax,%edx
  1036f4:	8b 45 08             	mov    0x8(%ebp),%eax
  1036f7:	89 02                	mov    %eax,(%edx)
  1036f9:	8b 45 0c             	mov    0xc(%ebp),%eax
  1036fc:	8b 40 04             	mov    0x4(%eax),%eax
  1036ff:	8d 50 01             	lea    0x1(%eax),%edx
  103702:	8b 45 0c             	mov    0xc(%ebp),%eax
  103705:	89 50 04             	mov    %edx,0x4(%eax)
  103708:	eb 04                	jmp    10370e <_Z5splitPcR7argvc_t+0x5d>
  10370a:	83 45 08 01          	addl   $0x1,0x8(%ebp)
  10370e:	8b 45 08             	mov    0x8(%ebp),%eax
  103711:	0f b6 00             	movzbl (%eax),%eax
  103714:	84 c0                	test   %al,%al
  103716:	74 0a                	je     103722 <_Z5splitPcR7argvc_t+0x71>
  103718:	8b 45 08             	mov    0x8(%ebp),%eax
  10371b:	0f b6 00             	movzbl (%eax),%eax
  10371e:	3c 20                	cmp    $0x20,%al
  103720:	75 e8                	jne    10370a <_Z5splitPcR7argvc_t+0x59>
  103722:	8b 45 08             	mov    0x8(%ebp),%eax
  103725:	0f b6 00             	movzbl (%eax),%eax
  103728:	84 c0                	test   %al,%al
  10372a:	74 0a                	je     103736 <_Z5splitPcR7argvc_t+0x85>
  10372c:	8b 45 08             	mov    0x8(%ebp),%eax
  10372f:	c6 00 00             	movb   $0x0,(%eax)
  103732:	83 45 08 01          	addl   $0x1,0x8(%ebp)
  103736:	8b 45 08             	mov    0x8(%ebp),%eax
  103739:	0f b6 00             	movzbl (%eax),%eax
  10373c:	84 c0                	test   %al,%al
  10373e:	75 80                	jne    1036c0 <_Z5splitPcR7argvc_t+0xf>
  103740:	5d                   	pop    %ebp
  103741:	c3                   	ret    

00103742 <_Z7executePc>:
  103742:	55                   	push   %ebp
  103743:	89 e5                	mov    %esp,%ebp
  103745:	83 ec 48             	sub    $0x48,%esp
  103748:	8d 45 d0             	lea    -0x30(%ebp),%eax
  10374b:	89 45 c8             	mov    %eax,-0x38(%ebp)
  10374e:	8d 45 c8             	lea    -0x38(%ebp),%eax
  103751:	89 44 24 04          	mov    %eax,0x4(%esp)
  103755:	8b 45 08             	mov    0x8(%ebp),%eax
  103758:	89 04 24             	mov    %eax,(%esp)
  10375b:	e8 51 ff ff ff       	call   1036b1 <_Z5splitPcR7argvc_t>
  103760:	8b 55 c8             	mov    -0x38(%ebp),%edx
  103763:	8b 45 cc             	mov    -0x34(%ebp),%eax
  103766:	89 54 24 04          	mov    %edx,0x4(%esp)
  10376a:	89 04 24             	mov    %eax,(%esp)
  10376d:	e8 85 fe ff ff       	call   1035f7 <_Z11interpreteriPKPKc>
  103772:	c9                   	leave  
  103773:	c3                   	ret    

00103774 <_ZL4outbth>:
  103774:	55                   	push   %ebp
  103775:	89 e5                	mov    %esp,%ebp
  103777:	83 ec 08             	sub    $0x8,%esp
  10377a:	8b 55 08             	mov    0x8(%ebp),%edx
  10377d:	8b 45 0c             	mov    0xc(%ebp),%eax
  103780:	66 89 55 fc          	mov    %dx,-0x4(%ebp)
  103784:	88 45 f8             	mov    %al,-0x8(%ebp)
  103787:	0f b7 55 fc          	movzwl -0x4(%ebp),%edx
  10378b:	0f b6 45 f8          	movzbl -0x8(%ebp),%eax
  10378f:	ee                   	out    %al,(%dx)
  103790:	c9                   	leave  
  103791:	c3                   	ret    

00103792 <_ZL3inbt>:
  103792:	55                   	push   %ebp
  103793:	89 e5                	mov    %esp,%ebp
  103795:	83 ec 14             	sub    $0x14,%esp
  103798:	8b 45 08             	mov    0x8(%ebp),%eax
  10379b:	66 89 45 ec          	mov    %ax,-0x14(%ebp)
  10379f:	0f b7 45 ec          	movzwl -0x14(%ebp),%eax
  1037a3:	89 c2                	mov    %eax,%edx
  1037a5:	ec                   	in     (%dx),%al
  1037a6:	88 45 ff             	mov    %al,-0x1(%ebp)
  1037a9:	0f b6 45 ff          	movzbl -0x1(%ebp),%eax
  1037ad:	c9                   	leave  
  1037ae:	c3                   	ret    

001037af <_ZL29platform_abstract_irq_handlerP14interrupt_info>:
  1037af:	55                   	push   %ebp
  1037b0:	89 e5                	mov    %esp,%ebp
  1037b2:	83 ec 08             	sub    $0x8,%esp
  1037b5:	8b 45 08             	mov    0x8(%ebp),%eax
  1037b8:	8b 40 24             	mov    0x24(%eax),%eax
  1037bb:	83 f8 27             	cmp    $0x27,%eax
  1037be:	76 14                	jbe    1037d4 <_ZL29platform_abstract_irq_handlerP14interrupt_info+0x25>
  1037c0:	c7 44 24 04 20 00 00 	movl   $0x20,0x4(%esp)
  1037c7:	00 
  1037c8:	c7 04 24 a0 00 00 00 	movl   $0xa0,(%esp)
  1037cf:	e8 a0 ff ff ff       	call   103774 <_ZL4outbth>
  1037d4:	8b 45 08             	mov    0x8(%ebp),%eax
  1037d7:	8b 40 24             	mov    0x24(%eax),%eax
  1037da:	83 f8 1f             	cmp    $0x1f,%eax
  1037dd:	76 14                	jbe    1037f3 <_ZL29platform_abstract_irq_handlerP14interrupt_info+0x44>
  1037df:	c7 44 24 04 20 00 00 	movl   $0x20,0x4(%esp)
  1037e6:	00 
  1037e7:	c7 04 24 20 00 00 00 	movl   $0x20,(%esp)
  1037ee:	e8 81 ff ff ff       	call   103774 <_ZL4outbth>
  1037f3:	c9                   	leave  
  1037f4:	c3                   	ret    

001037f5 <_Z5aboutv>:
  1037f5:	55                   	push   %ebp
  1037f6:	89 e5                	mov    %esp,%ebp
  1037f8:	83 ec 18             	sub    $0x18,%esp
  1037fb:	a1 18 8b 10 00       	mov    0x108b18,%eax
  103800:	c7 44 24 04 0d 5c 10 	movl   $0x105c0d,0x4(%esp)
  103807:	00 
  103808:	89 04 24             	mov    %eax,(%esp)
  10380b:	e8 8c d0 ff ff       	call   10089c <_ZN5Print5printEPKc>
  103810:	a1 18 8b 10 00       	mov    0x108b18,%eax
  103815:	c7 44 24 04 13 5c 10 	movl   $0x105c13,0x4(%esp)
  10381c:	00 
  10381d:	89 04 24             	mov    %eax,(%esp)
  103820:	e8 7b d2 ff ff       	call   100aa0 <_ZN5Print7printlnEPKc>
  103825:	c9                   	leave  
  103826:	c3                   	ret    

00103827 <_Z5ptestiPPc>:
  103827:	55                   	push   %ebp
  103828:	89 e5                	mov    %esp,%ebp
  10382a:	83 ec 28             	sub    $0x28,%esp
  10382d:	c7 45 f4 00 00 00 00 	movl   $0x0,-0xc(%ebp)
  103834:	eb 26                	jmp    10385c <_Z5ptestiPPc+0x35>
  103836:	8b 45 f4             	mov    -0xc(%ebp),%eax
  103839:	8d 14 85 00 00 00 00 	lea    0x0(,%eax,4),%edx
  103840:	8b 45 0c             	mov    0xc(%ebp),%eax
  103843:	01 d0                	add    %edx,%eax
  103845:	8b 10                	mov    (%eax),%edx
  103847:	a1 18 8b 10 00       	mov    0x108b18,%eax
  10384c:	89 54 24 04          	mov    %edx,0x4(%esp)
  103850:	89 04 24             	mov    %eax,(%esp)
  103853:	e8 48 d2 ff ff       	call   100aa0 <_ZN5Print7printlnEPKc>
  103858:	83 45 f4 01          	addl   $0x1,-0xc(%ebp)
  10385c:	8b 45 f4             	mov    -0xc(%ebp),%eax
  10385f:	3b 45 08             	cmp    0x8(%ebp),%eax
  103862:	7c d2                	jl     103836 <_Z5ptestiPPc+0xf>
  103864:	c9                   	leave  
  103865:	c3                   	ret    

00103866 <_Z7meminfoiPPc>:
  103866:	55                   	push   %ebp
  103867:	89 e5                	mov    %esp,%ebp
  103869:	83 ec 18             	sub    $0x18,%esp
  10386c:	a1 28 83 10 00       	mov    0x108328,%eax
  103871:	8b 00                	mov    (%eax),%eax
  103873:	83 c0 08             	add    $0x8,%eax
  103876:	8b 00                	mov    (%eax),%eax
  103878:	8b 15 28 83 10 00    	mov    0x108328,%edx
  10387e:	89 14 24             	mov    %edx,(%esp)
  103881:	ff d0                	call   *%eax
  103883:	8b 15 18 8b 10 00    	mov    0x108b18,%edx
  103889:	c7 44 24 08 0a 00 00 	movl   $0xa,0x8(%esp)
  103890:	00 
  103891:	89 44 24 04          	mov    %eax,0x4(%esp)
  103895:	89 14 24             	mov    %edx,(%esp)
  103898:	e8 69 d0 ff ff       	call   100906 <_ZN5Print5printEii>
  10389d:	c9                   	leave  
  10389e:	c3                   	ret    

0010389f <_Z25registry_standart_utilityv>:
  10389f:	55                   	push   %ebp
  1038a0:	89 e5                	mov    %esp,%ebp
  1038a2:	83 ec 18             	sub    $0x18,%esp
  1038a5:	b8 f5 37 10 00       	mov    $0x1037f5,%eax
  1038aa:	89 44 24 04          	mov    %eax,0x4(%esp)
  1038ae:	c7 04 24 17 5c 10 00 	movl   $0x105c17,(%esp)
  1038b5:	e8 a2 fc ff ff       	call   10355c <_Z11command_addPcj>
  1038ba:	b8 27 38 10 00       	mov    $0x103827,%eax
  1038bf:	89 44 24 04          	mov    %eax,0x4(%esp)
  1038c3:	c7 04 24 1d 5c 10 00 	movl   $0x105c1d,(%esp)
  1038ca:	e8 8d fc ff ff       	call   10355c <_Z11command_addPcj>
  1038cf:	b8 9a 35 10 00       	mov    $0x10359a,%eax
  1038d4:	89 44 24 04          	mov    %eax,0x4(%esp)
  1038d8:	c7 04 24 23 5c 10 00 	movl   $0x105c23,(%esp)
  1038df:	e8 78 fc ff ff       	call   10355c <_Z11command_addPcj>
  1038e4:	c9                   	leave  
  1038e5:	c3                   	ret    

001038e6 <_Z22registry_alloc_utilityv>:
  1038e6:	55                   	push   %ebp
  1038e7:	89 e5                	mov    %esp,%ebp
  1038e9:	83 ec 18             	sub    $0x18,%esp
  1038ec:	b8 66 38 10 00       	mov    $0x103866,%eax
  1038f1:	89 44 24 04          	mov    %eax,0x4(%esp)
  1038f5:	c7 04 24 28 5c 10 00 	movl   $0x105c28,(%esp)
  1038fc:	e8 5b fc ff ff       	call   10355c <_Z11command_addPcj>
  103901:	c9                   	leave  
  103902:	c3                   	ret    
  103903:	90                   	nop

00103904 <_ZL4outbth>:
  103904:	55                   	push   %ebp
  103905:	89 e5                	mov    %esp,%ebp
  103907:	83 ec 08             	sub    $0x8,%esp
  10390a:	8b 55 08             	mov    0x8(%ebp),%edx
  10390d:	8b 45 0c             	mov    0xc(%ebp),%eax
  103910:	66 89 55 fc          	mov    %dx,-0x4(%ebp)
  103914:	88 45 f8             	mov    %al,-0x8(%ebp)
  103917:	0f b7 55 fc          	movzwl -0x4(%ebp),%edx
  10391b:	0f b6 45 f8          	movzbl -0x8(%ebp),%eax
  10391f:	ee                   	out    %al,(%dx)
  103920:	c9                   	leave  
  103921:	c3                   	ret    

00103922 <_ZL3inbt>:
  103922:	55                   	push   %ebp
  103923:	89 e5                	mov    %esp,%ebp
  103925:	83 ec 14             	sub    $0x14,%esp
  103928:	8b 45 08             	mov    0x8(%ebp),%eax
  10392b:	66 89 45 ec          	mov    %ax,-0x14(%ebp)
  10392f:	0f b7 45 ec          	movzwl -0x14(%ebp),%eax
  103933:	89 c2                	mov    %eax,%edx
  103935:	ec                   	in     (%dx),%al
  103936:	88 45 ff             	mov    %al,-0x1(%ebp)
  103939:	0f b6 45 ff          	movzbl -0x1(%ebp),%eax
  10393d:	c9                   	leave  
  10393e:	c3                   	ret    

0010393f <_ZL29platform_abstract_irq_handlerP14interrupt_info>:
  10393f:	55                   	push   %ebp
  103940:	89 e5                	mov    %esp,%ebp
  103942:	83 ec 08             	sub    $0x8,%esp
  103945:	8b 45 08             	mov    0x8(%ebp),%eax
  103948:	8b 40 24             	mov    0x24(%eax),%eax
  10394b:	83 f8 27             	cmp    $0x27,%eax
  10394e:	76 14                	jbe    103964 <_ZL29platform_abstract_irq_handlerP14interrupt_info+0x25>
  103950:	c7 44 24 04 20 00 00 	movl   $0x20,0x4(%esp)
  103957:	00 
  103958:	c7 04 24 a0 00 00 00 	movl   $0xa0,(%esp)
  10395f:	e8 a0 ff ff ff       	call   103904 <_ZL4outbth>
  103964:	8b 45 08             	mov    0x8(%ebp),%eax
  103967:	8b 40 24             	mov    0x24(%eax),%eax
  10396a:	83 f8 1f             	cmp    $0x1f,%eax
  10396d:	76 14                	jbe    103983 <_ZL29platform_abstract_irq_handlerP14interrupt_info+0x44>
  10396f:	c7 44 24 04 20 00 00 	movl   $0x20,0x4(%esp)
  103976:	00 
  103977:	c7 04 24 20 00 00 00 	movl   $0x20,(%esp)
  10397e:	e8 81 ff ff ff       	call   103904 <_ZL4outbth>
  103983:	c9                   	leave  
  103984:	c3                   	ret    
  103985:	90                   	nop

00103986 <_ZN12Object_cacheC1EjP11Allocator_p>:
  103986:	55                   	push   %ebp
  103987:	89 e5                	mov    %esp,%ebp
  103989:	83 ec 18             	sub    $0x18,%esp
  10398c:	8b 45 08             	mov    0x8(%ebp),%eax
  10398f:	89 04 24             	mov    %eax,(%esp)
  103992:	e8 cb 01 00 00       	call   103b62 <_ZN11Allocator_pC1Ev>
  103997:	8b 45 08             	mov    0x8(%ebp),%eax
  10399a:	c7 00 38 5c 10 00    	movl   $0x105c38,(%eax)
  1039a0:	8b 45 10             	mov    0x10(%ebp),%eax
  1039a3:	89 44 24 08          	mov    %eax,0x8(%esp)
  1039a7:	8b 45 0c             	mov    0xc(%ebp),%eax
  1039aa:	89 44 24 04          	mov    %eax,0x4(%esp)
  1039ae:	8b 45 08             	mov    0x8(%ebp),%eax
  1039b1:	89 04 24             	mov    %eax,(%esp)
  1039b4:	e8 03 00 00 00       	call   1039bc <_ZN12Object_cache4initEjP11Allocator_p>
  1039b9:	c9                   	leave  
  1039ba:	c3                   	ret    
  1039bb:	90                   	nop

001039bc <_ZN12Object_cache4initEjP11Allocator_p>:
  1039bc:	55                   	push   %ebp
  1039bd:	89 e5                	mov    %esp,%ebp
  1039bf:	8b 45 08             	mov    0x8(%ebp),%eax
  1039c2:	8b 55 0c             	mov    0xc(%ebp),%edx
  1039c5:	89 50 08             	mov    %edx,0x8(%eax)
  1039c8:	8b 45 08             	mov    0x8(%ebp),%eax
  1039cb:	8d 50 0c             	lea    0xc(%eax),%edx
  1039ce:	8b 45 08             	mov    0x8(%ebp),%eax
  1039d1:	89 50 0c             	mov    %edx,0xc(%eax)
  1039d4:	8b 45 08             	mov    0x8(%ebp),%eax
  1039d7:	8b 55 10             	mov    0x10(%ebp),%edx
  1039da:	89 50 04             	mov    %edx,0x4(%eax)
  1039dd:	5d                   	pop    %ebp
  1039de:	c3                   	ret    
  1039df:	90                   	nop

001039e0 <_ZN12Object_cache8allocateEj>:
  1039e0:	55                   	push   %ebp
  1039e1:	89 e5                	mov    %esp,%ebp
  1039e3:	83 ec 10             	sub    $0x10,%esp
  1039e6:	8b 45 08             	mov    0x8(%ebp),%eax
  1039e9:	8b 40 0c             	mov    0xc(%eax),%eax
  1039ec:	89 45 fc             	mov    %eax,-0x4(%ebp)
  1039ef:	8b 45 08             	mov    0x8(%ebp),%eax
  1039f2:	8b 40 0c             	mov    0xc(%eax),%eax
  1039f5:	8b 10                	mov    (%eax),%edx
  1039f7:	8b 45 08             	mov    0x8(%ebp),%eax
  1039fa:	89 50 0c             	mov    %edx,0xc(%eax)
  1039fd:	8b 45 fc             	mov    -0x4(%ebp),%eax
  103a00:	c9                   	leave  
  103a01:	c3                   	ret    

00103a02 <_ZN12Object_cache10deallocateEPv>:
  103a02:	55                   	push   %ebp
  103a03:	89 e5                	mov    %esp,%ebp
  103a05:	83 ec 10             	sub    $0x10,%esp
  103a08:	8b 45 08             	mov    0x8(%ebp),%eax
  103a0b:	8b 40 0c             	mov    0xc(%eax),%eax
  103a0e:	89 45 fc             	mov    %eax,-0x4(%ebp)
  103a11:	8b 45 08             	mov    0x8(%ebp),%eax
  103a14:	8b 55 0c             	mov    0xc(%ebp),%edx
  103a17:	89 50 0c             	mov    %edx,0xc(%eax)
  103a1a:	8b 45 0c             	mov    0xc(%ebp),%eax
  103a1d:	8b 55 fc             	mov    -0x4(%ebp),%edx
  103a20:	89 10                	mov    %edx,(%eax)
  103a22:	c9                   	leave  
  103a23:	c3                   	ret    

00103a24 <_ZN12Object_cache6engageEPvj>:
  103a24:	55                   	push   %ebp
  103a25:	89 e5                	mov    %esp,%ebp
  103a27:	53                   	push   %ebx
  103a28:	83 ec 10             	sub    $0x10,%esp
  103a2b:	8b 45 0c             	mov    0xc(%ebp),%eax
  103a2e:	89 45 f4             	mov    %eax,-0xc(%ebp)
  103a31:	c7 45 f8 00 00 00 00 	movl   $0x0,-0x8(%ebp)
  103a38:	eb 24                	jmp    103a5e <_ZN12Object_cache6engageEPvj+0x3a>
  103a3a:	8b 45 08             	mov    0x8(%ebp),%eax
  103a3d:	8b 50 08             	mov    0x8(%eax),%edx
  103a40:	8b 45 f8             	mov    -0x8(%ebp),%eax
  103a43:	0f af d0             	imul   %eax,%edx
  103a46:	8b 45 0c             	mov    0xc(%ebp),%eax
  103a49:	01 d0                	add    %edx,%eax
  103a4b:	89 c2                	mov    %eax,%edx
  103a4d:	8b 45 f4             	mov    -0xc(%ebp),%eax
  103a50:	89 10                	mov    %edx,(%eax)
  103a52:	8b 45 f4             	mov    -0xc(%ebp),%eax
  103a55:	8b 00                	mov    (%eax),%eax
  103a57:	89 45 f4             	mov    %eax,-0xc(%ebp)
  103a5a:	83 45 f8 01          	addl   $0x1,-0x8(%ebp)
  103a5e:	8b 4d f8             	mov    -0x8(%ebp),%ecx
  103a61:	8b 45 08             	mov    0x8(%ebp),%eax
  103a64:	8b 58 08             	mov    0x8(%eax),%ebx
  103a67:	8b 45 10             	mov    0x10(%ebp),%eax
  103a6a:	ba 00 00 00 00       	mov    $0x0,%edx
  103a6f:	f7 f3                	div    %ebx
  103a71:	39 c1                	cmp    %eax,%ecx
  103a73:	72 c5                	jb     103a3a <_ZN12Object_cache6engageEPvj+0x16>
  103a75:	8b 45 08             	mov    0x8(%ebp),%eax
  103a78:	8b 50 0c             	mov    0xc(%eax),%edx
  103a7b:	8b 45 f4             	mov    -0xc(%ebp),%eax
  103a7e:	89 10                	mov    %edx,(%eax)
  103a80:	8b 45 08             	mov    0x8(%ebp),%eax
  103a83:	8b 55 0c             	mov    0xc(%ebp),%edx
  103a86:	89 50 0c             	mov    %edx,0xc(%eax)
  103a89:	83 c4 10             	add    $0x10,%esp
  103a8c:	5b                   	pop    %ebx
  103a8d:	5d                   	pop    %ebp
  103a8e:	c3                   	ret    
  103a8f:	90                   	nop

00103a90 <_ZN12Object_cache8freeinfoEv>:
  103a90:	55                   	push   %ebp
  103a91:	89 e5                	mov    %esp,%ebp
  103a93:	83 ec 10             	sub    $0x10,%esp
  103a96:	c7 45 f8 00 00 00 00 	movl   $0x0,-0x8(%ebp)
  103a9d:	8b 45 08             	mov    0x8(%ebp),%eax
  103aa0:	8b 40 0c             	mov    0xc(%eax),%eax
  103aa3:	89 45 fc             	mov    %eax,-0x4(%ebp)
  103aa6:	eb 0c                	jmp    103ab4 <_ZN12Object_cache8freeinfoEv+0x24>
  103aa8:	83 45 f8 01          	addl   $0x1,-0x8(%ebp)
  103aac:	8b 45 fc             	mov    -0x4(%ebp),%eax
  103aaf:	8b 00                	mov    (%eax),%eax
  103ab1:	89 45 fc             	mov    %eax,-0x4(%ebp)
  103ab4:	8b 45 08             	mov    0x8(%ebp),%eax
  103ab7:	83 c0 0c             	add    $0xc,%eax
  103aba:	3b 45 fc             	cmp    -0x4(%ebp),%eax
  103abd:	75 e9                	jne    103aa8 <_ZN12Object_cache8freeinfoEv+0x18>
  103abf:	8b 45 08             	mov    0x8(%ebp),%eax
  103ac2:	8b 50 08             	mov    0x8(%eax),%edx
  103ac5:	8b 45 f8             	mov    -0x8(%ebp),%eax
  103ac8:	0f af c2             	imul   %edx,%eax
  103acb:	c9                   	leave  
  103acc:	c3                   	ret    

00103acd <_ZnwjPv>:
  103acd:	55                   	push   %ebp
  103ace:	89 e5                	mov    %esp,%ebp
  103ad0:	8b 45 0c             	mov    0xc(%ebp),%eax
  103ad3:	5d                   	pop    %ebp
  103ad4:	c3                   	ret    

00103ad5 <_ZdlPvS_>:
  103ad5:	55                   	push   %ebp
  103ad6:	89 e5                	mov    %esp,%ebp
  103ad8:	5d                   	pop    %ebp
  103ad9:	c3                   	ret    

00103ada <_ZnwjP11Allocator_p>:
  103ada:	55                   	push   %ebp
  103adb:	89 e5                	mov    %esp,%ebp
  103add:	83 ec 18             	sub    $0x18,%esp
  103ae0:	8b 45 0c             	mov    0xc(%ebp),%eax
  103ae3:	8b 00                	mov    (%eax),%eax
  103ae5:	8b 00                	mov    (%eax),%eax
  103ae7:	8b 55 08             	mov    0x8(%ebp),%edx
  103aea:	89 54 24 04          	mov    %edx,0x4(%esp)
  103aee:	8b 55 0c             	mov    0xc(%ebp),%edx
  103af1:	89 14 24             	mov    %edx,(%esp)
  103af4:	ff d0                	call   *%eax
  103af6:	c9                   	leave  
  103af7:	c3                   	ret    

00103af8 <_ZdlPvP11Allocator_p>:
  103af8:	55                   	push   %ebp
  103af9:	89 e5                	mov    %esp,%ebp
  103afb:	83 ec 18             	sub    $0x18,%esp
  103afe:	8b 45 0c             	mov    0xc(%ebp),%eax
  103b01:	8b 00                	mov    (%eax),%eax
  103b03:	83 c0 04             	add    $0x4,%eax
  103b06:	8b 00                	mov    (%eax),%eax
  103b08:	8b 55 08             	mov    0x8(%ebp),%edx
  103b0b:	89 54 24 04          	mov    %edx,0x4(%esp)
  103b0f:	8b 55 0c             	mov    0xc(%ebp),%edx
  103b12:	89 14 24             	mov    %edx,(%esp)
  103b15:	ff d0                	call   *%eax
  103b17:	c9                   	leave  
  103b18:	c3                   	ret    

00103b19 <_Znwj>:
  103b19:	55                   	push   %ebp
  103b1a:	89 e5                	mov    %esp,%ebp
  103b1c:	83 ec 18             	sub    $0x18,%esp
  103b1f:	a1 28 83 10 00       	mov    0x108328,%eax
  103b24:	8b 00                	mov    (%eax),%eax
  103b26:	8b 00                	mov    (%eax),%eax
  103b28:	8b 15 28 83 10 00    	mov    0x108328,%edx
  103b2e:	8b 4d 08             	mov    0x8(%ebp),%ecx
  103b31:	89 4c 24 04          	mov    %ecx,0x4(%esp)
  103b35:	89 14 24             	mov    %edx,(%esp)
  103b38:	ff d0                	call   *%eax
  103b3a:	c9                   	leave  
  103b3b:	c3                   	ret    

00103b3c <_ZdlPv>:
  103b3c:	55                   	push   %ebp
  103b3d:	89 e5                	mov    %esp,%ebp
  103b3f:	83 ec 18             	sub    $0x18,%esp
  103b42:	a1 28 83 10 00       	mov    0x108328,%eax
  103b47:	8b 00                	mov    (%eax),%eax
  103b49:	83 c0 04             	add    $0x4,%eax
  103b4c:	8b 00                	mov    (%eax),%eax
  103b4e:	8b 15 28 83 10 00    	mov    0x108328,%edx
  103b54:	8b 4d 08             	mov    0x8(%ebp),%ecx
  103b57:	89 4c 24 04          	mov    %ecx,0x4(%esp)
  103b5b:	89 14 24             	mov    %edx,(%esp)
  103b5e:	ff d0                	call   *%eax
  103b60:	c9                   	leave  
  103b61:	c3                   	ret    

00103b62 <_ZN11Allocator_pC1Ev>:
  103b62:	55                   	push   %ebp
  103b63:	89 e5                	mov    %esp,%ebp
  103b65:	8b 45 08             	mov    0x8(%ebp),%eax
  103b68:	c7 00 50 5c 10 00    	movl   $0x105c50,(%eax)
  103b6e:	5d                   	pop    %ebp
  103b6f:	c3                   	ret    

00103b70 <_ZL4outbth>:
  103b70:	55                   	push   %ebp
  103b71:	89 e5                	mov    %esp,%ebp
  103b73:	83 ec 08             	sub    $0x8,%esp
  103b76:	8b 55 08             	mov    0x8(%ebp),%edx
  103b79:	8b 45 0c             	mov    0xc(%ebp),%eax
  103b7c:	66 89 55 fc          	mov    %dx,-0x4(%ebp)
  103b80:	88 45 f8             	mov    %al,-0x8(%ebp)
  103b83:	0f b7 55 fc          	movzwl -0x4(%ebp),%edx
  103b87:	0f b6 45 f8          	movzbl -0x8(%ebp),%eax
  103b8b:	ee                   	out    %al,(%dx)
  103b8c:	c9                   	leave  
  103b8d:	c3                   	ret    

00103b8e <_ZL3inbt>:
  103b8e:	55                   	push   %ebp
  103b8f:	89 e5                	mov    %esp,%ebp
  103b91:	83 ec 14             	sub    $0x14,%esp
  103b94:	8b 45 08             	mov    0x8(%ebp),%eax
  103b97:	66 89 45 ec          	mov    %ax,-0x14(%ebp)
  103b9b:	0f b7 45 ec          	movzwl -0x14(%ebp),%eax
  103b9f:	89 c2                	mov    %eax,%edx
  103ba1:	ec                   	in     (%dx),%al
  103ba2:	88 45 ff             	mov    %al,-0x1(%ebp)
  103ba5:	0f b6 45 ff          	movzbl -0x1(%ebp),%eax
  103ba9:	c9                   	leave  
  103baa:	c3                   	ret    

00103bab <_ZL29platform_abstract_irq_handlerP14interrupt_info>:
  103bab:	55                   	push   %ebp
  103bac:	89 e5                	mov    %esp,%ebp
  103bae:	83 ec 08             	sub    $0x8,%esp
  103bb1:	8b 45 08             	mov    0x8(%ebp),%eax
  103bb4:	8b 40 24             	mov    0x24(%eax),%eax
  103bb7:	83 f8 27             	cmp    $0x27,%eax
  103bba:	76 14                	jbe    103bd0 <_ZL29platform_abstract_irq_handlerP14interrupt_info+0x25>
  103bbc:	c7 44 24 04 20 00 00 	movl   $0x20,0x4(%esp)
  103bc3:	00 
  103bc4:	c7 04 24 a0 00 00 00 	movl   $0xa0,(%esp)
  103bcb:	e8 a0 ff ff ff       	call   103b70 <_ZL4outbth>
  103bd0:	8b 45 08             	mov    0x8(%ebp),%eax
  103bd3:	8b 40 24             	mov    0x24(%eax),%eax
  103bd6:	83 f8 1f             	cmp    $0x1f,%eax
  103bd9:	76 14                	jbe    103bef <_ZL29platform_abstract_irq_handlerP14interrupt_info+0x44>
  103bdb:	c7 44 24 04 20 00 00 	movl   $0x20,0x4(%esp)
  103be2:	00 
  103be3:	c7 04 24 20 00 00 00 	movl   $0x20,(%esp)
  103bea:	e8 81 ff ff ff       	call   103b70 <_ZL4outbth>
  103bef:	c9                   	leave  
  103bf0:	c3                   	ret    

00103bf1 <debug_putchar>:
  103bf1:	55                   	push   %ebp
  103bf2:	89 e5                	mov    %esp,%ebp
  103bf4:	53                   	push   %ebx
  103bf5:	83 ec 14             	sub    $0x14,%esp
  103bf8:	8b 45 08             	mov    0x8(%ebp),%eax
  103bfb:	88 45 f4             	mov    %al,-0xc(%ebp)
  103bfe:	0f be 45 f4          	movsbl -0xc(%ebp),%eax
  103c02:	83 f8 0a             	cmp    $0xa,%eax
  103c05:	74 07                	je     103c0e <debug_putchar+0x1d>
  103c07:	83 f8 0d             	cmp    $0xd,%eax
  103c0a:	74 3d                	je     103c49 <debug_putchar+0x58>
  103c0c:	eb 73                	jmp    103c81 <debug_putchar+0x90>
  103c0e:	8b 1d 34 83 10 00    	mov    0x108334,%ebx
  103c14:	8b 0d 34 83 10 00    	mov    0x108334,%ecx
  103c1a:	ba 67 66 66 66       	mov    $0x66666667,%edx
  103c1f:	89 c8                	mov    %ecx,%eax
  103c21:	f7 ea                	imul   %edx
  103c23:	c1 fa 05             	sar    $0x5,%edx
  103c26:	89 c8                	mov    %ecx,%eax
  103c28:	c1 f8 1f             	sar    $0x1f,%eax
  103c2b:	29 c2                	sub    %eax,%edx
  103c2d:	89 d0                	mov    %edx,%eax
  103c2f:	c1 e0 02             	shl    $0x2,%eax
  103c32:	01 d0                	add    %edx,%eax
  103c34:	c1 e0 04             	shl    $0x4,%eax
  103c37:	29 c1                	sub    %eax,%ecx
  103c39:	89 ca                	mov    %ecx,%edx
  103c3b:	89 d8                	mov    %ebx,%eax
  103c3d:	29 d0                	sub    %edx,%eax
  103c3f:	83 c0 50             	add    $0x50,%eax
  103c42:	a3 34 83 10 00       	mov    %eax,0x108334
  103c47:	eb 5b                	jmp    103ca4 <debug_putchar+0xb3>
  103c49:	8b 1d 34 83 10 00    	mov    0x108334,%ebx
  103c4f:	8b 0d 34 83 10 00    	mov    0x108334,%ecx
  103c55:	ba 67 66 66 66       	mov    $0x66666667,%edx
  103c5a:	89 c8                	mov    %ecx,%eax
  103c5c:	f7 ea                	imul   %edx
  103c5e:	c1 fa 05             	sar    $0x5,%edx
  103c61:	89 c8                	mov    %ecx,%eax
  103c63:	c1 f8 1f             	sar    $0x1f,%eax
  103c66:	29 c2                	sub    %eax,%edx
  103c68:	89 d0                	mov    %edx,%eax
  103c6a:	c1 e0 02             	shl    $0x2,%eax
  103c6d:	01 d0                	add    %edx,%eax
  103c6f:	c1 e0 04             	shl    $0x4,%eax
  103c72:	29 c1                	sub    %eax,%ecx
  103c74:	89 ca                	mov    %ecx,%edx
  103c76:	89 d8                	mov    %ebx,%eax
  103c78:	29 d0                	sub    %edx,%eax
  103c7a:	a3 34 83 10 00       	mov    %eax,0x108334
  103c7f:	eb 23                	jmp    103ca4 <debug_putchar+0xb3>
  103c81:	0f be 55 f4          	movsbl -0xc(%ebp),%edx
  103c85:	a1 34 83 10 00       	mov    0x108334,%eax
  103c8a:	89 54 24 04          	mov    %edx,0x4(%esp)
  103c8e:	89 04 24             	mov    %eax,(%esp)
  103c91:	e8 60 13 00 00       	call   104ff6 <_Z18video_page_putcharic>
  103c96:	a1 34 83 10 00       	mov    0x108334,%eax
  103c9b:	83 c0 01             	add    $0x1,%eax
  103c9e:	a3 34 83 10 00       	mov    %eax,0x108334
  103ca3:	90                   	nop
  103ca4:	a1 34 83 10 00       	mov    0x108334,%eax
  103ca9:	3d cf 07 00 00       	cmp    $0x7cf,%eax
  103cae:	7e 12                	jle    103cc2 <debug_putchar+0xd1>
  103cb0:	e8 ae 14 00 00       	call   105163 <_Z19video_page_drop_strv>
  103cb5:	a1 34 83 10 00       	mov    0x108334,%eax
  103cba:	83 e8 50             	sub    $0x50,%eax
  103cbd:	a3 34 83 10 00       	mov    %eax,0x108334
  103cc2:	a1 34 83 10 00       	mov    0x108334,%eax
  103cc7:	89 04 24             	mov    %eax,(%esp)
  103cca:	e8 5e 13 00 00       	call   10502d <_Z22video_page_move_cursori>
  103ccf:	83 c4 14             	add    $0x14,%esp
  103cd2:	5b                   	pop    %ebx
  103cd3:	5d                   	pop    %ebp
  103cd4:	c3                   	ret    

00103cd5 <_Z18debug_reset_cursorv>:
  103cd5:	55                   	push   %ebp
  103cd6:	89 e5                	mov    %esp,%ebp
  103cd8:	c7 05 34 83 10 00 00 	movl   $0x0,0x108334
  103cdf:	00 00 00 
  103ce2:	5d                   	pop    %ebp
  103ce3:	c3                   	ret    

00103ce4 <_ZL4outbth>:
  103ce4:	55                   	push   %ebp
  103ce5:	89 e5                	mov    %esp,%ebp
  103ce7:	83 ec 08             	sub    $0x8,%esp
  103cea:	8b 55 08             	mov    0x8(%ebp),%edx
  103ced:	8b 45 0c             	mov    0xc(%ebp),%eax
  103cf0:	66 89 55 fc          	mov    %dx,-0x4(%ebp)
  103cf4:	88 45 f8             	mov    %al,-0x8(%ebp)
  103cf7:	0f b7 55 fc          	movzwl -0x4(%ebp),%edx
  103cfb:	0f b6 45 f8          	movzbl -0x8(%ebp),%eax
  103cff:	ee                   	out    %al,(%dx)
  103d00:	c9                   	leave  
  103d01:	c3                   	ret    

00103d02 <_ZL3inbt>:
  103d02:	55                   	push   %ebp
  103d03:	89 e5                	mov    %esp,%ebp
  103d05:	83 ec 14             	sub    $0x14,%esp
  103d08:	8b 45 08             	mov    0x8(%ebp),%eax
  103d0b:	66 89 45 ec          	mov    %ax,-0x14(%ebp)
  103d0f:	0f b7 45 ec          	movzwl -0x14(%ebp),%eax
  103d13:	89 c2                	mov    %eax,%edx
  103d15:	ec                   	in     (%dx),%al
  103d16:	88 45 ff             	mov    %al,-0x1(%ebp)
  103d19:	0f b6 45 ff          	movzbl -0x1(%ebp),%eax
  103d1d:	c9                   	leave  
  103d1e:	c3                   	ret    

00103d1f <_ZL29platform_abstract_irq_handlerP14interrupt_info>:
  103d1f:	55                   	push   %ebp
  103d20:	89 e5                	mov    %esp,%ebp
  103d22:	83 ec 08             	sub    $0x8,%esp
  103d25:	8b 45 08             	mov    0x8(%ebp),%eax
  103d28:	8b 40 24             	mov    0x24(%eax),%eax
  103d2b:	83 f8 27             	cmp    $0x27,%eax
  103d2e:	76 14                	jbe    103d44 <_ZL29platform_abstract_irq_handlerP14interrupt_info+0x25>
  103d30:	c7 44 24 04 20 00 00 	movl   $0x20,0x4(%esp)
  103d37:	00 
  103d38:	c7 04 24 a0 00 00 00 	movl   $0xa0,(%esp)
  103d3f:	e8 a0 ff ff ff       	call   103ce4 <_ZL4outbth>
  103d44:	8b 45 08             	mov    0x8(%ebp),%eax
  103d47:	8b 40 24             	mov    0x24(%eax),%eax
  103d4a:	83 f8 1f             	cmp    $0x1f,%eax
  103d4d:	76 14                	jbe    103d63 <_ZL29platform_abstract_irq_handlerP14interrupt_info+0x44>
  103d4f:	c7 44 24 04 20 00 00 	movl   $0x20,0x4(%esp)
  103d56:	00 
  103d57:	c7 04 24 20 00 00 00 	movl   $0x20,(%esp)
  103d5e:	e8 81 ff ff ff       	call   103ce4 <_ZL4outbth>
  103d63:	c9                   	leave  
  103d64:	c3                   	ret    

00103d65 <_Z13platform_initv>:
  103d65:	55                   	push   %ebp
  103d66:	89 e5                	mov    %esp,%ebp
  103d68:	83 ec 18             	sub    $0x18,%esp
  103d6b:	c7 04 24 90 5c 10 00 	movl   $0x105c90,(%esp)
  103d72:	e8 14 c8 ff ff       	call   10058b <debug_print>
  103d77:	c7 04 24 a2 5c 10 00 	movl   $0x105ca2,(%esp)
  103d7e:	e8 08 c8 ff ff       	call   10058b <debug_print>
  103d83:	c7 04 24 ac 5c 10 00 	movl   $0x105cac,(%esp)
  103d8a:	e8 fc c7 ff ff       	call   10058b <debug_print>
  103d8f:	c7 44 24 04 02 00 00 	movl   $0x2,0x4(%esp)
  103d96:	00 
  103d97:	c7 04 24 b9 5c 10 00 	movl   $0x105cb9,(%esp)
  103d9e:	e8 0a c6 ff ff       	call   1003ad <debug_write>
  103da3:	c7 04 24 bc 5c 10 00 	movl   $0x105cbc,(%esp)
  103daa:	e8 dc c7 ff ff       	call   10058b <debug_print>
  103daf:	c7 04 24 c1 5c 10 00 	movl   $0x105cc1,(%esp)
  103db6:	e8 d0 c7 ff ff       	call   10058b <debug_print>
  103dbb:	c7 44 24 04 02 00 00 	movl   $0x2,0x4(%esp)
  103dc2:	00 
  103dc3:	c7 04 24 b9 5c 10 00 	movl   $0x105cb9,(%esp)
  103dca:	e8 de c5 ff ff       	call   1003ad <debug_write>
  103dcf:	e8 f0 0a 00 00       	call   1048c4 <_Z22init_descriptor_tablesv>
  103dd4:	c9                   	leave  
  103dd5:	c3                   	ret    

00103dd6 <_Z20systemError_platformv>:
  103dd6:	55                   	push   %ebp
  103dd7:	89 e5                	mov    %esp,%ebp
  103dd9:	5d                   	pop    %ebp
  103dda:	c3                   	ret    

00103ddb <_ZL4outbth>:
  103ddb:	55                   	push   %ebp
  103ddc:	89 e5                	mov    %esp,%ebp
  103dde:	83 ec 08             	sub    $0x8,%esp
  103de1:	8b 55 08             	mov    0x8(%ebp),%edx
  103de4:	8b 45 0c             	mov    0xc(%ebp),%eax
  103de7:	66 89 55 fc          	mov    %dx,-0x4(%ebp)
  103deb:	88 45 f8             	mov    %al,-0x8(%ebp)
  103dee:	0f b7 55 fc          	movzwl -0x4(%ebp),%edx
  103df2:	0f b6 45 f8          	movzbl -0x8(%ebp),%eax
  103df6:	ee                   	out    %al,(%dx)
  103df7:	c9                   	leave  
  103df8:	c3                   	ret    

00103df9 <_ZL3inbt>:
  103df9:	55                   	push   %ebp
  103dfa:	89 e5                	mov    %esp,%ebp
  103dfc:	83 ec 14             	sub    $0x14,%esp
  103dff:	8b 45 08             	mov    0x8(%ebp),%eax
  103e02:	66 89 45 ec          	mov    %ax,-0x14(%ebp)
  103e06:	0f b7 45 ec          	movzwl -0x14(%ebp),%eax
  103e0a:	89 c2                	mov    %eax,%edx
  103e0c:	ec                   	in     (%dx),%al
  103e0d:	88 45 ff             	mov    %al,-0x1(%ebp)
  103e10:	0f b6 45 ff          	movzbl -0x1(%ebp),%eax
  103e14:	c9                   	leave  
  103e15:	c3                   	ret    

00103e16 <_ZL29platform_abstract_irq_handlerP14interrupt_info>:
  103e16:	55                   	push   %ebp
  103e17:	89 e5                	mov    %esp,%ebp
  103e19:	83 ec 08             	sub    $0x8,%esp
  103e1c:	8b 45 08             	mov    0x8(%ebp),%eax
  103e1f:	8b 40 24             	mov    0x24(%eax),%eax
  103e22:	83 f8 27             	cmp    $0x27,%eax
  103e25:	76 14                	jbe    103e3b <_ZL29platform_abstract_irq_handlerP14interrupt_info+0x25>
  103e27:	c7 44 24 04 20 00 00 	movl   $0x20,0x4(%esp)
  103e2e:	00 
  103e2f:	c7 04 24 a0 00 00 00 	movl   $0xa0,(%esp)
  103e36:	e8 a0 ff ff ff       	call   103ddb <_ZL4outbth>
  103e3b:	8b 45 08             	mov    0x8(%ebp),%eax
  103e3e:	8b 40 24             	mov    0x24(%eax),%eax
  103e41:	83 f8 1f             	cmp    $0x1f,%eax
  103e44:	76 14                	jbe    103e5a <_ZL29platform_abstract_irq_handlerP14interrupt_info+0x44>
  103e46:	c7 44 24 04 20 00 00 	movl   $0x20,0x4(%esp)
  103e4d:	00 
  103e4e:	c7 04 24 20 00 00 00 	movl   $0x20,(%esp)
  103e55:	e8 81 ff ff ff       	call   103ddb <_ZL4outbth>
  103e5a:	c9                   	leave  
  103e5b:	c3                   	ret    

00103e5c <_ZL12gdt_set_gatejjjhh>:
  103e5c:	55                   	push   %ebp
  103e5d:	89 e5                	mov    %esp,%ebp
  103e5f:	83 ec 08             	sub    $0x8,%esp
  103e62:	8b 55 14             	mov    0x14(%ebp),%edx
  103e65:	8b 45 18             	mov    0x18(%ebp),%eax
  103e68:	88 55 fc             	mov    %dl,-0x4(%ebp)
  103e6b:	88 45 f8             	mov    %al,-0x8(%ebp)
  103e6e:	8b 45 0c             	mov    0xc(%ebp),%eax
  103e71:	89 c2                	mov    %eax,%edx
  103e73:	8b 45 08             	mov    0x8(%ebp),%eax
  103e76:	66 89 14 c5 62 96 10 	mov    %dx,0x109662(,%eax,8)
  103e7d:	00 
  103e7e:	8b 45 0c             	mov    0xc(%ebp),%eax
  103e81:	c1 e8 10             	shr    $0x10,%eax
  103e84:	89 c2                	mov    %eax,%edx
  103e86:	8b 45 08             	mov    0x8(%ebp),%eax
  103e89:	88 14 c5 64 96 10 00 	mov    %dl,0x109664(,%eax,8)
  103e90:	8b 45 0c             	mov    0xc(%ebp),%eax
  103e93:	c1 e8 18             	shr    $0x18,%eax
  103e96:	89 c2                	mov    %eax,%edx
  103e98:	8b 45 08             	mov    0x8(%ebp),%eax
  103e9b:	88 14 c5 67 96 10 00 	mov    %dl,0x109667(,%eax,8)
  103ea2:	8b 45 10             	mov    0x10(%ebp),%eax
  103ea5:	89 c2                	mov    %eax,%edx
  103ea7:	8b 45 08             	mov    0x8(%ebp),%eax
  103eaa:	66 89 14 c5 60 96 10 	mov    %dx,0x109660(,%eax,8)
  103eb1:	00 
  103eb2:	8b 45 10             	mov    0x10(%ebp),%eax
  103eb5:	c1 e8 10             	shr    $0x10,%eax
  103eb8:	83 e0 0f             	and    $0xf,%eax
  103ebb:	89 c2                	mov    %eax,%edx
  103ebd:	8b 45 08             	mov    0x8(%ebp),%eax
  103ec0:	88 14 c5 66 96 10 00 	mov    %dl,0x109666(,%eax,8)
  103ec7:	8b 45 08             	mov    0x8(%ebp),%eax
  103eca:	0f b6 04 c5 66 96 10 	movzbl 0x109666(,%eax,8),%eax
  103ed1:	00 
  103ed2:	0f b6 55 f8          	movzbl -0x8(%ebp),%edx
  103ed6:	83 e2 f0             	and    $0xfffffff0,%edx
  103ed9:	09 d0                	or     %edx,%eax
  103edb:	89 c2                	mov    %eax,%edx
  103edd:	8b 45 08             	mov    0x8(%ebp),%eax
  103ee0:	88 14 c5 66 96 10 00 	mov    %dl,0x109666(,%eax,8)
  103ee7:	8b 45 08             	mov    0x8(%ebp),%eax
  103eea:	0f b6 55 fc          	movzbl -0x4(%ebp),%edx
  103eee:	88 14 c5 65 96 10 00 	mov    %dl,0x109665(,%eax,8)
  103ef5:	c9                   	leave  
  103ef6:	c3                   	ret    

00103ef7 <_ZL8init_gdtv>:
  103ef7:	55                   	push   %ebp
  103ef8:	89 e5                	mov    %esp,%ebp
  103efa:	83 ec 28             	sub    $0x28,%esp
  103efd:	ba 08 00 00 00       	mov    $0x8,%edx
  103f02:	89 d0                	mov    %edx,%eax
  103f04:	c1 e0 02             	shl    $0x2,%eax
  103f07:	01 d0                	add    %edx,%eax
  103f09:	83 e8 01             	sub    $0x1,%eax
  103f0c:	66 a3 88 96 10 00    	mov    %ax,0x109688
  103f12:	b8 60 96 10 00       	mov    $0x109660,%eax
  103f17:	a3 8a 96 10 00       	mov    %eax,0x10968a
  103f1c:	c7 44 24 10 00 00 00 	movl   $0x0,0x10(%esp)
  103f23:	00 
  103f24:	c7 44 24 0c 00 00 00 	movl   $0x0,0xc(%esp)
  103f2b:	00 
  103f2c:	c7 44 24 08 00 00 00 	movl   $0x0,0x8(%esp)
  103f33:	00 
  103f34:	c7 44 24 04 00 00 00 	movl   $0x0,0x4(%esp)
  103f3b:	00 
  103f3c:	c7 04 24 00 00 00 00 	movl   $0x0,(%esp)
  103f43:	e8 14 ff ff ff       	call   103e5c <_ZL12gdt_set_gatejjjhh>
  103f48:	c7 44 24 10 cf 00 00 	movl   $0xcf,0x10(%esp)
  103f4f:	00 
  103f50:	c7 44 24 0c 9a 00 00 	movl   $0x9a,0xc(%esp)
  103f57:	00 
  103f58:	c7 44 24 08 ff ff ff 	movl   $0xffffffff,0x8(%esp)
  103f5f:	ff 
  103f60:	c7 44 24 04 00 00 00 	movl   $0x0,0x4(%esp)
  103f67:	00 
  103f68:	c7 04 24 01 00 00 00 	movl   $0x1,(%esp)
  103f6f:	e8 e8 fe ff ff       	call   103e5c <_ZL12gdt_set_gatejjjhh>
  103f74:	c7 44 24 10 cf 00 00 	movl   $0xcf,0x10(%esp)
  103f7b:	00 
  103f7c:	c7 44 24 0c 92 00 00 	movl   $0x92,0xc(%esp)
  103f83:	00 
  103f84:	c7 44 24 08 ff ff ff 	movl   $0xffffffff,0x8(%esp)
  103f8b:	ff 
  103f8c:	c7 44 24 04 00 00 00 	movl   $0x0,0x4(%esp)
  103f93:	00 
  103f94:	c7 04 24 02 00 00 00 	movl   $0x2,(%esp)
  103f9b:	e8 bc fe ff ff       	call   103e5c <_ZL12gdt_set_gatejjjhh>
  103fa0:	c7 44 24 10 cf 00 00 	movl   $0xcf,0x10(%esp)
  103fa7:	00 
  103fa8:	c7 44 24 0c fa 00 00 	movl   $0xfa,0xc(%esp)
  103faf:	00 
  103fb0:	c7 44 24 08 ff ff ff 	movl   $0xffffffff,0x8(%esp)
  103fb7:	ff 
  103fb8:	c7 44 24 04 00 00 00 	movl   $0x0,0x4(%esp)
  103fbf:	00 
  103fc0:	c7 04 24 03 00 00 00 	movl   $0x3,(%esp)
  103fc7:	e8 90 fe ff ff       	call   103e5c <_ZL12gdt_set_gatejjjhh>
  103fcc:	c7 44 24 10 cf 00 00 	movl   $0xcf,0x10(%esp)
  103fd3:	00 
  103fd4:	c7 44 24 0c f2 00 00 	movl   $0xf2,0xc(%esp)
  103fdb:	00 
  103fdc:	c7 44 24 08 ff ff ff 	movl   $0xffffffff,0x8(%esp)
  103fe3:	ff 
  103fe4:	c7 44 24 04 00 00 00 	movl   $0x0,0x4(%esp)
  103feb:	00 
  103fec:	c7 04 24 04 00 00 00 	movl   $0x4,(%esp)
  103ff3:	e8 64 fe ff ff       	call   103e5c <_ZL12gdt_set_gatejjjhh>
  103ff8:	b8 88 96 10 00       	mov    $0x109688,%eax
  103ffd:	89 04 24             	mov    %eax,(%esp)
  104000:	e8 91 0f 00 00       	call   104f96 <gdt_flush>
  104005:	c9                   	leave  
  104006:	c3                   	ret    

00104007 <_ZL12idt_set_gatehjth>:
  104007:	55                   	push   %ebp
  104008:	89 e5                	mov    %esp,%ebp
  10400a:	83 ec 0c             	sub    $0xc,%esp
  10400d:	8b 4d 08             	mov    0x8(%ebp),%ecx
  104010:	8b 55 10             	mov    0x10(%ebp),%edx
  104013:	8b 45 14             	mov    0x14(%ebp),%eax
  104016:	88 4d fc             	mov    %cl,-0x4(%ebp)
  104019:	66 89 55 f8          	mov    %dx,-0x8(%ebp)
  10401d:	88 45 f4             	mov    %al,-0xc(%ebp)
  104020:	0f b6 45 fc          	movzbl -0x4(%ebp),%eax
  104024:	8b 55 0c             	mov    0xc(%ebp),%edx
  104027:	66 89 14 c5 a0 96 10 	mov    %dx,0x1096a0(,%eax,8)
  10402e:	00 
  10402f:	0f b6 45 fc          	movzbl -0x4(%ebp),%eax
  104033:	8b 55 0c             	mov    0xc(%ebp),%edx
  104036:	c1 ea 10             	shr    $0x10,%edx
  104039:	66 89 14 c5 a6 96 10 	mov    %dx,0x1096a6(,%eax,8)
  104040:	00 
  104041:	0f b6 45 fc          	movzbl -0x4(%ebp),%eax
  104045:	0f b7 55 f8          	movzwl -0x8(%ebp),%edx
  104049:	66 89 14 c5 a2 96 10 	mov    %dx,0x1096a2(,%eax,8)
  104050:	00 
  104051:	0f b6 45 fc          	movzbl -0x4(%ebp),%eax
  104055:	c6 04 c5 a4 96 10 00 	movb   $0x0,0x1096a4(,%eax,8)
  10405c:	00 
  10405d:	0f b6 45 fc          	movzbl -0x4(%ebp),%eax
  104061:	0f b6 55 f4          	movzbl -0xc(%ebp),%edx
  104065:	88 14 c5 a5 96 10 00 	mov    %dl,0x1096a5(,%eax,8)
  10406c:	c9                   	leave  
  10406d:	c3                   	ret    

0010406e <_Z7StubISRv>:
  10406e:	55                   	push   %ebp
  10406f:	89 e5                	mov    %esp,%ebp
  104071:	83 ec 18             	sub    $0x18,%esp
  104074:	c7 04 24 c8 5c 10 00 	movl   $0x105cc8,(%esp)
  10407b:	e8 a7 c6 ff ff       	call   100727 <_Z11systemErrorPKc>
  104080:	c9                   	leave  
  104081:	c3                   	ret    

00104082 <_ZL8init_idtv>:
  104082:	55                   	push   %ebp
  104083:	89 e5                	mov    %esp,%ebp
  104085:	83 ec 28             	sub    $0x28,%esp
  104088:	b8 08 00 00 00       	mov    $0x8,%eax
  10408d:	c1 e0 08             	shl    $0x8,%eax
  104090:	83 e8 01             	sub    $0x1,%eax
  104093:	66 a3 a0 9e 10 00    	mov    %ax,0x109ea0
  104099:	b8 a0 96 10 00       	mov    $0x1096a0,%eax
  10409e:	a3 a2 9e 10 00       	mov    %eax,0x109ea2
  1040a3:	b8 00 08 00 00       	mov    $0x800,%eax
  1040a8:	89 44 24 08          	mov    %eax,0x8(%esp)
  1040ac:	c7 44 24 04 00 00 00 	movl   $0x0,0x4(%esp)
  1040b3:	00 
  1040b4:	c7 04 24 a0 96 10 00 	movl   $0x1096a0,(%esp)
  1040bb:	e8 70 d4 ff ff       	call   101530 <_Z6memsetPvij>
  1040c0:	c7 44 24 04 11 00 00 	movl   $0x11,0x4(%esp)
  1040c7:	00 
  1040c8:	c7 04 24 20 00 00 00 	movl   $0x20,(%esp)
  1040cf:	e8 07 fd ff ff       	call   103ddb <_ZL4outbth>
  1040d4:	c7 44 24 04 11 00 00 	movl   $0x11,0x4(%esp)
  1040db:	00 
  1040dc:	c7 04 24 a0 00 00 00 	movl   $0xa0,(%esp)
  1040e3:	e8 f3 fc ff ff       	call   103ddb <_ZL4outbth>
  1040e8:	c7 44 24 04 20 00 00 	movl   $0x20,0x4(%esp)
  1040ef:	00 
  1040f0:	c7 04 24 21 00 00 00 	movl   $0x21,(%esp)
  1040f7:	e8 df fc ff ff       	call   103ddb <_ZL4outbth>
  1040fc:	c7 44 24 04 28 00 00 	movl   $0x28,0x4(%esp)
  104103:	00 
  104104:	c7 04 24 a1 00 00 00 	movl   $0xa1,(%esp)
  10410b:	e8 cb fc ff ff       	call   103ddb <_ZL4outbth>
  104110:	c7 44 24 04 04 00 00 	movl   $0x4,0x4(%esp)
  104117:	00 
  104118:	c7 04 24 21 00 00 00 	movl   $0x21,(%esp)
  10411f:	e8 b7 fc ff ff       	call   103ddb <_ZL4outbth>
  104124:	c7 44 24 04 02 00 00 	movl   $0x2,0x4(%esp)
  10412b:	00 
  10412c:	c7 04 24 a1 00 00 00 	movl   $0xa1,(%esp)
  104133:	e8 a3 fc ff ff       	call   103ddb <_ZL4outbth>
  104138:	c7 44 24 04 01 00 00 	movl   $0x1,0x4(%esp)
  10413f:	00 
  104140:	c7 04 24 21 00 00 00 	movl   $0x21,(%esp)
  104147:	e8 8f fc ff ff       	call   103ddb <_ZL4outbth>
  10414c:	c7 44 24 04 01 00 00 	movl   $0x1,0x4(%esp)
  104153:	00 
  104154:	c7 04 24 a1 00 00 00 	movl   $0xa1,(%esp)
  10415b:	e8 7b fc ff ff       	call   103ddb <_ZL4outbth>
  104160:	c7 44 24 04 00 00 00 	movl   $0x0,0x4(%esp)
  104167:	00 
  104168:	c7 04 24 21 00 00 00 	movl   $0x21,(%esp)
  10416f:	e8 67 fc ff ff       	call   103ddb <_ZL4outbth>
  104174:	c7 44 24 04 00 00 00 	movl   $0x0,0x4(%esp)
  10417b:	00 
  10417c:	c7 04 24 a1 00 00 00 	movl   $0xa1,(%esp)
  104183:	e8 53 fc ff ff       	call   103ddb <_ZL4outbth>
  104188:	c7 45 f4 00 00 00 00 	movl   $0x0,-0xc(%ebp)
  10418f:	eb 2b                	jmp    1041bc <_ZL8init_idtv+0x13a>
  104191:	ba 6e 40 10 00       	mov    $0x10406e,%edx
  104196:	8b 45 f4             	mov    -0xc(%ebp),%eax
  104199:	0f b6 c0             	movzbl %al,%eax
  10419c:	c7 44 24 0c 8e 00 00 	movl   $0x8e,0xc(%esp)
  1041a3:	00 
  1041a4:	c7 44 24 08 08 00 00 	movl   $0x8,0x8(%esp)
  1041ab:	00 
  1041ac:	89 54 24 04          	mov    %edx,0x4(%esp)
  1041b0:	89 04 24             	mov    %eax,(%esp)
  1041b3:	e8 4f fe ff ff       	call   104007 <_ZL12idt_set_gatehjth>
  1041b8:	83 45 f4 01          	addl   $0x1,-0xc(%ebp)
  1041bc:	81 7d f4 ff 00 00 00 	cmpl   $0xff,-0xc(%ebp)
  1041c3:	7e cc                	jle    104191 <_ZL8init_idtv+0x10f>
  1041c5:	b8 ab 52 10 00       	mov    $0x1052ab,%eax
  1041ca:	c7 44 24 0c 8e 00 00 	movl   $0x8e,0xc(%esp)
  1041d1:	00 
  1041d2:	c7 44 24 08 08 00 00 	movl   $0x8,0x8(%esp)
  1041d9:	00 
  1041da:	89 44 24 04          	mov    %eax,0x4(%esp)
  1041de:	c7 04 24 00 00 00 00 	movl   $0x0,(%esp)
  1041e5:	e8 1d fe ff ff       	call   104007 <_ZL12idt_set_gatehjth>
  1041ea:	b8 b5 52 10 00       	mov    $0x1052b5,%eax
  1041ef:	c7 44 24 0c 8e 00 00 	movl   $0x8e,0xc(%esp)
  1041f6:	00 
  1041f7:	c7 44 24 08 08 00 00 	movl   $0x8,0x8(%esp)
  1041fe:	00 
  1041ff:	89 44 24 04          	mov    %eax,0x4(%esp)
  104203:	c7 04 24 01 00 00 00 	movl   $0x1,(%esp)
  10420a:	e8 f8 fd ff ff       	call   104007 <_ZL12idt_set_gatehjth>
  10420f:	b8 bf 52 10 00       	mov    $0x1052bf,%eax
  104214:	c7 44 24 0c 8e 00 00 	movl   $0x8e,0xc(%esp)
  10421b:	00 
  10421c:	c7 44 24 08 08 00 00 	movl   $0x8,0x8(%esp)
  104223:	00 
  104224:	89 44 24 04          	mov    %eax,0x4(%esp)
  104228:	c7 04 24 02 00 00 00 	movl   $0x2,(%esp)
  10422f:	e8 d3 fd ff ff       	call   104007 <_ZL12idt_set_gatehjth>
  104234:	b8 c9 52 10 00       	mov    $0x1052c9,%eax
  104239:	c7 44 24 0c 8e 00 00 	movl   $0x8e,0xc(%esp)
  104240:	00 
  104241:	c7 44 24 08 08 00 00 	movl   $0x8,0x8(%esp)
  104248:	00 
  104249:	89 44 24 04          	mov    %eax,0x4(%esp)
  10424d:	c7 04 24 03 00 00 00 	movl   $0x3,(%esp)
  104254:	e8 ae fd ff ff       	call   104007 <_ZL12idt_set_gatehjth>
  104259:	b8 d3 52 10 00       	mov    $0x1052d3,%eax
  10425e:	c7 44 24 0c 8e 00 00 	movl   $0x8e,0xc(%esp)
  104265:	00 
  104266:	c7 44 24 08 08 00 00 	movl   $0x8,0x8(%esp)
  10426d:	00 
  10426e:	89 44 24 04          	mov    %eax,0x4(%esp)
  104272:	c7 04 24 04 00 00 00 	movl   $0x4,(%esp)
  104279:	e8 89 fd ff ff       	call   104007 <_ZL12idt_set_gatehjth>
  10427e:	b8 dd 52 10 00       	mov    $0x1052dd,%eax
  104283:	c7 44 24 0c 8e 00 00 	movl   $0x8e,0xc(%esp)
  10428a:	00 
  10428b:	c7 44 24 08 08 00 00 	movl   $0x8,0x8(%esp)
  104292:	00 
  104293:	89 44 24 04          	mov    %eax,0x4(%esp)
  104297:	c7 04 24 05 00 00 00 	movl   $0x5,(%esp)
  10429e:	e8 64 fd ff ff       	call   104007 <_ZL12idt_set_gatehjth>
  1042a3:	b8 e7 52 10 00       	mov    $0x1052e7,%eax
  1042a8:	c7 44 24 0c 8e 00 00 	movl   $0x8e,0xc(%esp)
  1042af:	00 
  1042b0:	c7 44 24 08 08 00 00 	movl   $0x8,0x8(%esp)
  1042b7:	00 
  1042b8:	89 44 24 04          	mov    %eax,0x4(%esp)
  1042bc:	c7 04 24 06 00 00 00 	movl   $0x6,(%esp)
  1042c3:	e8 3f fd ff ff       	call   104007 <_ZL12idt_set_gatehjth>
  1042c8:	b8 f1 52 10 00       	mov    $0x1052f1,%eax
  1042cd:	c7 44 24 0c 8e 00 00 	movl   $0x8e,0xc(%esp)
  1042d4:	00 
  1042d5:	c7 44 24 08 08 00 00 	movl   $0x8,0x8(%esp)
  1042dc:	00 
  1042dd:	89 44 24 04          	mov    %eax,0x4(%esp)
  1042e1:	c7 04 24 07 00 00 00 	movl   $0x7,(%esp)
  1042e8:	e8 1a fd ff ff       	call   104007 <_ZL12idt_set_gatehjth>
  1042ed:	b8 fb 52 10 00       	mov    $0x1052fb,%eax
  1042f2:	c7 44 24 0c 8e 00 00 	movl   $0x8e,0xc(%esp)
  1042f9:	00 
  1042fa:	c7 44 24 08 08 00 00 	movl   $0x8,0x8(%esp)
  104301:	00 
  104302:	89 44 24 04          	mov    %eax,0x4(%esp)
  104306:	c7 04 24 08 00 00 00 	movl   $0x8,(%esp)
  10430d:	e8 f5 fc ff ff       	call   104007 <_ZL12idt_set_gatehjth>
  104312:	b8 03 53 10 00       	mov    $0x105303,%eax
  104317:	c7 44 24 0c 8e 00 00 	movl   $0x8e,0xc(%esp)
  10431e:	00 
  10431f:	c7 44 24 08 08 00 00 	movl   $0x8,0x8(%esp)
  104326:	00 
  104327:	89 44 24 04          	mov    %eax,0x4(%esp)
  10432b:	c7 04 24 09 00 00 00 	movl   $0x9,(%esp)
  104332:	e8 d0 fc ff ff       	call   104007 <_ZL12idt_set_gatehjth>
  104337:	b8 ab 52 10 00       	mov    $0x1052ab,%eax
  10433c:	c7 44 24 0c 8e 00 00 	movl   $0x8e,0xc(%esp)
  104343:	00 
  104344:	c7 44 24 08 08 00 00 	movl   $0x8,0x8(%esp)
  10434b:	00 
  10434c:	89 44 24 04          	mov    %eax,0x4(%esp)
  104350:	c7 04 24 0a 00 00 00 	movl   $0xa,(%esp)
  104357:	e8 ab fc ff ff       	call   104007 <_ZL12idt_set_gatehjth>
  10435c:	b8 15 53 10 00       	mov    $0x105315,%eax
  104361:	c7 44 24 0c 8e 00 00 	movl   $0x8e,0xc(%esp)
  104368:	00 
  104369:	c7 44 24 08 08 00 00 	movl   $0x8,0x8(%esp)
  104370:	00 
  104371:	89 44 24 04          	mov    %eax,0x4(%esp)
  104375:	c7 04 24 0b 00 00 00 	movl   $0xb,(%esp)
  10437c:	e8 86 fc ff ff       	call   104007 <_ZL12idt_set_gatehjth>
  104381:	b8 1d 53 10 00       	mov    $0x10531d,%eax
  104386:	c7 44 24 0c 8e 00 00 	movl   $0x8e,0xc(%esp)
  10438d:	00 
  10438e:	c7 44 24 08 08 00 00 	movl   $0x8,0x8(%esp)
  104395:	00 
  104396:	89 44 24 04          	mov    %eax,0x4(%esp)
  10439a:	c7 04 24 0c 00 00 00 	movl   $0xc,(%esp)
  1043a1:	e8 61 fc ff ff       	call   104007 <_ZL12idt_set_gatehjth>
  1043a6:	b8 25 53 10 00       	mov    $0x105325,%eax
  1043ab:	c7 44 24 0c 8e 00 00 	movl   $0x8e,0xc(%esp)
  1043b2:	00 
  1043b3:	c7 44 24 08 08 00 00 	movl   $0x8,0x8(%esp)
  1043ba:	00 
  1043bb:	89 44 24 04          	mov    %eax,0x4(%esp)
  1043bf:	c7 04 24 0d 00 00 00 	movl   $0xd,(%esp)
  1043c6:	e8 3c fc ff ff       	call   104007 <_ZL12idt_set_gatehjth>
  1043cb:	b8 2d 53 10 00       	mov    $0x10532d,%eax
  1043d0:	c7 44 24 0c 8e 00 00 	movl   $0x8e,0xc(%esp)
  1043d7:	00 
  1043d8:	c7 44 24 08 08 00 00 	movl   $0x8,0x8(%esp)
  1043df:	00 
  1043e0:	89 44 24 04          	mov    %eax,0x4(%esp)
  1043e4:	c7 04 24 0e 00 00 00 	movl   $0xe,(%esp)
  1043eb:	e8 17 fc ff ff       	call   104007 <_ZL12idt_set_gatehjth>
  1043f0:	b8 35 53 10 00       	mov    $0x105335,%eax
  1043f5:	c7 44 24 0c 8e 00 00 	movl   $0x8e,0xc(%esp)
  1043fc:	00 
  1043fd:	c7 44 24 08 08 00 00 	movl   $0x8,0x8(%esp)
  104404:	00 
  104405:	89 44 24 04          	mov    %eax,0x4(%esp)
  104409:	c7 04 24 0f 00 00 00 	movl   $0xf,(%esp)
  104410:	e8 f2 fb ff ff       	call   104007 <_ZL12idt_set_gatehjth>
  104415:	b8 3f 53 10 00       	mov    $0x10533f,%eax
  10441a:	c7 44 24 0c 8e 00 00 	movl   $0x8e,0xc(%esp)
  104421:	00 
  104422:	c7 44 24 08 08 00 00 	movl   $0x8,0x8(%esp)
  104429:	00 
  10442a:	89 44 24 04          	mov    %eax,0x4(%esp)
  10442e:	c7 04 24 10 00 00 00 	movl   $0x10,(%esp)
  104435:	e8 cd fb ff ff       	call   104007 <_ZL12idt_set_gatehjth>
  10443a:	b8 49 53 10 00       	mov    $0x105349,%eax
  10443f:	c7 44 24 0c 8e 00 00 	movl   $0x8e,0xc(%esp)
  104446:	00 
  104447:	c7 44 24 08 08 00 00 	movl   $0x8,0x8(%esp)
  10444e:	00 
  10444f:	89 44 24 04          	mov    %eax,0x4(%esp)
  104453:	c7 04 24 11 00 00 00 	movl   $0x11,(%esp)
  10445a:	e8 a8 fb ff ff       	call   104007 <_ZL12idt_set_gatehjth>
  10445f:	b8 53 53 10 00       	mov    $0x105353,%eax
  104464:	c7 44 24 0c 8e 00 00 	movl   $0x8e,0xc(%esp)
  10446b:	00 
  10446c:	c7 44 24 08 08 00 00 	movl   $0x8,0x8(%esp)
  104473:	00 
  104474:	89 44 24 04          	mov    %eax,0x4(%esp)
  104478:	c7 04 24 12 00 00 00 	movl   $0x12,(%esp)
  10447f:	e8 83 fb ff ff       	call   104007 <_ZL12idt_set_gatehjth>
  104484:	b8 5d 53 10 00       	mov    $0x10535d,%eax
  104489:	c7 44 24 0c 8e 00 00 	movl   $0x8e,0xc(%esp)
  104490:	00 
  104491:	c7 44 24 08 08 00 00 	movl   $0x8,0x8(%esp)
  104498:	00 
  104499:	89 44 24 04          	mov    %eax,0x4(%esp)
  10449d:	c7 04 24 13 00 00 00 	movl   $0x13,(%esp)
  1044a4:	e8 5e fb ff ff       	call   104007 <_ZL12idt_set_gatehjth>
  1044a9:	b8 67 53 10 00       	mov    $0x105367,%eax
  1044ae:	c7 44 24 0c 8e 00 00 	movl   $0x8e,0xc(%esp)
  1044b5:	00 
  1044b6:	c7 44 24 08 08 00 00 	movl   $0x8,0x8(%esp)
  1044bd:	00 
  1044be:	89 44 24 04          	mov    %eax,0x4(%esp)
  1044c2:	c7 04 24 14 00 00 00 	movl   $0x14,(%esp)
  1044c9:	e8 39 fb ff ff       	call   104007 <_ZL12idt_set_gatehjth>
  1044ce:	b8 71 53 10 00       	mov    $0x105371,%eax
  1044d3:	c7 44 24 0c 8e 00 00 	movl   $0x8e,0xc(%esp)
  1044da:	00 
  1044db:	c7 44 24 08 08 00 00 	movl   $0x8,0x8(%esp)
  1044e2:	00 
  1044e3:	89 44 24 04          	mov    %eax,0x4(%esp)
  1044e7:	c7 04 24 15 00 00 00 	movl   $0x15,(%esp)
  1044ee:	e8 14 fb ff ff       	call   104007 <_ZL12idt_set_gatehjth>
  1044f3:	b8 7b 53 10 00       	mov    $0x10537b,%eax
  1044f8:	c7 44 24 0c 8e 00 00 	movl   $0x8e,0xc(%esp)
  1044ff:	00 
  104500:	c7 44 24 08 08 00 00 	movl   $0x8,0x8(%esp)
  104507:	00 
  104508:	89 44 24 04          	mov    %eax,0x4(%esp)
  10450c:	c7 04 24 16 00 00 00 	movl   $0x16,(%esp)
  104513:	e8 ef fa ff ff       	call   104007 <_ZL12idt_set_gatehjth>
  104518:	b8 85 53 10 00       	mov    $0x105385,%eax
  10451d:	c7 44 24 0c 8e 00 00 	movl   $0x8e,0xc(%esp)
  104524:	00 
  104525:	c7 44 24 08 08 00 00 	movl   $0x8,0x8(%esp)
  10452c:	00 
  10452d:	89 44 24 04          	mov    %eax,0x4(%esp)
  104531:	c7 04 24 17 00 00 00 	movl   $0x17,(%esp)
  104538:	e8 ca fa ff ff       	call   104007 <_ZL12idt_set_gatehjth>
  10453d:	b8 8f 53 10 00       	mov    $0x10538f,%eax
  104542:	c7 44 24 0c 8e 00 00 	movl   $0x8e,0xc(%esp)
  104549:	00 
  10454a:	c7 44 24 08 08 00 00 	movl   $0x8,0x8(%esp)
  104551:	00 
  104552:	89 44 24 04          	mov    %eax,0x4(%esp)
  104556:	c7 04 24 18 00 00 00 	movl   $0x18,(%esp)
  10455d:	e8 a5 fa ff ff       	call   104007 <_ZL12idt_set_gatehjth>
  104562:	b8 99 53 10 00       	mov    $0x105399,%eax
  104567:	c7 44 24 0c 8e 00 00 	movl   $0x8e,0xc(%esp)
  10456e:	00 
  10456f:	c7 44 24 08 08 00 00 	movl   $0x8,0x8(%esp)
  104576:	00 
  104577:	89 44 24 04          	mov    %eax,0x4(%esp)
  10457b:	c7 04 24 19 00 00 00 	movl   $0x19,(%esp)
  104582:	e8 80 fa ff ff       	call   104007 <_ZL12idt_set_gatehjth>
  104587:	b8 a3 53 10 00       	mov    $0x1053a3,%eax
  10458c:	c7 44 24 0c 8e 00 00 	movl   $0x8e,0xc(%esp)
  104593:	00 
  104594:	c7 44 24 08 08 00 00 	movl   $0x8,0x8(%esp)
  10459b:	00 
  10459c:	89 44 24 04          	mov    %eax,0x4(%esp)
  1045a0:	c7 04 24 1a 00 00 00 	movl   $0x1a,(%esp)
  1045a7:	e8 5b fa ff ff       	call   104007 <_ZL12idt_set_gatehjth>
  1045ac:	b8 ad 53 10 00       	mov    $0x1053ad,%eax
  1045b1:	c7 44 24 0c 8e 00 00 	movl   $0x8e,0xc(%esp)
  1045b8:	00 
  1045b9:	c7 44 24 08 08 00 00 	movl   $0x8,0x8(%esp)
  1045c0:	00 
  1045c1:	89 44 24 04          	mov    %eax,0x4(%esp)
  1045c5:	c7 04 24 1b 00 00 00 	movl   $0x1b,(%esp)
  1045cc:	e8 36 fa ff ff       	call   104007 <_ZL12idt_set_gatehjth>
  1045d1:	b8 b7 53 10 00       	mov    $0x1053b7,%eax
  1045d6:	c7 44 24 0c 8e 00 00 	movl   $0x8e,0xc(%esp)
  1045dd:	00 
  1045de:	c7 44 24 08 08 00 00 	movl   $0x8,0x8(%esp)
  1045e5:	00 
  1045e6:	89 44 24 04          	mov    %eax,0x4(%esp)
  1045ea:	c7 04 24 1c 00 00 00 	movl   $0x1c,(%esp)
  1045f1:	e8 11 fa ff ff       	call   104007 <_ZL12idt_set_gatehjth>
  1045f6:	b8 c1 53 10 00       	mov    $0x1053c1,%eax
  1045fb:	c7 44 24 0c 8e 00 00 	movl   $0x8e,0xc(%esp)
  104602:	00 
  104603:	c7 44 24 08 08 00 00 	movl   $0x8,0x8(%esp)
  10460a:	00 
  10460b:	89 44 24 04          	mov    %eax,0x4(%esp)
  10460f:	c7 04 24 1d 00 00 00 	movl   $0x1d,(%esp)
  104616:	e8 ec f9 ff ff       	call   104007 <_ZL12idt_set_gatehjth>
  10461b:	b8 c8 53 10 00       	mov    $0x1053c8,%eax
  104620:	c7 44 24 0c 8e 00 00 	movl   $0x8e,0xc(%esp)
  104627:	00 
  104628:	c7 44 24 08 08 00 00 	movl   $0x8,0x8(%esp)
  10462f:	00 
  104630:	89 44 24 04          	mov    %eax,0x4(%esp)
  104634:	c7 04 24 1e 00 00 00 	movl   $0x1e,(%esp)
  10463b:	e8 c7 f9 ff ff       	call   104007 <_ZL12idt_set_gatehjth>
  104640:	b8 cf 53 10 00       	mov    $0x1053cf,%eax
  104645:	c7 44 24 0c 8e 00 00 	movl   $0x8e,0xc(%esp)
  10464c:	00 
  10464d:	c7 44 24 08 08 00 00 	movl   $0x8,0x8(%esp)
  104654:	00 
  104655:	89 44 24 04          	mov    %eax,0x4(%esp)
  104659:	c7 04 24 1f 00 00 00 	movl   $0x1f,(%esp)
  104660:	e8 a2 f9 ff ff       	call   104007 <_ZL12idt_set_gatehjth>
  104665:	b8 d6 53 10 00       	mov    $0x1053d6,%eax
  10466a:	c7 44 24 0c 8e 00 00 	movl   $0x8e,0xc(%esp)
  104671:	00 
  104672:	c7 44 24 08 08 00 00 	movl   $0x8,0x8(%esp)
  104679:	00 
  10467a:	89 44 24 04          	mov    %eax,0x4(%esp)
  10467e:	c7 04 24 20 00 00 00 	movl   $0x20,(%esp)
  104685:	e8 7d f9 ff ff       	call   104007 <_ZL12idt_set_gatehjth>
  10468a:	b8 dd 53 10 00       	mov    $0x1053dd,%eax
  10468f:	c7 44 24 0c 8e 00 00 	movl   $0x8e,0xc(%esp)
  104696:	00 
  104697:	c7 44 24 08 08 00 00 	movl   $0x8,0x8(%esp)
  10469e:	00 
  10469f:	89 44 24 04          	mov    %eax,0x4(%esp)
  1046a3:	c7 04 24 21 00 00 00 	movl   $0x21,(%esp)
  1046aa:	e8 58 f9 ff ff       	call   104007 <_ZL12idt_set_gatehjth>
  1046af:	b8 e4 53 10 00       	mov    $0x1053e4,%eax
  1046b4:	c7 44 24 0c 8e 00 00 	movl   $0x8e,0xc(%esp)
  1046bb:	00 
  1046bc:	c7 44 24 08 08 00 00 	movl   $0x8,0x8(%esp)
  1046c3:	00 
  1046c4:	89 44 24 04          	mov    %eax,0x4(%esp)
  1046c8:	c7 04 24 22 00 00 00 	movl   $0x22,(%esp)
  1046cf:	e8 33 f9 ff ff       	call   104007 <_ZL12idt_set_gatehjth>
  1046d4:	b8 eb 53 10 00       	mov    $0x1053eb,%eax
  1046d9:	c7 44 24 0c 8e 00 00 	movl   $0x8e,0xc(%esp)
  1046e0:	00 
  1046e1:	c7 44 24 08 08 00 00 	movl   $0x8,0x8(%esp)
  1046e8:	00 
  1046e9:	89 44 24 04          	mov    %eax,0x4(%esp)
  1046ed:	c7 04 24 23 00 00 00 	movl   $0x23,(%esp)
  1046f4:	e8 0e f9 ff ff       	call   104007 <_ZL12idt_set_gatehjth>
  1046f9:	b8 f2 53 10 00       	mov    $0x1053f2,%eax
  1046fe:	c7 44 24 0c 8e 00 00 	movl   $0x8e,0xc(%esp)
  104705:	00 
  104706:	c7 44 24 08 08 00 00 	movl   $0x8,0x8(%esp)
  10470d:	00 
  10470e:	89 44 24 04          	mov    %eax,0x4(%esp)
  104712:	c7 04 24 24 00 00 00 	movl   $0x24,(%esp)
  104719:	e8 e9 f8 ff ff       	call   104007 <_ZL12idt_set_gatehjth>
  10471e:	b8 f9 53 10 00       	mov    $0x1053f9,%eax
  104723:	c7 44 24 0c 8e 00 00 	movl   $0x8e,0xc(%esp)
  10472a:	00 
  10472b:	c7 44 24 08 08 00 00 	movl   $0x8,0x8(%esp)
  104732:	00 
  104733:	89 44 24 04          	mov    %eax,0x4(%esp)
  104737:	c7 04 24 25 00 00 00 	movl   $0x25,(%esp)
  10473e:	e8 c4 f8 ff ff       	call   104007 <_ZL12idt_set_gatehjth>
  104743:	b8 00 54 10 00       	mov    $0x105400,%eax
  104748:	c7 44 24 0c 8e 00 00 	movl   $0x8e,0xc(%esp)
  10474f:	00 
  104750:	c7 44 24 08 08 00 00 	movl   $0x8,0x8(%esp)
  104757:	00 
  104758:	89 44 24 04          	mov    %eax,0x4(%esp)
  10475c:	c7 04 24 26 00 00 00 	movl   $0x26,(%esp)
  104763:	e8 9f f8 ff ff       	call   104007 <_ZL12idt_set_gatehjth>
  104768:	b8 07 54 10 00       	mov    $0x105407,%eax
  10476d:	c7 44 24 0c 8e 00 00 	movl   $0x8e,0xc(%esp)
  104774:	00 
  104775:	c7 44 24 08 08 00 00 	movl   $0x8,0x8(%esp)
  10477c:	00 
  10477d:	89 44 24 04          	mov    %eax,0x4(%esp)
  104781:	c7 04 24 27 00 00 00 	movl   $0x27,(%esp)
  104788:	e8 7a f8 ff ff       	call   104007 <_ZL12idt_set_gatehjth>
  10478d:	b8 0e 54 10 00       	mov    $0x10540e,%eax
  104792:	c7 44 24 0c 8e 00 00 	movl   $0x8e,0xc(%esp)
  104799:	00 
  10479a:	c7 44 24 08 08 00 00 	movl   $0x8,0x8(%esp)
  1047a1:	00 
  1047a2:	89 44 24 04          	mov    %eax,0x4(%esp)
  1047a6:	c7 04 24 28 00 00 00 	movl   $0x28,(%esp)
  1047ad:	e8 55 f8 ff ff       	call   104007 <_ZL12idt_set_gatehjth>
  1047b2:	b8 15 54 10 00       	mov    $0x105415,%eax
  1047b7:	c7 44 24 0c 8e 00 00 	movl   $0x8e,0xc(%esp)
  1047be:	00 
  1047bf:	c7 44 24 08 08 00 00 	movl   $0x8,0x8(%esp)
  1047c6:	00 
  1047c7:	89 44 24 04          	mov    %eax,0x4(%esp)
  1047cb:	c7 04 24 29 00 00 00 	movl   $0x29,(%esp)
  1047d2:	e8 30 f8 ff ff       	call   104007 <_ZL12idt_set_gatehjth>
  1047d7:	b8 1c 54 10 00       	mov    $0x10541c,%eax
  1047dc:	c7 44 24 0c 8e 00 00 	movl   $0x8e,0xc(%esp)
  1047e3:	00 
  1047e4:	c7 44 24 08 08 00 00 	movl   $0x8,0x8(%esp)
  1047eb:	00 
  1047ec:	89 44 24 04          	mov    %eax,0x4(%esp)
  1047f0:	c7 04 24 2a 00 00 00 	movl   $0x2a,(%esp)
  1047f7:	e8 0b f8 ff ff       	call   104007 <_ZL12idt_set_gatehjth>
  1047fc:	b8 23 54 10 00       	mov    $0x105423,%eax
  104801:	c7 44 24 0c 8e 00 00 	movl   $0x8e,0xc(%esp)
  104808:	00 
  104809:	c7 44 24 08 08 00 00 	movl   $0x8,0x8(%esp)
  104810:	00 
  104811:	89 44 24 04          	mov    %eax,0x4(%esp)
  104815:	c7 04 24 2b 00 00 00 	movl   $0x2b,(%esp)
  10481c:	e8 e6 f7 ff ff       	call   104007 <_ZL12idt_set_gatehjth>
  104821:	b8 2a 54 10 00       	mov    $0x10542a,%eax
  104826:	c7 44 24 0c 8e 00 00 	movl   $0x8e,0xc(%esp)
  10482d:	00 
  10482e:	c7 44 24 08 08 00 00 	movl   $0x8,0x8(%esp)
  104835:	00 
  104836:	89 44 24 04          	mov    %eax,0x4(%esp)
  10483a:	c7 04 24 2c 00 00 00 	movl   $0x2c,(%esp)
  104841:	e8 c1 f7 ff ff       	call   104007 <_ZL12idt_set_gatehjth>
  104846:	b8 31 54 10 00       	mov    $0x105431,%eax
  10484b:	c7 44 24 0c 8e 00 00 	movl   $0x8e,0xc(%esp)
  104852:	00 
  104853:	c7 44 24 08 08 00 00 	movl   $0x8,0x8(%esp)
  10485a:	00 
  10485b:	89 44 24 04          	mov    %eax,0x4(%esp)
  10485f:	c7 04 24 2d 00 00 00 	movl   $0x2d,(%esp)
  104866:	e8 9c f7 ff ff       	call   104007 <_ZL12idt_set_gatehjth>
  10486b:	b8 38 54 10 00       	mov    $0x105438,%eax
  104870:	c7 44 24 0c 8e 00 00 	movl   $0x8e,0xc(%esp)
  104877:	00 
  104878:	c7 44 24 08 08 00 00 	movl   $0x8,0x8(%esp)
  10487f:	00 
  104880:	89 44 24 04          	mov    %eax,0x4(%esp)
  104884:	c7 04 24 2e 00 00 00 	movl   $0x2e,(%esp)
  10488b:	e8 77 f7 ff ff       	call   104007 <_ZL12idt_set_gatehjth>
  104890:	b8 3f 54 10 00       	mov    $0x10543f,%eax
  104895:	c7 44 24 0c 8e 00 00 	movl   $0x8e,0xc(%esp)
  10489c:	00 
  10489d:	c7 44 24 08 08 00 00 	movl   $0x8,0x8(%esp)
  1048a4:	00 
  1048a5:	89 44 24 04          	mov    %eax,0x4(%esp)
  1048a9:	c7 04 24 2f 00 00 00 	movl   $0x2f,(%esp)
  1048b0:	e8 52 f7 ff ff       	call   104007 <_ZL12idt_set_gatehjth>
  1048b5:	b8 a0 9e 10 00       	mov    $0x109ea0,%eax
  1048ba:	89 04 24             	mov    %eax,(%esp)
  1048bd:	e8 f1 06 00 00       	call   104fb3 <idt_flush>
  1048c2:	c9                   	leave  
  1048c3:	c3                   	ret    

001048c4 <_Z22init_descriptor_tablesv>:
  1048c4:	55                   	push   %ebp
  1048c5:	89 e5                	mov    %esp,%ebp
  1048c7:	83 ec 18             	sub    $0x18,%esp
  1048ca:	e8 28 f6 ff ff       	call   103ef7 <_ZL8init_gdtv>
  1048cf:	e8 ae f7 ff ff       	call   104082 <_ZL8init_idtv>
  1048d4:	c7 04 24 d0 5c 10 00 	movl   $0x105cd0,(%esp)
  1048db:	e8 ab bc ff ff       	call   10058b <debug_print>
  1048e0:	c7 44 24 04 28 00 00 	movl   $0x28,0x4(%esp)
  1048e7:	00 
  1048e8:	c7 04 24 60 96 10 00 	movl   $0x109660,(%esp)
  1048ef:	e8 b9 bc ff ff       	call   1005ad <debug_print_dump>
  1048f4:	c7 44 24 04 02 00 00 	movl   $0x2,0x4(%esp)
  1048fb:	00 
  1048fc:	c7 04 24 ef 5c 10 00 	movl   $0x105cef,(%esp)
  104903:	e8 a5 ba ff ff       	call   1003ad <debug_write>
  104908:	c7 04 24 f4 5c 10 00 	movl   $0x105cf4,(%esp)
  10490f:	e8 77 bc ff ff       	call   10058b <debug_print>
  104914:	c7 44 24 04 20 00 00 	movl   $0x20,0x4(%esp)
  10491b:	00 
  10491c:	c7 04 24 a0 96 10 00 	movl   $0x1096a0,(%esp)
  104923:	e8 85 bc ff ff       	call   1005ad <debug_print_dump>
  104928:	c7 44 24 04 02 00 00 	movl   $0x2,0x4(%esp)
  10492f:	00 
  104930:	c7 04 24 ef 5c 10 00 	movl   $0x105cef,(%esp)
  104937:	e8 71 ba ff ff       	call   1003ad <debug_write>
  10493c:	c9                   	leave  
  10493d:	c3                   	ret    

0010493e <_ZL4outbth>:
  10493e:	55                   	push   %ebp
  10493f:	89 e5                	mov    %esp,%ebp
  104941:	83 ec 08             	sub    $0x8,%esp
  104944:	8b 55 08             	mov    0x8(%ebp),%edx
  104947:	8b 45 0c             	mov    0xc(%ebp),%eax
  10494a:	66 89 55 fc          	mov    %dx,-0x4(%ebp)
  10494e:	88 45 f8             	mov    %al,-0x8(%ebp)
  104951:	0f b7 55 fc          	movzwl -0x4(%ebp),%edx
  104955:	0f b6 45 f8          	movzbl -0x8(%ebp),%eax
  104959:	ee                   	out    %al,(%dx)
  10495a:	c9                   	leave  
  10495b:	c3                   	ret    

0010495c <_ZL3inbt>:
  10495c:	55                   	push   %ebp
  10495d:	89 e5                	mov    %esp,%ebp
  10495f:	83 ec 14             	sub    $0x14,%esp
  104962:	8b 45 08             	mov    0x8(%ebp),%eax
  104965:	66 89 45 ec          	mov    %ax,-0x14(%ebp)
  104969:	0f b7 45 ec          	movzwl -0x14(%ebp),%eax
  10496d:	89 c2                	mov    %eax,%edx
  10496f:	ec                   	in     (%dx),%al
  104970:	88 45 ff             	mov    %al,-0x1(%ebp)
  104973:	0f b6 45 ff          	movzbl -0x1(%ebp),%eax
  104977:	c9                   	leave  
  104978:	c3                   	ret    

00104979 <_Z10init_timerj>:
  104979:	55                   	push   %ebp
  10497a:	89 e5                	mov    %esp,%ebp
  10497c:	83 ec 18             	sub    $0x18,%esp
  10497f:	b8 dc 34 12 00       	mov    $0x1234dc,%eax
  104984:	ba 00 00 00 00       	mov    $0x0,%edx
  104989:	f7 75 08             	divl   0x8(%ebp)
  10498c:	89 45 fc             	mov    %eax,-0x4(%ebp)
  10498f:	c7 44 24 04 36 00 00 	movl   $0x36,0x4(%esp)
  104996:	00 
  104997:	c7 04 24 43 00 00 00 	movl   $0x43,(%esp)
  10499e:	e8 9b ff ff ff       	call   10493e <_ZL4outbth>
  1049a3:	8b 45 fc             	mov    -0x4(%ebp),%eax
  1049a6:	88 45 fa             	mov    %al,-0x6(%ebp)
  1049a9:	8b 45 fc             	mov    -0x4(%ebp),%eax
  1049ac:	c1 e8 08             	shr    $0x8,%eax
  1049af:	88 45 fb             	mov    %al,-0x5(%ebp)
  1049b2:	0f b6 45 fa          	movzbl -0x6(%ebp),%eax
  1049b6:	89 44 24 04          	mov    %eax,0x4(%esp)
  1049ba:	c7 04 24 40 00 00 00 	movl   $0x40,(%esp)
  1049c1:	e8 78 ff ff ff       	call   10493e <_ZL4outbth>
  1049c6:	0f b6 45 fb          	movzbl -0x5(%ebp),%eax
  1049ca:	89 44 24 04          	mov    %eax,0x4(%esp)
  1049ce:	c7 04 24 40 00 00 00 	movl   $0x40,(%esp)
  1049d5:	e8 64 ff ff ff       	call   10493e <_ZL4outbth>
  1049da:	c9                   	leave  
  1049db:	c3                   	ret    

001049dc <_Z10scan2asciic>:
  1049dc:	55                   	push   %ebp
  1049dd:	89 e5                	mov    %esp,%ebp
  1049df:	83 ec 14             	sub    $0x14,%esp
  1049e2:	8b 45 08             	mov    0x8(%ebp),%eax
  1049e5:	88 45 ec             	mov    %al,-0x14(%ebp)
  1049e8:	c7 45 f8 00 00 00 00 	movl   $0x0,-0x8(%ebp)
  1049ef:	c7 45 f0 00 00 00 00 	movl   $0x0,-0x10(%ebp)
  1049f6:	c7 45 fc 00 00 00 00 	movl   $0x0,-0x4(%ebp)
  1049fd:	c7 45 f4 00 00 00 00 	movl   $0x0,-0xc(%ebp)
  104a04:	80 7d ec 00          	cmpb   $0x0,-0x14(%ebp)
  104a08:	79 0b                	jns    104a15 <_Z10scan2asciic+0x39>
  104a0a:	c7 45 f0 01 00 00 00 	movl   $0x1,-0x10(%ebp)
  104a11:	80 65 ec 7f          	andb   $0x7f,-0x14(%ebp)
  104a15:	0f be 55 ec          	movsbl -0x14(%ebp),%edx
  104a19:	b8 58 00 00 00       	mov    $0x58,%eax
  104a1e:	39 c2                	cmp    %eax,%edx
  104a20:	72 0a                	jb     104a2c <_Z10scan2asciic+0x50>
  104a22:	b8 ff ff ff ff       	mov    $0xffffffff,%eax
  104a27:	e9 c7 00 00 00       	jmp    104af3 <_Z10scan2asciic+0x117>
  104a2c:	a1 ac 9e 10 00       	mov    0x109eac,%eax
  104a31:	83 e0 03             	and    $0x3,%eax
  104a34:	85 c0                	test   %eax,%eax
  104a36:	0f 95 c0             	setne  %al
  104a39:	0f b6 c0             	movzbl %al,%eax
  104a3c:	89 45 f8             	mov    %eax,-0x8(%ebp)
  104a3f:	83 7d f8 00          	cmpl   $0x0,-0x8(%ebp)
  104a43:	74 11                	je     104a56 <_Z10scan2asciic+0x7a>
  104a45:	0f be 45 ec          	movsbl -0x14(%ebp),%eax
  104a49:	0f b7 84 00 00 5e 10 	movzwl 0x105e00(%eax,%eax,1),%eax
  104a50:	00 
  104a51:	0f b7 c0             	movzwl %ax,%eax
  104a54:	eb 0f                	jmp    104a65 <_Z10scan2asciic+0x89>
  104a56:	0f be 45 ec          	movsbl -0x14(%ebp),%eax
  104a5a:	0f b7 84 00 40 5d 10 	movzwl 0x105d40(%eax,%eax,1),%eax
  104a61:	00 
  104a62:	0f b7 c0             	movzwl %ax,%eax
  104a65:	89 45 fc             	mov    %eax,-0x4(%ebp)
  104a68:	8b 45 fc             	mov    -0x4(%ebp),%eax
  104a6b:	2d 0d 01 00 00       	sub    $0x10d,%eax
  104a70:	83 f8 05             	cmp    $0x5,%eax
  104a73:	77 6d                	ja     104ae2 <_Z10scan2asciic+0x106>
  104a75:	8b 04 85 20 5d 10 00 	mov    0x105d20(,%eax,4),%eax
  104a7c:	ff e0                	jmp    *%eax
  104a7e:	c7 45 f4 01 00 00 00 	movl   $0x1,-0xc(%ebp)
  104a85:	eb 2c                	jmp    104ab3 <_Z10scan2asciic+0xd7>
  104a87:	c7 45 f4 02 00 00 00 	movl   $0x2,-0xc(%ebp)
  104a8e:	eb 23                	jmp    104ab3 <_Z10scan2asciic+0xd7>
  104a90:	c7 45 f4 04 00 00 00 	movl   $0x4,-0xc(%ebp)
  104a97:	eb 1a                	jmp    104ab3 <_Z10scan2asciic+0xd7>
  104a99:	c7 45 f4 08 00 00 00 	movl   $0x8,-0xc(%ebp)
  104aa0:	eb 11                	jmp    104ab3 <_Z10scan2asciic+0xd7>
  104aa2:	c7 45 f4 10 00 00 00 	movl   $0x10,-0xc(%ebp)
  104aa9:	eb 08                	jmp    104ab3 <_Z10scan2asciic+0xd7>
  104aab:	c7 45 f4 20 00 00 00 	movl   $0x20,-0xc(%ebp)
  104ab2:	90                   	nop
  104ab3:	83 7d f0 00          	cmpl   $0x0,-0x10(%ebp)
  104ab7:	74 15                	je     104ace <_Z10scan2asciic+0xf2>
  104ab9:	8b 45 f4             	mov    -0xc(%ebp),%eax
  104abc:	f7 d0                	not    %eax
  104abe:	89 c2                	mov    %eax,%edx
  104ac0:	a1 ac 9e 10 00       	mov    0x109eac,%eax
  104ac5:	21 d0                	and    %edx,%eax
  104ac7:	a3 ac 9e 10 00       	mov    %eax,0x109eac
  104acc:	eb 0d                	jmp    104adb <_Z10scan2asciic+0xff>
  104ace:	a1 ac 9e 10 00       	mov    0x109eac,%eax
  104ad3:	0b 45 f4             	or     -0xc(%ebp),%eax
  104ad6:	a3 ac 9e 10 00       	mov    %eax,0x109eac
  104adb:	b8 00 00 00 00       	mov    $0x0,%eax
  104ae0:	eb 11                	jmp    104af3 <_Z10scan2asciic+0x117>
  104ae2:	90                   	nop
  104ae3:	83 7d f0 00          	cmpl   $0x0,-0x10(%ebp)
  104ae7:	75 05                	jne    104aee <_Z10scan2asciic+0x112>
  104ae9:	8b 45 fc             	mov    -0x4(%ebp),%eax
  104aec:	eb 05                	jmp    104af3 <_Z10scan2asciic+0x117>
  104aee:	b8 00 00 00 00       	mov    $0x0,%eax
  104af3:	c9                   	leave  
  104af4:	c3                   	ret    

00104af5 <_ZL4in32tPj>:
  104af5:	55                   	push   %ebp
  104af6:	89 e5                	mov    %esp,%ebp
  104af8:	83 ec 04             	sub    $0x4,%esp
  104afb:	8b 45 08             	mov    0x8(%ebp),%eax
  104afe:	66 89 45 fc          	mov    %ax,-0x4(%ebp)
  104b02:	0f b7 45 fc          	movzwl -0x4(%ebp),%eax
  104b06:	89 c2                	mov    %eax,%edx
  104b08:	ed                   	in     (%dx),%eax
  104b09:	89 c2                	mov    %eax,%edx
  104b0b:	8b 45 0c             	mov    0xc(%ebp),%eax
  104b0e:	89 10                	mov    %edx,(%eax)
  104b10:	c9                   	leave  
  104b11:	c3                   	ret    

00104b12 <_ZL5out32tj>:
  104b12:	55                   	push   %ebp
  104b13:	89 e5                	mov    %esp,%ebp
  104b15:	83 ec 04             	sub    $0x4,%esp
  104b18:	8b 45 08             	mov    0x8(%ebp),%eax
  104b1b:	66 89 45 fc          	mov    %ax,-0x4(%ebp)
  104b1f:	8b 45 0c             	mov    0xc(%ebp),%eax
  104b22:	0f b7 55 fc          	movzwl -0x4(%ebp),%edx
  104b26:	ef                   	out    %eax,(%dx)
  104b27:	c9                   	leave  
  104b28:	c3                   	ret    

00104b29 <_Z12ReadConfig32jjjjPj>:
  104b29:	55                   	push   %ebp
  104b2a:	89 e5                	mov    %esp,%ebp
  104b2c:	83 ec 18             	sub    $0x18,%esp
  104b2f:	c7 45 fc 00 00 00 00 	movl   $0x0,-0x4(%ebp)
  104b36:	0f b6 45 ff          	movzbl -0x1(%ebp),%eax
  104b3a:	83 c8 80             	or     $0xffffff80,%eax
  104b3d:	88 45 ff             	mov    %al,-0x1(%ebp)
  104b40:	8b 45 14             	mov    0x14(%ebp),%eax
  104b43:	83 e0 3f             	and    $0x3f,%eax
  104b46:	8d 14 85 00 00 00 00 	lea    0x0(,%eax,4),%edx
  104b4d:	0f b6 45 fc          	movzbl -0x4(%ebp),%eax
  104b51:	83 e0 03             	and    $0x3,%eax
  104b54:	09 d0                	or     %edx,%eax
  104b56:	88 45 fc             	mov    %al,-0x4(%ebp)
  104b59:	8b 45 10             	mov    0x10(%ebp),%eax
  104b5c:	83 e0 07             	and    $0x7,%eax
  104b5f:	83 e0 07             	and    $0x7,%eax
  104b62:	89 c2                	mov    %eax,%edx
  104b64:	0f b6 45 fd          	movzbl -0x3(%ebp),%eax
  104b68:	83 e0 f8             	and    $0xfffffff8,%eax
  104b6b:	09 d0                	or     %edx,%eax
  104b6d:	88 45 fd             	mov    %al,-0x3(%ebp)
  104b70:	8b 45 0c             	mov    0xc(%ebp),%eax
  104b73:	83 e0 1f             	and    $0x1f,%eax
  104b76:	8d 14 c5 00 00 00 00 	lea    0x0(,%eax,8),%edx
  104b7d:	0f b6 45 fd          	movzbl -0x3(%ebp),%eax
  104b81:	83 e0 07             	and    $0x7,%eax
  104b84:	09 d0                	or     %edx,%eax
  104b86:	88 45 fd             	mov    %al,-0x3(%ebp)
  104b89:	8b 45 08             	mov    0x8(%ebp),%eax
  104b8c:	88 45 fe             	mov    %al,-0x2(%ebp)
  104b8f:	8b 45 fc             	mov    -0x4(%ebp),%eax
  104b92:	89 44 24 04          	mov    %eax,0x4(%esp)
  104b96:	c7 04 24 f8 0c 00 00 	movl   $0xcf8,(%esp)
  104b9d:	e8 70 ff ff ff       	call   104b12 <_ZL5out32tj>
  104ba2:	8b 45 18             	mov    0x18(%ebp),%eax
  104ba5:	89 44 24 04          	mov    %eax,0x4(%esp)
  104ba9:	c7 04 24 fc 0c 00 00 	movl   $0xcfc,(%esp)
  104bb0:	e8 40 ff ff ff       	call   104af5 <_ZL4in32tPj>
  104bb5:	90                   	nop
  104bb6:	c9                   	leave  
  104bb7:	c3                   	ret    

00104bb8 <_Z18GetPCIDevClassNamej>:
  104bb8:	55                   	push   %ebp
  104bb9:	89 e5                	mov    %esp,%ebp
  104bbb:	83 ec 10             	sub    $0x10,%esp
  104bbe:	c7 45 fc 00 00 00 00 	movl   $0x0,-0x4(%ebp)
  104bc5:	eb 34                	jmp    104bfb <_Z18GetPCIDevClassNamej+0x43>
  104bc7:	8b 55 fc             	mov    -0x4(%ebp),%edx
  104bca:	89 d0                	mov    %edx,%eax
  104bcc:	c1 e0 03             	shl    $0x3,%eax
  104bcf:	01 d0                	add    %edx,%eax
  104bd1:	c1 e0 02             	shl    $0x2,%eax
  104bd4:	05 40 83 10 00       	add    $0x108340,%eax
  104bd9:	8b 00                	mov    (%eax),%eax
  104bdb:	3b 45 08             	cmp    0x8(%ebp),%eax
  104bde:	75 17                	jne    104bf7 <_Z18GetPCIDevClassNamej+0x3f>
  104be0:	8b 55 fc             	mov    -0x4(%ebp),%edx
  104be3:	89 d0                	mov    %edx,%eax
  104be5:	c1 e0 03             	shl    $0x3,%eax
  104be8:	01 d0                	add    %edx,%eax
  104bea:	c1 e0 02             	shl    $0x2,%eax
  104bed:	05 40 83 10 00       	add    $0x108340,%eax
  104bf2:	83 c0 04             	add    $0x4,%eax
  104bf5:	eb 15                	jmp    104c0c <_Z18GetPCIDevClassNamej+0x54>
  104bf7:	83 45 fc 01          	addl   $0x1,-0x4(%ebp)
  104bfb:	8b 55 fc             	mov    -0x4(%ebp),%edx
  104bfe:	b8 13 00 00 00       	mov    $0x13,%eax
  104c03:	39 c2                	cmp    %eax,%edx
  104c05:	72 c0                	jb     104bc7 <_Z18GetPCIDevClassNamej+0xf>
  104c07:	b8 00 00 00 00       	mov    $0x0,%eax
  104c0c:	c9                   	leave  
  104c0d:	c3                   	ret    

00104c0e <_Z16ReadPCIDevHeaderjjjP12PCIDevHeader>:
  104c0e:	55                   	push   %ebp
  104c0f:	89 e5                	mov    %esp,%ebp
  104c11:	83 ec 24             	sub    $0x24,%esp
  104c14:	83 7d 14 00          	cmpl   $0x0,0x14(%ebp)
  104c18:	75 07                	jne    104c21 <_Z16ReadPCIDevHeaderjjjP12PCIDevHeader+0x13>
  104c1a:	b8 01 00 00 00       	mov    $0x1,%eax
  104c1f:	eb 7c                	jmp    104c9d <_Z16ReadPCIDevHeaderjjjP12PCIDevHeader+0x8f>
  104c21:	c7 45 fc 00 00 00 00 	movl   $0x0,-0x4(%ebp)
  104c28:	eb 37                	jmp    104c61 <_Z16ReadPCIDevHeaderjjjP12PCIDevHeader+0x53>
  104c2a:	8b 45 fc             	mov    -0x4(%ebp),%eax
  104c2d:	8d 14 85 00 00 00 00 	lea    0x0(,%eax,4),%edx
  104c34:	8b 45 14             	mov    0x14(%ebp),%eax
  104c37:	01 c2                	add    %eax,%edx
  104c39:	8b 45 fc             	mov    -0x4(%ebp),%eax
  104c3c:	89 54 24 10          	mov    %edx,0x10(%esp)
  104c40:	89 44 24 0c          	mov    %eax,0xc(%esp)
  104c44:	8b 45 10             	mov    0x10(%ebp),%eax
  104c47:	89 44 24 08          	mov    %eax,0x8(%esp)
  104c4b:	8b 45 0c             	mov    0xc(%ebp),%eax
  104c4e:	89 44 24 04          	mov    %eax,0x4(%esp)
  104c52:	8b 45 08             	mov    0x8(%ebp),%eax
  104c55:	89 04 24             	mov    %eax,(%esp)
  104c58:	e8 cc fe ff ff       	call   104b29 <_Z12ReadConfig32jjjjPj>
  104c5d:	83 45 fc 01          	addl   $0x1,-0x4(%ebp)
  104c61:	8b 55 fc             	mov    -0x4(%ebp),%edx
  104c64:	b8 04 00 00 00       	mov    $0x4,%eax
  104c69:	39 c2                	cmp    %eax,%edx
  104c6b:	72 bd                	jb     104c2a <_Z16ReadPCIDevHeaderjjjP12PCIDevHeader+0x1c>
  104c6d:	8b 45 14             	mov    0x14(%ebp),%eax
  104c70:	0f b7 00             	movzwl (%eax),%eax
  104c73:	66 85 c0             	test   %ax,%ax
  104c76:	74 19                	je     104c91 <_Z16ReadPCIDevHeaderjjjP12PCIDevHeader+0x83>
  104c78:	8b 45 14             	mov    0x14(%ebp),%eax
  104c7b:	0f b7 00             	movzwl (%eax),%eax
  104c7e:	66 83 f8 ff          	cmp    $0xffff,%ax
  104c82:	74 0d                	je     104c91 <_Z16ReadPCIDevHeaderjjjP12PCIDevHeader+0x83>
  104c84:	8b 45 14             	mov    0x14(%ebp),%eax
  104c87:	0f b7 40 02          	movzwl 0x2(%eax),%eax
  104c8b:	66 83 f8 ff          	cmp    $0xffff,%ax
  104c8f:	75 07                	jne    104c98 <_Z16ReadPCIDevHeaderjjjP12PCIDevHeader+0x8a>
  104c91:	b8 01 00 00 00       	mov    $0x1,%eax
  104c96:	eb 05                	jmp    104c9d <_Z16ReadPCIDevHeaderjjjP12PCIDevHeader+0x8f>
  104c98:	b8 00 00 00 00       	mov    $0x0,%eax
  104c9d:	c9                   	leave  
  104c9e:	c3                   	ret    

00104c9f <_ZL4outbth>:
  104c9f:	55                   	push   %ebp
  104ca0:	89 e5                	mov    %esp,%ebp
  104ca2:	83 ec 08             	sub    $0x8,%esp
  104ca5:	8b 55 08             	mov    0x8(%ebp),%edx
  104ca8:	8b 45 0c             	mov    0xc(%ebp),%eax
  104cab:	66 89 55 fc          	mov    %dx,-0x4(%ebp)
  104caf:	88 45 f8             	mov    %al,-0x8(%ebp)
  104cb2:	0f b7 55 fc          	movzwl -0x4(%ebp),%edx
  104cb6:	0f b6 45 f8          	movzbl -0x8(%ebp),%eax
  104cba:	ee                   	out    %al,(%dx)
  104cbb:	c9                   	leave  
  104cbc:	c3                   	ret    

00104cbd <_ZL3inbt>:
  104cbd:	55                   	push   %ebp
  104cbe:	89 e5                	mov    %esp,%ebp
  104cc0:	83 ec 14             	sub    $0x14,%esp
  104cc3:	8b 45 08             	mov    0x8(%ebp),%eax
  104cc6:	66 89 45 ec          	mov    %ax,-0x14(%ebp)
  104cca:	0f b7 45 ec          	movzwl -0x14(%ebp),%eax
  104cce:	89 c2                	mov    %eax,%edx
  104cd0:	ec                   	in     (%dx),%al
  104cd1:	88 45 ff             	mov    %al,-0x1(%ebp)
  104cd4:	0f b6 45 ff          	movzbl -0x1(%ebp),%eax
  104cd8:	c9                   	leave  
  104cd9:	c3                   	ret    

00104cda <_ZL29platform_abstract_irq_handlerP14interrupt_info>:
  104cda:	55                   	push   %ebp
  104cdb:	89 e5                	mov    %esp,%ebp
  104cdd:	83 ec 08             	sub    $0x8,%esp
  104ce0:	8b 45 08             	mov    0x8(%ebp),%eax
  104ce3:	8b 40 24             	mov    0x24(%eax),%eax
  104ce6:	83 f8 27             	cmp    $0x27,%eax
  104ce9:	76 14                	jbe    104cff <_ZL29platform_abstract_irq_handlerP14interrupt_info+0x25>
  104ceb:	c7 44 24 04 20 00 00 	movl   $0x20,0x4(%esp)
  104cf2:	00 
  104cf3:	c7 04 24 a0 00 00 00 	movl   $0xa0,(%esp)
  104cfa:	e8 a0 ff ff ff       	call   104c9f <_ZL4outbth>
  104cff:	8b 45 08             	mov    0x8(%ebp),%eax
  104d02:	8b 40 24             	mov    0x24(%eax),%eax
  104d05:	83 f8 1f             	cmp    $0x1f,%eax
  104d08:	76 14                	jbe    104d1e <_ZL29platform_abstract_irq_handlerP14interrupt_info+0x44>
  104d0a:	c7 44 24 04 20 00 00 	movl   $0x20,0x4(%esp)
  104d11:	00 
  104d12:	c7 04 24 20 00 00 00 	movl   $0x20,(%esp)
  104d19:	e8 81 ff ff ff       	call   104c9f <_ZL4outbth>
  104d1e:	c9                   	leave  
  104d1f:	c3                   	ret    

00104d20 <_Z17PrintPCIDevHeaderjjjP12PCIDevHeader>:
  104d20:	55                   	push   %ebp
  104d21:	89 e5                	mov    %esp,%ebp
  104d23:	83 ec 28             	sub    $0x28,%esp
  104d26:	a1 18 8b 10 00       	mov    0x108b18,%eax
  104d2b:	c7 44 24 04 b0 5e 10 	movl   $0x105eb0,0x4(%esp)
  104d32:	00 
  104d33:	89 04 24             	mov    %eax,(%esp)
  104d36:	e8 61 bb ff ff       	call   10089c <_ZN5Print5printEPKc>
  104d3b:	8b 55 08             	mov    0x8(%ebp),%edx
  104d3e:	a1 18 8b 10 00       	mov    0x108b18,%eax
  104d43:	c7 44 24 08 10 00 00 	movl   $0x10,0x8(%esp)
  104d4a:	00 
  104d4b:	89 54 24 04          	mov    %edx,0x4(%esp)
  104d4f:	89 04 24             	mov    %eax,(%esp)
  104d52:	e8 af bb ff ff       	call   100906 <_ZN5Print5printEii>
  104d57:	a1 18 8b 10 00       	mov    0x108b18,%eax
  104d5c:	c7 44 24 04 b5 5e 10 	movl   $0x105eb5,0x4(%esp)
  104d63:	00 
  104d64:	89 04 24             	mov    %eax,(%esp)
  104d67:	e8 30 bb ff ff       	call   10089c <_ZN5Print5printEPKc>
  104d6c:	8b 55 0c             	mov    0xc(%ebp),%edx
  104d6f:	a1 18 8b 10 00       	mov    0x108b18,%eax
  104d74:	c7 44 24 08 10 00 00 	movl   $0x10,0x8(%esp)
  104d7b:	00 
  104d7c:	89 54 24 04          	mov    %edx,0x4(%esp)
  104d80:	89 04 24             	mov    %eax,(%esp)
  104d83:	e8 7e bb ff ff       	call   100906 <_ZN5Print5printEii>
  104d88:	a1 18 8b 10 00       	mov    0x108b18,%eax
  104d8d:	c7 44 24 04 bb 5e 10 	movl   $0x105ebb,0x4(%esp)
  104d94:	00 
  104d95:	89 04 24             	mov    %eax,(%esp)
  104d98:	e8 ff ba ff ff       	call   10089c <_ZN5Print5printEPKc>
  104d9d:	8b 55 10             	mov    0x10(%ebp),%edx
  104da0:	a1 18 8b 10 00       	mov    0x108b18,%eax
  104da5:	c7 44 24 08 10 00 00 	movl   $0x10,0x8(%esp)
  104dac:	00 
  104dad:	89 54 24 04          	mov    %edx,0x4(%esp)
  104db1:	89 04 24             	mov    %eax,(%esp)
  104db4:	e8 4d bb ff ff       	call   100906 <_ZN5Print5printEii>
  104db9:	a1 18 8b 10 00       	mov    0x108b18,%eax
  104dbe:	c7 44 24 04 c2 5e 10 	movl   $0x105ec2,0x4(%esp)
  104dc5:	00 
  104dc6:	89 04 24             	mov    %eax,(%esp)
  104dc9:	e8 ce ba ff ff       	call   10089c <_ZN5Print5printEPKc>
  104dce:	8b 45 14             	mov    0x14(%ebp),%eax
  104dd1:	0f b7 00             	movzwl (%eax),%eax
  104dd4:	0f b7 d0             	movzwl %ax,%edx
  104dd7:	a1 18 8b 10 00       	mov    0x108b18,%eax
  104ddc:	c7 44 24 08 10 00 00 	movl   $0x10,0x8(%esp)
  104de3:	00 
  104de4:	89 54 24 04          	mov    %edx,0x4(%esp)
  104de8:	89 04 24             	mov    %eax,(%esp)
  104deb:	e8 16 bb ff ff       	call   100906 <_ZN5Print5printEii>
  104df0:	a1 18 8b 10 00       	mov    0x108b18,%eax
  104df5:	c7 44 24 04 cb 5e 10 	movl   $0x105ecb,0x4(%esp)
  104dfc:	00 
  104dfd:	89 04 24             	mov    %eax,(%esp)
  104e00:	e8 97 ba ff ff       	call   10089c <_ZN5Print5printEPKc>
  104e05:	8b 45 14             	mov    0x14(%ebp),%eax
  104e08:	0f b7 40 02          	movzwl 0x2(%eax),%eax
  104e0c:	0f b7 d0             	movzwl %ax,%edx
  104e0f:	a1 18 8b 10 00       	mov    0x108b18,%eax
  104e14:	c7 44 24 08 10 00 00 	movl   $0x10,0x8(%esp)
  104e1b:	00 
  104e1c:	89 54 24 04          	mov    %edx,0x4(%esp)
  104e20:	89 04 24             	mov    %eax,(%esp)
  104e23:	e8 de ba ff ff       	call   100906 <_ZN5Print5printEii>
  104e28:	8b 45 14             	mov    0x14(%ebp),%eax
  104e2b:	0f b6 40 0b          	movzbl 0xb(%eax),%eax
  104e2f:	0f b6 c0             	movzbl %al,%eax
  104e32:	89 04 24             	mov    %eax,(%esp)
  104e35:	e8 7e fd ff ff       	call   104bb8 <_Z18GetPCIDevClassNamej>
  104e3a:	89 45 f4             	mov    %eax,-0xc(%ebp)
  104e3d:	83 7d f4 00          	cmpl   $0x0,-0xc(%ebp)
  104e41:	74 15                	je     104e58 <_Z17PrintPCIDevHeaderjjjP12PCIDevHeader+0x138>
  104e43:	a1 18 8b 10 00       	mov    0x108b18,%eax
  104e48:	c7 44 24 04 d3 5e 10 	movl   $0x105ed3,0x4(%esp)
  104e4f:	00 
  104e50:	89 04 24             	mov    %eax,(%esp)
  104e53:	e8 44 ba ff ff       	call   10089c <_ZN5Print5printEPKc>
  104e58:	a1 18 8b 10 00       	mov    0x108b18,%eax
  104e5d:	8b 55 f4             	mov    -0xc(%ebp),%edx
  104e60:	89 54 24 04          	mov    %edx,0x4(%esp)
  104e64:	89 04 24             	mov    %eax,(%esp)
  104e67:	e8 30 ba ff ff       	call   10089c <_ZN5Print5printEPKc>
  104e6c:	a1 18 8b 10 00       	mov    0x108b18,%eax
  104e71:	89 04 24             	mov    %eax,(%esp)
  104e74:	e8 ef bb ff ff       	call   100a68 <_ZN5Print7printlnEv>
  104e79:	c9                   	leave  
  104e7a:	c3                   	ret    

00104e7b <_Z7PCIScanv>:
  104e7b:	55                   	push   %ebp
  104e7c:	89 e5                	mov    %esp,%ebp
  104e7e:	83 ec 38             	sub    $0x38,%esp
  104e81:	c7 45 dc 00 00 00 00 	movl   $0x0,-0x24(%ebp)
  104e88:	e9 d8 00 00 00       	jmp    104f65 <_Z7PCIScanv+0xea>
  104e8d:	c7 45 e0 00 00 00 00 	movl   $0x0,-0x20(%ebp)
  104e94:	e9 be 00 00 00       	jmp    104f57 <_Z7PCIScanv+0xdc>
  104e99:	c7 45 e4 00 00 00 00 	movl   $0x0,-0x1c(%ebp)
  104ea0:	8b 55 e0             	mov    -0x20(%ebp),%edx
  104ea3:	8b 45 dc             	mov    -0x24(%ebp),%eax
  104ea6:	8d 4d e8             	lea    -0x18(%ebp),%ecx
  104ea9:	89 4c 24 0c          	mov    %ecx,0xc(%esp)
  104ead:	8b 4d e4             	mov    -0x1c(%ebp),%ecx
  104eb0:	89 4c 24 08          	mov    %ecx,0x8(%esp)
  104eb4:	89 54 24 04          	mov    %edx,0x4(%esp)
  104eb8:	89 04 24             	mov    %eax,(%esp)
  104ebb:	e8 4e fd ff ff       	call   104c0e <_Z16ReadPCIDevHeaderjjjP12PCIDevHeader>
  104ec0:	85 c0                	test   %eax,%eax
  104ec2:	0f 95 c0             	setne  %al
  104ec5:	84 c0                	test   %al,%al
  104ec7:	0f 85 86 00 00 00    	jne    104f53 <_Z7PCIScanv+0xd8>
  104ecd:	8b 55 e0             	mov    -0x20(%ebp),%edx
  104ed0:	8b 45 dc             	mov    -0x24(%ebp),%eax
  104ed3:	8d 4d e8             	lea    -0x18(%ebp),%ecx
  104ed6:	89 4c 24 0c          	mov    %ecx,0xc(%esp)
  104eda:	8b 4d e4             	mov    -0x1c(%ebp),%ecx
  104edd:	89 4c 24 08          	mov    %ecx,0x8(%esp)
  104ee1:	89 54 24 04          	mov    %edx,0x4(%esp)
  104ee5:	89 04 24             	mov    %eax,(%esp)
  104ee8:	e8 33 fe ff ff       	call   104d20 <_Z17PrintPCIDevHeaderjjjP12PCIDevHeader>
  104eed:	0f b6 45 f6          	movzbl -0xa(%ebp),%eax
  104ef1:	84 c0                	test   %al,%al
  104ef3:	79 5e                	jns    104f53 <_Z7PCIScanv+0xd8>
  104ef5:	c7 45 e4 01 00 00 00 	movl   $0x1,-0x1c(%ebp)
  104efc:	eb 4f                	jmp    104f4d <_Z7PCIScanv+0xd2>
  104efe:	8b 55 e0             	mov    -0x20(%ebp),%edx
  104f01:	8b 45 dc             	mov    -0x24(%ebp),%eax
  104f04:	8d 4d e8             	lea    -0x18(%ebp),%ecx
  104f07:	89 4c 24 0c          	mov    %ecx,0xc(%esp)
  104f0b:	8b 4d e4             	mov    -0x1c(%ebp),%ecx
  104f0e:	89 4c 24 08          	mov    %ecx,0x8(%esp)
  104f12:	89 54 24 04          	mov    %edx,0x4(%esp)
  104f16:	89 04 24             	mov    %eax,(%esp)
  104f19:	e8 f0 fc ff ff       	call   104c0e <_Z16ReadPCIDevHeaderjjjP12PCIDevHeader>
  104f1e:	85 c0                	test   %eax,%eax
  104f20:	0f 95 c0             	setne  %al
  104f23:	84 c0                	test   %al,%al
  104f25:	74 02                	je     104f29 <_Z7PCIScanv+0xae>
  104f27:	eb 20                	jmp    104f49 <_Z7PCIScanv+0xce>
  104f29:	8b 55 e0             	mov    -0x20(%ebp),%edx
  104f2c:	8b 45 dc             	mov    -0x24(%ebp),%eax
  104f2f:	8d 4d e8             	lea    -0x18(%ebp),%ecx
  104f32:	89 4c 24 0c          	mov    %ecx,0xc(%esp)
  104f36:	8b 4d e4             	mov    -0x1c(%ebp),%ecx
  104f39:	89 4c 24 08          	mov    %ecx,0x8(%esp)
  104f3d:	89 54 24 04          	mov    %edx,0x4(%esp)
  104f41:	89 04 24             	mov    %eax,(%esp)
  104f44:	e8 d7 fd ff ff       	call   104d20 <_Z17PrintPCIDevHeaderjjjP12PCIDevHeader>
  104f49:	83 45 e4 01          	addl   $0x1,-0x1c(%ebp)
  104f4d:	83 7d e4 07          	cmpl   $0x7,-0x1c(%ebp)
  104f51:	76 ab                	jbe    104efe <_Z7PCIScanv+0x83>
  104f53:	83 45 e0 01          	addl   $0x1,-0x20(%ebp)
  104f57:	83 7d e0 1f          	cmpl   $0x1f,-0x20(%ebp)
  104f5b:	0f 8e 38 ff ff ff    	jle    104e99 <_Z7PCIScanv+0x1e>
  104f61:	83 45 dc 01          	addl   $0x1,-0x24(%ebp)
  104f65:	81 7d dc fe 00 00 00 	cmpl   $0xfe,-0x24(%ebp)
  104f6c:	0f 8e 1b ff ff ff    	jle    104e8d <_Z7PCIScanv+0x12>
  104f72:	c9                   	leave  
  104f73:	c3                   	ret    

00104f74 <_Z5kmainv>:
  104f74:	55                   	push   %ebp
  104f75:	89 e5                	mov    %esp,%ebp
  104f77:	83 ec 18             	sub    $0x18,%esp
  104f7a:	a1 18 8b 10 00       	mov    0x108b18,%eax
  104f7f:	c7 44 24 04 e0 5e 10 	movl   $0x105ee0,0x4(%esp)
  104f86:	00 
  104f87:	89 04 24             	mov    %eax,(%esp)
  104f8a:	e8 0d b9 ff ff       	call   10089c <_ZN5Print5printEPKc>
  104f8f:	e8 e7 fe ff ff       	call   104e7b <_Z7PCIScanv>
  104f94:	c9                   	leave  
  104f95:	c3                   	ret    

00104f96 <gdt_flush>:
  104f96:	8b 44 24 04          	mov    0x4(%esp),%eax
  104f9a:	0f 01 10             	lgdtl  (%eax)
  104f9d:	66 b8 10 00          	mov    $0x10,%ax
  104fa1:	8e d8                	mov    %eax,%ds
  104fa3:	8e c0                	mov    %eax,%es
  104fa5:	8e e0                	mov    %eax,%fs
  104fa7:	8e e8                	mov    %eax,%gs
  104fa9:	8e d0                	mov    %eax,%ss
  104fab:	ea b2 4f 10 00 08 00 	ljmp   $0x8,$0x104fb2

00104fb2 <flush>:
  104fb2:	c3                   	ret    

00104fb3 <idt_flush>:
  104fb3:	8b 44 24 04          	mov    0x4(%esp),%eax
  104fb7:	0f 01 18             	lidtl  (%eax)
  104fba:	c3                   	ret    

00104fbb <_ZL4outbth>:
  104fbb:	55                   	push   %ebp
  104fbc:	89 e5                	mov    %esp,%ebp
  104fbe:	83 ec 08             	sub    $0x8,%esp
  104fc1:	8b 55 08             	mov    0x8(%ebp),%edx
  104fc4:	8b 45 0c             	mov    0xc(%ebp),%eax
  104fc7:	66 89 55 fc          	mov    %dx,-0x4(%ebp)
  104fcb:	88 45 f8             	mov    %al,-0x8(%ebp)
  104fce:	0f b7 55 fc          	movzwl -0x4(%ebp),%edx
  104fd2:	0f b6 45 f8          	movzbl -0x8(%ebp),%eax
  104fd6:	ee                   	out    %al,(%dx)
  104fd7:	c9                   	leave  
  104fd8:	c3                   	ret    

00104fd9 <_ZL3inbt>:
  104fd9:	55                   	push   %ebp
  104fda:	89 e5                	mov    %esp,%ebp
  104fdc:	83 ec 14             	sub    $0x14,%esp
  104fdf:	8b 45 08             	mov    0x8(%ebp),%eax
  104fe2:	66 89 45 ec          	mov    %ax,-0x14(%ebp)
  104fe6:	0f b7 45 ec          	movzwl -0x14(%ebp),%eax
  104fea:	89 c2                	mov    %eax,%edx
  104fec:	ec                   	in     (%dx),%al
  104fed:	88 45 ff             	mov    %al,-0x1(%ebp)
  104ff0:	0f b6 45 ff          	movzbl -0x1(%ebp),%eax
  104ff4:	c9                   	leave  
  104ff5:	c3                   	ret    

00104ff6 <_Z18video_page_putcharic>:
  104ff6:	55                   	push   %ebp
  104ff7:	89 e5                	mov    %esp,%ebp
  104ff9:	83 ec 04             	sub    $0x4,%esp
  104ffc:	8b 45 0c             	mov    0xc(%ebp),%eax
  104fff:	88 45 fc             	mov    %al,-0x4(%ebp)
  105002:	a1 ec 85 10 00       	mov    0x1085ec,%eax
  105007:	8b 55 08             	mov    0x8(%ebp),%edx
  10500a:	01 d2                	add    %edx,%edx
  10500c:	83 c2 01             	add    $0x1,%edx
  10500f:	01 d0                	add    %edx,%eax
  105011:	c6 00 0a             	movb   $0xa,(%eax)
  105014:	8b 15 ec 85 10 00    	mov    0x1085ec,%edx
  10501a:	8b 45 08             	mov    0x8(%ebp),%eax
  10501d:	01 c0                	add    %eax,%eax
  10501f:	01 c2                	add    %eax,%edx
  105021:	0f b6 45 fc          	movzbl -0x4(%ebp),%eax
  105025:	88 02                	mov    %al,(%edx)
  105027:	83 45 08 01          	addl   $0x1,0x8(%ebp)
  10502b:	c9                   	leave  
  10502c:	c3                   	ret    

0010502d <_Z22video_page_move_cursori>:
  10502d:	55                   	push   %ebp
  10502e:	89 e5                	mov    %esp,%ebp
  105030:	83 ec 08             	sub    $0x8,%esp
  105033:	c7 44 24 04 0e 00 00 	movl   $0xe,0x4(%esp)
  10503a:	00 
  10503b:	c7 04 24 d4 03 00 00 	movl   $0x3d4,(%esp)
  105042:	e8 74 ff ff ff       	call   104fbb <_ZL4outbth>
  105047:	8b 45 08             	mov    0x8(%ebp),%eax
  10504a:	c1 f8 08             	sar    $0x8,%eax
  10504d:	0f b6 c0             	movzbl %al,%eax
  105050:	89 44 24 04          	mov    %eax,0x4(%esp)
  105054:	c7 04 24 d5 03 00 00 	movl   $0x3d5,(%esp)
  10505b:	e8 5b ff ff ff       	call   104fbb <_ZL4outbth>
  105060:	c7 44 24 04 0f 00 00 	movl   $0xf,0x4(%esp)
  105067:	00 
  105068:	c7 04 24 d4 03 00 00 	movl   $0x3d4,(%esp)
  10506f:	e8 47 ff ff ff       	call   104fbb <_ZL4outbth>
  105074:	8b 45 08             	mov    0x8(%ebp),%eax
  105077:	0f b6 c0             	movzbl %al,%eax
  10507a:	89 44 24 04          	mov    %eax,0x4(%esp)
  10507e:	c7 04 24 d5 03 00 00 	movl   $0x3d5,(%esp)
  105085:	e8 31 ff ff ff       	call   104fbb <_ZL4outbth>
  10508a:	c9                   	leave  
  10508b:	c3                   	ret    

0010508c <_Z16video_page_resetv>:
  10508c:	55                   	push   %ebp
  10508d:	89 e5                	mov    %esp,%ebp
  10508f:	83 ec 18             	sub    $0x18,%esp
  105092:	c7 45 fc 00 00 00 00 	movl   $0x0,-0x4(%ebp)
  105099:	eb 17                	jmp    1050b2 <_Z16video_page_resetv+0x26>
  10509b:	c7 44 24 04 20 00 00 	movl   $0x20,0x4(%esp)
  1050a2:	00 
  1050a3:	8b 45 fc             	mov    -0x4(%ebp),%eax
  1050a6:	89 04 24             	mov    %eax,(%esp)
  1050a9:	e8 48 ff ff ff       	call   104ff6 <_Z18video_page_putcharic>
  1050ae:	83 45 fc 01          	addl   $0x1,-0x4(%ebp)
  1050b2:	81 7d fc cf 07 00 00 	cmpl   $0x7cf,-0x4(%ebp)
  1050b9:	7e e0                	jle    10509b <_Z16video_page_resetv+0xf>
  1050bb:	c9                   	leave  
  1050bc:	c3                   	ret    

001050bd <_Z18video_page_clr_stri>:
  1050bd:	55                   	push   %ebp
  1050be:	89 e5                	mov    %esp,%ebp
  1050c0:	83 ec 18             	sub    $0x18,%esp
  1050c3:	8b 55 08             	mov    0x8(%ebp),%edx
  1050c6:	89 d0                	mov    %edx,%eax
  1050c8:	c1 e0 02             	shl    $0x2,%eax
  1050cb:	01 d0                	add    %edx,%eax
  1050cd:	c1 e0 04             	shl    $0x4,%eax
  1050d0:	89 45 fc             	mov    %eax,-0x4(%ebp)
  1050d3:	eb 17                	jmp    1050ec <_Z18video_page_clr_stri+0x2f>
  1050d5:	c7 44 24 04 20 00 00 	movl   $0x20,0x4(%esp)
  1050dc:	00 
  1050dd:	8b 45 fc             	mov    -0x4(%ebp),%eax
  1050e0:	89 04 24             	mov    %eax,(%esp)
  1050e3:	e8 0e ff ff ff       	call   104ff6 <_Z18video_page_putcharic>
  1050e8:	83 45 fc 01          	addl   $0x1,-0x4(%ebp)
  1050ec:	8b 45 08             	mov    0x8(%ebp),%eax
  1050ef:	8d 50 01             	lea    0x1(%eax),%edx
  1050f2:	89 d0                	mov    %edx,%eax
  1050f4:	c1 e0 02             	shl    $0x2,%eax
  1050f7:	01 d0                	add    %edx,%eax
  1050f9:	c1 e0 04             	shl    $0x4,%eax
  1050fc:	3b 45 fc             	cmp    -0x4(%ebp),%eax
  1050ff:	7f d4                	jg     1050d5 <_Z18video_page_clr_stri+0x18>
  105101:	c9                   	leave  
  105102:	c3                   	ret    

00105103 <_Z19video_page_copy_strii>:
  105103:	55                   	push   %ebp
  105104:	89 e5                	mov    %esp,%ebp
  105106:	53                   	push   %ebx
  105107:	83 ec 10             	sub    $0x10,%esp
  10510a:	c7 45 f8 00 00 00 00 	movl   $0x0,-0x8(%ebp)
  105111:	eb 41                	jmp    105154 <_Z19video_page_copy_strii+0x51>
  105113:	8b 0d ec 85 10 00    	mov    0x1085ec,%ecx
  105119:	8b 55 0c             	mov    0xc(%ebp),%edx
  10511c:	89 d0                	mov    %edx,%eax
  10511e:	c1 e0 02             	shl    $0x2,%eax
  105121:	01 d0                	add    %edx,%eax
  105123:	c1 e0 05             	shl    $0x5,%eax
  105126:	89 c2                	mov    %eax,%edx
  105128:	8b 45 f8             	mov    -0x8(%ebp),%eax
  10512b:	01 d0                	add    %edx,%eax
  10512d:	01 c1                	add    %eax,%ecx
  10512f:	8b 1d ec 85 10 00    	mov    0x1085ec,%ebx
  105135:	8b 55 08             	mov    0x8(%ebp),%edx
  105138:	89 d0                	mov    %edx,%eax
  10513a:	c1 e0 02             	shl    $0x2,%eax
  10513d:	01 d0                	add    %edx,%eax
  10513f:	c1 e0 05             	shl    $0x5,%eax
  105142:	89 c2                	mov    %eax,%edx
  105144:	8b 45 f8             	mov    -0x8(%ebp),%eax
  105147:	01 d0                	add    %edx,%eax
  105149:	01 d8                	add    %ebx,%eax
  10514b:	0f b6 00             	movzbl (%eax),%eax
  10514e:	88 01                	mov    %al,(%ecx)
  105150:	83 45 f8 01          	addl   $0x1,-0x8(%ebp)
  105154:	81 7d f8 9f 00 00 00 	cmpl   $0x9f,-0x8(%ebp)
  10515b:	7e b6                	jle    105113 <_Z19video_page_copy_strii+0x10>
  10515d:	83 c4 10             	add    $0x10,%esp
  105160:	5b                   	pop    %ebx
  105161:	5d                   	pop    %ebp
  105162:	c3                   	ret    

00105163 <_Z19video_page_drop_strv>:
  105163:	55                   	push   %ebp
  105164:	89 e5                	mov    %esp,%ebp
  105166:	83 ec 18             	sub    $0x18,%esp
  105169:	c7 45 fc 01 00 00 00 	movl   $0x1,-0x4(%ebp)
  105170:	eb 19                	jmp    10518b <_Z19video_page_drop_strv+0x28>
  105172:	8b 45 fc             	mov    -0x4(%ebp),%eax
  105175:	83 e8 01             	sub    $0x1,%eax
  105178:	89 44 24 04          	mov    %eax,0x4(%esp)
  10517c:	8b 45 fc             	mov    -0x4(%ebp),%eax
  10517f:	89 04 24             	mov    %eax,(%esp)
  105182:	e8 7c ff ff ff       	call   105103 <_Z19video_page_copy_strii>
  105187:	83 45 fc 01          	addl   $0x1,-0x4(%ebp)
  10518b:	83 7d fc 18          	cmpl   $0x18,-0x4(%ebp)
  10518f:	7e e1                	jle    105172 <_Z19video_page_drop_strv+0xf>
  105191:	c7 04 24 18 00 00 00 	movl   $0x18,(%esp)
  105198:	e8 20 ff ff ff       	call   1050bd <_Z18video_page_clr_stri>
  10519d:	c9                   	leave  
  10519e:	c3                   	ret    

0010519f <_Z16proc_length_initv>:
  10519f:	55                   	push   %ebp
  1051a0:	89 e5                	mov    %esp,%ebp
  1051a2:	5d                   	pop    %ebp
  1051a3:	c3                   	ret    

001051a4 <_ZL4outbth>:
  1051a4:	55                   	push   %ebp
  1051a5:	89 e5                	mov    %esp,%ebp
  1051a7:	83 ec 08             	sub    $0x8,%esp
  1051aa:	8b 55 08             	mov    0x8(%ebp),%edx
  1051ad:	8b 45 0c             	mov    0xc(%ebp),%eax
  1051b0:	66 89 55 fc          	mov    %dx,-0x4(%ebp)
  1051b4:	88 45 f8             	mov    %al,-0x8(%ebp)
  1051b7:	0f b7 55 fc          	movzwl -0x4(%ebp),%edx
  1051bb:	0f b6 45 f8          	movzbl -0x8(%ebp),%eax
  1051bf:	ee                   	out    %al,(%dx)
  1051c0:	c9                   	leave  
  1051c1:	c3                   	ret    

001051c2 <_ZL3inbt>:
  1051c2:	55                   	push   %ebp
  1051c3:	89 e5                	mov    %esp,%ebp
  1051c5:	83 ec 14             	sub    $0x14,%esp
  1051c8:	8b 45 08             	mov    0x8(%ebp),%eax
  1051cb:	66 89 45 ec          	mov    %ax,-0x14(%ebp)
  1051cf:	0f b7 45 ec          	movzwl -0x14(%ebp),%eax
  1051d3:	89 c2                	mov    %eax,%edx
  1051d5:	ec                   	in     (%dx),%al
  1051d6:	88 45 ff             	mov    %al,-0x1(%ebp)
  1051d9:	0f b6 45 ff          	movzbl -0x1(%ebp),%eax
  1051dd:	c9                   	leave  
  1051de:	c3                   	ret    

001051df <_ZL29platform_abstract_irq_handlerP14interrupt_info>:
  1051df:	55                   	push   %ebp
  1051e0:	89 e5                	mov    %esp,%ebp
  1051e2:	83 ec 08             	sub    $0x8,%esp
  1051e5:	8b 45 08             	mov    0x8(%ebp),%eax
  1051e8:	8b 40 24             	mov    0x24(%eax),%eax
  1051eb:	83 f8 27             	cmp    $0x27,%eax
  1051ee:	76 14                	jbe    105204 <_ZL29platform_abstract_irq_handlerP14interrupt_info+0x25>
  1051f0:	c7 44 24 04 20 00 00 	movl   $0x20,0x4(%esp)
  1051f7:	00 
  1051f8:	c7 04 24 a0 00 00 00 	movl   $0xa0,(%esp)
  1051ff:	e8 a0 ff ff ff       	call   1051a4 <_ZL4outbth>
  105204:	8b 45 08             	mov    0x8(%ebp),%eax
  105207:	8b 40 24             	mov    0x24(%eax),%eax
  10520a:	83 f8 1f             	cmp    $0x1f,%eax
  10520d:	76 14                	jbe    105223 <_ZL29platform_abstract_irq_handlerP14interrupt_info+0x44>
  10520f:	c7 44 24 04 20 00 00 	movl   $0x20,0x4(%esp)
  105216:	00 
  105217:	c7 04 24 20 00 00 00 	movl   $0x20,(%esp)
  10521e:	e8 81 ff ff ff       	call   1051a4 <_ZL4outbth>
  105223:	c9                   	leave  
  105224:	c3                   	ret    

00105225 <isr_handler>:
  105225:	55                   	push   %ebp
  105226:	89 e5                	mov    %esp,%ebp
  105228:	83 ec 48             	sub    $0x48,%esp
  10522b:	8b 45 08             	mov    0x8(%ebp),%eax
  10522e:	89 04 24             	mov    %eax,(%esp)
  105231:	8b 45 0c             	mov    0xc(%ebp),%eax
  105234:	89 44 24 04          	mov    %eax,0x4(%esp)
  105238:	8b 45 10             	mov    0x10(%ebp),%eax
  10523b:	89 44 24 08          	mov    %eax,0x8(%esp)
  10523f:	8b 45 14             	mov    0x14(%ebp),%eax
  105242:	89 44 24 0c          	mov    %eax,0xc(%esp)
  105246:	8b 45 18             	mov    0x18(%ebp),%eax
  105249:	89 44 24 10          	mov    %eax,0x10(%esp)
  10524d:	8b 45 1c             	mov    0x1c(%ebp),%eax
  105250:	89 44 24 14          	mov    %eax,0x14(%esp)
  105254:	8b 45 20             	mov    0x20(%ebp),%eax
  105257:	89 44 24 18          	mov    %eax,0x18(%esp)
  10525b:	8b 45 24             	mov    0x24(%ebp),%eax
  10525e:	89 44 24 1c          	mov    %eax,0x1c(%esp)
  105262:	8b 45 28             	mov    0x28(%ebp),%eax
  105265:	89 44 24 20          	mov    %eax,0x20(%esp)
  105269:	8b 45 2c             	mov    0x2c(%ebp),%eax
  10526c:	89 44 24 24          	mov    %eax,0x24(%esp)
  105270:	8b 45 30             	mov    0x30(%ebp),%eax
  105273:	89 44 24 28          	mov    %eax,0x28(%esp)
  105277:	8b 45 34             	mov    0x34(%ebp),%eax
  10527a:	89 44 24 2c          	mov    %eax,0x2c(%esp)
  10527e:	8b 45 38             	mov    0x38(%ebp),%eax
  105281:	89 44 24 30          	mov    %eax,0x30(%esp)
  105285:	8b 45 3c             	mov    0x3c(%ebp),%eax
  105288:	89 44 24 34          	mov    %eax,0x34(%esp)
  10528c:	8b 45 40             	mov    0x40(%ebp),%eax
  10528f:	89 44 24 38          	mov    %eax,0x38(%esp)
  105293:	8b 45 44             	mov    0x44(%ebp),%eax
  105296:	89 44 24 3c          	mov    %eax,0x3c(%esp)
  10529a:	e8 d3 bd ff ff       	call   101072 <abstract_irq_controller>
  10529f:	c9                   	leave  
  1052a0:	c3                   	ret    

001052a1 <boot>:
  1052a1:	fa                   	cli    
  1052a2:	53                   	push   %ebx
  1052a3:	e8 2c af ff ff       	call   1001d4 <main>
  1052a8:	f4                   	hlt    

001052a9 <loop>:
  1052a9:	eb fe                	jmp    1052a9 <loop>

001052ab <isr0>:
  1052ab:	fa                   	cli    
  1052ac:	6a 00                	push   $0x0
  1052ae:	6a 00                	push   $0x0
  1052b0:	e9 91 01 00 00       	jmp    105446 <isr_common_stub>

001052b5 <isr1>:
  1052b5:	fa                   	cli    
  1052b6:	6a 00                	push   $0x0
  1052b8:	6a 01                	push   $0x1
  1052ba:	e9 87 01 00 00       	jmp    105446 <isr_common_stub>

001052bf <isr2>:
  1052bf:	fa                   	cli    
  1052c0:	6a 00                	push   $0x0
  1052c2:	6a 02                	push   $0x2
  1052c4:	e9 7d 01 00 00       	jmp    105446 <isr_common_stub>

001052c9 <isr3>:
  1052c9:	fa                   	cli    
  1052ca:	6a 00                	push   $0x0
  1052cc:	6a 03                	push   $0x3
  1052ce:	e9 73 01 00 00       	jmp    105446 <isr_common_stub>

001052d3 <isr4>:
  1052d3:	fa                   	cli    
  1052d4:	6a 00                	push   $0x0
  1052d6:	6a 04                	push   $0x4
  1052d8:	e9 69 01 00 00       	jmp    105446 <isr_common_stub>

001052dd <isr5>:
  1052dd:	fa                   	cli    
  1052de:	6a 00                	push   $0x0
  1052e0:	6a 05                	push   $0x5
  1052e2:	e9 5f 01 00 00       	jmp    105446 <isr_common_stub>

001052e7 <isr6>:
  1052e7:	fa                   	cli    
  1052e8:	6a 00                	push   $0x0
  1052ea:	6a 06                	push   $0x6
  1052ec:	e9 55 01 00 00       	jmp    105446 <isr_common_stub>

001052f1 <isr7>:
  1052f1:	fa                   	cli    
  1052f2:	6a 00                	push   $0x0
  1052f4:	6a 07                	push   $0x7
  1052f6:	e9 4b 01 00 00       	jmp    105446 <isr_common_stub>

001052fb <isr8>:
  1052fb:	fa                   	cli    
  1052fc:	6a 08                	push   $0x8
  1052fe:	e9 43 01 00 00       	jmp    105446 <isr_common_stub>

00105303 <isr9>:
  105303:	fa                   	cli    
  105304:	6a 00                	push   $0x0
  105306:	6a 09                	push   $0x9
  105308:	e9 39 01 00 00       	jmp    105446 <isr_common_stub>

0010530d <isr10>:
  10530d:	fa                   	cli    
  10530e:	6a 0a                	push   $0xa
  105310:	e9 31 01 00 00       	jmp    105446 <isr_common_stub>

00105315 <isr11>:
  105315:	fa                   	cli    
  105316:	6a 0b                	push   $0xb
  105318:	e9 29 01 00 00       	jmp    105446 <isr_common_stub>

0010531d <isr12>:
  10531d:	fa                   	cli    
  10531e:	6a 0c                	push   $0xc
  105320:	e9 21 01 00 00       	jmp    105446 <isr_common_stub>

00105325 <isr13>:
  105325:	fa                   	cli    
  105326:	6a 0d                	push   $0xd
  105328:	e9 19 01 00 00       	jmp    105446 <isr_common_stub>

0010532d <isr14>:
  10532d:	fa                   	cli    
  10532e:	6a 0e                	push   $0xe
  105330:	e9 11 01 00 00       	jmp    105446 <isr_common_stub>

00105335 <isr15>:
  105335:	fa                   	cli    
  105336:	6a 00                	push   $0x0
  105338:	6a 0f                	push   $0xf
  10533a:	e9 07 01 00 00       	jmp    105446 <isr_common_stub>

0010533f <isr16>:
  10533f:	fa                   	cli    
  105340:	6a 00                	push   $0x0
  105342:	6a 10                	push   $0x10
  105344:	e9 fd 00 00 00       	jmp    105446 <isr_common_stub>

00105349 <isr17>:
  105349:	fa                   	cli    
  10534a:	6a 00                	push   $0x0
  10534c:	6a 11                	push   $0x11
  10534e:	e9 f3 00 00 00       	jmp    105446 <isr_common_stub>

00105353 <isr18>:
  105353:	fa                   	cli    
  105354:	6a 00                	push   $0x0
  105356:	6a 12                	push   $0x12
  105358:	e9 e9 00 00 00       	jmp    105446 <isr_common_stub>

0010535d <isr19>:
  10535d:	fa                   	cli    
  10535e:	6a 00                	push   $0x0
  105360:	6a 13                	push   $0x13
  105362:	e9 df 00 00 00       	jmp    105446 <isr_common_stub>

00105367 <isr20>:
  105367:	fa                   	cli    
  105368:	6a 00                	push   $0x0
  10536a:	6a 14                	push   $0x14
  10536c:	e9 d5 00 00 00       	jmp    105446 <isr_common_stub>

00105371 <isr21>:
  105371:	fa                   	cli    
  105372:	6a 00                	push   $0x0
  105374:	6a 15                	push   $0x15
  105376:	e9 cb 00 00 00       	jmp    105446 <isr_common_stub>

0010537b <isr22>:
  10537b:	fa                   	cli    
  10537c:	6a 00                	push   $0x0
  10537e:	6a 16                	push   $0x16
  105380:	e9 c1 00 00 00       	jmp    105446 <isr_common_stub>

00105385 <isr23>:
  105385:	fa                   	cli    
  105386:	6a 00                	push   $0x0
  105388:	6a 17                	push   $0x17
  10538a:	e9 b7 00 00 00       	jmp    105446 <isr_common_stub>

0010538f <isr24>:
  10538f:	fa                   	cli    
  105390:	6a 00                	push   $0x0
  105392:	6a 18                	push   $0x18
  105394:	e9 ad 00 00 00       	jmp    105446 <isr_common_stub>

00105399 <isr25>:
  105399:	fa                   	cli    
  10539a:	6a 00                	push   $0x0
  10539c:	6a 19                	push   $0x19
  10539e:	e9 a3 00 00 00       	jmp    105446 <isr_common_stub>

001053a3 <isr26>:
  1053a3:	fa                   	cli    
  1053a4:	6a 00                	push   $0x0
  1053a6:	6a 1a                	push   $0x1a
  1053a8:	e9 99 00 00 00       	jmp    105446 <isr_common_stub>

001053ad <isr27>:
  1053ad:	fa                   	cli    
  1053ae:	6a 00                	push   $0x0
  1053b0:	6a 1b                	push   $0x1b
  1053b2:	e9 8f 00 00 00       	jmp    105446 <isr_common_stub>

001053b7 <isr28>:
  1053b7:	fa                   	cli    
  1053b8:	6a 00                	push   $0x0
  1053ba:	6a 1c                	push   $0x1c
  1053bc:	e9 85 00 00 00       	jmp    105446 <isr_common_stub>

001053c1 <isr29>:
  1053c1:	fa                   	cli    
  1053c2:	6a 00                	push   $0x0
  1053c4:	6a 1d                	push   $0x1d
  1053c6:	eb 7e                	jmp    105446 <isr_common_stub>

001053c8 <isr30>:
  1053c8:	fa                   	cli    
  1053c9:	6a 00                	push   $0x0
  1053cb:	6a 1e                	push   $0x1e
  1053cd:	eb 77                	jmp    105446 <isr_common_stub>

001053cf <isr31>:
  1053cf:	fa                   	cli    
  1053d0:	6a 00                	push   $0x0
  1053d2:	6a 1f                	push   $0x1f
  1053d4:	eb 70                	jmp    105446 <isr_common_stub>

001053d6 <isr32>:
  1053d6:	fa                   	cli    
  1053d7:	6a 00                	push   $0x0
  1053d9:	6a 20                	push   $0x20
  1053db:	eb 69                	jmp    105446 <isr_common_stub>

001053dd <isr33>:
  1053dd:	fa                   	cli    
  1053de:	6a 00                	push   $0x0
  1053e0:	6a 21                	push   $0x21
  1053e2:	eb 62                	jmp    105446 <isr_common_stub>

001053e4 <isr34>:
  1053e4:	fa                   	cli    
  1053e5:	6a 00                	push   $0x0
  1053e7:	6a 22                	push   $0x22
  1053e9:	eb 5b                	jmp    105446 <isr_common_stub>

001053eb <isr35>:
  1053eb:	fa                   	cli    
  1053ec:	6a 00                	push   $0x0
  1053ee:	6a 23                	push   $0x23
  1053f0:	eb 54                	jmp    105446 <isr_common_stub>

001053f2 <isr36>:
  1053f2:	fa                   	cli    
  1053f3:	6a 00                	push   $0x0
  1053f5:	6a 24                	push   $0x24
  1053f7:	eb 4d                	jmp    105446 <isr_common_stub>

001053f9 <isr37>:
  1053f9:	fa                   	cli    
  1053fa:	6a 00                	push   $0x0
  1053fc:	6a 25                	push   $0x25
  1053fe:	eb 46                	jmp    105446 <isr_common_stub>

00105400 <isr38>:
  105400:	fa                   	cli    
  105401:	6a 00                	push   $0x0
  105403:	6a 26                	push   $0x26
  105405:	eb 3f                	jmp    105446 <isr_common_stub>

00105407 <isr39>:
  105407:	fa                   	cli    
  105408:	6a 00                	push   $0x0
  10540a:	6a 27                	push   $0x27
  10540c:	eb 38                	jmp    105446 <isr_common_stub>

0010540e <isr40>:
  10540e:	fa                   	cli    
  10540f:	6a 00                	push   $0x0
  105411:	6a 28                	push   $0x28
  105413:	eb 31                	jmp    105446 <isr_common_stub>

00105415 <isr41>:
  105415:	fa                   	cli    
  105416:	6a 00                	push   $0x0
  105418:	6a 29                	push   $0x29
  10541a:	eb 2a                	jmp    105446 <isr_common_stub>

0010541c <isr42>:
  10541c:	fa                   	cli    
  10541d:	6a 00                	push   $0x0
  10541f:	6a 2a                	push   $0x2a
  105421:	eb 23                	jmp    105446 <isr_common_stub>

00105423 <isr43>:
  105423:	fa                   	cli    
  105424:	6a 00                	push   $0x0
  105426:	6a 2b                	push   $0x2b
  105428:	eb 1c                	jmp    105446 <isr_common_stub>

0010542a <isr44>:
  10542a:	fa                   	cli    
  10542b:	6a 00                	push   $0x0
  10542d:	6a 2c                	push   $0x2c
  10542f:	eb 15                	jmp    105446 <isr_common_stub>

00105431 <isr45>:
  105431:	fa                   	cli    
  105432:	6a 00                	push   $0x0
  105434:	6a 2d                	push   $0x2d
  105436:	eb 0e                	jmp    105446 <isr_common_stub>

00105438 <isr46>:
  105438:	fa                   	cli    
  105439:	6a 00                	push   $0x0
  10543b:	6a 2e                	push   $0x2e
  10543d:	eb 07                	jmp    105446 <isr_common_stub>

0010543f <isr47>:
  10543f:	fa                   	cli    
  105440:	6a 00                	push   $0x0
  105442:	6a 2f                	push   $0x2f
  105444:	eb 00                	jmp    105446 <isr_common_stub>

00105446 <isr_common_stub>:
  105446:	60                   	pusha  
  105447:	66 8c d8             	mov    %ds,%ax
  10544a:	50                   	push   %eax
  10544b:	66 b8 10 00          	mov    $0x10,%ax
  10544f:	8e d8                	mov    %eax,%ds
  105451:	8e c0                	mov    %eax,%es
  105453:	8e e0                	mov    %eax,%fs
  105455:	8e e8                	mov    %eax,%gs
  105457:	e8 16 bc ff ff       	call   101072 <abstract_irq_controller>
  10545c:	58                   	pop    %eax
  10545d:	8e d8                	mov    %eax,%ds
  10545f:	8e c0                	mov    %eax,%es
  105461:	8e e0                	mov    %eax,%fs
  105463:	8e e8                	mov    %eax,%gs
  105465:	61                   	popa   
  105466:	83 c4 08             	add    $0x8,%esp
  105469:	fb                   	sti    
  10546a:	cf                   	iret   
  10546b:	66 90                	xchg   %ax,%ax
  10546d:	66 90                	xchg   %ax,%ax
  10546f:	90                   	nop

00105470 <__libc_csu_init>:
  105470:	55                   	push   %ebp
  105471:	57                   	push   %edi
  105472:	31 ff                	xor    %edi,%edi
  105474:	56                   	push   %esi
  105475:	53                   	push   %ebx
  105476:	e8 b5 ab ff ff       	call   100030 <__x86.get_pc_thunk.bx>
  10547b:	81 c3 79 31 00 00    	add    $0x3179,%ebx
  105481:	83 ec 1c             	sub    $0x1c,%esp
  105484:	8b 6c 24 30          	mov    0x30(%esp),%ebp
  105488:	8d b3 28 d9 ff ff    	lea    -0x26d8(%ebx),%esi
  10548e:	e8 5d 0a 00 00       	call   105ef0 <_init>
  105493:	8d 83 20 d9 ff ff    	lea    -0x26e0(%ebx),%eax
  105499:	29 c6                	sub    %eax,%esi
  10549b:	c1 fe 02             	sar    $0x2,%esi
  10549e:	85 f6                	test   %esi,%esi
  1054a0:	74 27                	je     1054c9 <__libc_csu_init+0x59>
  1054a2:	8d b6 00 00 00 00    	lea    0x0(%esi),%esi
  1054a8:	8b 44 24 38          	mov    0x38(%esp),%eax
  1054ac:	89 2c 24             	mov    %ebp,(%esp)
  1054af:	89 44 24 08          	mov    %eax,0x8(%esp)
  1054b3:	8b 44 24 34          	mov    0x34(%esp),%eax
  1054b7:	89 44 24 04          	mov    %eax,0x4(%esp)
  1054bb:	ff 94 bb 20 d9 ff ff 	call   *-0x26e0(%ebx,%edi,4)
  1054c2:	83 c7 01             	add    $0x1,%edi
  1054c5:	39 f7                	cmp    %esi,%edi
  1054c7:	75 df                	jne    1054a8 <__libc_csu_init+0x38>
  1054c9:	83 c4 1c             	add    $0x1c,%esp
  1054cc:	5b                   	pop    %ebx
  1054cd:	5e                   	pop    %esi
  1054ce:	5f                   	pop    %edi
  1054cf:	5d                   	pop    %ebp
  1054d0:	c3                   	ret    
  1054d1:	eb 0d                	jmp    1054e0 <__libc_csu_fini>
  1054d3:	90                   	nop
  1054d4:	90                   	nop
  1054d5:	90                   	nop
  1054d6:	90                   	nop
  1054d7:	90                   	nop
  1054d8:	90                   	nop
  1054d9:	90                   	nop
  1054da:	90                   	nop
  1054db:	90                   	nop
  1054dc:	90                   	nop
  1054dd:	90                   	nop
  1054de:	90                   	nop
  1054df:	90                   	nop

001054e0 <__libc_csu_fini>:
  1054e0:	f3 c3                	repz ret 

001054e2 <_fp_hw>:
  1054e2:	03 00 00 00 66 90                                   ....f.

001054e8 <_IO_stdin_used>:
  1054e8:	01 00 02 00 48 65 6c 6c 6f 57 6f 72 6c 64 00 90     ....HelloWorld..
  1054f8:	fe 03 10 00 04 04 10 00 0a 04 10 00 10 04 10 00     ................
  105508:	16 04 10 00 1c 04 10 00 22 04 10 00 28 04 10 00     ........"...(...
  105518:	2e 04 10 00 34 04 10 00 3a 04 10 00 40 04 10 00     ....4...:...@...
  105528:	46 04 10 00 4c 04 10 00 52 04 10 00 58 04 10 00     F...L...R...X...
  105538:	3a 20 00 7c 00 0a 00 20 00 3e 3e 53 59 53 54 45     : .|... .>>SYSTE
  105548:	4d 20 45 52 52 4f 52 3a 00 0d 0a 00 66 90 66 90     M ERROR:....f.f.
  105558:	6e 61 6e 00 69 6e 66 00 6f 76 66 00 2e 00 00 00     nan.inf.ovf.....
  105568:	00 00 00 e0 ff ff ef 41 00 00 00 e0 ff ff ef c1     .......A........
  105578:	00 00 00 00 00 00 e0 3f 00 00 00 00 00 00 24 40     .......?......$@

00105588 <_ZTV5Print>:
  105588:	00 00 00 00 98 55 10 00 80 5f 10 00 e0 07 10 00     .....U..._......

00105598 <_ZTI5Print>:
  105598:	c8 9e 10 00 a0 55 10 00                             .....U..

001055a0 <_ZTS5Print>:
  1055a0:	35 50 72 69 6e 74 00 90 3e 3e 41 49 43 5f 55 4e     5Print..>>AIC_UN
  1055b0:	44 45 46 49 4e 45 44 5f 49 52 51 3a 20 69 72 71     DEFINED_IRQ: irq
  1055c0:	5f 6e 75 6d 3a 00 0d 0a 00 00 00 00 61 62 73 74     _num:.......abst
  1055d0:	72 61 63 74 5f 69 72 71 5f 63 6f 6e 74 72 6f 6c     ract_irq_control
  1055e0:	6c 65 72 5f 53 74 75 62 49 52 51 00 61 69 63 20     ler_StubIRQ.aic 
  1055f0:	68 61 73 20 62 65 65 6e 20 63 61 6c 6c 65 64 2c     has been called,
  105600:	20 62 75 74 20 6e 6f 74 20 69 6e 69 74 00 66 90      but not init.f.
  105610:	63 61 6c 6c 20 63 6f 6e 73 74 72 3a 00 0d 0a 00     call constr:....
  105620:	3e 3e 43 41 4c 4c 20 47 4c 4f 42 41 4c 20 43 4f     >>CALL GLOBAL CO
  105630:	4e 53 54 52 55 43 54 4f 52 53 0d 0a 00 63 6f 6e     NSTRUCTORS...con
  105640:	73 74 72 20 63 61 6c 6c 3a 0d 0a 00 63 6f 6e 73     str call:...cons
  105650:	74 72 20 63 61 6c 6c 20 4f 4b 0d 0a 00 00 00 00     tr call OK......
  105660:	67 6c 6f 62 61 6c 20 63 6f 6e 73 74 72 75 63 74     global construct
  105670:	6f 72 73 20 73 75 63 63 65 73 66 75 61 6c 79 20     ors succesfualy 
  105680:	63 61 6c 6c 65 64 2e 2e 2e 0d 0a 00 3e 3e 42 53     called......>>BS
  105690:	53 5f 43 4c 45 41 4e 2e 2e 2e 20 20 20 00 4f 4b     S_CLEAN...   .OK
  1056a0:	0d 0a 00 3e 3e 42 53 53 5f 54 45 53 54 3a 0d 0a     ...>>BSS_TEST:..
  1056b0:	00 62 73 73 5f 6c 65 6e 67 74 68 3a 00 00 00 00     .bss_length:....
  1056c0:	73 63 61 6e 20 62 73 73 5f 73 65 63 74 69 6f 6e     scan bss_section
  1056d0:	20 28 61 6c 6c 20 6e 6f 6e 4e 75 6c 6c 20 62 79      (all nonNull by
  1056e0:	74 65 73 20 68 61 73 20 62 65 65 6e 20 70 72 69     tes has been pri
  1056f0:	6e 74 65 64 29 20 2e 2e 2e 2e 2e 2e 2e 0d 0a 00     nted) ..........
  105700:	3a 00 00 00 2a 2a 2a 2a 2a 2a 2a 2a 2a 2a 2a 2a     :...************
  105710:	2a 2a 2a 2a 2a 2a 2a 2a 2a 2a 2a 2a 2a 20 65 6e     ************* en
  105720:	64 20 73 63 61 6e 0d 0a 74 6f 74 61 6c 20 73 63     d scan..total sc
  105730:	61 6e 65 64 3a 00 0d 0a 74 6f 74 61 6c 20 6e 6f     aned:...total no
  105740:	6e 4e 75 6c 6c 3a 00 62 73 73 5f 74 65 73 74 5f     nNull:.bss_test_
  105750:	65 6e 64 0d 0a 00 00 00 3e 3e 53 45 43 54 49 4f     end.....>>SECTIO
  105760:	4e 53 20 41 4e 44 20 43 4f 4e 53 54 52 55 43 54     NS AND CONSTRUCT
  105770:	4f 52 53 20 49 4e 46 4f 3a 0d 0a 00 5f 74 65 78     ORS INFO:..._tex
  105780:	74 5f 62 65 67 69 6e 20 3a 00 5f 74 65 78 74 5f     t_begin :._text_
  105790:	65 6e 64 20 20 20 3a 00 5f 64 61 74 61 5f 62 65     end   :._data_be
  1057a0:	67 69 6e 20 3a 00 5f 64 61 74 61 5f 65 6e 64 20     gin :._data_end 
  1057b0:	20 20 3a 00 5f 62 73 73 5f 62 65 67 69 6e 20 20       :._bss_begin  
  1057c0:	3a 00 5f 62 73 73 5f 65 6e 64 20 20 20 20 3a 00     :._bss_end    :.
  1057d0:	43 6f 6e 73 74 72 75 63 74 6f 72 20 69 6e 66 6f     Constructor info
  1057e0:	3a 0d 0a 00 5f 5f 70 72 65 69 6e 69 74 5f 61 72     :...__preinit_ar
  1057f0:	72 61 79 5f 73 74 61 72 74 3a 00 5f 5f 70 72 65     ray_start:.__pre
  105800:	69 6e 69 74 5f 61 72 72 61 79 5f 65 6e 64 20 20     init_array_end  
  105810:	3a 00 5f 5f 69 6e 69 74 5f 61 72 72 61 79 5f 73     :.__init_array_s
  105820:	74 61 72 74 20 20 20 3a 00 5f 5f 69 6e 69 74 5f     tart   :.__init_
  105830:	61 72 72 61 79 5f 65 6e 64 20 20 20 20 20 3a 00     array_end     :.
  105840:	5f 63 74 6f 72 5f 73 74 61 72 74 20 20 20 20 20     _ctor_start     
  105850:	20 20 20 20 20 3a 00 5f 63 74 6f 72 5f 65 6e 64          :._ctor_end
  105860:	20 20 20 20 20 20 20 20 20 20 20 20 3a 00 66 90                 :.f.
  105870:	66 90 66 90 66 90 66 90 66 90 66 90 66 90 66 90     f.f.f.f.f.f.f.f.

00105880 <_ZTV8DBStream>:
  105880:	00 00 00 00 c0 58 10 00 5a 1c 10 00 e0 07 10 00     .....X..Z.......
  105890:	3a 1d 10 00 40 1d 10 00 60 1d 10 00 66 1d 10 00     :...@...`...f...

001058a0 <_ZTV6Stream>:
  1058a0:	00 00 00 00 e0 58 10 00 80 5f 10 00 e0 07 10 00     .....X..._......
  1058b0:	80 5f 10 00 80 5f 10 00 80 5f 10 00 80 5f 10 00     ._..._..._..._..

001058c0 <_ZTI8DBStream>:
  1058c0:	08 9f 10 00 cc 58 10 00 e0 58 10 00                 .....X...X..

001058cc <_ZTS8DBStream>:
  1058cc:	38 44 42 53 74 72 65 61 6d 00                       8DBStream.

001058d6 <_ZTS6Stream>:
  1058d6:	36 53 74 72 65 61 6d 00 66 90                       6Stream.f.

001058e0 <_ZTI6Stream>:
  1058e0:	08 9f 10 00 d6 58 10 00 98 55 10 00 66 90 66 90     .....X...U..f.f.

001058f0 <_ZTV6ring_t>:
  1058f0:	00 00 00 00 08 59 10 00 7a 1f 10 00 0a 1f 10 00     .....Y..z.......
  105900:	f2 1f 10 00 1e 20 10 00                             ..... ..

00105908 <_ZTI6ring_t>:
  105908:	08 9f 10 00 14 59 10 00 28 59 10 00                 .....Y..(Y..

00105914 <_ZTS6ring_t>:
  105914:	36 72 69 6e 67 5f 74 00                             6ring_t.

0010591c <_ZTS7Queue_p>:
  10591c:	37 51 75 65 75 65 5f 70 00 66 90 90                 7Queue_p.f..

00105928 <_ZTI7Queue_p>:
  105928:	c8 9e 10 00 1c 59 10 00                             .....Y..

00105930 <_ZTV11dynamicring>:
  105930:	00 00 00 00 48 59 10 00 b2 22 10 00 1c 23 10 00     ....HY..."...#..
  105940:	ac 22 10 00 a6 22 10 00                             ."..."..

00105948 <_ZTI11dynamicring>:
  105948:	08 9f 10 00 54 59 10 00 28 59 10 00                 ....TY..(Y..

00105954 <_ZTS11dynamicring>:
  105954:	31 31 64 79 6e 61 6d 69 63 72 69 6e 67 00 66 90     11dynamicring.f.
  105964:	66 90 66 90                                         f.f.

00105968 <_ZTV12staticring_t>:
  105968:	00 00 00 00 80 59 10 00 bc 24 10 00 4e 24 10 00     .....Y...$..N$..
  105978:	30 25 10 00 5c 25 10 00                             0%..\%..

00105980 <_ZTI12staticring_t>:
  105980:	08 9f 10 00 8c 59 10 00 28 59 10 00                 .....Y..(Y..

0010598c <_ZTS12staticring_t>:
  10598c:	31 32 73 74 61 74 69 63 72 69 6e 67 5f 74 00 66     12staticring_t.f
  10599c:	90 66 90 90                                         .f..

001059a0 <_ZTV7Queue_p>:
  1059a0:	00 00 00 00 28 59 10 00 80 5f 10 00 80 5f 10 00     ....(Y..._..._..
  1059b0:	80 5f 10 00 80 5f 10 00 1b 5b 44 20 1b 5b 44 00     ._..._...[D .[D.
  1059c0:	20 1b 5b 44 00 6d 61 63 68 69 6e 65 00 3a 00 1b      .[D.machine.:..
  1059d0:	5b 4b 00 00 be 2d 10 00 0b 2e 10 00 0b 2e 10 00     [K...-..........
  1059e0:	0b 2e 10 00 be 2d 10 00 0b 2e 10 00 0b 2e 10 00     .....-..........
  1059f0:	be 2d 10 00 66 2d 10 00 be 2d 10 00 34 2d 10 00     .-..f-...-..4-..
  105a00:	0b 2e 10 00 be 2d 10 00 0b 2e 10 00 0b 2e 10 00     .....-..........
  105a10:	be 2d 10 00 0b 2e 10 00 be 2d 10 00 be 2d 10 00     .-.......-...-..
  105a20:	be 2d 10 00 be 2d 10 00 0b 2e 10 00 be 2d 10 00     .-...-.......-..
  105a30:	be 2d 10 00 be 2d 10 00 be 2d 10 00 be 2d 10 00     .-...-...-...-..
  105a40:	57 2d 10 00 be 2d 10 00 be 2d 10 00 be 2d 10 00     W-...-...-...-..
  105a50:	be 2d 10 00 be 2d 10 00 be 2d 10 00 be 2d 10 00     .-...-...-...-..
  105a60:	be 2d 10 00 be 2d 10 00 be 2d 10 00 be 2d 10 00     .-...-...-...-..
  105a70:	be 2d 10 00 be 2d 10 00 be 2d 10 00 be 2d 10 00     .-...-...-...-..
  105a80:	be 2d 10 00 be 2d 10 00 be 2d 10 00 be 2d 10 00     .-...-...-...-..
  105a90:	be 2d 10 00 be 2d 10 00 be 2d 10 00 be 2d 10 00     .-...-...-...-..
  105aa0:	be 2d 10 00 be 2d 10 00 be 2d 10 00 be 2d 10 00     .-...-...-...-..
  105ab0:	be 2d 10 00 be 2d 10 00 be 2d 10 00 be 2d 10 00     .-...-...-...-..
  105ac0:	be 2d 10 00 be 2d 10 00 be 2d 10 00 be 2d 10 00     .-...-...-...-..
  105ad0:	be 2d 10 00 be 2d 10 00 be 2d 10 00 be 2d 10 00     .-...-...-...-..
  105ae0:	be 2d 10 00 be 2d 10 00 be 2d 10 00 be 2d 10 00     .-...-...-...-..
  105af0:	be 2d 10 00 be 2d 10 00 be 2d 10 00 be 2d 10 00     .-...-...-...-..
  105b00:	be 2d 10 00 be 2d 10 00 be 2d 10 00 be 2d 10 00     .-...-...-...-..
  105b10:	be 2d 10 00 be 2d 10 00 be 2d 10 00 be 2d 10 00     .-...-...-...-..
  105b20:	be 2d 10 00 be 2d 10 00 be 2d 10 00 be 2d 10 00     .-...-...-...-..
  105b30:	be 2d 10 00 be 2d 10 00 be 2d 10 00 be 2d 10 00     .-...-...-...-..
  105b40:	be 2d 10 00 be 2d 10 00 be 2d 10 00 be 2d 10 00     .-...-...-...-..
  105b50:	be 2d 10 00 be 2d 10 00 be 2d 10 00 be 2d 10 00     .-...-...-...-..
  105b60:	be 2d 10 00 be 2d 10 00 be 2d 10 00 be 2d 10 00     .-...-...-...-..
  105b70:	be 2d 10 00 be 2d 10 00 be 2d 10 00 be 2d 10 00     .-...-...-...-..
  105b80:	be 2d 10 00 be 2d 10 00 be 2d 10 00 be 2d 10 00     .-...-...-...-..
  105b90:	be 2d 10 00 be 2d 10 00 be 2d 10 00 be 2d 10 00     .-...-...-...-..
  105ba0:	be 2d 10 00 be 2d 10 00 be 2d 10 00 be 2d 10 00     .-...-...-...-..
  105bb0:	be 2d 10 00 be 2d 10 00 be 2d 10 00 be 2d 10 00     .-...-...-...-..
  105bc0:	be 2d 10 00 be 2d 10 00 be 2d 10 00 be 2d 10 00     .-...-...-...-..
  105bd0:	66 2d 10 00 1b 5b 00 43 00 44 00 90 43 6f 6d 6d     f-...[.C.D..Comm
  105be0:	61 6e 64 20 22 00 00 00 22 20 6e 6f 74 20 66 6f     and "..." not fo
  105bf0:	75 6e 64 2e 20 55 73 65 20 22 6c 69 73 74 22 20     und. Use "list" 
  105c00:	69 6e 73 74 72 75 63 74 69 6f 6e 2e 00 47 65 6e     instruction..Gen
  105c10:	4f 53 00 30 2e 31 00 61 62 6f 75 74 00 70 74 65     OS.0.1.about.pte
  105c20:	73 74 00 6c 69 73 74 00 6d 65 6d 6c 69 73 74 00     st.list.memlist.

00105c30 <_ZTV12Object_cache>:
  105c30:	00 00 00 00 5c 5c 10 00 e0 39 10 00 02 3a 10 00     ....\\...9...:..
  105c40:	90 3a 10 00 66 90 66 90                             .:..f.f.

00105c48 <_ZTV11Allocator_p>:
  105c48:	00 00 00 00 88 5c 10 00 80 5f 10 00 80 5f 10 00     .....\..._..._..
  105c58:	80 5f 10 00                                         ._..

00105c5c <_ZTI12Object_cache>:
  105c5c:	08 9f 10 00 68 5c 10 00 88 5c 10 00                 ....h\...\..

00105c68 <_ZTS12Object_cache>:
  105c68:	31 32 4f 62 6a 65 63 74 5f 63 61 63 68 65 00        12Object_cache.

00105c77 <_ZTS11Allocator_p>:
  105c77:	31 31 41 6c 6c 6f 63 61 74 6f 72 5f 70 00 66 90     11Allocator_p.f.
  105c87:	90                                                  .

00105c88 <_ZTI11Allocator_p>:
  105c88:	c8 9e 10 00 77 5c 10 00 3e 3e 50 4c 41 54 46 4f     ....w\..>>PLATFO
  105c98:	52 4d 5f 49 4e 49 54 0d 0a 00 50 4c 41 54 46 4f     RM_INIT...PLATFO
  105ca8:	52 4d 3a 00 50 43 5f 6d 75 6c 74 69 62 6f 6f 74     RM:.PC_multiboot
  105cb8:	00 0d 0a 00 43 50 55 3a 00 69 33 38 36 00 66 90     ....CPU:.i386.f.
  105cc8:	53 74 75 62 49 52 51 00 47 6c 6f 62 61 6c 20 44     StubIRQ.Global D
  105cd8:	65 73 63 72 69 70 74 6f 72 73 20 54 61 62 6c 65     escriptors Table
  105ce8:	20 47 44 54 3a 0a 00 0d 0a 00 00 00 47 6c 6f 62      GDT:.......Glob
  105cf8:	61 6c 20 44 65 73 63 72 69 70 74 6f 72 73 20 54     al Descriptors T
  105d08:	61 62 6c 65 20 49 44 54 20 28 62 65 67 69 6e 29     able IDT (begin)
  105d18:	3a 0a 00 66 90 66 90 90 90 4a 10 00 99 4a 10 00     :..f.f...J...J..
  105d28:	7e 4a 10 00 87 4a 10 00 a2 4a 10 00 ab 4a 10 00     ~J...J...J...J..
	...

00105d40 <_ZL18s_scanTableNoShift>:
  105d40:	00 01 1b 00 31 00 32 00 33 00 34 00 35 00 36 00     ....1.2.3.4.5.6.
  105d50:	37 00 38 00 39 00 30 00 2d 00 3d 00 08 00 09 00     7.8.9.0.-.=.....
  105d60:	71 00 77 00 65 00 72 00 74 00 79 00 75 00 69 00     q.w.e.r.t.y.u.i.
  105d70:	6f 00 70 00 5b 00 5d 00 0a 00 0d 01 61 00 73 00     o.p.[.].....a.s.
  105d80:	64 00 66 00 67 00 68 00 6a 00 6b 00 6c 00 3b 00     d.f.g.h.j.k.l.;.
  105d90:	27 00 60 00 0f 01 5c 00 7a 00 78 00 63 00 76 00     '.`...\.z.x.c.v.
  105da0:	62 00 6e 00 6d 00 2c 00 2e 00 2f 00 10 01 13 01     b.n.m.,.../.....
  105db0:	11 01 20 00 14 01 01 01 02 01 03 01 04 01 05 01     .. .............
  105dc0:	06 01 07 01 08 01 09 01 0a 01 15 01 16 01 80 03     ................
  105dd0:	81 03 82 03 83 03 84 03 85 03 86 03 87 03 88 03     ................
  105de0:	89 03 8a 03 8b 03 8c 03 17 01 00 01 00 01 00 01     ................
	...

00105e00 <_ZL20s_scanTableWithShift>:
  105e00:	00 01 1b 00 21 00 40 00 23 00 24 00 25 00 5e 00     ....!.@.#.$.%.^.
  105e10:	26 00 2a 00 28 00 29 00 5f 00 2b 00 08 00 09 00     &.*.(.)._.+.....
  105e20:	51 00 57 00 45 00 52 00 54 00 59 00 55 00 49 00     Q.W.E.R.T.Y.U.I.
  105e30:	4f 00 50 00 7b 00 7d 00 0a 00 0d 01 41 00 53 00     O.P.{.}.....A.S.
  105e40:	44 00 46 00 47 00 48 00 4a 00 4b 00 4c 00 3a 00     D.F.G.H.J.K.L.:.
  105e50:	22 00 7e 00 0f 01 7c 00 5a 00 58 00 43 00 56 00     ".~...|.Z.X.C.V.
  105e60:	42 00 4e 00 4d 00 3c 00 3e 00 3f 00 10 01 13 01     B.N.M.<.>.?.....
  105e70:	11 01 20 00 14 01 01 01 02 01 03 01 04 01 05 01     .. .............
  105e80:	06 01 07 01 08 01 09 01 0a 01 15 01 16 01 80 03     ................
  105e90:	81 03 82 03 83 03 84 03 85 03 86 03 87 03 88 03     ................
  105ea0:	89 03 8a 03 8b 03 8c 03 17 01 00 01 00 01 00 01     ................
  105eb0:	62 75 73 3d 00 20 64 65 76 3d 00 20 66 75 6e 63     bus=. dev=. func
  105ec0:	3d 00 20 76 65 6e 64 49 44 3d 00 20 64 65 76 49     =. vendID=. devI
  105ed0:	44 3d 00 20 63 6c 61 73 73 5f 6e 61 6d 65 3d 00     D=. class_name=.
  105ee0:	0a 3e 3e 3e 20 6b 6d 61 69 6e 21 0a 00 66 90 90     .>>> kmain!..f..

00105ef0 <_init>:
  105ef0:	53                   	push   %ebx
  105ef1:	83 ec 08             	sub    $0x8,%esp
  105ef4:	e8 37 a1 ff ff       	call   100030 <__x86.get_pc_thunk.bx>
  105ef9:	81 c3 fb 26 00 00    	add    $0x26fb,%ebx
  105eff:	8b 83 fc ff ff ff    	mov    -0x4(%ebx),%eax
  105f05:	85 c0                	test   %eax,%eax
  105f07:	74 05                	je     105f0e <_init+0x1e>
  105f09:	e8 42 00 00 00       	call   105f50 <__fini_array_end+0x1c>
  105f0e:	83 c4 08             	add    $0x8,%esp
  105f11:	5b                   	pop    %ebx
  105f12:	c3                   	ret    
  105f13:	90                   	nop

00105f14 <__init_array_start>:
  105f14:	d0 00                	rolb   (%eax)
  105f16:	10 00                	adc    %al,(%eax)
  105f18:	10 03                	adc    %al,(%ebx)
  105f1a:	10 00                	adc    %al,(%eax)

00105f1c <_fini>:
  105f1c:	53                   	push   %ebx
  105f1d:	83 ec 08             	sub    $0x8,%esp
  105f20:	e8 0b a1 ff ff       	call   100030 <__x86.get_pc_thunk.bx>
  105f25:	81 c3 cf 26 00 00    	add    $0x26cf,%ebx
  105f2b:	83 c4 08             	add    $0x8,%esp
  105f2e:	5b                   	pop    %ebx
  105f2f:	c3                   	ret    

00105f30 <__fini_array_start>:
  105f30:	b0 00                	mov    $0x0,%al
  105f32:	10 00                	adc    %al,(%eax)

Дизассемблирование раздела .plt:

00105f40 <.plt>:
  105f40:	ff 35 f8 85 10 00    	pushl  0x1085f8
  105f46:	ff 25 fc 85 10 00    	jmp    *0x1085fc
  105f4c:	00 00                	add    %al,(%eax)
  105f4e:	00 00                	add    %al,(%eax)
  105f50:	ff 25 00 86 10 00    	jmp    *0x108600
  105f56:	68 00 00 00 00       	push   $0x0
  105f5b:	e9 e0 ff ff ff       	jmp    105f40 <_text_end+0xc>
  105f60:	ff 25 04 86 10 00    	jmp    *0x108604
  105f66:	68 08 00 00 00       	push   $0x8
  105f6b:	e9 d0 ff ff ff       	jmp    105f40 <_text_end+0xc>
  105f70:	ff 25 08 86 10 00    	jmp    *0x108608
  105f76:	68 10 00 00 00       	push   $0x10
  105f7b:	e9 c0 ff ff ff       	jmp    105f40 <_text_end+0xc>
  105f80:	ff 25 0c 86 10 00    	jmp    *0x10860c
  105f86:	68 18 00 00 00       	push   $0x18
  105f8b:	e9 b0 ff ff ff       	jmp    105f40 <_text_end+0xc>
  105f90:	ff 25 10 86 10 00    	jmp    *0x108610
  105f96:	68 20 00 00 00       	push   $0x20
  105f9b:	e9 a0 ff ff ff       	jmp    105f40 <_text_end+0xc>
  105fa0:	ff 25 14 86 10 00    	jmp    *0x108614
  105fa6:	68 28 00 00 00       	push   $0x28
  105fab:	e9 90 ff ff ff       	jmp    105f40 <_text_end+0xc>
  105fb0:	ff 25 18 86 10 00    	jmp    *0x108618
  105fb6:	68 30 00 00 00       	push   $0x30
  105fbb:	e9 80 ff ff ff       	jmp    105f40 <_text_end+0xc>
  105fc0:	ff 25 1c 86 10 00    	jmp    *0x10861c
  105fc6:	68 38 00 00 00       	push   $0x38
  105fcb:	e9 70 ff ff ff       	jmp    105f40 <_text_end+0xc>
