
kernel:     формат файла elf32-i386


Дизассемблирование раздела .text:

00100000 <_start-0xc>:
  100000:	02 b0 ad 1b 01 00    	add    0x11bad(%eax),%dh
  100006:	00 00                	add    %al,(%eax)
  100008:	fd                   	std    
  100009:	4f                   	dec    %edi
  10000a:	52                   	push   %edx
  10000b:	e4 31                	in     $0x31,%al

0010000c <_start>:
  10000c:	31 ed                	xor    %ebp,%ebp
  10000e:	5e                   	pop    %esi
  10000f:	89 e1                	mov    %esp,%ecx
  100011:	83 e4 f0             	and    $0xfffffff0,%esp
  100014:	50                   	push   %eax
  100015:	54                   	push   %esp
  100016:	52                   	push   %edx
  100017:	68 70 3b 10 00       	push   $0x103b70
  10001c:	68 00 3b 10 00       	push   $0x103b00
  100021:	51                   	push   %ecx
  100022:	56                   	push   %esi
  100023:	68 ca 01 10 00       	push   $0x1001ca
  100028:	e8 23 41 00 00       	call   104150 <__fini_array_end+0x38>
  10002d:	f4                   	hlt    
  10002e:	66 90                	xchg   %ax,%ax

00100030 <__x86.get_pc_thunk.bx>:
  100030:	8b 1c 24             	mov    (%esp),%ebx
  100033:	c3                   	ret    
  100034:	66 90                	xchg   %ax,%ax
  100036:	66 90                	xchg   %ax,%ax
  100038:	66 90                	xchg   %ax,%ax
  10003a:	66 90                	xchg   %ax,%ax
  10003c:	66 90                	xchg   %ax,%ax
  10003e:	66 90                	xchg   %ax,%ax

00100040 <deregister_tm_clones>:
  100040:	b8 a3 5f 10 00       	mov    $0x105fa3,%eax
  100045:	2d a0 5f 10 00       	sub    $0x105fa0,%eax
  10004a:	83 f8 06             	cmp    $0x6,%eax
  10004d:	77 01                	ja     100050 <deregister_tm_clones+0x10>
  10004f:	c3                   	ret    
  100050:	b8 00 00 00 00       	mov    $0x0,%eax
  100055:	85 c0                	test   %eax,%eax
  100057:	74 f6                	je     10004f <deregister_tm_clones+0xf>
  100059:	55                   	push   %ebp
  10005a:	89 e5                	mov    %esp,%ebp
  10005c:	83 ec 18             	sub    $0x18,%esp
  10005f:	c7 04 24 a0 5f 10 00 	movl   $0x105fa0,(%esp)
  100066:	ff d0                	call   *%eax
  100068:	c9                   	leave  
  100069:	c3                   	ret    
  10006a:	8d b6 00 00 00 00    	lea    0x0(%esi),%esi

00100070 <register_tm_clones>:
  100070:	b8 a0 5f 10 00       	mov    $0x105fa0,%eax
  100075:	2d a0 5f 10 00       	sub    $0x105fa0,%eax
  10007a:	c1 f8 02             	sar    $0x2,%eax
  10007d:	89 c2                	mov    %eax,%edx
  10007f:	c1 ea 1f             	shr    $0x1f,%edx
  100082:	01 d0                	add    %edx,%eax
  100084:	d1 f8                	sar    %eax
  100086:	75 01                	jne    100089 <register_tm_clones+0x19>
  100088:	c3                   	ret    
  100089:	ba 00 00 00 00       	mov    $0x0,%edx
  10008e:	85 d2                	test   %edx,%edx
  100090:	74 f6                	je     100088 <register_tm_clones+0x18>
  100092:	55                   	push   %ebp
  100093:	89 e5                	mov    %esp,%ebp
  100095:	83 ec 18             	sub    $0x18,%esp
  100098:	89 44 24 04          	mov    %eax,0x4(%esp)
  10009c:	c7 04 24 a0 5f 10 00 	movl   $0x105fa0,(%esp)
  1000a3:	ff d2                	call   *%edx
  1000a5:	c9                   	leave  
  1000a6:	c3                   	ret    
  1000a7:	89 f6                	mov    %esi,%esi
  1000a9:	8d bc 27 00 00 00 00 	lea    0x0(%edi,%eiz,1),%edi

001000b0 <__do_global_dtors_aux>:
  1000b0:	80 3d a0 5f 10 00 00 	cmpb   $0x0,0x105fa0
  1000b7:	75 13                	jne    1000cc <__do_global_dtors_aux+0x1c>
  1000b9:	55                   	push   %ebp
  1000ba:	89 e5                	mov    %esp,%ebp
  1000bc:	83 ec 08             	sub    $0x8,%esp
  1000bf:	e8 7c ff ff ff       	call   100040 <deregister_tm_clones>
  1000c4:	c6 05 a0 5f 10 00 01 	movb   $0x1,0x105fa0
  1000cb:	c9                   	leave  
  1000cc:	f3 c3                	repz ret 
  1000ce:	66 90                	xchg   %ax,%ax

001000d0 <frame_dummy>:
  1000d0:	a1 9c 5f 10 00       	mov    0x105f9c,%eax
  1000d5:	85 c0                	test   %eax,%eax
  1000d7:	74 1f                	je     1000f8 <frame_dummy+0x28>
  1000d9:	b8 00 00 00 00       	mov    $0x0,%eax
  1000de:	85 c0                	test   %eax,%eax
  1000e0:	74 16                	je     1000f8 <frame_dummy+0x28>
  1000e2:	55                   	push   %ebp
  1000e3:	89 e5                	mov    %esp,%ebp
  1000e5:	83 ec 18             	sub    $0x18,%esp
  1000e8:	c7 04 24 9c 5f 10 00 	movl   $0x105f9c,(%esp)
  1000ef:	ff d0                	call   *%eax
  1000f1:	c9                   	leave  
  1000f2:	e9 79 ff ff ff       	jmp    100070 <register_tm_clones>
  1000f7:	90                   	nop
  1000f8:	e9 73 ff ff ff       	jmp    100070 <register_tm_clones>

001000fd <_ZL4outbth>:
  1000fd:	55                   	push   %ebp
  1000fe:	89 e5                	mov    %esp,%ebp
  100100:	83 ec 08             	sub    $0x8,%esp
  100103:	8b 55 08             	mov    0x8(%ebp),%edx
  100106:	8b 45 0c             	mov    0xc(%ebp),%eax
  100109:	66 89 55 fc          	mov    %dx,-0x4(%ebp)
  10010d:	88 45 f8             	mov    %al,-0x8(%ebp)
  100110:	0f b7 55 fc          	movzwl -0x4(%ebp),%edx
  100114:	0f b6 45 f8          	movzbl -0x8(%ebp),%eax
  100118:	ee                   	out    %al,(%dx)
  100119:	c9                   	leave  
  10011a:	c3                   	ret    

0010011b <_ZL3inbt>:
  10011b:	55                   	push   %ebp
  10011c:	89 e5                	mov    %esp,%ebp
  10011e:	83 ec 14             	sub    $0x14,%esp
  100121:	8b 45 08             	mov    0x8(%ebp),%eax
  100124:	66 89 45 ec          	mov    %ax,-0x14(%ebp)
  100128:	0f b7 45 ec          	movzwl -0x14(%ebp),%eax
  10012c:	89 c2                	mov    %eax,%edx
  10012e:	ec                   	in     (%dx),%al
  10012f:	66 89 45 fe          	mov    %ax,-0x2(%ebp)
  100133:	0f b7 45 fe          	movzwl -0x2(%ebp),%eax
  100137:	c9                   	leave  
  100138:	c3                   	ret    

00100139 <_ZL29platform_abstract_irq_handlerP14interrupt_info>:
  100139:	55                   	push   %ebp
  10013a:	89 e5                	mov    %esp,%ebp
  10013c:	83 ec 08             	sub    $0x8,%esp
  10013f:	8b 45 08             	mov    0x8(%ebp),%eax
  100142:	8b 40 24             	mov    0x24(%eax),%eax
  100145:	83 f8 27             	cmp    $0x27,%eax
  100148:	76 14                	jbe    10015e <_ZL29platform_abstract_irq_handlerP14interrupt_info+0x25>
  10014a:	c7 44 24 04 20 00 00 	movl   $0x20,0x4(%esp)
  100151:	00 
  100152:	c7 04 24 a0 00 00 00 	movl   $0xa0,(%esp)
  100159:	e8 9f ff ff ff       	call   1000fd <_ZL4outbth>
  10015e:	8b 45 08             	mov    0x8(%ebp),%eax
  100161:	8b 40 24             	mov    0x24(%eax),%eax
  100164:	83 f8 1f             	cmp    $0x1f,%eax
  100167:	76 14                	jbe    10017d <_ZL29platform_abstract_irq_handlerP14interrupt_info+0x44>
  100169:	c7 44 24 04 20 00 00 	movl   $0x20,0x4(%esp)
  100170:	00 
  100171:	c7 04 24 20 00 00 00 	movl   $0x20,(%esp)
  100178:	e8 80 ff ff ff       	call   1000fd <_ZL4outbth>
  10017d:	c9                   	leave  
  10017e:	c3                   	ret    

0010017f <_Z9DoNothingv>:
  10017f:	55                   	push   %ebp
  100180:	89 e5                	mov    %esp,%ebp
  100182:	5d                   	pop    %ebp
  100183:	c3                   	ret    

00100184 <_Z6kekekev>:
  100184:	55                   	push   %ebp
  100185:	89 e5                	mov    %esp,%ebp
  100187:	83 ec 18             	sub    $0x18,%esp
  10018a:	c7 04 24 60 00 00 00 	movl   $0x60,(%esp)
  100191:	e8 85 ff ff ff       	call   10011b <_ZL3inbt>
  100196:	0f b6 c0             	movzbl %al,%eax
  100199:	89 04 24             	mov    %eax,(%esp)
  10019c:	e8 b7 12 00 00       	call   101458 <_Z10scan2asciii>
  1001a1:	0f b6 c0             	movzbl %al,%eax
  1001a4:	89 44 24 04          	mov    %eax,0x4(%esp)
  1001a8:	c7 04 24 40 60 10 00 	movl   $0x106040,(%esp)
  1001af:	e8 60 17 00 00       	call   101914 <_ZN8DBStream8rx_writeEh>
  1001b4:	c9                   	leave  
  1001b5:	c3                   	ret    

001001b6 <_Z7kekeke2P14interrupt_info>:
  1001b6:	55                   	push   %ebp
  1001b7:	89 e5                	mov    %esp,%ebp
  1001b9:	83 ec 18             	sub    $0x18,%esp
  1001bc:	c7 04 24 7c 3b 10 00 	movl   $0x103b7c,(%esp)
  1001c3:	e8 9f 03 00 00       	call   100567 <debug_print>
  1001c8:	eb fe                	jmp    1001c8 <_Z7kekeke2P14interrupt_info+0x12>

001001ca <main>:
  1001ca:	55                   	push   %ebp
  1001cb:	89 e5                	mov    %esp,%ebp
  1001cd:	83 e4 f0             	and    $0xfffffff0,%esp
  1001d0:	83 ec 20             	sub    $0x20,%esp
  1001d3:	c7 04 24 00 01 00 00 	movl   $0x100,(%esp)
  1001da:	e8 45 13 00 00       	call   101524 <_Z23abstract_irq_table_sizej>
  1001df:	8b 15 88 5e 10 00    	mov    0x105e88,%edx
  1001e5:	c7 44 24 08 0a 00 00 	movl   $0xa,0x8(%esp)
  1001ec:	00 
  1001ed:	89 44 24 04          	mov    %eax,0x4(%esp)
  1001f1:	89 14 24             	mov    %edx,(%esp)
  1001f4:	e8 0d 07 00 00       	call   100906 <_ZN5Print5printEji>
  1001f9:	c7 44 24 04 00 01 00 	movl   $0x100,0x4(%esp)
  100200:	00 
  100201:	c7 04 24 80 60 10 00 	movl   $0x106080,(%esp)
  100208:	e8 26 13 00 00       	call   101533 <_Z17abstract_irq_initPvj>
  10020d:	c7 44 24 04 84 01 10 	movl   $0x100184,0x4(%esp)
  100214:	00 
  100215:	c7 04 24 21 00 00 00 	movl   $0x21,(%esp)
  10021c:	e8 23 14 00 00       	call   101644 <_Z19abstract_irq_attachjPFvvE>
  100221:	c7 44 24 04 7f 01 10 	movl   $0x10017f,0x4(%esp)
  100228:	00 
  100229:	c7 04 24 20 00 00 00 	movl   $0x20,(%esp)
  100230:	e8 0f 14 00 00       	call   101644 <_Z19abstract_irq_attachjPFvvE>
  100235:	c7 04 24 e8 03 00 00 	movl   $0x3e8,(%esp)
  10023c:	e8 79 33 00 00       	call   1035ba <_Z10init_timerj>
  100241:	c7 44 24 04 00 01 00 	movl   $0x100,0x4(%esp)
  100248:	00 
  100249:	c7 04 24 80 60 10 00 	movl   $0x106080,(%esp)
  100250:	e8 34 03 00 00       	call   100589 <debug_print_dump>
  100255:	fb                   	sti    
  100256:	c7 04 24 40 60 10 00 	movl   $0x106040,(%esp)
  10025d:	e8 e6 16 00 00       	call   101948 <_ZN8DBStream4readEv>
  100262:	89 44 24 1c          	mov    %eax,0x1c(%esp)
  100266:	83 7c 24 1c ff       	cmpl   $0xffffffff,0x1c(%esp)
  10026b:	74 31                	je     10029e <main+0xd4>
  10026d:	a1 88 5e 10 00       	mov    0x105e88,%eax
  100272:	c7 44 24 08 10 00 00 	movl   $0x10,0x8(%esp)
  100279:	00 
  10027a:	8b 54 24 1c          	mov    0x1c(%esp),%edx
  10027e:	89 54 24 04          	mov    %edx,0x4(%esp)
  100282:	89 04 24             	mov    %eax,(%esp)
  100285:	e8 5a 06 00 00       	call   1008e4 <_ZN5Print5printEii>
  10028a:	c7 44 24 04 02 00 00 	movl   $0x2,0x4(%esp)
  100291:	00 
  100292:	c7 04 24 83 3b 10 00 	movl   $0x103b83,(%esp)
  100299:	e8 eb 00 00 00       	call   100389 <debug_write>
  10029e:	eb b6                	jmp    100256 <main+0x8c>

001002a0 <_Z41__static_initialization_and_destruction_0ii>:
  1002a0:	55                   	push   %ebp
  1002a1:	89 e5                	mov    %esp,%ebp
  1002a3:	83 ec 18             	sub    $0x18,%esp
  1002a6:	83 7d 08 01          	cmpl   $0x1,0x8(%ebp)
  1002aa:	75 3d                	jne    1002e9 <_Z41__static_initialization_and_destruction_0ii+0x49>
  1002ac:	81 7d 0c ff ff 00 00 	cmpl   $0xffff,0xc(%ebp)
  1002b3:	75 34                	jne    1002e9 <_Z41__static_initialization_and_destruction_0ii+0x49>
  1002b5:	c7 04 24 c0 5f 10 00 	movl   $0x105fc0,(%esp)
  1002bc:	e8 35 17 00 00       	call   1019f6 <_ZN12staticring_tC1Ev>
  1002c1:	c7 04 24 00 60 10 00 	movl   $0x106000,(%esp)
  1002c8:	e8 29 17 00 00       	call   1019f6 <_ZN12staticring_tC1Ev>
  1002cd:	c7 44 24 08 00 60 10 	movl   $0x106000,0x8(%esp)
  1002d4:	00 
  1002d5:	c7 44 24 04 c0 5f 10 	movl   $0x105fc0,0x4(%esp)
  1002dc:	00 
  1002dd:	c7 04 24 40 60 10 00 	movl   $0x106040,(%esp)
  1002e4:	e8 73 15 00 00       	call   10185c <_ZN8DBStreamC1EP7Queue_pS1_>
  1002e9:	c9                   	leave  
  1002ea:	c3                   	ret    

001002eb <_GLOBAL__sub_I_r1>:
  1002eb:	55                   	push   %ebp
  1002ec:	89 e5                	mov    %esp,%ebp
  1002ee:	83 ec 18             	sub    $0x18,%esp
  1002f1:	c7 44 24 04 ff ff 00 	movl   $0xffff,0x4(%esp)
  1002f8:	00 
  1002f9:	c7 04 24 01 00 00 00 	movl   $0x1,(%esp)
  100300:	e8 9b ff ff ff       	call   1002a0 <_Z41__static_initialization_and_destruction_0ii>
  100305:	c9                   	leave  
  100306:	c3                   	ret    

00100307 <_ZL4outbth>:
  100307:	55                   	push   %ebp
  100308:	89 e5                	mov    %esp,%ebp
  10030a:	83 ec 08             	sub    $0x8,%esp
  10030d:	8b 55 08             	mov    0x8(%ebp),%edx
  100310:	8b 45 0c             	mov    0xc(%ebp),%eax
  100313:	66 89 55 fc          	mov    %dx,-0x4(%ebp)
  100317:	88 45 f8             	mov    %al,-0x8(%ebp)
  10031a:	0f b7 55 fc          	movzwl -0x4(%ebp),%edx
  10031e:	0f b6 45 f8          	movzbl -0x8(%ebp),%eax
  100322:	ee                   	out    %al,(%dx)
  100323:	c9                   	leave  
  100324:	c3                   	ret    

00100325 <_ZL3inbt>:
  100325:	55                   	push   %ebp
  100326:	89 e5                	mov    %esp,%ebp
  100328:	83 ec 14             	sub    $0x14,%esp
  10032b:	8b 45 08             	mov    0x8(%ebp),%eax
  10032e:	66 89 45 ec          	mov    %ax,-0x14(%ebp)
  100332:	0f b7 45 ec          	movzwl -0x14(%ebp),%eax
  100336:	89 c2                	mov    %eax,%edx
  100338:	ec                   	in     (%dx),%al
  100339:	66 89 45 fe          	mov    %ax,-0x2(%ebp)
  10033d:	0f b7 45 fe          	movzwl -0x2(%ebp),%eax
  100341:	c9                   	leave  
  100342:	c3                   	ret    

00100343 <_ZL29platform_abstract_irq_handlerP14interrupt_info>:
  100343:	55                   	push   %ebp
  100344:	89 e5                	mov    %esp,%ebp
  100346:	83 ec 08             	sub    $0x8,%esp
  100349:	8b 45 08             	mov    0x8(%ebp),%eax
  10034c:	8b 40 24             	mov    0x24(%eax),%eax
  10034f:	83 f8 27             	cmp    $0x27,%eax
  100352:	76 14                	jbe    100368 <_ZL29platform_abstract_irq_handlerP14interrupt_info+0x25>
  100354:	c7 44 24 04 20 00 00 	movl   $0x20,0x4(%esp)
  10035b:	00 
  10035c:	c7 04 24 a0 00 00 00 	movl   $0xa0,(%esp)
  100363:	e8 9f ff ff ff       	call   100307 <_ZL4outbth>
  100368:	8b 45 08             	mov    0x8(%ebp),%eax
  10036b:	8b 40 24             	mov    0x24(%eax),%eax
  10036e:	83 f8 1f             	cmp    $0x1f,%eax
  100371:	76 14                	jbe    100387 <_ZL29platform_abstract_irq_handlerP14interrupt_info+0x44>
  100373:	c7 44 24 04 20 00 00 	movl   $0x20,0x4(%esp)
  10037a:	00 
  10037b:	c7 04 24 20 00 00 00 	movl   $0x20,(%esp)
  100382:	e8 80 ff ff ff       	call   100307 <_ZL4outbth>
  100387:	c9                   	leave  
  100388:	c3                   	ret    

00100389 <debug_write>:
  100389:	55                   	push   %ebp
  10038a:	89 e5                	mov    %esp,%ebp
  10038c:	83 ec 28             	sub    $0x28,%esp
  10038f:	c7 45 f4 00 00 00 00 	movl   $0x0,-0xc(%ebp)
  100396:	eb 1a                	jmp    1003b2 <debug_write+0x29>
  100398:	8b 55 f4             	mov    -0xc(%ebp),%edx
  10039b:	8b 45 08             	mov    0x8(%ebp),%eax
  10039e:	01 d0                	add    %edx,%eax
  1003a0:	0f b6 00             	movzbl (%eax),%eax
  1003a3:	0f be c0             	movsbl %al,%eax
  1003a6:	89 04 24             	mov    %eax,(%esp)
  1003a9:	e8 80 20 00 00       	call   10242e <debug_putchar>
  1003ae:	83 45 f4 01          	addl   $0x1,-0xc(%ebp)
  1003b2:	8b 45 f4             	mov    -0xc(%ebp),%eax
  1003b5:	3b 45 0c             	cmp    0xc(%ebp),%eax
  1003b8:	7c de                	jl     100398 <debug_write+0xf>
  1003ba:	c9                   	leave  
  1003bb:	c3                   	ret    

001003bc <debug_printhex_halfbyte>:
  1003bc:	55                   	push   %ebp
  1003bd:	89 e5                	mov    %esp,%ebp
  1003bf:	83 ec 28             	sub    $0x28,%esp
  1003c2:	8b 45 08             	mov    0x8(%ebp),%eax
  1003c5:	88 45 e4             	mov    %al,-0x1c(%ebp)
  1003c8:	0f be 45 e4          	movsbl -0x1c(%ebp),%eax
  1003cc:	83 f8 0f             	cmp    $0xf,%eax
  1003cf:	77 68                	ja     100439 <debug_printhex_halfbyte+0x7d>
  1003d1:	8b 04 85 88 3b 10 00 	mov    0x103b88(,%eax,4),%eax
  1003d8:	ff e0                	jmp    *%eax
  1003da:	c6 45 f7 30          	movb   $0x30,-0x9(%ebp)
  1003de:	eb 59                	jmp    100439 <debug_printhex_halfbyte+0x7d>
  1003e0:	c6 45 f7 31          	movb   $0x31,-0x9(%ebp)
  1003e4:	eb 53                	jmp    100439 <debug_printhex_halfbyte+0x7d>
  1003e6:	c6 45 f7 32          	movb   $0x32,-0x9(%ebp)
  1003ea:	eb 4d                	jmp    100439 <debug_printhex_halfbyte+0x7d>
  1003ec:	c6 45 f7 33          	movb   $0x33,-0x9(%ebp)
  1003f0:	eb 47                	jmp    100439 <debug_printhex_halfbyte+0x7d>
  1003f2:	c6 45 f7 34          	movb   $0x34,-0x9(%ebp)
  1003f6:	eb 41                	jmp    100439 <debug_printhex_halfbyte+0x7d>
  1003f8:	c6 45 f7 35          	movb   $0x35,-0x9(%ebp)
  1003fc:	eb 3b                	jmp    100439 <debug_printhex_halfbyte+0x7d>
  1003fe:	c6 45 f7 36          	movb   $0x36,-0x9(%ebp)
  100402:	eb 35                	jmp    100439 <debug_printhex_halfbyte+0x7d>
  100404:	c6 45 f7 37          	movb   $0x37,-0x9(%ebp)
  100408:	eb 2f                	jmp    100439 <debug_printhex_halfbyte+0x7d>
  10040a:	c6 45 f7 38          	movb   $0x38,-0x9(%ebp)
  10040e:	eb 29                	jmp    100439 <debug_printhex_halfbyte+0x7d>
  100410:	c6 45 f7 39          	movb   $0x39,-0x9(%ebp)
  100414:	eb 23                	jmp    100439 <debug_printhex_halfbyte+0x7d>
  100416:	c6 45 f7 41          	movb   $0x41,-0x9(%ebp)
  10041a:	eb 1d                	jmp    100439 <debug_printhex_halfbyte+0x7d>
  10041c:	c6 45 f7 42          	movb   $0x42,-0x9(%ebp)
  100420:	eb 17                	jmp    100439 <debug_printhex_halfbyte+0x7d>
  100422:	c6 45 f7 43          	movb   $0x43,-0x9(%ebp)
  100426:	eb 11                	jmp    100439 <debug_printhex_halfbyte+0x7d>
  100428:	c6 45 f7 44          	movb   $0x44,-0x9(%ebp)
  10042c:	eb 0b                	jmp    100439 <debug_printhex_halfbyte+0x7d>
  10042e:	c6 45 f7 45          	movb   $0x45,-0x9(%ebp)
  100432:	eb 05                	jmp    100439 <debug_printhex_halfbyte+0x7d>
  100434:	c6 45 f7 46          	movb   $0x46,-0x9(%ebp)
  100438:	90                   	nop
  100439:	0f be 45 f7          	movsbl -0x9(%ebp),%eax
  10043d:	89 04 24             	mov    %eax,(%esp)
  100440:	e8 e9 1f 00 00       	call   10242e <debug_putchar>
  100445:	c9                   	leave  
  100446:	c3                   	ret    

00100447 <debug_printhex_byte>:
  100447:	55                   	push   %ebp
  100448:	89 e5                	mov    %esp,%ebp
  10044a:	83 ec 18             	sub    $0x18,%esp
  10044d:	8b 45 08             	mov    0x8(%ebp),%eax
  100450:	88 45 f4             	mov    %al,-0xc(%ebp)
  100453:	0f be 45 f4          	movsbl -0xc(%ebp),%eax
  100457:	25 f0 00 00 00       	and    $0xf0,%eax
  10045c:	c1 f8 04             	sar    $0x4,%eax
  10045f:	0f be c0             	movsbl %al,%eax
  100462:	89 04 24             	mov    %eax,(%esp)
  100465:	e8 52 ff ff ff       	call   1003bc <debug_printhex_halfbyte>
  10046a:	0f be 45 f4          	movsbl -0xc(%ebp),%eax
  10046e:	83 e0 0f             	and    $0xf,%eax
  100471:	89 04 24             	mov    %eax,(%esp)
  100474:	e8 43 ff ff ff       	call   1003bc <debug_printhex_halfbyte>
  100479:	c9                   	leave  
  10047a:	c3                   	ret    

0010047b <debug_printhex_int32>:
  10047b:	55                   	push   %ebp
  10047c:	89 e5                	mov    %esp,%ebp
  10047e:	83 ec 28             	sub    $0x28,%esp
  100481:	8d 45 08             	lea    0x8(%ebp),%eax
  100484:	89 45 f4             	mov    %eax,-0xc(%ebp)
  100487:	c7 04 24 30 00 00 00 	movl   $0x30,(%esp)
  10048e:	e8 9b 1f 00 00       	call   10242e <debug_putchar>
  100493:	c7 04 24 78 00 00 00 	movl   $0x78,(%esp)
  10049a:	e8 8f 1f 00 00       	call   10242e <debug_putchar>
  10049f:	8b 45 f4             	mov    -0xc(%ebp),%eax
  1004a2:	83 c0 03             	add    $0x3,%eax
  1004a5:	0f b6 00             	movzbl (%eax),%eax
  1004a8:	0f be c0             	movsbl %al,%eax
  1004ab:	89 04 24             	mov    %eax,(%esp)
  1004ae:	e8 94 ff ff ff       	call   100447 <debug_printhex_byte>
  1004b3:	8b 45 f4             	mov    -0xc(%ebp),%eax
  1004b6:	83 c0 02             	add    $0x2,%eax
  1004b9:	0f b6 00             	movzbl (%eax),%eax
  1004bc:	0f be c0             	movsbl %al,%eax
  1004bf:	89 04 24             	mov    %eax,(%esp)
  1004c2:	e8 80 ff ff ff       	call   100447 <debug_printhex_byte>
  1004c7:	8b 45 f4             	mov    -0xc(%ebp),%eax
  1004ca:	83 c0 01             	add    $0x1,%eax
  1004cd:	0f b6 00             	movzbl (%eax),%eax
  1004d0:	0f be c0             	movsbl %al,%eax
  1004d3:	89 04 24             	mov    %eax,(%esp)
  1004d6:	e8 6c ff ff ff       	call   100447 <debug_printhex_byte>
  1004db:	8b 45 f4             	mov    -0xc(%ebp),%eax
  1004de:	0f b6 00             	movzbl (%eax),%eax
  1004e1:	0f be c0             	movsbl %al,%eax
  1004e4:	89 04 24             	mov    %eax,(%esp)
  1004e7:	e8 5b ff ff ff       	call   100447 <debug_printhex_byte>
  1004ec:	c9                   	leave  
  1004ed:	c3                   	ret    

001004ee <debug_printhex_int16>:
  1004ee:	55                   	push   %ebp
  1004ef:	89 e5                	mov    %esp,%ebp
  1004f1:	83 ec 28             	sub    $0x28,%esp
  1004f4:	8b 45 08             	mov    0x8(%ebp),%eax
  1004f7:	66 89 45 e4          	mov    %ax,-0x1c(%ebp)
  1004fb:	8d 45 e4             	lea    -0x1c(%ebp),%eax
  1004fe:	89 45 f4             	mov    %eax,-0xc(%ebp)
  100501:	c7 04 24 30 00 00 00 	movl   $0x30,(%esp)
  100508:	e8 21 1f 00 00       	call   10242e <debug_putchar>
  10050d:	c7 04 24 78 00 00 00 	movl   $0x78,(%esp)
  100514:	e8 15 1f 00 00       	call   10242e <debug_putchar>
  100519:	8b 45 f4             	mov    -0xc(%ebp),%eax
  10051c:	83 c0 01             	add    $0x1,%eax
  10051f:	0f b6 00             	movzbl (%eax),%eax
  100522:	0f be c0             	movsbl %al,%eax
  100525:	89 04 24             	mov    %eax,(%esp)
  100528:	e8 1a ff ff ff       	call   100447 <debug_printhex_byte>
  10052d:	8b 45 f4             	mov    -0xc(%ebp),%eax
  100530:	0f b6 00             	movzbl (%eax),%eax
  100533:	0f be c0             	movsbl %al,%eax
  100536:	89 04 24             	mov    %eax,(%esp)
  100539:	e8 09 ff ff ff       	call   100447 <debug_printhex_byte>
  10053e:	c9                   	leave  
  10053f:	c3                   	ret    

00100540 <debug_strlen>:
  100540:	55                   	push   %ebp
  100541:	89 e5                	mov    %esp,%ebp
  100543:	83 ec 10             	sub    $0x10,%esp
  100546:	c7 45 fc 00 00 00 00 	movl   $0x0,-0x4(%ebp)
  10054d:	eb 04                	jmp    100553 <debug_strlen+0x13>
  10054f:	83 45 fc 01          	addl   $0x1,-0x4(%ebp)
  100553:	8b 55 fc             	mov    -0x4(%ebp),%edx
  100556:	8b 45 08             	mov    0x8(%ebp),%eax
  100559:	01 d0                	add    %edx,%eax
  10055b:	0f b6 00             	movzbl (%eax),%eax
  10055e:	84 c0                	test   %al,%al
  100560:	75 ed                	jne    10054f <debug_strlen+0xf>
  100562:	8b 45 fc             	mov    -0x4(%ebp),%eax
  100565:	c9                   	leave  
  100566:	c3                   	ret    

00100567 <debug_print>:
  100567:	55                   	push   %ebp
  100568:	89 e5                	mov    %esp,%ebp
  10056a:	83 ec 18             	sub    $0x18,%esp
  10056d:	8b 45 08             	mov    0x8(%ebp),%eax
  100570:	89 04 24             	mov    %eax,(%esp)
  100573:	e8 c8 ff ff ff       	call   100540 <debug_strlen>
  100578:	89 44 24 04          	mov    %eax,0x4(%esp)
  10057c:	8b 45 08             	mov    0x8(%ebp),%eax
  10057f:	89 04 24             	mov    %eax,(%esp)
  100582:	e8 02 fe ff ff       	call   100389 <debug_write>
  100587:	c9                   	leave  
  100588:	c3                   	ret    

00100589 <debug_print_dump>:
  100589:	55                   	push   %ebp
  10058a:	89 e5                	mov    %esp,%ebp
  10058c:	83 ec 28             	sub    $0x28,%esp
  10058f:	8b 45 08             	mov    0x8(%ebp),%eax
  100592:	89 45 f4             	mov    %eax,-0xc(%ebp)
  100595:	8b 45 08             	mov    0x8(%ebp),%eax
  100598:	89 45 e8             	mov    %eax,-0x18(%ebp)
  10059b:	c7 45 ec 00 00 00 00 	movl   $0x0,-0x14(%ebp)
  1005a2:	c7 45 f0 00 00 00 00 	movl   $0x0,-0x10(%ebp)
  1005a9:	c7 45 ec 00 00 00 00 	movl   $0x0,-0x14(%ebp)
  1005b0:	eb 7e                	jmp    100630 <debug_print_dump+0xa7>
  1005b2:	83 7d f0 00          	cmpl   $0x0,-0x10(%ebp)
  1005b6:	75 17                	jne    1005cf <debug_print_dump+0x46>
  1005b8:	8b 45 e8             	mov    -0x18(%ebp),%eax
  1005bb:	89 04 24             	mov    %eax,(%esp)
  1005be:	e8 b8 fe ff ff       	call   10047b <debug_printhex_int32>
  1005c3:	c7 04 24 c8 3b 10 00 	movl   $0x103bc8,(%esp)
  1005ca:	e8 98 ff ff ff       	call   100567 <debug_print>
  1005cf:	8b 45 ec             	mov    -0x14(%ebp),%eax
  1005d2:	8b 55 f4             	mov    -0xc(%ebp),%edx
  1005d5:	01 d0                	add    %edx,%eax
  1005d7:	0f b6 00             	movzbl (%eax),%eax
  1005da:	0f be c0             	movsbl %al,%eax
  1005dd:	89 04 24             	mov    %eax,(%esp)
  1005e0:	e8 62 fe ff ff       	call   100447 <debug_printhex_byte>
  1005e5:	83 7d f0 07          	cmpl   $0x7,-0x10(%ebp)
  1005e9:	75 12                	jne    1005fd <debug_print_dump+0x74>
  1005eb:	c7 04 24 cb 3b 10 00 	movl   $0x103bcb,(%esp)
  1005f2:	e8 70 ff ff ff       	call   100567 <debug_print>
  1005f7:	83 45 f0 01          	addl   $0x1,-0x10(%ebp)
  1005fb:	eb 2f                	jmp    10062c <debug_print_dump+0xa3>
  1005fd:	83 7d f0 0f          	cmpl   $0xf,-0x10(%ebp)
  100601:	75 19                	jne    10061c <debug_print_dump+0x93>
  100603:	c7 04 24 cd 3b 10 00 	movl   $0x103bcd,(%esp)
  10060a:	e8 58 ff ff ff       	call   100567 <debug_print>
  10060f:	c7 45 f0 00 00 00 00 	movl   $0x0,-0x10(%ebp)
  100616:	83 45 e8 10          	addl   $0x10,-0x18(%ebp)
  10061a:	eb 10                	jmp    10062c <debug_print_dump+0xa3>
  10061c:	c7 04 24 cf 3b 10 00 	movl   $0x103bcf,(%esp)
  100623:	e8 3f ff ff ff       	call   100567 <debug_print>
  100628:	83 45 f0 01          	addl   $0x1,-0x10(%ebp)
  10062c:	83 45 ec 01          	addl   $0x1,-0x14(%ebp)
  100630:	8b 45 ec             	mov    -0x14(%ebp),%eax
  100633:	3b 45 0c             	cmp    0xc(%ebp),%eax
  100636:	0f 82 76 ff ff ff    	jb     1005b2 <debug_print_dump+0x29>
  10063c:	c9                   	leave  
  10063d:	c3                   	ret    

0010063e <delay_cpu>:
  10063e:	55                   	push   %ebp
  10063f:	89 e5                	mov    %esp,%ebp
  100641:	83 ec 10             	sub    $0x10,%esp
  100644:	8b 45 08             	mov    0x8(%ebp),%eax
  100647:	69 c0 d0 07 00 00    	imul   $0x7d0,%eax,%eax
  10064d:	ba 00 00 00 00       	mov    $0x0,%edx
  100652:	89 45 f8             	mov    %eax,-0x8(%ebp)
  100655:	89 55 fc             	mov    %edx,-0x4(%ebp)
  100658:	90                   	nop
  100659:	8b 45 f8             	mov    -0x8(%ebp),%eax
  10065c:	8b 55 fc             	mov    -0x4(%ebp),%edx
  10065f:	83 c0 ff             	add    $0xffffffff,%eax
  100662:	83 d2 ff             	adc    $0xffffffff,%edx
  100665:	89 45 f8             	mov    %eax,-0x8(%ebp)
  100668:	89 55 fc             	mov    %edx,-0x4(%ebp)
  10066b:	8b 45 f8             	mov    -0x8(%ebp),%eax
  10066e:	8b 55 fc             	mov    -0x4(%ebp),%edx
  100671:	09 d0                	or     %edx,%eax
  100673:	85 c0                	test   %eax,%eax
  100675:	0f 94 c0             	sete   %al
  100678:	84 c0                	test   %al,%al
  10067a:	74 02                	je     10067e <delay_cpu+0x40>
  10067c:	eb 02                	jmp    100680 <delay_cpu+0x42>
  10067e:	eb d8                	jmp    100658 <delay_cpu+0x1a>
  100680:	c9                   	leave  
  100681:	c3                   	ret    

00100682 <_ZL4outbth>:
  100682:	55                   	push   %ebp
  100683:	89 e5                	mov    %esp,%ebp
  100685:	83 ec 08             	sub    $0x8,%esp
  100688:	8b 55 08             	mov    0x8(%ebp),%edx
  10068b:	8b 45 0c             	mov    0xc(%ebp),%eax
  10068e:	66 89 55 fc          	mov    %dx,-0x4(%ebp)
  100692:	88 45 f8             	mov    %al,-0x8(%ebp)
  100695:	0f b7 55 fc          	movzwl -0x4(%ebp),%edx
  100699:	0f b6 45 f8          	movzbl -0x8(%ebp),%eax
  10069d:	ee                   	out    %al,(%dx)
  10069e:	c9                   	leave  
  10069f:	c3                   	ret    

001006a0 <_ZL3inbt>:
  1006a0:	55                   	push   %ebp
  1006a1:	89 e5                	mov    %esp,%ebp
  1006a3:	83 ec 14             	sub    $0x14,%esp
  1006a6:	8b 45 08             	mov    0x8(%ebp),%eax
  1006a9:	66 89 45 ec          	mov    %ax,-0x14(%ebp)
  1006ad:	0f b7 45 ec          	movzwl -0x14(%ebp),%eax
  1006b1:	89 c2                	mov    %eax,%edx
  1006b3:	ec                   	in     (%dx),%al
  1006b4:	66 89 45 fe          	mov    %ax,-0x2(%ebp)
  1006b8:	0f b7 45 fe          	movzwl -0x2(%ebp),%eax
  1006bc:	c9                   	leave  
  1006bd:	c3                   	ret    

001006be <_ZL29platform_abstract_irq_handlerP14interrupt_info>:
  1006be:	55                   	push   %ebp
  1006bf:	89 e5                	mov    %esp,%ebp
  1006c1:	83 ec 08             	sub    $0x8,%esp
  1006c4:	8b 45 08             	mov    0x8(%ebp),%eax
  1006c7:	8b 40 24             	mov    0x24(%eax),%eax
  1006ca:	83 f8 27             	cmp    $0x27,%eax
  1006cd:	76 14                	jbe    1006e3 <_ZL29platform_abstract_irq_handlerP14interrupt_info+0x25>
  1006cf:	c7 44 24 04 20 00 00 	movl   $0x20,0x4(%esp)
  1006d6:	00 
  1006d7:	c7 04 24 a0 00 00 00 	movl   $0xa0,(%esp)
  1006de:	e8 9f ff ff ff       	call   100682 <_ZL4outbth>
  1006e3:	8b 45 08             	mov    0x8(%ebp),%eax
  1006e6:	8b 40 24             	mov    0x24(%eax),%eax
  1006e9:	83 f8 1f             	cmp    $0x1f,%eax
  1006ec:	76 14                	jbe    100702 <_ZL29platform_abstract_irq_handlerP14interrupt_info+0x44>
  1006ee:	c7 44 24 04 20 00 00 	movl   $0x20,0x4(%esp)
  1006f5:	00 
  1006f6:	c7 04 24 20 00 00 00 	movl   $0x20,(%esp)
  1006fd:	e8 80 ff ff ff       	call   100682 <_ZL4outbth>
  100702:	c9                   	leave  
  100703:	c3                   	ret    

00100704 <_Z11systemErrorPKc>:
  100704:	55                   	push   %ebp
  100705:	89 e5                	mov    %esp,%ebp
  100707:	83 ec 18             	sub    $0x18,%esp
  10070a:	c7 04 24 d1 3b 10 00 	movl   $0x103bd1,(%esp)
  100711:	e8 51 fe ff ff       	call   100567 <debug_print>
  100716:	8b 45 08             	mov    0x8(%ebp),%eax
  100719:	89 04 24             	mov    %eax,(%esp)
  10071c:	e8 46 fe ff ff       	call   100567 <debug_print>
  100721:	c7 44 24 04 02 00 00 	movl   $0x2,0x4(%esp)
  100728:	00 
  100729:	c7 04 24 e1 3b 10 00 	movl   $0x103be1,(%esp)
  100730:	e8 54 fc ff ff       	call   100389 <debug_write>
  100735:	e8 0b 1f 00 00       	call   102645 <_Z20systemError_platformv>
  10073a:	eb fe                	jmp    10073a <_Z11systemErrorPKc+0x36>

0010073c <_ZL4outbth>:
  10073c:	55                   	push   %ebp
  10073d:	89 e5                	mov    %esp,%ebp
  10073f:	83 ec 08             	sub    $0x8,%esp
  100742:	8b 55 08             	mov    0x8(%ebp),%edx
  100745:	8b 45 0c             	mov    0xc(%ebp),%eax
  100748:	66 89 55 fc          	mov    %dx,-0x4(%ebp)
  10074c:	88 45 f8             	mov    %al,-0x8(%ebp)
  10074f:	0f b7 55 fc          	movzwl -0x4(%ebp),%edx
  100753:	0f b6 45 f8          	movzbl -0x8(%ebp),%eax
  100757:	ee                   	out    %al,(%dx)
  100758:	c9                   	leave  
  100759:	c3                   	ret    

0010075a <_ZL3inbt>:
  10075a:	55                   	push   %ebp
  10075b:	89 e5                	mov    %esp,%ebp
  10075d:	83 ec 14             	sub    $0x14,%esp
  100760:	8b 45 08             	mov    0x8(%ebp),%eax
  100763:	66 89 45 ec          	mov    %ax,-0x14(%ebp)
  100767:	0f b7 45 ec          	movzwl -0x14(%ebp),%eax
  10076b:	89 c2                	mov    %eax,%edx
  10076d:	ec                   	in     (%dx),%al
  10076e:	66 89 45 fe          	mov    %ax,-0x2(%ebp)
  100772:	0f b7 45 fe          	movzwl -0x2(%ebp),%eax
  100776:	c9                   	leave  
  100777:	c3                   	ret    

00100778 <_ZL29platform_abstract_irq_handlerP14interrupt_info>:
  100778:	55                   	push   %ebp
  100779:	89 e5                	mov    %esp,%ebp
  10077b:	83 ec 08             	sub    $0x8,%esp
  10077e:	8b 45 08             	mov    0x8(%ebp),%eax
  100781:	8b 40 24             	mov    0x24(%eax),%eax
  100784:	83 f8 27             	cmp    $0x27,%eax
  100787:	76 14                	jbe    10079d <_ZL29platform_abstract_irq_handlerP14interrupt_info+0x25>
  100789:	c7 44 24 04 20 00 00 	movl   $0x20,0x4(%esp)
  100790:	00 
  100791:	c7 04 24 a0 00 00 00 	movl   $0xa0,(%esp)
  100798:	e8 9f ff ff ff       	call   10073c <_ZL4outbth>
  10079d:	8b 45 08             	mov    0x8(%ebp),%eax
  1007a0:	8b 40 24             	mov    0x24(%eax),%eax
  1007a3:	83 f8 1f             	cmp    $0x1f,%eax
  1007a6:	76 14                	jbe    1007bc <_ZL29platform_abstract_irq_handlerP14interrupt_info+0x44>
  1007a8:	c7 44 24 04 20 00 00 	movl   $0x20,0x4(%esp)
  1007af:	00 
  1007b0:	c7 04 24 20 00 00 00 	movl   $0x20,(%esp)
  1007b7:	e8 80 ff ff ff       	call   10073c <_ZL4outbth>
  1007bc:	c9                   	leave  
  1007bd:	c3                   	ret    

001007be <_ZN5Print5writeEPKhj>:
  1007be:	55                   	push   %ebp
  1007bf:	89 e5                	mov    %esp,%ebp
  1007c1:	83 ec 28             	sub    $0x28,%esp
  1007c4:	8b 45 0c             	mov    0xc(%ebp),%eax
  1007c7:	89 45 f0             	mov    %eax,-0x10(%ebp)
  1007ca:	c7 45 f4 00 00 00 00 	movl   $0x0,-0xc(%ebp)
  1007d1:	eb 25                	jmp    1007f8 <_ZN5Print5writeEPKhj+0x3a>
  1007d3:	8b 45 08             	mov    0x8(%ebp),%eax
  1007d6:	8b 00                	mov    (%eax),%eax
  1007d8:	8b 10                	mov    (%eax),%edx
  1007da:	8b 45 f0             	mov    -0x10(%ebp),%eax
  1007dd:	8d 48 01             	lea    0x1(%eax),%ecx
  1007e0:	89 4d f0             	mov    %ecx,-0x10(%ebp)
  1007e3:	0f b6 00             	movzbl (%eax),%eax
  1007e6:	0f b6 c0             	movzbl %al,%eax
  1007e9:	89 44 24 04          	mov    %eax,0x4(%esp)
  1007ed:	8b 45 08             	mov    0x8(%ebp),%eax
  1007f0:	89 04 24             	mov    %eax,(%esp)
  1007f3:	ff d2                	call   *%edx
  1007f5:	01 45 f4             	add    %eax,-0xc(%ebp)
  1007f8:	8b 45 10             	mov    0x10(%ebp),%eax
  1007fb:	8d 50 ff             	lea    -0x1(%eax),%edx
  1007fe:	89 55 10             	mov    %edx,0x10(%ebp)
  100801:	85 c0                	test   %eax,%eax
  100803:	0f 95 c0             	setne  %al
  100806:	84 c0                	test   %al,%al
  100808:	75 c9                	jne    1007d3 <_ZN5Print5writeEPKhj+0x15>
  10080a:	8b 45 f4             	mov    -0xc(%ebp),%eax
  10080d:	c9                   	leave  
  10080e:	c3                   	ret    
  10080f:	90                   	nop

00100810 <_ZN5Print5writeEPKcj>:
  100810:	55                   	push   %ebp
  100811:	89 e5                	mov    %esp,%ebp
  100813:	83 ec 18             	sub    $0x18,%esp
  100816:	8b 45 08             	mov    0x8(%ebp),%eax
  100819:	8b 00                	mov    (%eax),%eax
  10081b:	83 c0 04             	add    $0x4,%eax
  10081e:	8b 00                	mov    (%eax),%eax
  100820:	8b 55 10             	mov    0x10(%ebp),%edx
  100823:	89 54 24 08          	mov    %edx,0x8(%esp)
  100827:	8b 55 0c             	mov    0xc(%ebp),%edx
  10082a:	89 54 24 04          	mov    %edx,0x4(%esp)
  10082e:	8b 55 08             	mov    0x8(%ebp),%edx
  100831:	89 14 24             	mov    %edx,(%esp)
  100834:	ff d0                	call   *%eax
  100836:	c9                   	leave  
  100837:	c3                   	ret    

00100838 <_ZN5Print5writeEPKc>:
  100838:	55                   	push   %ebp
  100839:	89 e5                	mov    %esp,%ebp
  10083b:	53                   	push   %ebx
  10083c:	83 ec 14             	sub    $0x14,%esp
  10083f:	83 7d 0c 00          	cmpl   $0x0,0xc(%ebp)
  100843:	75 07                	jne    10084c <_ZN5Print5writeEPKc+0x14>
  100845:	b8 00 00 00 00       	mov    $0x0,%eax
  10084a:	eb 28                	jmp    100874 <_ZN5Print5writeEPKc+0x3c>
  10084c:	8b 45 08             	mov    0x8(%ebp),%eax
  10084f:	8b 00                	mov    (%eax),%eax
  100851:	83 c0 04             	add    $0x4,%eax
  100854:	8b 18                	mov    (%eax),%ebx
  100856:	8b 45 0c             	mov    0xc(%ebp),%eax
  100859:	89 04 24             	mov    %eax,(%esp)
  10085c:	e8 e9 07 00 00       	call   10104a <_Z6strlenPKc>
  100861:	89 44 24 08          	mov    %eax,0x8(%esp)
  100865:	8b 45 0c             	mov    0xc(%ebp),%eax
  100868:	89 44 24 04          	mov    %eax,0x4(%esp)
  10086c:	8b 45 08             	mov    0x8(%ebp),%eax
  10086f:	89 04 24             	mov    %eax,(%esp)
  100872:	ff d3                	call   *%ebx
  100874:	83 c4 14             	add    $0x14,%esp
  100877:	5b                   	pop    %ebx
  100878:	5d                   	pop    %ebp
  100879:	c3                   	ret    

0010087a <_ZN5Print5printEPKc>:
  10087a:	55                   	push   %ebp
  10087b:	89 e5                	mov    %esp,%ebp
  10087d:	83 ec 18             	sub    $0x18,%esp
  100880:	8b 45 0c             	mov    0xc(%ebp),%eax
  100883:	89 44 24 04          	mov    %eax,0x4(%esp)
  100887:	8b 45 08             	mov    0x8(%ebp),%eax
  10088a:	89 04 24             	mov    %eax,(%esp)
  10088d:	e8 a6 ff ff ff       	call   100838 <_ZN5Print5writeEPKc>
  100892:	c9                   	leave  
  100893:	c3                   	ret    

00100894 <_ZN5Print5printEc>:
  100894:	55                   	push   %ebp
  100895:	89 e5                	mov    %esp,%ebp
  100897:	83 ec 18             	sub    $0x18,%esp
  10089a:	8b 45 0c             	mov    0xc(%ebp),%eax
  10089d:	88 45 f4             	mov    %al,-0xc(%ebp)
  1008a0:	8b 45 08             	mov    0x8(%ebp),%eax
  1008a3:	8b 00                	mov    (%eax),%eax
  1008a5:	8b 00                	mov    (%eax),%eax
  1008a7:	0f b6 55 f4          	movzbl -0xc(%ebp),%edx
  1008ab:	0f b6 d2             	movzbl %dl,%edx
  1008ae:	89 54 24 04          	mov    %edx,0x4(%esp)
  1008b2:	8b 55 08             	mov    0x8(%ebp),%edx
  1008b5:	89 14 24             	mov    %edx,(%esp)
  1008b8:	ff d0                	call   *%eax
  1008ba:	c9                   	leave  
  1008bb:	c3                   	ret    

001008bc <_ZN5Print5printEhi>:
  1008bc:	55                   	push   %ebp
  1008bd:	89 e5                	mov    %esp,%ebp
  1008bf:	83 ec 18             	sub    $0x18,%esp
  1008c2:	8b 45 0c             	mov    0xc(%ebp),%eax
  1008c5:	88 45 f4             	mov    %al,-0xc(%ebp)
  1008c8:	0f b6 45 f4          	movzbl -0xc(%ebp),%eax
  1008cc:	8b 55 10             	mov    0x10(%ebp),%edx
  1008cf:	89 54 24 08          	mov    %edx,0x8(%esp)
  1008d3:	89 44 24 04          	mov    %eax,0x4(%esp)
  1008d7:	8b 45 08             	mov    0x8(%ebp),%eax
  1008da:	89 04 24             	mov    %eax,(%esp)
  1008dd:	e8 ee 00 00 00       	call   1009d0 <_ZN5Print5printEmi>
  1008e2:	c9                   	leave  
  1008e3:	c3                   	ret    

001008e4 <_ZN5Print5printEii>:
  1008e4:	55                   	push   %ebp
  1008e5:	89 e5                	mov    %esp,%ebp
  1008e7:	83 ec 18             	sub    $0x18,%esp
  1008ea:	8b 45 10             	mov    0x10(%ebp),%eax
  1008ed:	89 44 24 08          	mov    %eax,0x8(%esp)
  1008f1:	8b 45 0c             	mov    0xc(%ebp),%eax
  1008f4:	89 44 24 04          	mov    %eax,0x4(%esp)
  1008f8:	8b 45 08             	mov    0x8(%ebp),%eax
  1008fb:	89 04 24             	mov    %eax,(%esp)
  1008fe:	e8 25 00 00 00       	call   100928 <_ZN5Print5printEli>
  100903:	c9                   	leave  
  100904:	c3                   	ret    
  100905:	90                   	nop

00100906 <_ZN5Print5printEji>:
  100906:	55                   	push   %ebp
  100907:	89 e5                	mov    %esp,%ebp
  100909:	83 ec 18             	sub    $0x18,%esp
  10090c:	8b 45 10             	mov    0x10(%ebp),%eax
  10090f:	89 44 24 08          	mov    %eax,0x8(%esp)
  100913:	8b 45 0c             	mov    0xc(%ebp),%eax
  100916:	89 44 24 04          	mov    %eax,0x4(%esp)
  10091a:	8b 45 08             	mov    0x8(%ebp),%eax
  10091d:	89 04 24             	mov    %eax,(%esp)
  100920:	e8 ab 00 00 00       	call   1009d0 <_ZN5Print5printEmi>
  100925:	c9                   	leave  
  100926:	c3                   	ret    
  100927:	90                   	nop

00100928 <_ZN5Print5printEli>:
  100928:	55                   	push   %ebp
  100929:	89 e5                	mov    %esp,%ebp
  10092b:	83 ec 28             	sub    $0x28,%esp
  10092e:	83 7d 10 00          	cmpl   $0x0,0x10(%ebp)
  100932:	75 1b                	jne    10094f <_ZN5Print5printEli+0x27>
  100934:	8b 45 08             	mov    0x8(%ebp),%eax
  100937:	8b 00                	mov    (%eax),%eax
  100939:	8b 00                	mov    (%eax),%eax
  10093b:	8b 55 0c             	mov    0xc(%ebp),%edx
  10093e:	0f b6 d2             	movzbl %dl,%edx
  100941:	89 54 24 04          	mov    %edx,0x4(%esp)
  100945:	8b 55 08             	mov    0x8(%ebp),%edx
  100948:	89 14 24             	mov    %edx,(%esp)
  10094b:	ff d0                	call   *%eax
  10094d:	eb 7e                	jmp    1009cd <_ZN5Print5printEli+0xa5>
  10094f:	83 7d 10 0a          	cmpl   $0xa,0x10(%ebp)
  100953:	75 5c                	jne    1009b1 <_ZN5Print5printEli+0x89>
  100955:	83 7d 0c 00          	cmpl   $0x0,0xc(%ebp)
  100959:	79 3a                	jns    100995 <_ZN5Print5printEli+0x6d>
  10095b:	c7 44 24 04 2d 00 00 	movl   $0x2d,0x4(%esp)
  100962:	00 
  100963:	8b 45 08             	mov    0x8(%ebp),%eax
  100966:	89 04 24             	mov    %eax,(%esp)
  100969:	e8 26 ff ff ff       	call   100894 <_ZN5Print5printEc>
  10096e:	89 45 f4             	mov    %eax,-0xc(%ebp)
  100971:	f7 5d 0c             	negl   0xc(%ebp)
  100974:	8b 45 0c             	mov    0xc(%ebp),%eax
  100977:	c7 44 24 08 0a 00 00 	movl   $0xa,0x8(%esp)
  10097e:	00 
  10097f:	89 44 24 04          	mov    %eax,0x4(%esp)
  100983:	8b 45 08             	mov    0x8(%ebp),%eax
  100986:	89 04 24             	mov    %eax,(%esp)
  100989:	e8 aa 02 00 00       	call   100c38 <_ZN5Print11printNumberEmh>
  10098e:	8b 55 f4             	mov    -0xc(%ebp),%edx
  100991:	01 d0                	add    %edx,%eax
  100993:	eb 38                	jmp    1009cd <_ZN5Print5printEli+0xa5>
  100995:	8b 45 0c             	mov    0xc(%ebp),%eax
  100998:	c7 44 24 08 0a 00 00 	movl   $0xa,0x8(%esp)
  10099f:	00 
  1009a0:	89 44 24 04          	mov    %eax,0x4(%esp)
  1009a4:	8b 45 08             	mov    0x8(%ebp),%eax
  1009a7:	89 04 24             	mov    %eax,(%esp)
  1009aa:	e8 89 02 00 00       	call   100c38 <_ZN5Print11printNumberEmh>
  1009af:	eb 1c                	jmp    1009cd <_ZN5Print5printEli+0xa5>
  1009b1:	8b 45 10             	mov    0x10(%ebp),%eax
  1009b4:	0f b6 d0             	movzbl %al,%edx
  1009b7:	8b 45 0c             	mov    0xc(%ebp),%eax
  1009ba:	89 54 24 08          	mov    %edx,0x8(%esp)
  1009be:	89 44 24 04          	mov    %eax,0x4(%esp)
  1009c2:	8b 45 08             	mov    0x8(%ebp),%eax
  1009c5:	89 04 24             	mov    %eax,(%esp)
  1009c8:	e8 6b 02 00 00       	call   100c38 <_ZN5Print11printNumberEmh>
  1009cd:	c9                   	leave  
  1009ce:	c3                   	ret    
  1009cf:	90                   	nop

001009d0 <_ZN5Print5printEmi>:
  1009d0:	55                   	push   %ebp
  1009d1:	89 e5                	mov    %esp,%ebp
  1009d3:	83 ec 18             	sub    $0x18,%esp
  1009d6:	83 7d 10 00          	cmpl   $0x0,0x10(%ebp)
  1009da:	75 1b                	jne    1009f7 <_ZN5Print5printEmi+0x27>
  1009dc:	8b 45 08             	mov    0x8(%ebp),%eax
  1009df:	8b 00                	mov    (%eax),%eax
  1009e1:	8b 00                	mov    (%eax),%eax
  1009e3:	8b 55 0c             	mov    0xc(%ebp),%edx
  1009e6:	0f b6 d2             	movzbl %dl,%edx
  1009e9:	89 54 24 04          	mov    %edx,0x4(%esp)
  1009ed:	8b 55 08             	mov    0x8(%ebp),%edx
  1009f0:	89 14 24             	mov    %edx,(%esp)
  1009f3:	ff d0                	call   *%eax
  1009f5:	eb 1c                	jmp    100a13 <_ZN5Print5printEmi+0x43>
  1009f7:	8b 45 10             	mov    0x10(%ebp),%eax
  1009fa:	0f b6 c0             	movzbl %al,%eax
  1009fd:	89 44 24 08          	mov    %eax,0x8(%esp)
  100a01:	8b 45 0c             	mov    0xc(%ebp),%eax
  100a04:	89 44 24 04          	mov    %eax,0x4(%esp)
  100a08:	8b 45 08             	mov    0x8(%ebp),%eax
  100a0b:	89 04 24             	mov    %eax,(%esp)
  100a0e:	e8 25 02 00 00       	call   100c38 <_ZN5Print11printNumberEmh>
  100a13:	c9                   	leave  
  100a14:	c3                   	ret    
  100a15:	90                   	nop

00100a16 <_ZN5Print5printEdi>:
  100a16:	55                   	push   %ebp
  100a17:	89 e5                	mov    %esp,%ebp
  100a19:	83 ec 28             	sub    $0x28,%esp
  100a1c:	8b 45 0c             	mov    0xc(%ebp),%eax
  100a1f:	89 45 f0             	mov    %eax,-0x10(%ebp)
  100a22:	8b 45 10             	mov    0x10(%ebp),%eax
  100a25:	89 45 f4             	mov    %eax,-0xc(%ebp)
  100a28:	8b 45 14             	mov    0x14(%ebp),%eax
  100a2b:	0f b6 c0             	movzbl %al,%eax
  100a2e:	89 44 24 0c          	mov    %eax,0xc(%esp)
  100a32:	dd 45 f0             	fldl   -0x10(%ebp)
  100a35:	dd 5c 24 04          	fstpl  0x4(%esp)
  100a39:	8b 45 08             	mov    0x8(%ebp),%eax
  100a3c:	89 04 24             	mov    %eax,(%esp)
  100a3f:	e8 a6 02 00 00       	call   100cea <_ZN5Print10printFloatEdh>
  100a44:	c9                   	leave  
  100a45:	c3                   	ret    

00100a46 <_ZN5Print7printlnEv>:
  100a46:	55                   	push   %ebp
  100a47:	89 e5                	mov    %esp,%ebp
  100a49:	83 ec 28             	sub    $0x28,%esp
  100a4c:	c7 44 24 04 0d 00 00 	movl   $0xd,0x4(%esp)
  100a53:	00 
  100a54:	8b 45 08             	mov    0x8(%ebp),%eax
  100a57:	89 04 24             	mov    %eax,(%esp)
  100a5a:	e8 35 fe ff ff       	call   100894 <_ZN5Print5printEc>
  100a5f:	89 45 f4             	mov    %eax,-0xc(%ebp)
  100a62:	c7 44 24 04 0a 00 00 	movl   $0xa,0x4(%esp)
  100a69:	00 
  100a6a:	8b 45 08             	mov    0x8(%ebp),%eax
  100a6d:	89 04 24             	mov    %eax,(%esp)
  100a70:	e8 1f fe ff ff       	call   100894 <_ZN5Print5printEc>
  100a75:	01 45 f4             	add    %eax,-0xc(%ebp)
  100a78:	8b 45 f4             	mov    -0xc(%ebp),%eax
  100a7b:	c9                   	leave  
  100a7c:	c3                   	ret    
  100a7d:	90                   	nop

00100a7e <_ZN5Print7printlnEPKc>:
  100a7e:	55                   	push   %ebp
  100a7f:	89 e5                	mov    %esp,%ebp
  100a81:	83 ec 28             	sub    $0x28,%esp
  100a84:	8b 45 0c             	mov    0xc(%ebp),%eax
  100a87:	89 44 24 04          	mov    %eax,0x4(%esp)
  100a8b:	8b 45 08             	mov    0x8(%ebp),%eax
  100a8e:	89 04 24             	mov    %eax,(%esp)
  100a91:	e8 e4 fd ff ff       	call   10087a <_ZN5Print5printEPKc>
  100a96:	89 45 f4             	mov    %eax,-0xc(%ebp)
  100a99:	8b 45 08             	mov    0x8(%ebp),%eax
  100a9c:	89 04 24             	mov    %eax,(%esp)
  100a9f:	e8 a2 ff ff ff       	call   100a46 <_ZN5Print7printlnEv>
  100aa4:	01 45 f4             	add    %eax,-0xc(%ebp)
  100aa7:	8b 45 f4             	mov    -0xc(%ebp),%eax
  100aaa:	c9                   	leave  
  100aab:	c3                   	ret    

00100aac <_ZN5Print7printlnEc>:
  100aac:	55                   	push   %ebp
  100aad:	89 e5                	mov    %esp,%ebp
  100aaf:	83 ec 28             	sub    $0x28,%esp
  100ab2:	8b 45 0c             	mov    0xc(%ebp),%eax
  100ab5:	88 45 e4             	mov    %al,-0x1c(%ebp)
  100ab8:	0f be 45 e4          	movsbl -0x1c(%ebp),%eax
  100abc:	89 44 24 04          	mov    %eax,0x4(%esp)
  100ac0:	8b 45 08             	mov    0x8(%ebp),%eax
  100ac3:	89 04 24             	mov    %eax,(%esp)
  100ac6:	e8 c9 fd ff ff       	call   100894 <_ZN5Print5printEc>
  100acb:	89 45 f4             	mov    %eax,-0xc(%ebp)
  100ace:	8b 45 08             	mov    0x8(%ebp),%eax
  100ad1:	89 04 24             	mov    %eax,(%esp)
  100ad4:	e8 6d ff ff ff       	call   100a46 <_ZN5Print7printlnEv>
  100ad9:	01 45 f4             	add    %eax,-0xc(%ebp)
  100adc:	8b 45 f4             	mov    -0xc(%ebp),%eax
  100adf:	c9                   	leave  
  100ae0:	c3                   	ret    
  100ae1:	90                   	nop

00100ae2 <_ZN5Print7printlnEhi>:
  100ae2:	55                   	push   %ebp
  100ae3:	89 e5                	mov    %esp,%ebp
  100ae5:	83 ec 28             	sub    $0x28,%esp
  100ae8:	8b 45 0c             	mov    0xc(%ebp),%eax
  100aeb:	88 45 e4             	mov    %al,-0x1c(%ebp)
  100aee:	0f b6 45 e4          	movzbl -0x1c(%ebp),%eax
  100af2:	8b 55 10             	mov    0x10(%ebp),%edx
  100af5:	89 54 24 08          	mov    %edx,0x8(%esp)
  100af9:	89 44 24 04          	mov    %eax,0x4(%esp)
  100afd:	8b 45 08             	mov    0x8(%ebp),%eax
  100b00:	89 04 24             	mov    %eax,(%esp)
  100b03:	e8 b4 fd ff ff       	call   1008bc <_ZN5Print5printEhi>
  100b08:	89 45 f4             	mov    %eax,-0xc(%ebp)
  100b0b:	8b 45 08             	mov    0x8(%ebp),%eax
  100b0e:	89 04 24             	mov    %eax,(%esp)
  100b11:	e8 30 ff ff ff       	call   100a46 <_ZN5Print7printlnEv>
  100b16:	01 45 f4             	add    %eax,-0xc(%ebp)
  100b19:	8b 45 f4             	mov    -0xc(%ebp),%eax
  100b1c:	c9                   	leave  
  100b1d:	c3                   	ret    

00100b1e <_ZN5Print7printlnEii>:
  100b1e:	55                   	push   %ebp
  100b1f:	89 e5                	mov    %esp,%ebp
  100b21:	83 ec 28             	sub    $0x28,%esp
  100b24:	8b 45 10             	mov    0x10(%ebp),%eax
  100b27:	89 44 24 08          	mov    %eax,0x8(%esp)
  100b2b:	8b 45 0c             	mov    0xc(%ebp),%eax
  100b2e:	89 44 24 04          	mov    %eax,0x4(%esp)
  100b32:	8b 45 08             	mov    0x8(%ebp),%eax
  100b35:	89 04 24             	mov    %eax,(%esp)
  100b38:	e8 a7 fd ff ff       	call   1008e4 <_ZN5Print5printEii>
  100b3d:	89 45 f4             	mov    %eax,-0xc(%ebp)
  100b40:	8b 45 08             	mov    0x8(%ebp),%eax
  100b43:	89 04 24             	mov    %eax,(%esp)
  100b46:	e8 fb fe ff ff       	call   100a46 <_ZN5Print7printlnEv>
  100b4b:	01 45 f4             	add    %eax,-0xc(%ebp)
  100b4e:	8b 45 f4             	mov    -0xc(%ebp),%eax
  100b51:	c9                   	leave  
  100b52:	c3                   	ret    
  100b53:	90                   	nop

00100b54 <_ZN5Print7printlnEji>:
  100b54:	55                   	push   %ebp
  100b55:	89 e5                	mov    %esp,%ebp
  100b57:	83 ec 28             	sub    $0x28,%esp
  100b5a:	8b 45 10             	mov    0x10(%ebp),%eax
  100b5d:	89 44 24 08          	mov    %eax,0x8(%esp)
  100b61:	8b 45 0c             	mov    0xc(%ebp),%eax
  100b64:	89 44 24 04          	mov    %eax,0x4(%esp)
  100b68:	8b 45 08             	mov    0x8(%ebp),%eax
  100b6b:	89 04 24             	mov    %eax,(%esp)
  100b6e:	e8 93 fd ff ff       	call   100906 <_ZN5Print5printEji>
  100b73:	89 45 f4             	mov    %eax,-0xc(%ebp)
  100b76:	8b 45 08             	mov    0x8(%ebp),%eax
  100b79:	89 04 24             	mov    %eax,(%esp)
  100b7c:	e8 c5 fe ff ff       	call   100a46 <_ZN5Print7printlnEv>
  100b81:	01 45 f4             	add    %eax,-0xc(%ebp)
  100b84:	8b 45 f4             	mov    -0xc(%ebp),%eax
  100b87:	c9                   	leave  
  100b88:	c3                   	ret    
  100b89:	90                   	nop

00100b8a <_ZN5Print7printlnEli>:
  100b8a:	55                   	push   %ebp
  100b8b:	89 e5                	mov    %esp,%ebp
  100b8d:	83 ec 28             	sub    $0x28,%esp
  100b90:	8b 45 10             	mov    0x10(%ebp),%eax
  100b93:	89 44 24 08          	mov    %eax,0x8(%esp)
  100b97:	8b 45 0c             	mov    0xc(%ebp),%eax
  100b9a:	89 44 24 04          	mov    %eax,0x4(%esp)
  100b9e:	8b 45 08             	mov    0x8(%ebp),%eax
  100ba1:	89 04 24             	mov    %eax,(%esp)
  100ba4:	e8 7f fd ff ff       	call   100928 <_ZN5Print5printEli>
  100ba9:	89 45 f4             	mov    %eax,-0xc(%ebp)
  100bac:	8b 45 08             	mov    0x8(%ebp),%eax
  100baf:	89 04 24             	mov    %eax,(%esp)
  100bb2:	e8 8f fe ff ff       	call   100a46 <_ZN5Print7printlnEv>
  100bb7:	01 45 f4             	add    %eax,-0xc(%ebp)
  100bba:	8b 45 f4             	mov    -0xc(%ebp),%eax
  100bbd:	c9                   	leave  
  100bbe:	c3                   	ret    
  100bbf:	90                   	nop

00100bc0 <_ZN5Print7printlnEmi>:
  100bc0:	55                   	push   %ebp
  100bc1:	89 e5                	mov    %esp,%ebp
  100bc3:	83 ec 28             	sub    $0x28,%esp
  100bc6:	8b 45 10             	mov    0x10(%ebp),%eax
  100bc9:	89 44 24 08          	mov    %eax,0x8(%esp)
  100bcd:	8b 45 0c             	mov    0xc(%ebp),%eax
  100bd0:	89 44 24 04          	mov    %eax,0x4(%esp)
  100bd4:	8b 45 08             	mov    0x8(%ebp),%eax
  100bd7:	89 04 24             	mov    %eax,(%esp)
  100bda:	e8 f1 fd ff ff       	call   1009d0 <_ZN5Print5printEmi>
  100bdf:	89 45 f4             	mov    %eax,-0xc(%ebp)
  100be2:	8b 45 08             	mov    0x8(%ebp),%eax
  100be5:	89 04 24             	mov    %eax,(%esp)
  100be8:	e8 59 fe ff ff       	call   100a46 <_ZN5Print7printlnEv>
  100bed:	01 45 f4             	add    %eax,-0xc(%ebp)
  100bf0:	8b 45 f4             	mov    -0xc(%ebp),%eax
  100bf3:	c9                   	leave  
  100bf4:	c3                   	ret    
  100bf5:	90                   	nop

00100bf6 <_ZN5Print7printlnEdi>:
  100bf6:	55                   	push   %ebp
  100bf7:	89 e5                	mov    %esp,%ebp
  100bf9:	83 ec 38             	sub    $0x38,%esp
  100bfc:	8b 45 0c             	mov    0xc(%ebp),%eax
  100bff:	89 45 e0             	mov    %eax,-0x20(%ebp)
  100c02:	8b 45 10             	mov    0x10(%ebp),%eax
  100c05:	89 45 e4             	mov    %eax,-0x1c(%ebp)
  100c08:	8b 45 14             	mov    0x14(%ebp),%eax
  100c0b:	89 44 24 0c          	mov    %eax,0xc(%esp)
  100c0f:	dd 45 e0             	fldl   -0x20(%ebp)
  100c12:	dd 5c 24 04          	fstpl  0x4(%esp)
  100c16:	8b 45 08             	mov    0x8(%ebp),%eax
  100c19:	89 04 24             	mov    %eax,(%esp)
  100c1c:	e8 f5 fd ff ff       	call   100a16 <_ZN5Print5printEdi>
  100c21:	89 45 f4             	mov    %eax,-0xc(%ebp)
  100c24:	8b 45 08             	mov    0x8(%ebp),%eax
  100c27:	89 04 24             	mov    %eax,(%esp)
  100c2a:	e8 17 fe ff ff       	call   100a46 <_ZN5Print7printlnEv>
  100c2f:	01 45 f4             	add    %eax,-0xc(%ebp)
  100c32:	8b 45 f4             	mov    -0xc(%ebp),%eax
  100c35:	c9                   	leave  
  100c36:	c3                   	ret    
  100c37:	90                   	nop

00100c38 <_ZN5Print11printNumberEmh>:
  100c38:	55                   	push   %ebp
  100c39:	89 e5                	mov    %esp,%ebp
  100c3b:	53                   	push   %ebx
  100c3c:	83 ec 54             	sub    $0x54,%esp
  100c3f:	8b 45 10             	mov    0x10(%ebp),%eax
  100c42:	8b 55 08             	mov    0x8(%ebp),%edx
  100c45:	89 55 b4             	mov    %edx,-0x4c(%ebp)
  100c48:	88 45 b0             	mov    %al,-0x50(%ebp)
  100c4b:	65 a1 14 00 00 00    	mov    %gs:0x14,%eax
  100c51:	89 45 f4             	mov    %eax,-0xc(%ebp)
  100c54:	31 c0                	xor    %eax,%eax
  100c56:	b8 20 00 00 00       	mov    $0x20,%eax
  100c5b:	8d 55 d3             	lea    -0x2d(%ebp),%edx
  100c5e:	01 d0                	add    %edx,%eax
  100c60:	89 45 c8             	mov    %eax,-0x38(%ebp)
  100c63:	8b 45 c8             	mov    -0x38(%ebp),%eax
  100c66:	c6 00 00             	movb   $0x0,(%eax)
  100c69:	80 7d b0 01          	cmpb   $0x1,-0x50(%ebp)
  100c6d:	77 04                	ja     100c73 <_ZN5Print11printNumberEmh+0x3b>
  100c6f:	c6 45 b0 0a          	movb   $0xa,-0x50(%ebp)
  100c73:	8b 45 0c             	mov    0xc(%ebp),%eax
  100c76:	89 45 cc             	mov    %eax,-0x34(%ebp)
  100c79:	0f b6 5d b0          	movzbl -0x50(%ebp),%ebx
  100c7d:	8b 45 0c             	mov    0xc(%ebp),%eax
  100c80:	ba 00 00 00 00       	mov    $0x0,%edx
  100c85:	f7 f3                	div    %ebx
  100c87:	89 45 0c             	mov    %eax,0xc(%ebp)
  100c8a:	8b 45 cc             	mov    -0x34(%ebp),%eax
  100c8d:	89 c2                	mov    %eax,%edx
  100c8f:	8b 45 0c             	mov    0xc(%ebp),%eax
  100c92:	f6 65 b0             	mulb   -0x50(%ebp)
  100c95:	29 c2                	sub    %eax,%edx
  100c97:	89 d0                	mov    %edx,%eax
  100c99:	88 45 c7             	mov    %al,-0x39(%ebp)
  100c9c:	83 6d c8 01          	subl   $0x1,-0x38(%ebp)
  100ca0:	80 7d c7 09          	cmpb   $0x9,-0x39(%ebp)
  100ca4:	7f 09                	jg     100caf <_ZN5Print11printNumberEmh+0x77>
  100ca6:	0f b6 45 c7          	movzbl -0x39(%ebp),%eax
  100caa:	83 c0 30             	add    $0x30,%eax
  100cad:	eb 07                	jmp    100cb6 <_ZN5Print11printNumberEmh+0x7e>
  100caf:	0f b6 45 c7          	movzbl -0x39(%ebp),%eax
  100cb3:	83 c0 37             	add    $0x37,%eax
  100cb6:	8b 55 c8             	mov    -0x38(%ebp),%edx
  100cb9:	88 02                	mov    %al,(%edx)
  100cbb:	83 7d 0c 00          	cmpl   $0x0,0xc(%ebp)
  100cbf:	75 b2                	jne    100c73 <_ZN5Print11printNumberEmh+0x3b>
  100cc1:	8b 45 c8             	mov    -0x38(%ebp),%eax
  100cc4:	89 44 24 04          	mov    %eax,0x4(%esp)
  100cc8:	8b 45 b4             	mov    -0x4c(%ebp),%eax
  100ccb:	89 04 24             	mov    %eax,(%esp)
  100cce:	e8 65 fb ff ff       	call   100838 <_ZN5Print5writeEPKc>
  100cd3:	8b 4d f4             	mov    -0xc(%ebp),%ecx
  100cd6:	65 33 0d 14 00 00 00 	xor    %gs:0x14,%ecx
  100cdd:	74 05                	je     100ce4 <_ZN5Print11printNumberEmh+0xac>
  100cdf:	e8 8c 34 00 00       	call   104170 <__fini_array_end+0x58>
  100ce4:	83 c4 54             	add    $0x54,%esp
  100ce7:	5b                   	pop    %ebx
  100ce8:	5d                   	pop    %ebp
  100ce9:	c3                   	ret    

00100cea <_ZN5Print10printFloatEdh>:
  100cea:	55                   	push   %ebp
  100ceb:	89 e5                	mov    %esp,%ebp
  100ced:	83 ec 58             	sub    $0x58,%esp
  100cf0:	8b 45 14             	mov    0x14(%ebp),%eax
  100cf3:	8b 55 0c             	mov    0xc(%ebp),%edx
  100cf6:	89 55 d0             	mov    %edx,-0x30(%ebp)
  100cf9:	8b 55 10             	mov    0x10(%ebp),%edx
  100cfc:	89 55 d4             	mov    %edx,-0x2c(%ebp)
  100cff:	88 45 cc             	mov    %al,-0x34(%ebp)
  100d02:	c7 45 dc 00 00 00 00 	movl   $0x0,-0x24(%ebp)
  100d09:	dd 45 d0             	fldl   -0x30(%ebp)
  100d0c:	dd 1c 24             	fstpl  (%esp)
  100d0f:	e8 6c 34 00 00       	call   104180 <__fini_array_end+0x68>
  100d14:	85 c0                	test   %eax,%eax
  100d16:	0f 95 c0             	setne  %al
  100d19:	84 c0                	test   %al,%al
  100d1b:	74 18                	je     100d35 <_ZN5Print10printFloatEdh+0x4b>
  100d1d:	c7 44 24 04 e8 3b 10 	movl   $0x103be8,0x4(%esp)
  100d24:	00 
  100d25:	8b 45 08             	mov    0x8(%ebp),%eax
  100d28:	89 04 24             	mov    %eax,(%esp)
  100d2b:	e8 4a fb ff ff       	call   10087a <_ZN5Print5printEPKc>
  100d30:	e9 b7 01 00 00       	jmp    100eec <_ZN5Print10printFloatEdh+0x202>
  100d35:	dd 45 d0             	fldl   -0x30(%ebp)
  100d38:	dd 1c 24             	fstpl  (%esp)
  100d3b:	e8 00 34 00 00       	call   104140 <__fini_array_end+0x28>
  100d40:	85 c0                	test   %eax,%eax
  100d42:	0f 95 c0             	setne  %al
  100d45:	84 c0                	test   %al,%al
  100d47:	74 18                	je     100d61 <_ZN5Print10printFloatEdh+0x77>
  100d49:	c7 44 24 04 ec 3b 10 	movl   $0x103bec,0x4(%esp)
  100d50:	00 
  100d51:	8b 45 08             	mov    0x8(%ebp),%eax
  100d54:	89 04 24             	mov    %eax,(%esp)
  100d57:	e8 1e fb ff ff       	call   10087a <_ZN5Print5printEPKc>
  100d5c:	e9 8b 01 00 00       	jmp    100eec <_ZN5Print10printFloatEdh+0x202>
  100d61:	dd 45 d0             	fldl   -0x30(%ebp)
  100d64:	dd 05 f8 3b 10 00    	fldl   0x103bf8
  100d6a:	d9 c9                	fxch   %st(1)
  100d6c:	df e9                	fucomip %st(1),%st
  100d6e:	dd d8                	fstp   %st(0)
  100d70:	76 18                	jbe    100d8a <_ZN5Print10printFloatEdh+0xa0>
  100d72:	c7 44 24 04 f0 3b 10 	movl   $0x103bf0,0x4(%esp)
  100d79:	00 
  100d7a:	8b 45 08             	mov    0x8(%ebp),%eax
  100d7d:	89 04 24             	mov    %eax,(%esp)
  100d80:	e8 f5 fa ff ff       	call   10087a <_ZN5Print5printEPKc>
  100d85:	e9 62 01 00 00       	jmp    100eec <_ZN5Print10printFloatEdh+0x202>
  100d8a:	dd 05 00 3c 10 00    	fldl   0x103c00
  100d90:	dd 45 d0             	fldl   -0x30(%ebp)
  100d93:	d9 c9                	fxch   %st(1)
  100d95:	df e9                	fucomip %st(1),%st
  100d97:	dd d8                	fstp   %st(0)
  100d99:	76 18                	jbe    100db3 <_ZN5Print10printFloatEdh+0xc9>
  100d9b:	c7 44 24 04 f0 3b 10 	movl   $0x103bf0,0x4(%esp)
  100da2:	00 
  100da3:	8b 45 08             	mov    0x8(%ebp),%eax
  100da6:	89 04 24             	mov    %eax,(%esp)
  100da9:	e8 cc fa ff ff       	call   10087a <_ZN5Print5printEPKc>
  100dae:	e9 39 01 00 00       	jmp    100eec <_ZN5Print10printFloatEdh+0x202>
  100db3:	d9 ee                	fldz   
  100db5:	dd 45 d0             	fldl   -0x30(%ebp)
  100db8:	d9 c9                	fxch   %st(1)
  100dba:	df e9                	fucomip %st(1),%st
  100dbc:	dd d8                	fstp   %st(0)
  100dbe:	76 1e                	jbe    100dde <_ZN5Print10printFloatEdh+0xf4>
  100dc0:	c7 44 24 04 2d 00 00 	movl   $0x2d,0x4(%esp)
  100dc7:	00 
  100dc8:	8b 45 08             	mov    0x8(%ebp),%eax
  100dcb:	89 04 24             	mov    %eax,(%esp)
  100dce:	e8 c1 fa ff ff       	call   100894 <_ZN5Print5printEc>
  100dd3:	01 45 dc             	add    %eax,-0x24(%ebp)
  100dd6:	dd 45 d0             	fldl   -0x30(%ebp)
  100dd9:	d9 e0                	fchs   
  100ddb:	dd 5d d0             	fstpl  -0x30(%ebp)
  100dde:	dd 05 08 3c 10 00    	fldl   0x103c08
  100de4:	dd 5d e8             	fstpl  -0x18(%ebp)
  100de7:	c6 45 db 00          	movb   $0x0,-0x25(%ebp)
  100deb:	eb 12                	jmp    100dff <_ZN5Print10printFloatEdh+0x115>
  100ded:	dd 45 e8             	fldl   -0x18(%ebp)
  100df0:	dd 05 10 3c 10 00    	fldl   0x103c10
  100df6:	de f9                	fdivrp %st,%st(1)
  100df8:	dd 5d e8             	fstpl  -0x18(%ebp)
  100dfb:	80 45 db 01          	addb   $0x1,-0x25(%ebp)
  100dff:	0f b6 45 db          	movzbl -0x25(%ebp),%eax
  100e03:	3a 45 cc             	cmp    -0x34(%ebp),%al
  100e06:	72 e5                	jb     100ded <_ZN5Print10printFloatEdh+0x103>
  100e08:	dd 45 d0             	fldl   -0x30(%ebp)
  100e0b:	dc 45 e8             	faddl  -0x18(%ebp)
  100e0e:	dd 5d d0             	fstpl  -0x30(%ebp)
  100e11:	dd 45 d0             	fldl   -0x30(%ebp)
  100e14:	d9 7d ce             	fnstcw -0x32(%ebp)
  100e17:	0f b7 45 ce          	movzwl -0x32(%ebp),%eax
  100e1b:	b4 0c                	mov    $0xc,%ah
  100e1d:	66 89 45 ca          	mov    %ax,-0x36(%ebp)
  100e21:	d9 6d ca             	fldcw  -0x36(%ebp)
  100e24:	df 7d c0             	fistpll -0x40(%ebp)
  100e27:	d9 6d ce             	fldcw  -0x32(%ebp)
  100e2a:	8b 45 c0             	mov    -0x40(%ebp),%eax
  100e2d:	8b 55 c4             	mov    -0x3c(%ebp),%edx
  100e30:	89 45 e0             	mov    %eax,-0x20(%ebp)
  100e33:	8b 45 e0             	mov    -0x20(%ebp),%eax
  100e36:	ba 00 00 00 00       	mov    $0x0,%edx
  100e3b:	89 45 c0             	mov    %eax,-0x40(%ebp)
  100e3e:	89 55 c4             	mov    %edx,-0x3c(%ebp)
  100e41:	df 6d c0             	fildll -0x40(%ebp)
  100e44:	dd 45 d0             	fldl   -0x30(%ebp)
  100e47:	de e1                	fsubp  %st,%st(1)
  100e49:	dd 5d f0             	fstpl  -0x10(%ebp)
  100e4c:	c7 44 24 08 0a 00 00 	movl   $0xa,0x8(%esp)
  100e53:	00 
  100e54:	8b 45 e0             	mov    -0x20(%ebp),%eax
  100e57:	89 44 24 04          	mov    %eax,0x4(%esp)
  100e5b:	8b 45 08             	mov    0x8(%ebp),%eax
  100e5e:	89 04 24             	mov    %eax,(%esp)
  100e61:	e8 6a fb ff ff       	call   1009d0 <_ZN5Print5printEmi>
  100e66:	01 45 dc             	add    %eax,-0x24(%ebp)
  100e69:	80 7d cc 00          	cmpb   $0x0,-0x34(%ebp)
  100e6d:	74 16                	je     100e85 <_ZN5Print10printFloatEdh+0x19b>
  100e6f:	c7 44 24 04 f4 3b 10 	movl   $0x103bf4,0x4(%esp)
  100e76:	00 
  100e77:	8b 45 08             	mov    0x8(%ebp),%eax
  100e7a:	89 04 24             	mov    %eax,(%esp)
  100e7d:	e8 f8 f9 ff ff       	call   10087a <_ZN5Print5printEPKc>
  100e82:	01 45 dc             	add    %eax,-0x24(%ebp)
  100e85:	eb 4f                	jmp    100ed6 <_ZN5Print10printFloatEdh+0x1ec>
  100e87:	dd 45 f0             	fldl   -0x10(%ebp)
  100e8a:	dd 05 10 3c 10 00    	fldl   0x103c10
  100e90:	de c9                	fmulp  %st,%st(1)
  100e92:	dd 5d f0             	fstpl  -0x10(%ebp)
  100e95:	dd 45 f0             	fldl   -0x10(%ebp)
  100e98:	d9 7d ce             	fnstcw -0x32(%ebp)
  100e9b:	0f b7 45 ce          	movzwl -0x32(%ebp),%eax
  100e9f:	b4 0c                	mov    $0xc,%ah
  100ea1:	66 89 45 ca          	mov    %ax,-0x36(%ebp)
  100ea5:	d9 6d ca             	fldcw  -0x36(%ebp)
  100ea8:	db 5d e4             	fistpl -0x1c(%ebp)
  100eab:	d9 6d ce             	fldcw  -0x32(%ebp)
  100eae:	c7 44 24 08 0a 00 00 	movl   $0xa,0x8(%esp)
  100eb5:	00 
  100eb6:	8b 45 e4             	mov    -0x1c(%ebp),%eax
  100eb9:	89 44 24 04          	mov    %eax,0x4(%esp)
  100ebd:	8b 45 08             	mov    0x8(%ebp),%eax
  100ec0:	89 04 24             	mov    %eax,(%esp)
  100ec3:	e8 1c fa ff ff       	call   1008e4 <_ZN5Print5printEii>
  100ec8:	01 45 dc             	add    %eax,-0x24(%ebp)
  100ecb:	db 45 e4             	fildl  -0x1c(%ebp)
  100ece:	dd 45 f0             	fldl   -0x10(%ebp)
  100ed1:	de e1                	fsubp  %st,%st(1)
  100ed3:	dd 5d f0             	fstpl  -0x10(%ebp)
  100ed6:	0f b6 45 cc          	movzbl -0x34(%ebp),%eax
  100eda:	8d 50 ff             	lea    -0x1(%eax),%edx
  100edd:	88 55 cc             	mov    %dl,-0x34(%ebp)
  100ee0:	84 c0                	test   %al,%al
  100ee2:	0f 95 c0             	setne  %al
  100ee5:	84 c0                	test   %al,%al
  100ee7:	75 9e                	jne    100e87 <_ZN5Print10printFloatEdh+0x19d>
  100ee9:	8b 45 dc             	mov    -0x24(%ebp),%eax
  100eec:	c9                   	leave  
  100eed:	c3                   	ret    

00100eee <_ZL4outbth>:
  100eee:	55                   	push   %ebp
  100eef:	89 e5                	mov    %esp,%ebp
  100ef1:	83 ec 08             	sub    $0x8,%esp
  100ef4:	8b 55 08             	mov    0x8(%ebp),%edx
  100ef7:	8b 45 0c             	mov    0xc(%ebp),%eax
  100efa:	66 89 55 fc          	mov    %dx,-0x4(%ebp)
  100efe:	88 45 f8             	mov    %al,-0x8(%ebp)
  100f01:	0f b7 55 fc          	movzwl -0x4(%ebp),%edx
  100f05:	0f b6 45 f8          	movzbl -0x8(%ebp),%eax
  100f09:	ee                   	out    %al,(%dx)
  100f0a:	c9                   	leave  
  100f0b:	c3                   	ret    

00100f0c <_ZL3inbt>:
  100f0c:	55                   	push   %ebp
  100f0d:	89 e5                	mov    %esp,%ebp
  100f0f:	83 ec 14             	sub    $0x14,%esp
  100f12:	8b 45 08             	mov    0x8(%ebp),%eax
  100f15:	66 89 45 ec          	mov    %ax,-0x14(%ebp)
  100f19:	0f b7 45 ec          	movzwl -0x14(%ebp),%eax
  100f1d:	89 c2                	mov    %eax,%edx
  100f1f:	ec                   	in     (%dx),%al
  100f20:	66 89 45 fe          	mov    %ax,-0x2(%ebp)
  100f24:	0f b7 45 fe          	movzwl -0x2(%ebp),%eax
  100f28:	c9                   	leave  
  100f29:	c3                   	ret    

00100f2a <_ZL29platform_abstract_irq_handlerP14interrupt_info>:
  100f2a:	55                   	push   %ebp
  100f2b:	89 e5                	mov    %esp,%ebp
  100f2d:	83 ec 08             	sub    $0x8,%esp
  100f30:	8b 45 08             	mov    0x8(%ebp),%eax
  100f33:	8b 40 24             	mov    0x24(%eax),%eax
  100f36:	83 f8 27             	cmp    $0x27,%eax
  100f39:	76 14                	jbe    100f4f <_ZL29platform_abstract_irq_handlerP14interrupt_info+0x25>
  100f3b:	c7 44 24 04 20 00 00 	movl   $0x20,0x4(%esp)
  100f42:	00 
  100f43:	c7 04 24 a0 00 00 00 	movl   $0xa0,(%esp)
  100f4a:	e8 9f ff ff ff       	call   100eee <_ZL4outbth>
  100f4f:	8b 45 08             	mov    0x8(%ebp),%eax
  100f52:	8b 40 24             	mov    0x24(%eax),%eax
  100f55:	83 f8 1f             	cmp    $0x1f,%eax
  100f58:	76 14                	jbe    100f6e <_ZL29platform_abstract_irq_handlerP14interrupt_info+0x44>
  100f5a:	c7 44 24 04 20 00 00 	movl   $0x20,0x4(%esp)
  100f61:	00 
  100f62:	c7 04 24 20 00 00 00 	movl   $0x20,(%esp)
  100f69:	e8 80 ff ff ff       	call   100eee <_ZL4outbth>
  100f6e:	c9                   	leave  
  100f6f:	c3                   	ret    

00100f70 <_ZN9StrmDebug5writeEh>:
  100f70:	55                   	push   %ebp
  100f71:	89 e5                	mov    %esp,%ebp
  100f73:	83 ec 18             	sub    $0x18,%esp
  100f76:	8b 45 0c             	mov    0xc(%ebp),%eax
  100f79:	88 45 f4             	mov    %al,-0xc(%ebp)
  100f7c:	0f b6 45 f4          	movzbl -0xc(%ebp),%eax
  100f80:	0f be c0             	movsbl %al,%eax
  100f83:	89 04 24             	mov    %eax,(%esp)
  100f86:	e8 a3 14 00 00       	call   10242e <debug_putchar>
  100f8b:	c9                   	leave  
  100f8c:	c3                   	ret    
  100f8d:	90                   	nop

00100f8e <_ZN9StrmDebug9availableEv>:
  100f8e:	55                   	push   %ebp
  100f8f:	89 e5                	mov    %esp,%ebp
  100f91:	5d                   	pop    %ebp
  100f92:	c3                   	ret    
  100f93:	90                   	nop

00100f94 <_ZN9StrmDebug4readEv>:
  100f94:	55                   	push   %ebp
  100f95:	89 e5                	mov    %esp,%ebp
  100f97:	5d                   	pop    %ebp
  100f98:	c3                   	ret    
  100f99:	90                   	nop

00100f9a <_ZN9StrmDebug4peekEv>:
  100f9a:	55                   	push   %ebp
  100f9b:	89 e5                	mov    %esp,%ebp
  100f9d:	5d                   	pop    %ebp
  100f9e:	c3                   	ret    
  100f9f:	90                   	nop

00100fa0 <_ZN9StrmDebug5flushEv>:
  100fa0:	55                   	push   %ebp
  100fa1:	89 e5                	mov    %esp,%ebp
  100fa3:	5d                   	pop    %ebp
  100fa4:	c3                   	ret    
  100fa5:	90                   	nop

00100fa6 <_ZN9StrmDebug5beginEv>:
  100fa6:	55                   	push   %ebp
  100fa7:	89 e5                	mov    %esp,%ebp
  100fa9:	5d                   	pop    %ebp
  100faa:	c3                   	ret    
  100fab:	90                   	nop

00100fac <_ZN9StrmDebug3endEv>:
  100fac:	55                   	push   %ebp
  100fad:	89 e5                	mov    %esp,%ebp
  100faf:	5d                   	pop    %ebp
  100fb0:	c3                   	ret    

00100fb1 <_Z41__static_initialization_and_destruction_0ii>:
  100fb1:	55                   	push   %ebp
  100fb2:	89 e5                	mov    %esp,%ebp
  100fb4:	83 ec 18             	sub    $0x18,%esp
  100fb7:	83 7d 08 01          	cmpl   $0x1,0x8(%ebp)
  100fbb:	75 15                	jne    100fd2 <_Z41__static_initialization_and_destruction_0ii+0x21>
  100fbd:	81 7d 0c ff ff 00 00 	cmpl   $0xffff,0xc(%ebp)
  100fc4:	75 0c                	jne    100fd2 <_Z41__static_initialization_and_destruction_0ii+0x21>
  100fc6:	c7 04 24 80 70 10 00 	movl   $0x107080,(%esp)
  100fcd:	e8 5c 00 00 00       	call   10102e <_ZN9StrmDebugC1Ev>
  100fd2:	c9                   	leave  
  100fd3:	c3                   	ret    

00100fd4 <_GLOBAL__sub_I_dbgio>:
  100fd4:	55                   	push   %ebp
  100fd5:	89 e5                	mov    %esp,%ebp
  100fd7:	83 ec 18             	sub    $0x18,%esp
  100fda:	c7 44 24 04 ff ff 00 	movl   $0xffff,0x4(%esp)
  100fe1:	00 
  100fe2:	c7 04 24 01 00 00 00 	movl   $0x1,(%esp)
  100fe9:	e8 c3 ff ff ff       	call   100fb1 <_Z41__static_initialization_and_destruction_0ii>
  100fee:	c9                   	leave  
  100fef:	c3                   	ret    

00100ff0 <_ZN5PrintC1Ev>:
  100ff0:	55                   	push   %ebp
  100ff1:	89 e5                	mov    %esp,%ebp
  100ff3:	8b 45 08             	mov    0x8(%ebp),%eax
  100ff6:	c7 00 20 3c 10 00    	movl   $0x103c20,(%eax)
  100ffc:	8b 45 08             	mov    0x8(%ebp),%eax
  100fff:	c7 40 04 00 00 00 00 	movl   $0x0,0x4(%eax)
  101006:	5d                   	pop    %ebp
  101007:	c3                   	ret    

00101008 <_ZN6StreamC1Ev>:
  101008:	55                   	push   %ebp
  101009:	89 e5                	mov    %esp,%ebp
  10100b:	83 ec 18             	sub    $0x18,%esp
  10100e:	8b 45 08             	mov    0x8(%ebp),%eax
  101011:	89 04 24             	mov    %eax,(%esp)
  101014:	e8 d7 ff ff ff       	call   100ff0 <_ZN5PrintC1Ev>
  101019:	8b 45 08             	mov    0x8(%ebp),%eax
  10101c:	c7 00 68 3c 10 00    	movl   $0x103c68,(%eax)
  101022:	8b 45 08             	mov    0x8(%ebp),%eax
  101025:	c7 40 08 e8 03 00 00 	movl   $0x3e8,0x8(%eax)
  10102c:	c9                   	leave  
  10102d:	c3                   	ret    

0010102e <_ZN9StrmDebugC1Ev>:
  10102e:	55                   	push   %ebp
  10102f:	89 e5                	mov    %esp,%ebp
  101031:	83 ec 18             	sub    $0x18,%esp
  101034:	8b 45 08             	mov    0x8(%ebp),%eax
  101037:	89 04 24             	mov    %eax,(%esp)
  10103a:	e8 c9 ff ff ff       	call   101008 <_ZN6StreamC1Ev>
  10103f:	8b 45 08             	mov    0x8(%ebp),%eax
  101042:	c7 00 48 3c 10 00    	movl   $0x103c48,(%eax)
  101048:	c9                   	leave  
  101049:	c3                   	ret    

0010104a <_Z6strlenPKc>:
  10104a:	55                   	push   %ebp
  10104b:	89 e5                	mov    %esp,%ebp
  10104d:	83 ec 10             	sub    $0x10,%esp
  101050:	c7 45 fc 00 00 00 00 	movl   $0x0,-0x4(%ebp)
  101057:	eb 04                	jmp    10105d <_Z6strlenPKc+0x13>
  101059:	83 45 fc 01          	addl   $0x1,-0x4(%ebp)
  10105d:	8b 45 fc             	mov    -0x4(%ebp),%eax
  101060:	8b 55 08             	mov    0x8(%ebp),%edx
  101063:	01 d0                	add    %edx,%eax
  101065:	0f b6 00             	movzbl (%eax),%eax
  101068:	84 c0                	test   %al,%al
  10106a:	75 ed                	jne    101059 <_Z6strlenPKc+0xf>
  10106c:	8b 45 fc             	mov    -0x4(%ebp),%eax
  10106f:	c9                   	leave  
  101070:	c3                   	ret    

00101071 <_ZL4outbth>:
  101071:	55                   	push   %ebp
  101072:	89 e5                	mov    %esp,%ebp
  101074:	83 ec 08             	sub    $0x8,%esp
  101077:	8b 55 08             	mov    0x8(%ebp),%edx
  10107a:	8b 45 0c             	mov    0xc(%ebp),%eax
  10107d:	66 89 55 fc          	mov    %dx,-0x4(%ebp)
  101081:	88 45 f8             	mov    %al,-0x8(%ebp)
  101084:	0f b7 55 fc          	movzwl -0x4(%ebp),%edx
  101088:	0f b6 45 f8          	movzbl -0x8(%ebp),%eax
  10108c:	ee                   	out    %al,(%dx)
  10108d:	c9                   	leave  
  10108e:	c3                   	ret    

0010108f <_ZL3inbt>:
  10108f:	55                   	push   %ebp
  101090:	89 e5                	mov    %esp,%ebp
  101092:	83 ec 14             	sub    $0x14,%esp
  101095:	8b 45 08             	mov    0x8(%ebp),%eax
  101098:	66 89 45 ec          	mov    %ax,-0x14(%ebp)
  10109c:	0f b7 45 ec          	movzwl -0x14(%ebp),%eax
  1010a0:	89 c2                	mov    %eax,%edx
  1010a2:	ec                   	in     (%dx),%al
  1010a3:	66 89 45 fe          	mov    %ax,-0x2(%ebp)
  1010a7:	0f b7 45 fe          	movzwl -0x2(%ebp),%eax
  1010ab:	c9                   	leave  
  1010ac:	c3                   	ret    

001010ad <_ZL29platform_abstract_irq_handlerP14interrupt_info>:
  1010ad:	55                   	push   %ebp
  1010ae:	89 e5                	mov    %esp,%ebp
  1010b0:	83 ec 08             	sub    $0x8,%esp
  1010b3:	8b 45 08             	mov    0x8(%ebp),%eax
  1010b6:	8b 40 24             	mov    0x24(%eax),%eax
  1010b9:	83 f8 27             	cmp    $0x27,%eax
  1010bc:	76 14                	jbe    1010d2 <_ZL29platform_abstract_irq_handlerP14interrupt_info+0x25>
  1010be:	c7 44 24 04 20 00 00 	movl   $0x20,0x4(%esp)
  1010c5:	00 
  1010c6:	c7 04 24 a0 00 00 00 	movl   $0xa0,(%esp)
  1010cd:	e8 9f ff ff ff       	call   101071 <_ZL4outbth>
  1010d2:	8b 45 08             	mov    0x8(%ebp),%eax
  1010d5:	8b 40 24             	mov    0x24(%eax),%eax
  1010d8:	83 f8 1f             	cmp    $0x1f,%eax
  1010db:	76 14                	jbe    1010f1 <_ZL29platform_abstract_irq_handlerP14interrupt_info+0x44>
  1010dd:	c7 44 24 04 20 00 00 	movl   $0x20,0x4(%esp)
  1010e4:	00 
  1010e5:	c7 04 24 20 00 00 00 	movl   $0x20,(%esp)
  1010ec:	e8 80 ff ff ff       	call   101071 <_ZL4outbth>
  1010f1:	c9                   	leave  
  1010f2:	c3                   	ret    

001010f3 <_Z6strcpyPcPKc>:
  1010f3:	55                   	push   %ebp
  1010f4:	89 e5                	mov    %esp,%ebp
  1010f6:	83 ec 18             	sub    $0x18,%esp
  1010f9:	8b 45 0c             	mov    0xc(%ebp),%eax
  1010fc:	89 04 24             	mov    %eax,(%esp)
  1010ff:	e8 46 ff ff ff       	call   10104a <_Z6strlenPKc>
  101104:	83 c0 01             	add    $0x1,%eax
  101107:	89 44 24 08          	mov    %eax,0x8(%esp)
  10110b:	8b 45 0c             	mov    0xc(%ebp),%eax
  10110e:	89 44 24 04          	mov    %eax,0x4(%esp)
  101112:	8b 45 08             	mov    0x8(%ebp),%eax
  101115:	89 04 24             	mov    %eax,(%esp)
  101118:	e8 3c 02 00 00       	call   101359 <_Z7memmovePvPKvj>
  10111d:	8b 45 08             	mov    0x8(%ebp),%eax
  101120:	c9                   	leave  
  101121:	c3                   	ret    

00101122 <_Z12num2base_strPcji>:
  101122:	55                   	push   %ebp
  101123:	89 e5                	mov    %esp,%ebp
  101125:	53                   	push   %ebx
  101126:	83 ec 24             	sub    $0x24,%esp
  101129:	c7 45 f0 00 00 00 00 	movl   $0x0,-0x10(%ebp)
  101130:	8b 45 0c             	mov    0xc(%ebp),%eax
  101133:	89 45 e8             	mov    %eax,-0x18(%ebp)
  101136:	c7 45 ec 00 00 00 00 	movl   $0x0,-0x14(%ebp)
  10113d:	c7 45 f4 00 00 00 00 	movl   $0x0,-0xc(%ebp)
  101144:	8b 4d 10             	mov    0x10(%ebp),%ecx
  101147:	8b 45 e8             	mov    -0x18(%ebp),%eax
  10114a:	ba 00 00 00 00       	mov    $0x0,%edx
  10114f:	f7 f1                	div    %ecx
  101151:	89 55 f0             	mov    %edx,-0x10(%ebp)
  101154:	8b 5d 10             	mov    0x10(%ebp),%ebx
  101157:	8b 45 e8             	mov    -0x18(%ebp),%eax
  10115a:	ba 00 00 00 00       	mov    $0x0,%edx
  10115f:	f7 f3                	div    %ebx
  101161:	89 45 e8             	mov    %eax,-0x18(%ebp)
  101164:	8b 55 ec             	mov    -0x14(%ebp),%edx
  101167:	8b 45 08             	mov    0x8(%ebp),%eax
  10116a:	01 c2                	add    %eax,%edx
  10116c:	83 7d f0 09          	cmpl   $0x9,-0x10(%ebp)
  101170:	77 08                	ja     10117a <_Z12num2base_strPcji+0x58>
  101172:	8b 45 f0             	mov    -0x10(%ebp),%eax
  101175:	83 c0 30             	add    $0x30,%eax
  101178:	eb 06                	jmp    101180 <_Z12num2base_strPcji+0x5e>
  10117a:	8b 45 f0             	mov    -0x10(%ebp),%eax
  10117d:	83 c0 37             	add    $0x37,%eax
  101180:	88 02                	mov    %al,(%edx)
  101182:	83 45 ec 01          	addl   $0x1,-0x14(%ebp)
  101186:	8b 45 10             	mov    0x10(%ebp),%eax
  101189:	3b 45 e8             	cmp    -0x18(%ebp),%eax
  10118c:	76 b6                	jbe    101144 <_Z12num2base_strPcji+0x22>
  10118e:	83 7d e8 00          	cmpl   $0x0,-0x18(%ebp)
  101192:	74 2f                	je     1011c3 <_Z12num2base_strPcji+0xa1>
  101194:	8b 55 ec             	mov    -0x14(%ebp),%edx
  101197:	8b 45 08             	mov    0x8(%ebp),%eax
  10119a:	01 c2                	add    %eax,%edx
  10119c:	83 7d e8 09          	cmpl   $0x9,-0x18(%ebp)
  1011a0:	77 08                	ja     1011aa <_Z12num2base_strPcji+0x88>
  1011a2:	8b 45 e8             	mov    -0x18(%ebp),%eax
  1011a5:	83 c0 30             	add    $0x30,%eax
  1011a8:	eb 06                	jmp    1011b0 <_Z12num2base_strPcji+0x8e>
  1011aa:	8b 45 e8             	mov    -0x18(%ebp),%eax
  1011ad:	83 c0 37             	add    $0x37,%eax
  1011b0:	88 02                	mov    %al,(%edx)
  1011b2:	83 45 ec 01          	addl   $0x1,-0x14(%ebp)
  1011b6:	8b 55 ec             	mov    -0x14(%ebp),%edx
  1011b9:	8b 45 08             	mov    0x8(%ebp),%eax
  1011bc:	01 d0                	add    %edx,%eax
  1011be:	c6 00 00             	movb   $0x0,(%eax)
  1011c1:	eb 0b                	jmp    1011ce <_Z12num2base_strPcji+0xac>
  1011c3:	8b 55 ec             	mov    -0x14(%ebp),%edx
  1011c6:	8b 45 08             	mov    0x8(%ebp),%eax
  1011c9:	01 d0                	add    %edx,%eax
  1011cb:	c6 00 00             	movb   $0x0,(%eax)
  1011ce:	8b 45 08             	mov    0x8(%ebp),%eax
  1011d1:	89 04 24             	mov    %eax,(%esp)
  1011d4:	e8 06 00 00 00       	call   1011df <_Z11str_reversePc>
  1011d9:	83 c4 24             	add    $0x24,%esp
  1011dc:	5b                   	pop    %ebx
  1011dd:	5d                   	pop    %ebp
  1011de:	c3                   	ret    

001011df <_Z11str_reversePc>:
  1011df:	55                   	push   %ebp
  1011e0:	89 e5                	mov    %esp,%ebp
  1011e2:	83 ec 28             	sub    $0x28,%esp
  1011e5:	8b 45 08             	mov    0x8(%ebp),%eax
  1011e8:	89 04 24             	mov    %eax,(%esp)
  1011eb:	e8 5a fe ff ff       	call   10104a <_Z6strlenPKc>
  1011f0:	89 45 f4             	mov    %eax,-0xc(%ebp)
  1011f3:	c7 45 f0 00 00 00 00 	movl   $0x0,-0x10(%ebp)
  1011fa:	eb 2a                	jmp    101226 <_Z11str_reversePc+0x47>
  1011fc:	8b 55 f4             	mov    -0xc(%ebp),%edx
  1011ff:	8b 45 f0             	mov    -0x10(%ebp),%eax
  101202:	29 c2                	sub    %eax,%edx
  101204:	89 d0                	mov    %edx,%eax
  101206:	8d 50 ff             	lea    -0x1(%eax),%edx
  101209:	8b 45 08             	mov    0x8(%ebp),%eax
  10120c:	01 c2                	add    %eax,%edx
  10120e:	8b 4d f0             	mov    -0x10(%ebp),%ecx
  101211:	8b 45 08             	mov    0x8(%ebp),%eax
  101214:	01 c8                	add    %ecx,%eax
  101216:	89 54 24 04          	mov    %edx,0x4(%esp)
  10121a:	89 04 24             	mov    %eax,(%esp)
  10121d:	e8 17 00 00 00       	call   101239 <_Z9swap_charPcS_>
  101222:	83 45 f0 01          	addl   $0x1,-0x10(%ebp)
  101226:	8b 45 f4             	mov    -0xc(%ebp),%eax
  101229:	89 c2                	mov    %eax,%edx
  10122b:	c1 ea 1f             	shr    $0x1f,%edx
  10122e:	01 d0                	add    %edx,%eax
  101230:	d1 f8                	sar    %eax
  101232:	3b 45 f0             	cmp    -0x10(%ebp),%eax
  101235:	7f c5                	jg     1011fc <_Z11str_reversePc+0x1d>
  101237:	c9                   	leave  
  101238:	c3                   	ret    

00101239 <_Z9swap_charPcS_>:
  101239:	55                   	push   %ebp
  10123a:	89 e5                	mov    %esp,%ebp
  10123c:	8b 45 08             	mov    0x8(%ebp),%eax
  10123f:	0f b6 10             	movzbl (%eax),%edx
  101242:	8b 45 0c             	mov    0xc(%ebp),%eax
  101245:	0f b6 00             	movzbl (%eax),%eax
  101248:	31 c2                	xor    %eax,%edx
  10124a:	8b 45 08             	mov    0x8(%ebp),%eax
  10124d:	88 10                	mov    %dl,(%eax)
  10124f:	8b 45 08             	mov    0x8(%ebp),%eax
  101252:	0f b6 10             	movzbl (%eax),%edx
  101255:	8b 45 0c             	mov    0xc(%ebp),%eax
  101258:	0f b6 00             	movzbl (%eax),%eax
  10125b:	31 c2                	xor    %eax,%edx
  10125d:	8b 45 0c             	mov    0xc(%ebp),%eax
  101260:	88 10                	mov    %dl,(%eax)
  101262:	8b 45 08             	mov    0x8(%ebp),%eax
  101265:	0f b6 10             	movzbl (%eax),%edx
  101268:	8b 45 0c             	mov    0xc(%ebp),%eax
  10126b:	0f b6 00             	movzbl (%eax),%eax
  10126e:	31 c2                	xor    %eax,%edx
  101270:	8b 45 08             	mov    0x8(%ebp),%eax
  101273:	88 10                	mov    %dl,(%eax)
  101275:	5d                   	pop    %ebp
  101276:	c3                   	ret    

00101277 <_Z9strformatPcic>:
  101277:	55                   	push   %ebp
  101278:	89 e5                	mov    %esp,%ebp
  10127a:	83 ec 28             	sub    $0x28,%esp
  10127d:	8b 45 10             	mov    0x10(%ebp),%eax
  101280:	88 45 e4             	mov    %al,-0x1c(%ebp)
  101283:	8b 45 08             	mov    0x8(%ebp),%eax
  101286:	89 04 24             	mov    %eax,(%esp)
  101289:	e8 bc fd ff ff       	call   10104a <_Z6strlenPKc>
  10128e:	89 45 f4             	mov    %eax,-0xc(%ebp)
  101291:	8b 45 f4             	mov    -0xc(%ebp),%eax
  101294:	3b 45 0c             	cmp    0xc(%ebp),%eax
  101297:	7d 1c                	jge    1012b5 <_Z9strformatPcic+0x3e>
  101299:	8b 55 0c             	mov    0xc(%ebp),%edx
  10129c:	8b 45 f4             	mov    -0xc(%ebp),%eax
  10129f:	29 c2                	sub    %eax,%edx
  1012a1:	8b 45 08             	mov    0x8(%ebp),%eax
  1012a4:	01 c2                	add    %eax,%edx
  1012a6:	8b 45 08             	mov    0x8(%ebp),%eax
  1012a9:	89 44 24 04          	mov    %eax,0x4(%esp)
  1012ad:	89 14 24             	mov    %edx,(%esp)
  1012b0:	e8 3e fe ff ff       	call   1010f3 <_Z6strcpyPcPKc>
  1012b5:	c7 45 f0 00 00 00 00 	movl   $0x0,-0x10(%ebp)
  1012bc:	eb 12                	jmp    1012d0 <_Z9strformatPcic+0x59>
  1012be:	8b 55 f0             	mov    -0x10(%ebp),%edx
  1012c1:	8b 45 08             	mov    0x8(%ebp),%eax
  1012c4:	01 c2                	add    %eax,%edx
  1012c6:	0f b6 45 e4          	movzbl -0x1c(%ebp),%eax
  1012ca:	88 02                	mov    %al,(%edx)
  1012cc:	83 45 f0 01          	addl   $0x1,-0x10(%ebp)
  1012d0:	8b 45 f4             	mov    -0xc(%ebp),%eax
  1012d3:	8b 55 0c             	mov    0xc(%ebp),%edx
  1012d6:	29 c2                	sub    %eax,%edx
  1012d8:	89 d0                	mov    %edx,%eax
  1012da:	3b 45 f0             	cmp    -0x10(%ebp),%eax
  1012dd:	7f df                	jg     1012be <_Z9strformatPcic+0x47>
  1012df:	c9                   	leave  
  1012e0:	c3                   	ret    

001012e1 <_Z6strcmpPKcS0_>:
  1012e1:	55                   	push   %ebp
  1012e2:	89 e5                	mov    %esp,%ebp
  1012e4:	eb 36                	jmp    10131c <_Z6strcmpPKcS0_+0x3b>
  1012e6:	8b 45 08             	mov    0x8(%ebp),%eax
  1012e9:	0f b6 10             	movzbl (%eax),%edx
  1012ec:	8b 45 0c             	mov    0xc(%ebp),%eax
  1012ef:	0f b6 00             	movzbl (%eax),%eax
  1012f2:	38 c2                	cmp    %al,%dl
  1012f4:	7d 07                	jge    1012fd <_Z6strcmpPKcS0_+0x1c>
  1012f6:	b8 ff ff ff ff       	mov    $0xffffffff,%eax
  1012fb:	eb 5a                	jmp    101357 <_Z6strcmpPKcS0_+0x76>
  1012fd:	8b 45 08             	mov    0x8(%ebp),%eax
  101300:	0f b6 10             	movzbl (%eax),%edx
  101303:	8b 45 0c             	mov    0xc(%ebp),%eax
  101306:	0f b6 00             	movzbl (%eax),%eax
  101309:	38 c2                	cmp    %al,%dl
  10130b:	7e 07                	jle    101314 <_Z6strcmpPKcS0_+0x33>
  10130d:	b8 01 00 00 00       	mov    $0x1,%eax
  101312:	eb 43                	jmp    101357 <_Z6strcmpPKcS0_+0x76>
  101314:	83 45 08 01          	addl   $0x1,0x8(%ebp)
  101318:	83 45 0c 01          	addl   $0x1,0xc(%ebp)
  10131c:	8b 45 08             	mov    0x8(%ebp),%eax
  10131f:	0f b6 00             	movzbl (%eax),%eax
  101322:	84 c0                	test   %al,%al
  101324:	74 0a                	je     101330 <_Z6strcmpPKcS0_+0x4f>
  101326:	8b 45 0c             	mov    0xc(%ebp),%eax
  101329:	0f b6 00             	movzbl (%eax),%eax
  10132c:	84 c0                	test   %al,%al
  10132e:	75 b6                	jne    1012e6 <_Z6strcmpPKcS0_+0x5>
  101330:	8b 45 08             	mov    0x8(%ebp),%eax
  101333:	0f b6 00             	movzbl (%eax),%eax
  101336:	84 c0                	test   %al,%al
  101338:	75 18                	jne    101352 <_Z6strcmpPKcS0_+0x71>
  10133a:	8b 45 0c             	mov    0xc(%ebp),%eax
  10133d:	0f b6 00             	movzbl (%eax),%eax
  101340:	84 c0                	test   %al,%al
  101342:	74 07                	je     10134b <_Z6strcmpPKcS0_+0x6a>
  101344:	b8 01 00 00 00       	mov    $0x1,%eax
  101349:	eb 0c                	jmp    101357 <_Z6strcmpPKcS0_+0x76>
  10134b:	b8 00 00 00 00       	mov    $0x0,%eax
  101350:	eb 05                	jmp    101357 <_Z6strcmpPKcS0_+0x76>
  101352:	b8 ff ff ff ff       	mov    $0xffffffff,%eax
  101357:	5d                   	pop    %ebp
  101358:	c3                   	ret    

00101359 <_Z7memmovePvPKvj>:
  101359:	55                   	push   %ebp
  10135a:	89 e5                	mov    %esp,%ebp
  10135c:	83 ec 20             	sub    $0x20,%esp
  10135f:	8b 45 08             	mov    0x8(%ebp),%eax
  101362:	89 45 ec             	mov    %eax,-0x14(%ebp)
  101365:	8b 45 0c             	mov    0xc(%ebp),%eax
  101368:	89 45 f0             	mov    %eax,-0x10(%ebp)
  10136b:	8b 45 ec             	mov    -0x14(%ebp),%eax
  10136e:	3b 45 f0             	cmp    -0x10(%ebp),%eax
  101371:	76 43                	jbe    1013b6 <_Z7memmovePvPKvj+0x5d>
  101373:	8b 45 10             	mov    0x10(%ebp),%eax
  101376:	8d 50 ff             	lea    -0x1(%eax),%edx
  101379:	8b 45 f0             	mov    -0x10(%ebp),%eax
  10137c:	01 d0                	add    %edx,%eax
  10137e:	89 45 f4             	mov    %eax,-0xc(%ebp)
  101381:	8b 55 ec             	mov    -0x14(%ebp),%edx
  101384:	8b 45 f0             	mov    -0x10(%ebp),%eax
  101387:	29 c2                	sub    %eax,%edx
  101389:	89 d0                	mov    %edx,%eax
  10138b:	89 45 f8             	mov    %eax,-0x8(%ebp)
  10138e:	eb 1b                	jmp    1013ab <_Z7memmovePvPKvj+0x52>
  101390:	8b 55 f8             	mov    -0x8(%ebp),%edx
  101393:	8b 45 f4             	mov    -0xc(%ebp),%eax
  101396:	8d 0c 02             	lea    (%edx,%eax,1),%ecx
  101399:	8b 45 f4             	mov    -0xc(%ebp),%eax
  10139c:	8d 50 ff             	lea    -0x1(%eax),%edx
  10139f:	89 55 f4             	mov    %edx,-0xc(%ebp)
  1013a2:	0f b6 00             	movzbl (%eax),%eax
  1013a5:	88 01                	mov    %al,(%ecx)
  1013a7:	83 6d 10 01          	subl   $0x1,0x10(%ebp)
  1013ab:	83 7d 10 00          	cmpl   $0x0,0x10(%ebp)
  1013af:	75 df                	jne    101390 <_Z7memmovePvPKvj+0x37>
  1013b1:	8b 45 ec             	mov    -0x14(%ebp),%eax
  1013b4:	eb 43                	jmp    1013f9 <_Z7memmovePvPKvj+0xa0>
  1013b6:	8b 45 ec             	mov    -0x14(%ebp),%eax
  1013b9:	3b 45 f0             	cmp    -0x10(%ebp),%eax
  1013bc:	73 2e                	jae    1013ec <_Z7memmovePvPKvj+0x93>
  1013be:	8b 45 ec             	mov    -0x14(%ebp),%eax
  1013c1:	89 45 fc             	mov    %eax,-0x4(%ebp)
  1013c4:	eb 1b                	jmp    1013e1 <_Z7memmovePvPKvj+0x88>
  1013c6:	8b 45 ec             	mov    -0x14(%ebp),%eax
  1013c9:	8d 50 01             	lea    0x1(%eax),%edx
  1013cc:	89 55 ec             	mov    %edx,-0x14(%ebp)
  1013cf:	8b 55 f0             	mov    -0x10(%ebp),%edx
  1013d2:	8d 4a 01             	lea    0x1(%edx),%ecx
  1013d5:	89 4d f0             	mov    %ecx,-0x10(%ebp)
  1013d8:	0f b6 12             	movzbl (%edx),%edx
  1013db:	88 10                	mov    %dl,(%eax)
  1013dd:	83 6d 10 01          	subl   $0x1,0x10(%ebp)
  1013e1:	83 7d 10 00          	cmpl   $0x0,0x10(%ebp)
  1013e5:	75 df                	jne    1013c6 <_Z7memmovePvPKvj+0x6d>
  1013e7:	8b 45 fc             	mov    -0x4(%ebp),%eax
  1013ea:	eb 0d                	jmp    1013f9 <_Z7memmovePvPKvj+0xa0>
  1013ec:	8b 45 ec             	mov    -0x14(%ebp),%eax
  1013ef:	3b 45 f0             	cmp    -0x10(%ebp),%eax
  1013f2:	75 05                	jne    1013f9 <_Z7memmovePvPKvj+0xa0>
  1013f4:	8b 45 ec             	mov    -0x14(%ebp),%eax
  1013f7:	eb 00                	jmp    1013f9 <_Z7memmovePvPKvj+0xa0>
  1013f9:	c9                   	leave  
  1013fa:	c3                   	ret    

001013fb <_Z6memcpyPvPKvj>:
  1013fb:	55                   	push   %ebp
  1013fc:	89 e5                	mov    %esp,%ebp
  1013fe:	83 ec 10             	sub    $0x10,%esp
  101401:	8b 45 08             	mov    0x8(%ebp),%eax
  101404:	89 45 f8             	mov    %eax,-0x8(%ebp)
  101407:	8b 45 0c             	mov    0xc(%ebp),%eax
  10140a:	89 45 fc             	mov    %eax,-0x4(%ebp)
  10140d:	eb 1b                	jmp    10142a <_Z6memcpyPvPKvj+0x2f>
  10140f:	8b 45 f8             	mov    -0x8(%ebp),%eax
  101412:	8d 50 01             	lea    0x1(%eax),%edx
  101415:	89 55 f8             	mov    %edx,-0x8(%ebp)
  101418:	8b 55 fc             	mov    -0x4(%ebp),%edx
  10141b:	8d 4a 01             	lea    0x1(%edx),%ecx
  10141e:	89 4d fc             	mov    %ecx,-0x4(%ebp)
  101421:	0f b6 12             	movzbl (%edx),%edx
  101424:	88 10                	mov    %dl,(%eax)
  101426:	83 6d 10 01          	subl   $0x1,0x10(%ebp)
  10142a:	83 7d 10 00          	cmpl   $0x0,0x10(%ebp)
  10142e:	75 df                	jne    10140f <_Z6memcpyPvPKvj+0x14>
  101430:	b8 00 00 00 00       	mov    $0x0,%eax
  101435:	c9                   	leave  
  101436:	c3                   	ret    

00101437 <_Z6memsetPvij>:
  101437:	55                   	push   %ebp
  101438:	89 e5                	mov    %esp,%ebp
  10143a:	eb 14                	jmp    101450 <_Z6memsetPvij+0x19>
  10143c:	8b 45 10             	mov    0x10(%ebp),%eax
  10143f:	8d 50 ff             	lea    -0x1(%eax),%edx
  101442:	8b 45 08             	mov    0x8(%ebp),%eax
  101445:	01 c2                	add    %eax,%edx
  101447:	8b 45 0c             	mov    0xc(%ebp),%eax
  10144a:	88 02                	mov    %al,(%edx)
  10144c:	83 6d 10 01          	subl   $0x1,0x10(%ebp)
  101450:	83 7d 10 00          	cmpl   $0x0,0x10(%ebp)
  101454:	75 e6                	jne    10143c <_Z6memsetPvij+0x5>
  101456:	5d                   	pop    %ebp
  101457:	c3                   	ret    

00101458 <_Z10scan2asciii>:
  101458:	55                   	push   %ebp
  101459:	89 e5                	mov    %esp,%ebp
  10145b:	8b 45 08             	mov    0x8(%ebp),%eax
  10145e:	5d                   	pop    %ebp
  10145f:	c3                   	ret    

00101460 <_ZL4outbth>:
  101460:	55                   	push   %ebp
  101461:	89 e5                	mov    %esp,%ebp
  101463:	83 ec 08             	sub    $0x8,%esp
  101466:	8b 55 08             	mov    0x8(%ebp),%edx
  101469:	8b 45 0c             	mov    0xc(%ebp),%eax
  10146c:	66 89 55 fc          	mov    %dx,-0x4(%ebp)
  101470:	88 45 f8             	mov    %al,-0x8(%ebp)
  101473:	0f b7 55 fc          	movzwl -0x4(%ebp),%edx
  101477:	0f b6 45 f8          	movzbl -0x8(%ebp),%eax
  10147b:	ee                   	out    %al,(%dx)
  10147c:	c9                   	leave  
  10147d:	c3                   	ret    

0010147e <_ZL3inbt>:
  10147e:	55                   	push   %ebp
  10147f:	89 e5                	mov    %esp,%ebp
  101481:	83 ec 14             	sub    $0x14,%esp
  101484:	8b 45 08             	mov    0x8(%ebp),%eax
  101487:	66 89 45 ec          	mov    %ax,-0x14(%ebp)
  10148b:	0f b7 45 ec          	movzwl -0x14(%ebp),%eax
  10148f:	89 c2                	mov    %eax,%edx
  101491:	ec                   	in     (%dx),%al
  101492:	66 89 45 fe          	mov    %ax,-0x2(%ebp)
  101496:	0f b7 45 fe          	movzwl -0x2(%ebp),%eax
  10149a:	c9                   	leave  
  10149b:	c3                   	ret    

0010149c <_ZL29platform_abstract_irq_handlerP14interrupt_info>:
  10149c:	55                   	push   %ebp
  10149d:	89 e5                	mov    %esp,%ebp
  10149f:	83 ec 08             	sub    $0x8,%esp
  1014a2:	8b 45 08             	mov    0x8(%ebp),%eax
  1014a5:	8b 40 24             	mov    0x24(%eax),%eax
  1014a8:	83 f8 27             	cmp    $0x27,%eax
  1014ab:	76 14                	jbe    1014c1 <_ZL29platform_abstract_irq_handlerP14interrupt_info+0x25>
  1014ad:	c7 44 24 04 20 00 00 	movl   $0x20,0x4(%esp)
  1014b4:	00 
  1014b5:	c7 04 24 a0 00 00 00 	movl   $0xa0,(%esp)
  1014bc:	e8 9f ff ff ff       	call   101460 <_ZL4outbth>
  1014c1:	8b 45 08             	mov    0x8(%ebp),%eax
  1014c4:	8b 40 24             	mov    0x24(%eax),%eax
  1014c7:	83 f8 1f             	cmp    $0x1f,%eax
  1014ca:	76 14                	jbe    1014e0 <_ZL29platform_abstract_irq_handlerP14interrupt_info+0x44>
  1014cc:	c7 44 24 04 20 00 00 	movl   $0x20,0x4(%esp)
  1014d3:	00 
  1014d4:	c7 04 24 20 00 00 00 	movl   $0x20,(%esp)
  1014db:	e8 80 ff ff ff       	call   101460 <_ZL4outbth>
  1014e0:	c9                   	leave  
  1014e1:	c3                   	ret    

001014e2 <_Z16abstract_StubISRP14interrupt_info>:
  1014e2:	55                   	push   %ebp
  1014e3:	89 e5                	mov    %esp,%ebp
  1014e5:	83 ec 18             	sub    $0x18,%esp
  1014e8:	c7 04 24 ac 3c 10 00 	movl   $0x103cac,(%esp)
  1014ef:	e8 73 f0 ff ff       	call   100567 <debug_print>
  1014f4:	8b 45 08             	mov    0x8(%ebp),%eax
  1014f7:	8b 40 24             	mov    0x24(%eax),%eax
  1014fa:	89 04 24             	mov    %eax,(%esp)
  1014fd:	e8 79 ef ff ff       	call   10047b <debug_printhex_int32>
  101502:	c7 44 24 04 02 00 00 	movl   $0x2,0x4(%esp)
  101509:	00 
  10150a:	c7 04 24 be 3c 10 00 	movl   $0x103cbe,(%esp)
  101511:	e8 73 ee ff ff       	call   100389 <debug_write>
  101516:	c7 04 24 c4 3c 10 00 	movl   $0x103cc4,(%esp)
  10151d:	e8 e2 f1 ff ff       	call   100704 <_Z11systemErrorPKc>
  101522:	c9                   	leave  
  101523:	c3                   	ret    

00101524 <_Z23abstract_irq_table_sizej>:
  101524:	55                   	push   %ebp
  101525:	89 e5                	mov    %esp,%ebp
  101527:	8b 55 08             	mov    0x8(%ebp),%edx
  10152a:	89 d0                	mov    %edx,%eax
  10152c:	c1 e0 03             	shl    $0x3,%eax
  10152f:	01 d0                	add    %edx,%eax
  101531:	5d                   	pop    %ebp
  101532:	c3                   	ret    

00101533 <_Z17abstract_irq_initPvj>:
  101533:	55                   	push   %ebp
  101534:	89 e5                	mov    %esp,%ebp
  101536:	83 ec 28             	sub    $0x28,%esp
  101539:	8b 45 08             	mov    0x8(%ebp),%eax
  10153c:	a3 90 70 10 00       	mov    %eax,0x107090
  101541:	8b 55 0c             	mov    0xc(%ebp),%edx
  101544:	89 d0                	mov    %edx,%eax
  101546:	c1 e0 03             	shl    $0x3,%eax
  101549:	01 d0                	add    %edx,%eax
  10154b:	89 44 24 08          	mov    %eax,0x8(%esp)
  10154f:	c7 44 24 04 00 00 00 	movl   $0x0,0x4(%esp)
  101556:	00 
  101557:	8b 45 08             	mov    0x8(%ebp),%eax
  10155a:	89 04 24             	mov    %eax,(%esp)
  10155d:	e8 d5 fe ff ff       	call   101437 <_Z6memsetPvij>
  101562:	c7 45 f0 00 00 00 00 	movl   $0x0,-0x10(%ebp)
  101569:	eb 1c                	jmp    101587 <_Z17abstract_irq_initPvj+0x54>
  10156b:	8b 0d 90 70 10 00    	mov    0x107090,%ecx
  101571:	8b 55 f0             	mov    -0x10(%ebp),%edx
  101574:	89 d0                	mov    %edx,%eax
  101576:	c1 e0 03             	shl    $0x3,%eax
  101579:	01 d0                	add    %edx,%eax
  10157b:	01 c8                	add    %ecx,%eax
  10157d:	c7 00 e2 14 10 00    	movl   $0x1014e2,(%eax)
  101583:	83 45 f0 01          	addl   $0x1,-0x10(%ebp)
  101587:	8b 45 f0             	mov    -0x10(%ebp),%eax
  10158a:	3b 45 0c             	cmp    0xc(%ebp),%eax
  10158d:	72 dc                	jb     10156b <_Z17abstract_irq_initPvj+0x38>
  10158f:	c7 45 f4 00 00 00 00 	movl   $0x0,-0xc(%ebp)
  101596:	eb 1a                	jmp    1015b2 <_Z17abstract_irq_initPvj+0x7f>
  101598:	8b 0d 90 70 10 00    	mov    0x107090,%ecx
  10159e:	8b 55 f4             	mov    -0xc(%ebp),%edx
  1015a1:	89 d0                	mov    %edx,%eax
  1015a3:	c1 e0 03             	shl    $0x3,%eax
  1015a6:	01 d0                	add    %edx,%eax
  1015a8:	01 c8                	add    %ecx,%eax
  1015aa:	c6 40 08 01          	movb   $0x1,0x8(%eax)
  1015ae:	83 45 f4 01          	addl   $0x1,-0xc(%ebp)
  1015b2:	8b 45 f4             	mov    -0xc(%ebp),%eax
  1015b5:	3b 45 0c             	cmp    0xc(%ebp),%eax
  1015b8:	72 de                	jb     101598 <_Z17abstract_irq_initPvj+0x65>
  1015ba:	c9                   	leave  
  1015bb:	c3                   	ret    

001015bc <abstract_irq_controller>:
  1015bc:	55                   	push   %ebp
  1015bd:	89 e5                	mov    %esp,%ebp
  1015bf:	53                   	push   %ebx
  1015c0:	83 ec 24             	sub    $0x24,%esp
  1015c3:	8b 45 2c             	mov    0x2c(%ebp),%eax
  1015c6:	89 45 f4             	mov    %eax,-0xc(%ebp)
  1015c9:	8b 0d 90 70 10 00    	mov    0x107090,%ecx
  1015cf:	8b 55 f4             	mov    -0xc(%ebp),%edx
  1015d2:	89 d0                	mov    %edx,%eax
  1015d4:	c1 e0 03             	shl    $0x3,%eax
  1015d7:	01 d0                	add    %edx,%eax
  1015d9:	01 c8                	add    %ecx,%eax
  1015db:	8b 50 04             	mov    0x4(%eax),%edx
  1015de:	83 c2 01             	add    $0x1,%edx
  1015e1:	89 50 04             	mov    %edx,0x4(%eax)
  1015e4:	8d 45 08             	lea    0x8(%ebp),%eax
  1015e7:	89 04 24             	mov    %eax,(%esp)
  1015ea:	e8 ad fe ff ff       	call   10149c <_ZL29platform_abstract_irq_handlerP14interrupt_info>
  1015ef:	8b 0d 90 70 10 00    	mov    0x107090,%ecx
  1015f5:	8b 55 f4             	mov    -0xc(%ebp),%edx
  1015f8:	89 d0                	mov    %edx,%eax
  1015fa:	c1 e0 03             	shl    $0x3,%eax
  1015fd:	01 d0                	add    %edx,%eax
  1015ff:	01 c8                	add    %ecx,%eax
  101601:	8b 00                	mov    (%eax),%eax
  101603:	8d 5d 08             	lea    0x8(%ebp),%ebx
  101606:	89 1c 24             	mov    %ebx,(%esp)
  101609:	ff d0                	call   *%eax
  10160b:	83 c4 24             	add    $0x24,%esp
  10160e:	5b                   	pop    %ebx
  10160f:	5d                   	pop    %ebp
  101610:	c3                   	ret    

00101611 <_Z25abstract_irq_debug_attachjPFvP14interrupt_infoE>:
  101611:	55                   	push   %ebp
  101612:	89 e5                	mov    %esp,%ebp
  101614:	8b 0d 90 70 10 00    	mov    0x107090,%ecx
  10161a:	8b 55 08             	mov    0x8(%ebp),%edx
  10161d:	89 d0                	mov    %edx,%eax
  10161f:	c1 e0 03             	shl    $0x3,%eax
  101622:	01 d0                	add    %edx,%eax
  101624:	8d 14 01             	lea    (%ecx,%eax,1),%edx
  101627:	8b 45 0c             	mov    0xc(%ebp),%eax
  10162a:	89 02                	mov    %eax,(%edx)
  10162c:	8b 0d 90 70 10 00    	mov    0x107090,%ecx
  101632:	8b 55 08             	mov    0x8(%ebp),%edx
  101635:	89 d0                	mov    %edx,%eax
  101637:	c1 e0 03             	shl    $0x3,%eax
  10163a:	01 d0                	add    %edx,%eax
  10163c:	01 c8                	add    %ecx,%eax
  10163e:	c6 40 08 01          	movb   $0x1,0x8(%eax)
  101642:	5d                   	pop    %ebp
  101643:	c3                   	ret    

00101644 <_Z19abstract_irq_attachjPFvvE>:
  101644:	55                   	push   %ebp
  101645:	89 e5                	mov    %esp,%ebp
  101647:	8b 0d 90 70 10 00    	mov    0x107090,%ecx
  10164d:	8b 55 08             	mov    0x8(%ebp),%edx
  101650:	89 d0                	mov    %edx,%eax
  101652:	c1 e0 03             	shl    $0x3,%eax
  101655:	01 d0                	add    %edx,%eax
  101657:	8d 14 01             	lea    (%ecx,%eax,1),%edx
  10165a:	8b 45 0c             	mov    0xc(%ebp),%eax
  10165d:	89 02                	mov    %eax,(%edx)
  10165f:	8b 0d 90 70 10 00    	mov    0x107090,%ecx
  101665:	8b 55 08             	mov    0x8(%ebp),%edx
  101668:	89 d0                	mov    %edx,%eax
  10166a:	c1 e0 03             	shl    $0x3,%eax
  10166d:	01 d0                	add    %edx,%eax
  10166f:	01 c8                	add    %ecx,%eax
  101671:	c6 40 08 00          	movb   $0x0,0x8(%eax)
  101675:	5d                   	pop    %ebp
  101676:	c3                   	ret    
  101677:	90                   	nop

00101678 <_ZL4outbth>:
  101678:	55                   	push   %ebp
  101679:	89 e5                	mov    %esp,%ebp
  10167b:	83 ec 08             	sub    $0x8,%esp
  10167e:	8b 55 08             	mov    0x8(%ebp),%edx
  101681:	8b 45 0c             	mov    0xc(%ebp),%eax
  101684:	66 89 55 fc          	mov    %dx,-0x4(%ebp)
  101688:	88 45 f8             	mov    %al,-0x8(%ebp)
  10168b:	0f b7 55 fc          	movzwl -0x4(%ebp),%edx
  10168f:	0f b6 45 f8          	movzbl -0x8(%ebp),%eax
  101693:	ee                   	out    %al,(%dx)
  101694:	c9                   	leave  
  101695:	c3                   	ret    

00101696 <_ZL3inbt>:
  101696:	55                   	push   %ebp
  101697:	89 e5                	mov    %esp,%ebp
  101699:	83 ec 14             	sub    $0x14,%esp
  10169c:	8b 45 08             	mov    0x8(%ebp),%eax
  10169f:	66 89 45 ec          	mov    %ax,-0x14(%ebp)
  1016a3:	0f b7 45 ec          	movzwl -0x14(%ebp),%eax
  1016a7:	89 c2                	mov    %eax,%edx
  1016a9:	ec                   	in     (%dx),%al
  1016aa:	66 89 45 fe          	mov    %ax,-0x2(%ebp)
  1016ae:	0f b7 45 fe          	movzwl -0x2(%ebp),%eax
  1016b2:	c9                   	leave  
  1016b3:	c3                   	ret    

001016b4 <_ZL29platform_abstract_irq_handlerP14interrupt_info>:
  1016b4:	55                   	push   %ebp
  1016b5:	89 e5                	mov    %esp,%ebp
  1016b7:	83 ec 08             	sub    $0x8,%esp
  1016ba:	8b 45 08             	mov    0x8(%ebp),%eax
  1016bd:	8b 40 24             	mov    0x24(%eax),%eax
  1016c0:	83 f8 27             	cmp    $0x27,%eax
  1016c3:	76 14                	jbe    1016d9 <_ZL29platform_abstract_irq_handlerP14interrupt_info+0x25>
  1016c5:	c7 44 24 04 20 00 00 	movl   $0x20,0x4(%esp)
  1016cc:	00 
  1016cd:	c7 04 24 a0 00 00 00 	movl   $0xa0,(%esp)
  1016d4:	e8 9f ff ff ff       	call   101678 <_ZL4outbth>
  1016d9:	8b 45 08             	mov    0x8(%ebp),%eax
  1016dc:	8b 40 24             	mov    0x24(%eax),%eax
  1016df:	83 f8 1f             	cmp    $0x1f,%eax
  1016e2:	76 14                	jbe    1016f8 <_ZL29platform_abstract_irq_handlerP14interrupt_info+0x44>
  1016e4:	c7 44 24 04 20 00 00 	movl   $0x20,0x4(%esp)
  1016eb:	00 
  1016ec:	c7 04 24 20 00 00 00 	movl   $0x20,(%esp)
  1016f3:	e8 80 ff ff ff       	call   101678 <_ZL4outbth>
  1016f8:	c9                   	leave  
  1016f9:	c3                   	ret    

001016fa <_ZN8DBStreamC1Ejjh>:
  1016fa:	55                   	push   %ebp
  1016fb:	89 e5                	mov    %esp,%ebp
  1016fd:	56                   	push   %esi
  1016fe:	53                   	push   %ebx
  1016ff:	83 ec 10             	sub    $0x10,%esp
  101702:	8b 45 14             	mov    0x14(%ebp),%eax
  101705:	88 45 f4             	mov    %al,-0xc(%ebp)
  101708:	8b 45 08             	mov    0x8(%ebp),%eax
  10170b:	89 04 24             	mov    %eax,(%esp)
  10170e:	e8 f5 f8 ff ff       	call   101008 <_ZN6StreamC1Ev>
  101713:	8b 45 08             	mov    0x8(%ebp),%eax
  101716:	c7 00 08 3d 10 00    	movl   $0x103d08,(%eax)
  10171c:	80 7d f4 00          	cmpb   $0x0,-0xc(%ebp)
  101720:	75 46                	jne    101768 <_ZN8DBStreamC1Ejjh+0x6e>
  101722:	c7 04 24 18 00 00 00 	movl   $0x18,(%esp)
  101729:	e8 26 0c 00 00       	call   102354 <_Znwj>
  10172e:	89 c3                	mov    %eax,%ebx
  101730:	8b 45 0c             	mov    0xc(%ebp),%eax
  101733:	89 44 24 04          	mov    %eax,0x4(%esp)
  101737:	89 1c 24             	mov    %ebx,(%esp)
  10173a:	e8 0d 08 00 00       	call   101f4c <_ZN6ring_tC1Ej>
  10173f:	8b 45 08             	mov    0x8(%ebp),%eax
  101742:	89 58 10             	mov    %ebx,0x10(%eax)
  101745:	c7 04 24 18 00 00 00 	movl   $0x18,(%esp)
  10174c:	e8 03 0c 00 00       	call   102354 <_Znwj>
  101751:	89 c3                	mov    %eax,%ebx
  101753:	8b 45 10             	mov    0x10(%ebp),%eax
  101756:	89 44 24 04          	mov    %eax,0x4(%esp)
  10175a:	89 1c 24             	mov    %ebx,(%esp)
  10175d:	e8 ea 07 00 00       	call   101f4c <_ZN6ring_tC1Ej>
  101762:	8b 45 08             	mov    0x8(%ebp),%eax
  101765:	89 58 14             	mov    %ebx,0x14(%eax)
  101768:	80 7d f4 01          	cmpb   $0x1,-0xc(%ebp)
  10176c:	75 46                	jne    1017b4 <_ZN8DBStreamC1Ejjh+0xba>
  10176e:	c7 04 24 20 00 00 00 	movl   $0x20,(%esp)
  101775:	e8 da 0b 00 00       	call   102354 <_Znwj>
  10177a:	89 c3                	mov    %eax,%ebx
  10177c:	8b 45 0c             	mov    0xc(%ebp),%eax
  10177f:	89 44 24 04          	mov    %eax,0x4(%esp)
  101783:	89 1c 24             	mov    %ebx,(%esp)
  101786:	e8 07 05 00 00       	call   101c92 <_ZN11dynamicringC1Ei>
  10178b:	8b 45 08             	mov    0x8(%ebp),%eax
  10178e:	89 58 10             	mov    %ebx,0x10(%eax)
  101791:	c7 04 24 20 00 00 00 	movl   $0x20,(%esp)
  101798:	e8 b7 0b 00 00       	call   102354 <_Znwj>
  10179d:	89 c3                	mov    %eax,%ebx
  10179f:	8b 45 10             	mov    0x10(%ebp),%eax
  1017a2:	89 44 24 04          	mov    %eax,0x4(%esp)
  1017a6:	89 1c 24             	mov    %ebx,(%esp)
  1017a9:	e8 e4 04 00 00       	call   101c92 <_ZN11dynamicringC1Ei>
  1017ae:	8b 45 08             	mov    0x8(%ebp),%eax
  1017b1:	89 58 14             	mov    %ebx,0x14(%eax)
  1017b4:	8b 45 08             	mov    0x8(%ebp),%eax
  1017b7:	c7 40 18 00 00 00 00 	movl   $0x0,0x18(%eax)
  1017be:	8b 45 08             	mov    0x8(%ebp),%eax
  1017c1:	c7 40 1c 00 00 00 00 	movl   $0x0,0x1c(%eax)
  1017c8:	8b 45 08             	mov    0x8(%ebp),%eax
  1017cb:	c7 40 20 00 00 00 00 	movl   $0x0,0x20(%eax)
  1017d2:	eb 50                	jmp    101824 <_ZN8DBStreamC1Ejjh+0x12a>
  1017d4:	89 c6                	mov    %eax,%esi
  1017d6:	89 1c 24             	mov    %ebx,(%esp)
  1017d9:	e8 99 0b 00 00       	call   102377 <_ZdlPv>
  1017de:	89 f0                	mov    %esi,%eax
  1017e0:	89 04 24             	mov    %eax,(%esp)
  1017e3:	e8 b8 29 00 00       	call   1041a0 <__fini_array_end+0x88>
  1017e8:	89 c6                	mov    %eax,%esi
  1017ea:	89 1c 24             	mov    %ebx,(%esp)
  1017ed:	e8 85 0b 00 00       	call   102377 <_ZdlPv>
  1017f2:	89 f0                	mov    %esi,%eax
  1017f4:	89 04 24             	mov    %eax,(%esp)
  1017f7:	e8 a4 29 00 00       	call   1041a0 <__fini_array_end+0x88>
  1017fc:	89 c6                	mov    %eax,%esi
  1017fe:	89 1c 24             	mov    %ebx,(%esp)
  101801:	e8 71 0b 00 00       	call   102377 <_ZdlPv>
  101806:	89 f0                	mov    %esi,%eax
  101808:	89 04 24             	mov    %eax,(%esp)
  10180b:	e8 90 29 00 00       	call   1041a0 <__fini_array_end+0x88>
  101810:	89 c6                	mov    %eax,%esi
  101812:	89 1c 24             	mov    %ebx,(%esp)
  101815:	e8 5d 0b 00 00       	call   102377 <_ZdlPv>
  10181a:	89 f0                	mov    %esi,%eax
  10181c:	89 04 24             	mov    %eax,(%esp)
  10181f:	e8 7c 29 00 00       	call   1041a0 <__fini_array_end+0x88>
  101824:	83 c4 10             	add    $0x10,%esp
  101827:	5b                   	pop    %ebx
  101828:	5e                   	pop    %esi
  101829:	5d                   	pop    %ebp
  10182a:	c3                   	ret    
  10182b:	90                   	nop

0010182c <_ZN8DBStreamC1Ev>:
  10182c:	55                   	push   %ebp
  10182d:	89 e5                	mov    %esp,%ebp
  10182f:	83 ec 18             	sub    $0x18,%esp
  101832:	8b 45 08             	mov    0x8(%ebp),%eax
  101835:	89 04 24             	mov    %eax,(%esp)
  101838:	e8 cb f7 ff ff       	call   101008 <_ZN6StreamC1Ev>
  10183d:	8b 45 08             	mov    0x8(%ebp),%eax
  101840:	c7 00 08 3d 10 00    	movl   $0x103d08,(%eax)
  101846:	8b 45 08             	mov    0x8(%ebp),%eax
  101849:	c7 40 18 00 00 00 00 	movl   $0x0,0x18(%eax)
  101850:	8b 45 08             	mov    0x8(%ebp),%eax
  101853:	c7 40 1c 00 00 00 00 	movl   $0x0,0x1c(%eax)
  10185a:	c9                   	leave  
  10185b:	c3                   	ret    

0010185c <_ZN8DBStreamC1EP7Queue_pS1_>:
  10185c:	55                   	push   %ebp
  10185d:	89 e5                	mov    %esp,%ebp
  10185f:	83 ec 18             	sub    $0x18,%esp
  101862:	8b 45 08             	mov    0x8(%ebp),%eax
  101865:	89 04 24             	mov    %eax,(%esp)
  101868:	e8 9b f7 ff ff       	call   101008 <_ZN6StreamC1Ev>
  10186d:	8b 45 08             	mov    0x8(%ebp),%eax
  101870:	c7 00 08 3d 10 00    	movl   $0x103d08,(%eax)
  101876:	8b 45 08             	mov    0x8(%ebp),%eax
  101879:	8b 55 0c             	mov    0xc(%ebp),%edx
  10187c:	89 50 14             	mov    %edx,0x14(%eax)
  10187f:	8b 45 08             	mov    0x8(%ebp),%eax
  101882:	8b 55 10             	mov    0x10(%ebp),%edx
  101885:	89 50 10             	mov    %edx,0x10(%eax)
  101888:	8b 45 08             	mov    0x8(%ebp),%eax
  10188b:	c7 40 18 00 00 00 00 	movl   $0x0,0x18(%eax)
  101892:	8b 45 08             	mov    0x8(%ebp),%eax
  101895:	c7 40 1c 00 00 00 00 	movl   $0x0,0x1c(%eax)
  10189c:	c9                   	leave  
  10189d:	c3                   	ret    

0010189e <_ZN8DBStream5writeEh>:
  10189e:	55                   	push   %ebp
  10189f:	89 e5                	mov    %esp,%ebp
  1018a1:	83 ec 28             	sub    $0x28,%esp
  1018a4:	8b 45 0c             	mov    0xc(%ebp),%eax
  1018a7:	88 45 e4             	mov    %al,-0x1c(%ebp)
  1018aa:	8b 45 08             	mov    0x8(%ebp),%eax
  1018ad:	8b 40 10             	mov    0x10(%eax),%eax
  1018b0:	8b 00                	mov    (%eax),%eax
  1018b2:	8b 00                	mov    (%eax),%eax
  1018b4:	0f b6 55 e4          	movzbl -0x1c(%ebp),%edx
  1018b8:	0f be ca             	movsbl %dl,%ecx
  1018bb:	8b 55 08             	mov    0x8(%ebp),%edx
  1018be:	8b 52 10             	mov    0x10(%edx),%edx
  1018c1:	89 4c 24 04          	mov    %ecx,0x4(%esp)
  1018c5:	89 14 24             	mov    %edx,(%esp)
  1018c8:	ff d0                	call   *%eax
  1018ca:	89 45 f4             	mov    %eax,-0xc(%ebp)
  1018cd:	83 7d f4 00          	cmpl   $0x0,-0xc(%ebp)
  1018d1:	75 19                	jne    1018ec <_ZN8DBStream5writeEh+0x4e>
  1018d3:	8b 45 08             	mov    0x8(%ebp),%eax
  1018d6:	8b 40 18             	mov    0x18(%eax),%eax
  1018d9:	85 c0                	test   %eax,%eax
  1018db:	74 08                	je     1018e5 <_ZN8DBStream5writeEh+0x47>
  1018dd:	8b 45 08             	mov    0x8(%ebp),%eax
  1018e0:	8b 40 18             	mov    0x18(%eax),%eax
  1018e3:	ff d0                	call   *%eax
  1018e5:	b8 01 00 00 00       	mov    $0x1,%eax
  1018ea:	eb 05                	jmp    1018f1 <_ZN8DBStream5writeEh+0x53>
  1018ec:	b8 00 00 00 00       	mov    $0x0,%eax
  1018f1:	c9                   	leave  
  1018f2:	c3                   	ret    
  1018f3:	90                   	nop

001018f4 <_ZN8DBStream7tx_readEv>:
  1018f4:	55                   	push   %ebp
  1018f5:	89 e5                	mov    %esp,%ebp
  1018f7:	83 ec 18             	sub    $0x18,%esp
  1018fa:	8b 45 08             	mov    0x8(%ebp),%eax
  1018fd:	8b 40 10             	mov    0x10(%eax),%eax
  101900:	8b 00                	mov    (%eax),%eax
  101902:	83 c0 04             	add    $0x4,%eax
  101905:	8b 00                	mov    (%eax),%eax
  101907:	8b 55 08             	mov    0x8(%ebp),%edx
  10190a:	8b 52 10             	mov    0x10(%edx),%edx
  10190d:	89 14 24             	mov    %edx,(%esp)
  101910:	ff d0                	call   *%eax
  101912:	c9                   	leave  
  101913:	c3                   	ret    

00101914 <_ZN8DBStream8rx_writeEh>:
  101914:	55                   	push   %ebp
  101915:	89 e5                	mov    %esp,%ebp
  101917:	83 ec 18             	sub    $0x18,%esp
  10191a:	8b 45 0c             	mov    0xc(%ebp),%eax
  10191d:	88 45 f4             	mov    %al,-0xc(%ebp)
  101920:	8b 45 08             	mov    0x8(%ebp),%eax
  101923:	8b 40 14             	mov    0x14(%eax),%eax
  101926:	8b 00                	mov    (%eax),%eax
  101928:	8b 00                	mov    (%eax),%eax
  10192a:	0f b6 55 f4          	movzbl -0xc(%ebp),%edx
  10192e:	0f be ca             	movsbl %dl,%ecx
  101931:	8b 55 08             	mov    0x8(%ebp),%edx
  101934:	8b 52 14             	mov    0x14(%edx),%edx
  101937:	89 4c 24 04          	mov    %ecx,0x4(%esp)
  10193b:	89 14 24             	mov    %edx,(%esp)
  10193e:	ff d0                	call   *%eax
  101940:	c9                   	leave  
  101941:	c3                   	ret    

00101942 <_ZN8DBStream9availableEv>:
  101942:	55                   	push   %ebp
  101943:	89 e5                	mov    %esp,%ebp
  101945:	5d                   	pop    %ebp
  101946:	c3                   	ret    
  101947:	90                   	nop

00101948 <_ZN8DBStream4readEv>:
  101948:	55                   	push   %ebp
  101949:	89 e5                	mov    %esp,%ebp
  10194b:	83 ec 18             	sub    $0x18,%esp
  10194e:	8b 45 08             	mov    0x8(%ebp),%eax
  101951:	8b 40 14             	mov    0x14(%eax),%eax
  101954:	8b 00                	mov    (%eax),%eax
  101956:	83 c0 04             	add    $0x4,%eax
  101959:	8b 00                	mov    (%eax),%eax
  10195b:	8b 55 08             	mov    0x8(%ebp),%edx
  10195e:	8b 52 14             	mov    0x14(%edx),%edx
  101961:	89 14 24             	mov    %edx,(%esp)
  101964:	ff d0                	call   *%eax
  101966:	c9                   	leave  
  101967:	c3                   	ret    

00101968 <_ZN8DBStream4peekEv>:
  101968:	55                   	push   %ebp
  101969:	89 e5                	mov    %esp,%ebp
  10196b:	5d                   	pop    %ebp
  10196c:	c3                   	ret    
  10196d:	90                   	nop

0010196e <_ZN8DBStream5flushEv>:
  10196e:	55                   	push   %ebp
  10196f:	89 e5                	mov    %esp,%ebp
  101971:	5d                   	pop    %ebp
  101972:	c3                   	ret    
  101973:	90                   	nop

00101974 <_ZL4outbth>:
  101974:	55                   	push   %ebp
  101975:	89 e5                	mov    %esp,%ebp
  101977:	83 ec 08             	sub    $0x8,%esp
  10197a:	8b 55 08             	mov    0x8(%ebp),%edx
  10197d:	8b 45 0c             	mov    0xc(%ebp),%eax
  101980:	66 89 55 fc          	mov    %dx,-0x4(%ebp)
  101984:	88 45 f8             	mov    %al,-0x8(%ebp)
  101987:	0f b7 55 fc          	movzwl -0x4(%ebp),%edx
  10198b:	0f b6 45 f8          	movzbl -0x8(%ebp),%eax
  10198f:	ee                   	out    %al,(%dx)
  101990:	c9                   	leave  
  101991:	c3                   	ret    

00101992 <_ZL3inbt>:
  101992:	55                   	push   %ebp
  101993:	89 e5                	mov    %esp,%ebp
  101995:	83 ec 14             	sub    $0x14,%esp
  101998:	8b 45 08             	mov    0x8(%ebp),%eax
  10199b:	66 89 45 ec          	mov    %ax,-0x14(%ebp)
  10199f:	0f b7 45 ec          	movzwl -0x14(%ebp),%eax
  1019a3:	89 c2                	mov    %eax,%edx
  1019a5:	ec                   	in     (%dx),%al
  1019a6:	66 89 45 fe          	mov    %ax,-0x2(%ebp)
  1019aa:	0f b7 45 fe          	movzwl -0x2(%ebp),%eax
  1019ae:	c9                   	leave  
  1019af:	c3                   	ret    

001019b0 <_ZL29platform_abstract_irq_handlerP14interrupt_info>:
  1019b0:	55                   	push   %ebp
  1019b1:	89 e5                	mov    %esp,%ebp
  1019b3:	83 ec 08             	sub    $0x8,%esp
  1019b6:	8b 45 08             	mov    0x8(%ebp),%eax
  1019b9:	8b 40 24             	mov    0x24(%eax),%eax
  1019bc:	83 f8 27             	cmp    $0x27,%eax
  1019bf:	76 14                	jbe    1019d5 <_ZL29platform_abstract_irq_handlerP14interrupt_info+0x25>
  1019c1:	c7 44 24 04 20 00 00 	movl   $0x20,0x4(%esp)
  1019c8:	00 
  1019c9:	c7 04 24 a0 00 00 00 	movl   $0xa0,(%esp)
  1019d0:	e8 9f ff ff ff       	call   101974 <_ZL4outbth>
  1019d5:	8b 45 08             	mov    0x8(%ebp),%eax
  1019d8:	8b 40 24             	mov    0x24(%eax),%eax
  1019db:	83 f8 1f             	cmp    $0x1f,%eax
  1019de:	76 14                	jbe    1019f4 <_ZL29platform_abstract_irq_handlerP14interrupt_info+0x44>
  1019e0:	c7 44 24 04 20 00 00 	movl   $0x20,0x4(%esp)
  1019e7:	00 
  1019e8:	c7 04 24 20 00 00 00 	movl   $0x20,(%esp)
  1019ef:	e8 80 ff ff ff       	call   101974 <_ZL4outbth>
  1019f4:	c9                   	leave  
  1019f5:	c3                   	ret    

001019f6 <_ZN12staticring_tC1Ev>:
  1019f6:	55                   	push   %ebp
  1019f7:	89 e5                	mov    %esp,%ebp
  1019f9:	83 ec 18             	sub    $0x18,%esp
  1019fc:	8b 45 08             	mov    0x8(%ebp),%eax
  1019ff:	89 04 24             	mov    %eax,(%esp)
  101a02:	e8 49 01 00 00       	call   101b50 <_ZN7Queue_pC1Ev>
  101a07:	8b 45 08             	mov    0x8(%ebp),%eax
  101a0a:	c7 00 40 3d 10 00    	movl   $0x103d40,(%eax)
  101a10:	8b 45 08             	mov    0x8(%ebp),%eax
  101a13:	c7 40 10 28 00 00 00 	movl   $0x28,0x10(%eax)
  101a1a:	8b 45 08             	mov    0x8(%ebp),%eax
  101a1d:	c7 40 08 00 00 00 00 	movl   $0x0,0x8(%eax)
  101a24:	8b 45 08             	mov    0x8(%ebp),%eax
  101a27:	c7 40 0c 00 00 00 00 	movl   $0x0,0xc(%eax)
  101a2e:	8b 45 08             	mov    0x8(%ebp),%eax
  101a31:	c6 40 04 00          	movb   $0x0,0x4(%eax)
  101a35:	c9                   	leave  
  101a36:	c3                   	ret    
  101a37:	90                   	nop

00101a38 <_ZN12staticring_t3popEv>:
  101a38:	55                   	push   %ebp
  101a39:	89 e5                	mov    %esp,%ebp
  101a3b:	83 ec 10             	sub    $0x10,%esp
  101a3e:	8b 45 08             	mov    0x8(%ebp),%eax
  101a41:	0f b6 40 04          	movzbl 0x4(%eax),%eax
  101a45:	84 c0                	test   %al,%al
  101a47:	75 07                	jne    101a50 <_ZN12staticring_t3popEv+0x18>
  101a49:	b8 ff ff ff ff       	mov    $0xffffffff,%eax
  101a4e:	eb 53                	jmp    101aa3 <_ZN12staticring_t3popEv+0x6b>
  101a50:	8b 45 08             	mov    0x8(%ebp),%eax
  101a53:	8b 40 08             	mov    0x8(%eax),%eax
  101a56:	8b 55 08             	mov    0x8(%ebp),%edx
  101a59:	0f b6 44 02 14       	movzbl 0x14(%edx,%eax,1),%eax
  101a5e:	88 45 ff             	mov    %al,-0x1(%ebp)
  101a61:	8b 45 08             	mov    0x8(%ebp),%eax
  101a64:	8b 40 08             	mov    0x8(%eax),%eax
  101a67:	8d 50 01             	lea    0x1(%eax),%edx
  101a6a:	8b 45 08             	mov    0x8(%ebp),%eax
  101a6d:	8b 48 10             	mov    0x10(%eax),%ecx
  101a70:	89 d0                	mov    %edx,%eax
  101a72:	ba 00 00 00 00       	mov    $0x0,%edx
  101a77:	f7 f1                	div    %ecx
  101a79:	8b 45 08             	mov    0x8(%ebp),%eax
  101a7c:	89 50 08             	mov    %edx,0x8(%eax)
  101a7f:	8b 45 08             	mov    0x8(%ebp),%eax
  101a82:	8b 50 0c             	mov    0xc(%eax),%edx
  101a85:	8b 45 08             	mov    0x8(%ebp),%eax
  101a88:	8b 40 08             	mov    0x8(%eax),%eax
  101a8b:	39 c2                	cmp    %eax,%edx
  101a8d:	75 09                	jne    101a98 <_ZN12staticring_t3popEv+0x60>
  101a8f:	8b 45 08             	mov    0x8(%ebp),%eax
  101a92:	c6 40 04 00          	movb   $0x0,0x4(%eax)
  101a96:	eb 07                	jmp    101a9f <_ZN12staticring_t3popEv+0x67>
  101a98:	8b 45 08             	mov    0x8(%ebp),%eax
  101a9b:	c6 40 04 01          	movb   $0x1,0x4(%eax)
  101a9f:	0f be 45 ff          	movsbl -0x1(%ebp),%eax
  101aa3:	c9                   	leave  
  101aa4:	c3                   	ret    
  101aa5:	90                   	nop

00101aa6 <_ZN12staticring_t4pushEc>:
  101aa6:	55                   	push   %ebp
  101aa7:	89 e5                	mov    %esp,%ebp
  101aa9:	83 ec 04             	sub    $0x4,%esp
  101aac:	8b 45 0c             	mov    0xc(%ebp),%eax
  101aaf:	88 45 fc             	mov    %al,-0x4(%ebp)
  101ab2:	8b 45 08             	mov    0x8(%ebp),%eax
  101ab5:	0f b6 40 04          	movzbl 0x4(%eax),%eax
  101ab9:	3c 02                	cmp    $0x2,%al
  101abb:	75 07                	jne    101ac4 <_ZN12staticring_t4pushEc+0x1e>
  101abd:	b8 ff ff ff ff       	mov    $0xffffffff,%eax
  101ac2:	eb 54                	jmp    101b18 <_ZN12staticring_t4pushEc+0x72>
  101ac4:	8b 45 08             	mov    0x8(%ebp),%eax
  101ac7:	8b 40 0c             	mov    0xc(%eax),%eax
  101aca:	8b 55 08             	mov    0x8(%ebp),%edx
  101acd:	0f b6 4d fc          	movzbl -0x4(%ebp),%ecx
  101ad1:	88 4c 02 14          	mov    %cl,0x14(%edx,%eax,1)
  101ad5:	8b 45 08             	mov    0x8(%ebp),%eax
  101ad8:	8b 40 0c             	mov    0xc(%eax),%eax
  101adb:	8d 50 01             	lea    0x1(%eax),%edx
  101ade:	8b 45 08             	mov    0x8(%ebp),%eax
  101ae1:	8b 48 10             	mov    0x10(%eax),%ecx
  101ae4:	89 d0                	mov    %edx,%eax
  101ae6:	ba 00 00 00 00       	mov    $0x0,%edx
  101aeb:	f7 f1                	div    %ecx
  101aed:	8b 45 08             	mov    0x8(%ebp),%eax
  101af0:	89 50 0c             	mov    %edx,0xc(%eax)
  101af3:	8b 45 08             	mov    0x8(%ebp),%eax
  101af6:	8b 50 0c             	mov    0xc(%eax),%edx
  101af9:	8b 45 08             	mov    0x8(%ebp),%eax
  101afc:	8b 40 08             	mov    0x8(%eax),%eax
  101aff:	39 c2                	cmp    %eax,%edx
  101b01:	75 09                	jne    101b0c <_ZN12staticring_t4pushEc+0x66>
  101b03:	8b 45 08             	mov    0x8(%ebp),%eax
  101b06:	c6 40 04 02          	movb   $0x2,0x4(%eax)
  101b0a:	eb 07                	jmp    101b13 <_ZN12staticring_t4pushEc+0x6d>
  101b0c:	8b 45 08             	mov    0x8(%ebp),%eax
  101b0f:	c6 40 04 01          	movb   $0x1,0x4(%eax)
  101b13:	b8 00 00 00 00       	mov    $0x0,%eax
  101b18:	c9                   	leave  
  101b19:	c3                   	ret    

00101b1a <_ZN12staticring_t9availableEv>:
  101b1a:	55                   	push   %ebp
  101b1b:	89 e5                	mov    %esp,%ebp
  101b1d:	8b 45 08             	mov    0x8(%ebp),%eax
  101b20:	8b 50 0c             	mov    0xc(%eax),%edx
  101b23:	8b 45 08             	mov    0x8(%ebp),%eax
  101b26:	8b 40 08             	mov    0x8(%eax),%eax
  101b29:	29 c2                	sub    %eax,%edx
  101b2b:	8b 45 08             	mov    0x8(%ebp),%eax
  101b2e:	8b 40 10             	mov    0x10(%eax),%eax
  101b31:	01 c2                	add    %eax,%edx
  101b33:	8b 45 08             	mov    0x8(%ebp),%eax
  101b36:	8b 48 10             	mov    0x10(%eax),%ecx
  101b39:	89 d0                	mov    %edx,%eax
  101b3b:	ba 00 00 00 00       	mov    $0x0,%edx
  101b40:	f7 f1                	div    %ecx
  101b42:	89 d0                	mov    %edx,%eax
  101b44:	5d                   	pop    %ebp
  101b45:	c3                   	ret    

00101b46 <_ZN12staticring_t4peekEi>:
  101b46:	55                   	push   %ebp
  101b47:	89 e5                	mov    %esp,%ebp
  101b49:	b8 00 00 00 00       	mov    $0x0,%eax
  101b4e:	5d                   	pop    %ebp
  101b4f:	c3                   	ret    

00101b50 <_ZN7Queue_pC1Ev>:
  101b50:	55                   	push   %ebp
  101b51:	89 e5                	mov    %esp,%ebp
  101b53:	8b 45 08             	mov    0x8(%ebp),%eax
  101b56:	c7 00 88 3d 10 00    	movl   $0x103d88,(%eax)
  101b5c:	8b 45 08             	mov    0x8(%ebp),%eax
  101b5f:	c6 40 04 00          	movb   $0x0,0x4(%eax)
  101b63:	5d                   	pop    %ebp
  101b64:	c3                   	ret    
  101b65:	90                   	nop

00101b66 <_ZL4outbth>:
  101b66:	55                   	push   %ebp
  101b67:	89 e5                	mov    %esp,%ebp
  101b69:	83 ec 08             	sub    $0x8,%esp
  101b6c:	8b 55 08             	mov    0x8(%ebp),%edx
  101b6f:	8b 45 0c             	mov    0xc(%ebp),%eax
  101b72:	66 89 55 fc          	mov    %dx,-0x4(%ebp)
  101b76:	88 45 f8             	mov    %al,-0x8(%ebp)
  101b79:	0f b7 55 fc          	movzwl -0x4(%ebp),%edx
  101b7d:	0f b6 45 f8          	movzbl -0x8(%ebp),%eax
  101b81:	ee                   	out    %al,(%dx)
  101b82:	c9                   	leave  
  101b83:	c3                   	ret    

00101b84 <_ZL3inbt>:
  101b84:	55                   	push   %ebp
  101b85:	89 e5                	mov    %esp,%ebp
  101b87:	83 ec 14             	sub    $0x14,%esp
  101b8a:	8b 45 08             	mov    0x8(%ebp),%eax
  101b8d:	66 89 45 ec          	mov    %ax,-0x14(%ebp)
  101b91:	0f b7 45 ec          	movzwl -0x14(%ebp),%eax
  101b95:	89 c2                	mov    %eax,%edx
  101b97:	ec                   	in     (%dx),%al
  101b98:	66 89 45 fe          	mov    %ax,-0x2(%ebp)
  101b9c:	0f b7 45 fe          	movzwl -0x2(%ebp),%eax
  101ba0:	c9                   	leave  
  101ba1:	c3                   	ret    

00101ba2 <_ZL29platform_abstract_irq_handlerP14interrupt_info>:
  101ba2:	55                   	push   %ebp
  101ba3:	89 e5                	mov    %esp,%ebp
  101ba5:	83 ec 08             	sub    $0x8,%esp
  101ba8:	8b 45 08             	mov    0x8(%ebp),%eax
  101bab:	8b 40 24             	mov    0x24(%eax),%eax
  101bae:	83 f8 27             	cmp    $0x27,%eax
  101bb1:	76 14                	jbe    101bc7 <_ZL29platform_abstract_irq_handlerP14interrupt_info+0x25>
  101bb3:	c7 44 24 04 20 00 00 	movl   $0x20,0x4(%esp)
  101bba:	00 
  101bbb:	c7 04 24 a0 00 00 00 	movl   $0xa0,(%esp)
  101bc2:	e8 9f ff ff ff       	call   101b66 <_ZL4outbth>
  101bc7:	8b 45 08             	mov    0x8(%ebp),%eax
  101bca:	8b 40 24             	mov    0x24(%eax),%eax
  101bcd:	83 f8 1f             	cmp    $0x1f,%eax
  101bd0:	76 14                	jbe    101be6 <_ZL29platform_abstract_irq_handlerP14interrupt_info+0x44>
  101bd2:	c7 44 24 04 20 00 00 	movl   $0x20,0x4(%esp)
  101bd9:	00 
  101bda:	c7 04 24 20 00 00 00 	movl   $0x20,(%esp)
  101be1:	e8 80 ff ff ff       	call   101b66 <_ZL4outbth>
  101be6:	c9                   	leave  
  101be7:	c3                   	ret    

00101be8 <_ZL14INIT_LIST_HEADP9list_head>:
  101be8:	55                   	push   %ebp
  101be9:	89 e5                	mov    %esp,%ebp
  101beb:	8b 45 08             	mov    0x8(%ebp),%eax
  101bee:	8b 55 08             	mov    0x8(%ebp),%edx
  101bf1:	89 10                	mov    %edx,(%eax)
  101bf3:	8b 45 08             	mov    0x8(%ebp),%eax
  101bf6:	8b 55 08             	mov    0x8(%ebp),%edx
  101bf9:	89 50 04             	mov    %edx,0x4(%eax)
  101bfc:	5d                   	pop    %ebp
  101bfd:	c3                   	ret    

00101bfe <_ZL10__list_addP9list_headS0_S0_>:
  101bfe:	55                   	push   %ebp
  101bff:	89 e5                	mov    %esp,%ebp
  101c01:	8b 45 10             	mov    0x10(%ebp),%eax
  101c04:	8b 55 08             	mov    0x8(%ebp),%edx
  101c07:	89 50 04             	mov    %edx,0x4(%eax)
  101c0a:	8b 45 08             	mov    0x8(%ebp),%eax
  101c0d:	8b 55 10             	mov    0x10(%ebp),%edx
  101c10:	89 10                	mov    %edx,(%eax)
  101c12:	8b 45 08             	mov    0x8(%ebp),%eax
  101c15:	8b 55 0c             	mov    0xc(%ebp),%edx
  101c18:	89 50 04             	mov    %edx,0x4(%eax)
  101c1b:	8b 45 0c             	mov    0xc(%ebp),%eax
  101c1e:	8b 55 08             	mov    0x8(%ebp),%edx
  101c21:	89 10                	mov    %edx,(%eax)
  101c23:	5d                   	pop    %ebp
  101c24:	c3                   	ret    

00101c25 <_ZL13list_add_tailP9list_headS0_>:
  101c25:	55                   	push   %ebp
  101c26:	89 e5                	mov    %esp,%ebp
  101c28:	83 ec 0c             	sub    $0xc,%esp
  101c2b:	8b 45 0c             	mov    0xc(%ebp),%eax
  101c2e:	8b 40 04             	mov    0x4(%eax),%eax
  101c31:	8b 55 0c             	mov    0xc(%ebp),%edx
  101c34:	89 54 24 08          	mov    %edx,0x8(%esp)
  101c38:	89 44 24 04          	mov    %eax,0x4(%esp)
  101c3c:	8b 45 08             	mov    0x8(%ebp),%eax
  101c3f:	89 04 24             	mov    %eax,(%esp)
  101c42:	e8 b7 ff ff ff       	call   101bfe <_ZL10__list_addP9list_headS0_S0_>
  101c47:	c9                   	leave  
  101c48:	c3                   	ret    

00101c49 <_ZL10__list_delP9list_headS0_>:
  101c49:	55                   	push   %ebp
  101c4a:	89 e5                	mov    %esp,%ebp
  101c4c:	8b 45 0c             	mov    0xc(%ebp),%eax
  101c4f:	8b 55 08             	mov    0x8(%ebp),%edx
  101c52:	89 50 04             	mov    %edx,0x4(%eax)
  101c55:	8b 45 08             	mov    0x8(%ebp),%eax
  101c58:	8b 55 0c             	mov    0xc(%ebp),%edx
  101c5b:	89 10                	mov    %edx,(%eax)
  101c5d:	5d                   	pop    %ebp
  101c5e:	c3                   	ret    

00101c5f <_ZL8list_delP9list_head>:
  101c5f:	55                   	push   %ebp
  101c60:	89 e5                	mov    %esp,%ebp
  101c62:	83 ec 08             	sub    $0x8,%esp
  101c65:	8b 45 08             	mov    0x8(%ebp),%eax
  101c68:	8b 10                	mov    (%eax),%edx
  101c6a:	8b 45 08             	mov    0x8(%ebp),%eax
  101c6d:	8b 40 04             	mov    0x4(%eax),%eax
  101c70:	89 54 24 04          	mov    %edx,0x4(%esp)
  101c74:	89 04 24             	mov    %eax,(%esp)
  101c77:	e8 cd ff ff ff       	call   101c49 <_ZL10__list_delP9list_headS0_>
  101c7c:	8b 45 08             	mov    0x8(%ebp),%eax
  101c7f:	c7 00 00 00 00 00    	movl   $0x0,(%eax)
  101c85:	8b 45 08             	mov    0x8(%ebp),%eax
  101c88:	c7 40 04 00 00 00 00 	movl   $0x0,0x4(%eax)
  101c8f:	c9                   	leave  
  101c90:	c3                   	ret    
  101c91:	90                   	nop

00101c92 <_ZN11dynamicringC1Ei>:
  101c92:	55                   	push   %ebp
  101c93:	89 e5                	mov    %esp,%ebp
  101c95:	83 ec 18             	sub    $0x18,%esp
  101c98:	8b 45 08             	mov    0x8(%ebp),%eax
  101c9b:	89 04 24             	mov    %eax,(%esp)
  101c9e:	e8 ad fe ff ff       	call   101b50 <_ZN7Queue_pC1Ev>
  101ca3:	8b 45 08             	mov    0x8(%ebp),%eax
  101ca6:	c7 00 a0 3d 10 00    	movl   $0x103da0,(%eax)
  101cac:	8b 45 08             	mov    0x8(%ebp),%eax
  101caf:	8b 55 0c             	mov    0xc(%ebp),%edx
  101cb2:	89 50 10             	mov    %edx,0x10(%eax)
  101cb5:	8b 45 08             	mov    0x8(%ebp),%eax
  101cb8:	c7 40 14 00 00 00 00 	movl   $0x0,0x14(%eax)
  101cbf:	8b 45 08             	mov    0x8(%ebp),%eax
  101cc2:	83 c0 08             	add    $0x8,%eax
  101cc5:	89 04 24             	mov    %eax,(%esp)
  101cc8:	e8 1b ff ff ff       	call   101be8 <_ZL14INIT_LIST_HEADP9list_head>
  101ccd:	8b 45 08             	mov    0x8(%ebp),%eax
  101cd0:	89 04 24             	mov    %eax,(%esp)
  101cd3:	e8 0e 00 00 00       	call   101ce6 <_ZN11dynamicring11engage_ringEv>
  101cd8:	8b 45 08             	mov    0x8(%ebp),%eax
  101cdb:	8b 50 1c             	mov    0x1c(%eax),%edx
  101cde:	8b 45 08             	mov    0x8(%ebp),%eax
  101ce1:	89 50 18             	mov    %edx,0x18(%eax)
  101ce4:	c9                   	leave  
  101ce5:	c3                   	ret    

00101ce6 <_ZN11dynamicring11engage_ringEv>:
  101ce6:	55                   	push   %ebp
  101ce7:	89 e5                	mov    %esp,%ebp
  101ce9:	56                   	push   %esi
  101cea:	53                   	push   %ebx
  101ceb:	83 ec 20             	sub    $0x20,%esp
  101cee:	c7 04 24 0c 00 00 00 	movl   $0xc,(%esp)
  101cf5:	e8 5a 06 00 00       	call   102354 <_Znwj>
  101cfa:	89 45 f4             	mov    %eax,-0xc(%ebp)
  101cfd:	c7 04 24 18 00 00 00 	movl   $0x18,(%esp)
  101d04:	e8 4b 06 00 00       	call   102354 <_Znwj>
  101d09:	89 c3                	mov    %eax,%ebx
  101d0b:	8b 45 08             	mov    0x8(%ebp),%eax
  101d0e:	8b 40 10             	mov    0x10(%eax),%eax
  101d11:	89 44 24 04          	mov    %eax,0x4(%esp)
  101d15:	89 1c 24             	mov    %ebx,(%esp)
  101d18:	e8 2f 02 00 00       	call   101f4c <_ZN6ring_tC1Ej>
  101d1d:	8b 45 f4             	mov    -0xc(%ebp),%eax
  101d20:	89 18                	mov    %ebx,(%eax)
  101d22:	8b 45 08             	mov    0x8(%ebp),%eax
  101d25:	8d 50 08             	lea    0x8(%eax),%edx
  101d28:	8b 45 f4             	mov    -0xc(%ebp),%eax
  101d2b:	83 c0 04             	add    $0x4,%eax
  101d2e:	89 54 24 04          	mov    %edx,0x4(%esp)
  101d32:	89 04 24             	mov    %eax,(%esp)
  101d35:	e8 eb fe ff ff       	call   101c25 <_ZL13list_add_tailP9list_headS0_>
  101d3a:	8b 45 08             	mov    0x8(%ebp),%eax
  101d3d:	8b 55 f4             	mov    -0xc(%ebp),%edx
  101d40:	89 50 1c             	mov    %edx,0x1c(%eax)
  101d43:	8b 45 08             	mov    0x8(%ebp),%eax
  101d46:	8b 40 14             	mov    0x14(%eax),%eax
  101d49:	8d 50 01             	lea    0x1(%eax),%edx
  101d4c:	8b 45 08             	mov    0x8(%ebp),%eax
  101d4f:	89 50 14             	mov    %edx,0x14(%eax)
  101d52:	eb 14                	jmp    101d68 <_ZN11dynamicring11engage_ringEv+0x82>
  101d54:	89 c6                	mov    %eax,%esi
  101d56:	89 1c 24             	mov    %ebx,(%esp)
  101d59:	e8 19 06 00 00       	call   102377 <_ZdlPv>
  101d5e:	89 f0                	mov    %esi,%eax
  101d60:	89 04 24             	mov    %eax,(%esp)
  101d63:	e8 38 24 00 00       	call   1041a0 <__fini_array_end+0x88>
  101d68:	83 c4 20             	add    $0x20,%esp
  101d6b:	5b                   	pop    %ebx
  101d6c:	5e                   	pop    %esi
  101d6d:	5d                   	pop    %ebp
  101d6e:	c3                   	ret    
  101d6f:	90                   	nop

00101d70 <_ZN11dynamicring12absolve_ringEv>:
  101d70:	55                   	push   %ebp
  101d71:	89 e5                	mov    %esp,%ebp
  101d73:	53                   	push   %ebx
  101d74:	83 ec 24             	sub    $0x24,%esp
  101d77:	8b 45 08             	mov    0x8(%ebp),%eax
  101d7a:	8b 40 18             	mov    0x18(%eax),%eax
  101d7d:	8b 40 04             	mov    0x4(%eax),%eax
  101d80:	89 45 f0             	mov    %eax,-0x10(%ebp)
  101d83:	8b 45 f0             	mov    -0x10(%ebp),%eax
  101d86:	83 e8 04             	sub    $0x4,%eax
  101d89:	89 45 f4             	mov    %eax,-0xc(%ebp)
  101d8c:	8b 45 08             	mov    0x8(%ebp),%eax
  101d8f:	8b 40 18             	mov    0x18(%eax),%eax
  101d92:	83 c0 04             	add    $0x4,%eax
  101d95:	89 04 24             	mov    %eax,(%esp)
  101d98:	e8 c2 fe ff ff       	call   101c5f <_ZL8list_delP9list_head>
  101d9d:	8b 45 08             	mov    0x8(%ebp),%eax
  101da0:	8b 40 18             	mov    0x18(%eax),%eax
  101da3:	8b 18                	mov    (%eax),%ebx
  101da5:	85 db                	test   %ebx,%ebx
  101da7:	74 10                	je     101db9 <_ZN11dynamicring12absolve_ringEv+0x49>
  101da9:	89 1c 24             	mov    %ebx,(%esp)
  101dac:	e8 47 02 00 00       	call   101ff8 <_ZN6ring_tD1Ev>
  101db1:	89 1c 24             	mov    %ebx,(%esp)
  101db4:	e8 be 05 00 00       	call   102377 <_ZdlPv>
  101db9:	8b 45 08             	mov    0x8(%ebp),%eax
  101dbc:	8b 40 18             	mov    0x18(%eax),%eax
  101dbf:	89 04 24             	mov    %eax,(%esp)
  101dc2:	e8 b0 05 00 00       	call   102377 <_ZdlPv>
  101dc7:	8b 45 08             	mov    0x8(%ebp),%eax
  101dca:	8b 55 f4             	mov    -0xc(%ebp),%edx
  101dcd:	89 50 18             	mov    %edx,0x18(%eax)
  101dd0:	8b 45 08             	mov    0x8(%ebp),%eax
  101dd3:	8b 40 14             	mov    0x14(%eax),%eax
  101dd6:	8d 50 ff             	lea    -0x1(%eax),%edx
  101dd9:	8b 45 08             	mov    0x8(%ebp),%eax
  101ddc:	89 50 14             	mov    %edx,0x14(%eax)
  101ddf:	83 c4 24             	add    $0x24,%esp
  101de2:	5b                   	pop    %ebx
  101de3:	5d                   	pop    %ebp
  101de4:	c3                   	ret    
  101de5:	90                   	nop

00101de6 <_ZN11dynamicring4peekEi>:
  101de6:	55                   	push   %ebp
  101de7:	89 e5                	mov    %esp,%ebp
  101de9:	5d                   	pop    %ebp
  101dea:	c3                   	ret    
  101deb:	90                   	nop

00101dec <_ZN11dynamicring9availableEv>:
  101dec:	55                   	push   %ebp
  101ded:	89 e5                	mov    %esp,%ebp
  101def:	5d                   	pop    %ebp
  101df0:	c3                   	ret    
  101df1:	90                   	nop

00101df2 <_ZN11dynamicring4pushEc>:
  101df2:	55                   	push   %ebp
  101df3:	89 e5                	mov    %esp,%ebp
  101df5:	83 ec 18             	sub    $0x18,%esp
  101df8:	8b 45 0c             	mov    0xc(%ebp),%eax
  101dfb:	88 45 f4             	mov    %al,-0xc(%ebp)
  101dfe:	8b 45 08             	mov    0x8(%ebp),%eax
  101e01:	8b 40 1c             	mov    0x1c(%eax),%eax
  101e04:	8b 00                	mov    (%eax),%eax
  101e06:	8b 00                	mov    (%eax),%eax
  101e08:	8b 00                	mov    (%eax),%eax
  101e0a:	0f be 4d f4          	movsbl -0xc(%ebp),%ecx
  101e0e:	8b 55 08             	mov    0x8(%ebp),%edx
  101e11:	8b 52 1c             	mov    0x1c(%edx),%edx
  101e14:	8b 12                	mov    (%edx),%edx
  101e16:	89 4c 24 04          	mov    %ecx,0x4(%esp)
  101e1a:	89 14 24             	mov    %edx,(%esp)
  101e1d:	ff d0                	call   *%eax
  101e1f:	85 c0                	test   %eax,%eax
  101e21:	0f 95 c0             	setne  %al
  101e24:	84 c0                	test   %al,%al
  101e26:	74 2c                	je     101e54 <_ZN11dynamicring4pushEc+0x62>
  101e28:	8b 45 08             	mov    0x8(%ebp),%eax
  101e2b:	89 04 24             	mov    %eax,(%esp)
  101e2e:	e8 b3 fe ff ff       	call   101ce6 <_ZN11dynamicring11engage_ringEv>
  101e33:	8b 45 08             	mov    0x8(%ebp),%eax
  101e36:	8b 40 1c             	mov    0x1c(%eax),%eax
  101e39:	8b 00                	mov    (%eax),%eax
  101e3b:	8b 00                	mov    (%eax),%eax
  101e3d:	8b 00                	mov    (%eax),%eax
  101e3f:	0f be 4d f4          	movsbl -0xc(%ebp),%ecx
  101e43:	8b 55 08             	mov    0x8(%ebp),%edx
  101e46:	8b 52 1c             	mov    0x1c(%edx),%edx
  101e49:	8b 12                	mov    (%edx),%edx
  101e4b:	89 4c 24 04          	mov    %ecx,0x4(%esp)
  101e4f:	89 14 24             	mov    %edx,(%esp)
  101e52:	ff d0                	call   *%eax
  101e54:	b8 00 00 00 00       	mov    $0x0,%eax
  101e59:	c9                   	leave  
  101e5a:	c3                   	ret    
  101e5b:	90                   	nop

00101e5c <_ZN11dynamicring3popEv>:
  101e5c:	55                   	push   %ebp
  101e5d:	89 e5                	mov    %esp,%ebp
  101e5f:	83 ec 28             	sub    $0x28,%esp
  101e62:	8b 45 08             	mov    0x8(%ebp),%eax
  101e65:	8b 40 18             	mov    0x18(%eax),%eax
  101e68:	8b 00                	mov    (%eax),%eax
  101e6a:	8b 00                	mov    (%eax),%eax
  101e6c:	83 c0 04             	add    $0x4,%eax
  101e6f:	8b 00                	mov    (%eax),%eax
  101e71:	8b 55 08             	mov    0x8(%ebp),%edx
  101e74:	8b 52 18             	mov    0x18(%edx),%edx
  101e77:	8b 12                	mov    (%edx),%edx
  101e79:	89 14 24             	mov    %edx,(%esp)
  101e7c:	ff d0                	call   *%eax
  101e7e:	89 45 f4             	mov    %eax,-0xc(%ebp)
  101e81:	83 7d f4 ff          	cmpl   $0xffffffff,-0xc(%ebp)
  101e85:	75 3e                	jne    101ec5 <_ZN11dynamicring3popEv+0x69>
  101e87:	8b 45 08             	mov    0x8(%ebp),%eax
  101e8a:	8b 40 14             	mov    0x14(%eax),%eax
  101e8d:	83 f8 01             	cmp    $0x1,%eax
  101e90:	7e 2c                	jle    101ebe <_ZN11dynamicring3popEv+0x62>
  101e92:	8b 45 08             	mov    0x8(%ebp),%eax
  101e95:	89 04 24             	mov    %eax,(%esp)
  101e98:	e8 d3 fe ff ff       	call   101d70 <_ZN11dynamicring12absolve_ringEv>
  101e9d:	8b 45 08             	mov    0x8(%ebp),%eax
  101ea0:	8b 40 18             	mov    0x18(%eax),%eax
  101ea3:	8b 00                	mov    (%eax),%eax
  101ea5:	8b 00                	mov    (%eax),%eax
  101ea7:	83 c0 04             	add    $0x4,%eax
  101eaa:	8b 00                	mov    (%eax),%eax
  101eac:	8b 55 08             	mov    0x8(%ebp),%edx
  101eaf:	8b 52 18             	mov    0x18(%edx),%edx
  101eb2:	8b 12                	mov    (%edx),%edx
  101eb4:	89 14 24             	mov    %edx,(%esp)
  101eb7:	ff d0                	call   *%eax
  101eb9:	89 45 f4             	mov    %eax,-0xc(%ebp)
  101ebc:	eb 07                	jmp    101ec5 <_ZN11dynamicring3popEv+0x69>
  101ebe:	b8 ff ff ff ff       	mov    $0xffffffff,%eax
  101ec3:	eb 03                	jmp    101ec8 <_ZN11dynamicring3popEv+0x6c>
  101ec5:	8b 45 f4             	mov    -0xc(%ebp),%eax
  101ec8:	c9                   	leave  
  101ec9:	c3                   	ret    

00101eca <_ZL4outbth>:
  101eca:	55                   	push   %ebp
  101ecb:	89 e5                	mov    %esp,%ebp
  101ecd:	83 ec 08             	sub    $0x8,%esp
  101ed0:	8b 55 08             	mov    0x8(%ebp),%edx
  101ed3:	8b 45 0c             	mov    0xc(%ebp),%eax
  101ed6:	66 89 55 fc          	mov    %dx,-0x4(%ebp)
  101eda:	88 45 f8             	mov    %al,-0x8(%ebp)
  101edd:	0f b7 55 fc          	movzwl -0x4(%ebp),%edx
  101ee1:	0f b6 45 f8          	movzbl -0x8(%ebp),%eax
  101ee5:	ee                   	out    %al,(%dx)
  101ee6:	c9                   	leave  
  101ee7:	c3                   	ret    

00101ee8 <_ZL3inbt>:
  101ee8:	55                   	push   %ebp
  101ee9:	89 e5                	mov    %esp,%ebp
  101eeb:	83 ec 14             	sub    $0x14,%esp
  101eee:	8b 45 08             	mov    0x8(%ebp),%eax
  101ef1:	66 89 45 ec          	mov    %ax,-0x14(%ebp)
  101ef5:	0f b7 45 ec          	movzwl -0x14(%ebp),%eax
  101ef9:	89 c2                	mov    %eax,%edx
  101efb:	ec                   	in     (%dx),%al
  101efc:	66 89 45 fe          	mov    %ax,-0x2(%ebp)
  101f00:	0f b7 45 fe          	movzwl -0x2(%ebp),%eax
  101f04:	c9                   	leave  
  101f05:	c3                   	ret    

00101f06 <_ZL29platform_abstract_irq_handlerP14interrupt_info>:
  101f06:	55                   	push   %ebp
  101f07:	89 e5                	mov    %esp,%ebp
  101f09:	83 ec 08             	sub    $0x8,%esp
  101f0c:	8b 45 08             	mov    0x8(%ebp),%eax
  101f0f:	8b 40 24             	mov    0x24(%eax),%eax
  101f12:	83 f8 27             	cmp    $0x27,%eax
  101f15:	76 14                	jbe    101f2b <_ZL29platform_abstract_irq_handlerP14interrupt_info+0x25>
  101f17:	c7 44 24 04 20 00 00 	movl   $0x20,0x4(%esp)
  101f1e:	00 
  101f1f:	c7 04 24 a0 00 00 00 	movl   $0xa0,(%esp)
  101f26:	e8 9f ff ff ff       	call   101eca <_ZL4outbth>
  101f2b:	8b 45 08             	mov    0x8(%ebp),%eax
  101f2e:	8b 40 24             	mov    0x24(%eax),%eax
  101f31:	83 f8 1f             	cmp    $0x1f,%eax
  101f34:	76 14                	jbe    101f4a <_ZL29platform_abstract_irq_handlerP14interrupt_info+0x44>
  101f36:	c7 44 24 04 20 00 00 	movl   $0x20,0x4(%esp)
  101f3d:	00 
  101f3e:	c7 04 24 20 00 00 00 	movl   $0x20,(%esp)
  101f45:	e8 80 ff ff ff       	call   101eca <_ZL4outbth>
  101f4a:	c9                   	leave  
  101f4b:	c3                   	ret    

00101f4c <_ZN6ring_tC1Ej>:
  101f4c:	55                   	push   %ebp
  101f4d:	89 e5                	mov    %esp,%ebp
  101f4f:	83 ec 18             	sub    $0x18,%esp
  101f52:	8b 45 08             	mov    0x8(%ebp),%eax
  101f55:	89 04 24             	mov    %eax,(%esp)
  101f58:	e8 f3 fb ff ff       	call   101b50 <_ZN7Queue_pC1Ev>
  101f5d:	8b 45 08             	mov    0x8(%ebp),%eax
  101f60:	c7 00 d8 3d 10 00    	movl   $0x103dd8,(%eax)
  101f66:	8b 45 08             	mov    0x8(%ebp),%eax
  101f69:	8b 55 0c             	mov    0xc(%ebp),%edx
  101f6c:	89 50 10             	mov    %edx,0x10(%eax)
  101f6f:	a1 64 60 10 00       	mov    0x106064,%eax
  101f74:	8b 00                	mov    (%eax),%eax
  101f76:	8b 00                	mov    (%eax),%eax
  101f78:	8b 15 64 60 10 00    	mov    0x106064,%edx
  101f7e:	8b 4d 0c             	mov    0xc(%ebp),%ecx
  101f81:	89 4c 24 04          	mov    %ecx,0x4(%esp)
  101f85:	89 14 24             	mov    %edx,(%esp)
  101f88:	ff d0                	call   *%eax
  101f8a:	8b 55 08             	mov    0x8(%ebp),%edx
  101f8d:	89 42 14             	mov    %eax,0x14(%edx)
  101f90:	8b 45 08             	mov    0x8(%ebp),%eax
  101f93:	c7 40 08 00 00 00 00 	movl   $0x0,0x8(%eax)
  101f9a:	8b 45 08             	mov    0x8(%ebp),%eax
  101f9d:	c7 40 0c 00 00 00 00 	movl   $0x0,0xc(%eax)
  101fa4:	8b 45 08             	mov    0x8(%ebp),%eax
  101fa7:	c6 40 04 00          	movb   $0x0,0x4(%eax)
  101fab:	c9                   	leave  
  101fac:	c3                   	ret    
  101fad:	90                   	nop

00101fae <_ZN6ring_tC1EPvj>:
  101fae:	55                   	push   %ebp
  101faf:	89 e5                	mov    %esp,%ebp
  101fb1:	83 ec 18             	sub    $0x18,%esp
  101fb4:	8b 45 08             	mov    0x8(%ebp),%eax
  101fb7:	89 04 24             	mov    %eax,(%esp)
  101fba:	e8 91 fb ff ff       	call   101b50 <_ZN7Queue_pC1Ev>
  101fbf:	8b 45 08             	mov    0x8(%ebp),%eax
  101fc2:	c7 00 d8 3d 10 00    	movl   $0x103dd8,(%eax)
  101fc8:	8b 45 08             	mov    0x8(%ebp),%eax
  101fcb:	8b 55 10             	mov    0x10(%ebp),%edx
  101fce:	89 50 10             	mov    %edx,0x10(%eax)
  101fd1:	8b 45 08             	mov    0x8(%ebp),%eax
  101fd4:	8b 55 0c             	mov    0xc(%ebp),%edx
  101fd7:	89 50 14             	mov    %edx,0x14(%eax)
  101fda:	8b 45 08             	mov    0x8(%ebp),%eax
  101fdd:	c7 40 08 00 00 00 00 	movl   $0x0,0x8(%eax)
  101fe4:	8b 45 08             	mov    0x8(%ebp),%eax
  101fe7:	c7 40 0c 00 00 00 00 	movl   $0x0,0xc(%eax)
  101fee:	8b 45 08             	mov    0x8(%ebp),%eax
  101ff1:	c6 40 04 00          	movb   $0x0,0x4(%eax)
  101ff5:	c9                   	leave  
  101ff6:	c3                   	ret    
  101ff7:	90                   	nop

00101ff8 <_ZN6ring_tD1Ev>:
  101ff8:	55                   	push   %ebp
  101ff9:	89 e5                	mov    %esp,%ebp
  101ffb:	83 ec 18             	sub    $0x18,%esp
  101ffe:	8b 45 08             	mov    0x8(%ebp),%eax
  102001:	c7 00 d8 3d 10 00    	movl   $0x103dd8,(%eax)
  102007:	a1 64 60 10 00       	mov    0x106064,%eax
  10200c:	8b 00                	mov    (%eax),%eax
  10200e:	83 c0 04             	add    $0x4,%eax
  102011:	8b 00                	mov    (%eax),%eax
  102013:	8b 55 08             	mov    0x8(%ebp),%edx
  102016:	8b 4a 14             	mov    0x14(%edx),%ecx
  102019:	8b 15 64 60 10 00    	mov    0x106064,%edx
  10201f:	89 4c 24 04          	mov    %ecx,0x4(%esp)
  102023:	89 14 24             	mov    %edx,(%esp)
  102026:	ff d0                	call   *%eax
  102028:	c9                   	leave  
  102029:	c3                   	ret    

0010202a <_ZN6ring_t3popEv>:
  10202a:	55                   	push   %ebp
  10202b:	89 e5                	mov    %esp,%ebp
  10202d:	83 ec 10             	sub    $0x10,%esp
  102030:	8b 45 08             	mov    0x8(%ebp),%eax
  102033:	0f b6 40 04          	movzbl 0x4(%eax),%eax
  102037:	84 c0                	test   %al,%al
  102039:	75 07                	jne    102042 <_ZN6ring_t3popEv+0x18>
  10203b:	b8 ff ff ff ff       	mov    $0xffffffff,%eax
  102040:	eb 56                	jmp    102098 <_ZN6ring_t3popEv+0x6e>
  102042:	8b 45 08             	mov    0x8(%ebp),%eax
  102045:	8b 50 14             	mov    0x14(%eax),%edx
  102048:	8b 45 08             	mov    0x8(%ebp),%eax
  10204b:	8b 40 08             	mov    0x8(%eax),%eax
  10204e:	01 d0                	add    %edx,%eax
  102050:	0f b6 00             	movzbl (%eax),%eax
  102053:	88 45 ff             	mov    %al,-0x1(%ebp)
  102056:	8b 45 08             	mov    0x8(%ebp),%eax
  102059:	8b 40 08             	mov    0x8(%eax),%eax
  10205c:	8d 50 01             	lea    0x1(%eax),%edx
  10205f:	8b 45 08             	mov    0x8(%ebp),%eax
  102062:	8b 48 10             	mov    0x10(%eax),%ecx
  102065:	89 d0                	mov    %edx,%eax
  102067:	ba 00 00 00 00       	mov    $0x0,%edx
  10206c:	f7 f1                	div    %ecx
  10206e:	8b 45 08             	mov    0x8(%ebp),%eax
  102071:	89 50 08             	mov    %edx,0x8(%eax)
  102074:	8b 45 08             	mov    0x8(%ebp),%eax
  102077:	8b 50 0c             	mov    0xc(%eax),%edx
  10207a:	8b 45 08             	mov    0x8(%ebp),%eax
  10207d:	8b 40 08             	mov    0x8(%eax),%eax
  102080:	39 c2                	cmp    %eax,%edx
  102082:	75 09                	jne    10208d <_ZN6ring_t3popEv+0x63>
  102084:	8b 45 08             	mov    0x8(%ebp),%eax
  102087:	c6 40 04 00          	movb   $0x0,0x4(%eax)
  10208b:	eb 07                	jmp    102094 <_ZN6ring_t3popEv+0x6a>
  10208d:	8b 45 08             	mov    0x8(%ebp),%eax
  102090:	c6 40 04 01          	movb   $0x1,0x4(%eax)
  102094:	0f be 45 ff          	movsbl -0x1(%ebp),%eax
  102098:	c9                   	leave  
  102099:	c3                   	ret    

0010209a <_ZN6ring_t4pushEc>:
  10209a:	55                   	push   %ebp
  10209b:	89 e5                	mov    %esp,%ebp
  10209d:	83 ec 04             	sub    $0x4,%esp
  1020a0:	8b 45 0c             	mov    0xc(%ebp),%eax
  1020a3:	88 45 fc             	mov    %al,-0x4(%ebp)
  1020a6:	8b 45 08             	mov    0x8(%ebp),%eax
  1020a9:	0f b6 40 04          	movzbl 0x4(%eax),%eax
  1020ad:	3c 02                	cmp    $0x2,%al
  1020af:	75 07                	jne    1020b8 <_ZN6ring_t4pushEc+0x1e>
  1020b1:	b8 ff ff ff ff       	mov    $0xffffffff,%eax
  1020b6:	eb 57                	jmp    10210f <_ZN6ring_t4pushEc+0x75>
  1020b8:	8b 45 08             	mov    0x8(%ebp),%eax
  1020bb:	8b 50 14             	mov    0x14(%eax),%edx
  1020be:	8b 45 08             	mov    0x8(%ebp),%eax
  1020c1:	8b 40 0c             	mov    0xc(%eax),%eax
  1020c4:	01 c2                	add    %eax,%edx
  1020c6:	0f b6 45 fc          	movzbl -0x4(%ebp),%eax
  1020ca:	88 02                	mov    %al,(%edx)
  1020cc:	8b 45 08             	mov    0x8(%ebp),%eax
  1020cf:	8b 40 0c             	mov    0xc(%eax),%eax
  1020d2:	8d 50 01             	lea    0x1(%eax),%edx
  1020d5:	8b 45 08             	mov    0x8(%ebp),%eax
  1020d8:	8b 48 10             	mov    0x10(%eax),%ecx
  1020db:	89 d0                	mov    %edx,%eax
  1020dd:	ba 00 00 00 00       	mov    $0x0,%edx
  1020e2:	f7 f1                	div    %ecx
  1020e4:	8b 45 08             	mov    0x8(%ebp),%eax
  1020e7:	89 50 0c             	mov    %edx,0xc(%eax)
  1020ea:	8b 45 08             	mov    0x8(%ebp),%eax
  1020ed:	8b 50 0c             	mov    0xc(%eax),%edx
  1020f0:	8b 45 08             	mov    0x8(%ebp),%eax
  1020f3:	8b 40 08             	mov    0x8(%eax),%eax
  1020f6:	39 c2                	cmp    %eax,%edx
  1020f8:	75 09                	jne    102103 <_ZN6ring_t4pushEc+0x69>
  1020fa:	8b 45 08             	mov    0x8(%ebp),%eax
  1020fd:	c6 40 04 02          	movb   $0x2,0x4(%eax)
  102101:	eb 07                	jmp    10210a <_ZN6ring_t4pushEc+0x70>
  102103:	8b 45 08             	mov    0x8(%ebp),%eax
  102106:	c6 40 04 01          	movb   $0x1,0x4(%eax)
  10210a:	b8 00 00 00 00       	mov    $0x0,%eax
  10210f:	c9                   	leave  
  102110:	c3                   	ret    
  102111:	90                   	nop

00102112 <_ZN6ring_t9availableEv>:
  102112:	55                   	push   %ebp
  102113:	89 e5                	mov    %esp,%ebp
  102115:	8b 45 08             	mov    0x8(%ebp),%eax
  102118:	8b 50 0c             	mov    0xc(%eax),%edx
  10211b:	8b 45 08             	mov    0x8(%ebp),%eax
  10211e:	8b 40 08             	mov    0x8(%eax),%eax
  102121:	29 c2                	sub    %eax,%edx
  102123:	8b 45 08             	mov    0x8(%ebp),%eax
  102126:	8b 40 10             	mov    0x10(%eax),%eax
  102129:	01 c2                	add    %eax,%edx
  10212b:	8b 45 08             	mov    0x8(%ebp),%eax
  10212e:	8b 48 10             	mov    0x10(%eax),%ecx
  102131:	89 d0                	mov    %edx,%eax
  102133:	ba 00 00 00 00       	mov    $0x0,%edx
  102138:	f7 f1                	div    %ecx
  10213a:	89 d0                	mov    %edx,%eax
  10213c:	5d                   	pop    %ebp
  10213d:	c3                   	ret    

0010213e <_ZN6ring_t4peekEi>:
  10213e:	55                   	push   %ebp
  10213f:	89 e5                	mov    %esp,%ebp
  102141:	b8 00 00 00 00       	mov    $0x0,%eax
  102146:	5d                   	pop    %ebp
  102147:	c3                   	ret    

00102148 <_ZL4outbth>:
  102148:	55                   	push   %ebp
  102149:	89 e5                	mov    %esp,%ebp
  10214b:	83 ec 08             	sub    $0x8,%esp
  10214e:	8b 55 08             	mov    0x8(%ebp),%edx
  102151:	8b 45 0c             	mov    0xc(%ebp),%eax
  102154:	66 89 55 fc          	mov    %dx,-0x4(%ebp)
  102158:	88 45 f8             	mov    %al,-0x8(%ebp)
  10215b:	0f b7 55 fc          	movzwl -0x4(%ebp),%edx
  10215f:	0f b6 45 f8          	movzbl -0x8(%ebp),%eax
  102163:	ee                   	out    %al,(%dx)
  102164:	c9                   	leave  
  102165:	c3                   	ret    

00102166 <_ZL3inbt>:
  102166:	55                   	push   %ebp
  102167:	89 e5                	mov    %esp,%ebp
  102169:	83 ec 14             	sub    $0x14,%esp
  10216c:	8b 45 08             	mov    0x8(%ebp),%eax
  10216f:	66 89 45 ec          	mov    %ax,-0x14(%ebp)
  102173:	0f b7 45 ec          	movzwl -0x14(%ebp),%eax
  102177:	89 c2                	mov    %eax,%edx
  102179:	ec                   	in     (%dx),%al
  10217a:	66 89 45 fe          	mov    %ax,-0x2(%ebp)
  10217e:	0f b7 45 fe          	movzwl -0x2(%ebp),%eax
  102182:	c9                   	leave  
  102183:	c3                   	ret    

00102184 <_ZL29platform_abstract_irq_handlerP14interrupt_info>:
  102184:	55                   	push   %ebp
  102185:	89 e5                	mov    %esp,%ebp
  102187:	83 ec 08             	sub    $0x8,%esp
  10218a:	8b 45 08             	mov    0x8(%ebp),%eax
  10218d:	8b 40 24             	mov    0x24(%eax),%eax
  102190:	83 f8 27             	cmp    $0x27,%eax
  102193:	76 14                	jbe    1021a9 <_ZL29platform_abstract_irq_handlerP14interrupt_info+0x25>
  102195:	c7 44 24 04 20 00 00 	movl   $0x20,0x4(%esp)
  10219c:	00 
  10219d:	c7 04 24 a0 00 00 00 	movl   $0xa0,(%esp)
  1021a4:	e8 9f ff ff ff       	call   102148 <_ZL4outbth>
  1021a9:	8b 45 08             	mov    0x8(%ebp),%eax
  1021ac:	8b 40 24             	mov    0x24(%eax),%eax
  1021af:	83 f8 1f             	cmp    $0x1f,%eax
  1021b2:	76 14                	jbe    1021c8 <_ZL29platform_abstract_irq_handlerP14interrupt_info+0x44>
  1021b4:	c7 44 24 04 20 00 00 	movl   $0x20,0x4(%esp)
  1021bb:	00 
  1021bc:	c7 04 24 20 00 00 00 	movl   $0x20,(%esp)
  1021c3:	e8 80 ff ff ff       	call   102148 <_ZL4outbth>
  1021c8:	c9                   	leave  
  1021c9:	c3                   	ret    

001021ca <_ZN12Object_cacheC1EjP11Allocator_p>:
  1021ca:	55                   	push   %ebp
  1021cb:	89 e5                	mov    %esp,%ebp
  1021cd:	83 ec 18             	sub    $0x18,%esp
  1021d0:	8b 45 08             	mov    0x8(%ebp),%eax
  1021d3:	89 04 24             	mov    %eax,(%esp)
  1021d6:	e8 c3 01 00 00       	call   10239e <_ZN11Allocator_pC1Ev>
  1021db:	8b 45 08             	mov    0x8(%ebp),%eax
  1021de:	c7 00 08 3e 10 00    	movl   $0x103e08,(%eax)
  1021e4:	8b 45 10             	mov    0x10(%ebp),%eax
  1021e7:	89 44 24 08          	mov    %eax,0x8(%esp)
  1021eb:	8b 45 0c             	mov    0xc(%ebp),%eax
  1021ee:	89 44 24 04          	mov    %eax,0x4(%esp)
  1021f2:	8b 45 08             	mov    0x8(%ebp),%eax
  1021f5:	89 04 24             	mov    %eax,(%esp)
  1021f8:	e8 03 00 00 00       	call   102200 <_ZN12Object_cache4initEjP11Allocator_p>
  1021fd:	c9                   	leave  
  1021fe:	c3                   	ret    
  1021ff:	90                   	nop

00102200 <_ZN12Object_cache4initEjP11Allocator_p>:
  102200:	55                   	push   %ebp
  102201:	89 e5                	mov    %esp,%ebp
  102203:	8b 45 08             	mov    0x8(%ebp),%eax
  102206:	8b 55 0c             	mov    0xc(%ebp),%edx
  102209:	89 50 08             	mov    %edx,0x8(%eax)
  10220c:	8b 45 08             	mov    0x8(%ebp),%eax
  10220f:	8d 50 0c             	lea    0xc(%eax),%edx
  102212:	8b 45 08             	mov    0x8(%ebp),%eax
  102215:	89 50 0c             	mov    %edx,0xc(%eax)
  102218:	8b 45 08             	mov    0x8(%ebp),%eax
  10221b:	8b 55 10             	mov    0x10(%ebp),%edx
  10221e:	89 50 04             	mov    %edx,0x4(%eax)
  102221:	5d                   	pop    %ebp
  102222:	c3                   	ret    
  102223:	90                   	nop

00102224 <_ZN12Object_cache8allocateEj>:
  102224:	55                   	push   %ebp
  102225:	89 e5                	mov    %esp,%ebp
  102227:	83 ec 10             	sub    $0x10,%esp
  10222a:	8b 45 08             	mov    0x8(%ebp),%eax
  10222d:	8b 40 0c             	mov    0xc(%eax),%eax
  102230:	89 45 fc             	mov    %eax,-0x4(%ebp)
  102233:	8b 45 08             	mov    0x8(%ebp),%eax
  102236:	8b 40 0c             	mov    0xc(%eax),%eax
  102239:	8b 10                	mov    (%eax),%edx
  10223b:	8b 45 08             	mov    0x8(%ebp),%eax
  10223e:	89 50 0c             	mov    %edx,0xc(%eax)
  102241:	8b 45 fc             	mov    -0x4(%ebp),%eax
  102244:	c9                   	leave  
  102245:	c3                   	ret    

00102246 <_ZN12Object_cache10deallocateEPv>:
  102246:	55                   	push   %ebp
  102247:	89 e5                	mov    %esp,%ebp
  102249:	83 ec 10             	sub    $0x10,%esp
  10224c:	8b 45 08             	mov    0x8(%ebp),%eax
  10224f:	8b 40 0c             	mov    0xc(%eax),%eax
  102252:	89 45 fc             	mov    %eax,-0x4(%ebp)
  102255:	8b 45 08             	mov    0x8(%ebp),%eax
  102258:	8b 55 0c             	mov    0xc(%ebp),%edx
  10225b:	89 50 0c             	mov    %edx,0xc(%eax)
  10225e:	8b 45 0c             	mov    0xc(%ebp),%eax
  102261:	8b 55 fc             	mov    -0x4(%ebp),%edx
  102264:	89 10                	mov    %edx,(%eax)
  102266:	c9                   	leave  
  102267:	c3                   	ret    

00102268 <_ZN12Object_cache6engageEPvj>:
  102268:	55                   	push   %ebp
  102269:	89 e5                	mov    %esp,%ebp
  10226b:	53                   	push   %ebx
  10226c:	83 ec 10             	sub    $0x10,%esp
  10226f:	8b 45 0c             	mov    0xc(%ebp),%eax
  102272:	89 45 f4             	mov    %eax,-0xc(%ebp)
  102275:	c7 45 f8 00 00 00 00 	movl   $0x0,-0x8(%ebp)
  10227c:	eb 24                	jmp    1022a2 <_ZN12Object_cache6engageEPvj+0x3a>
  10227e:	8b 45 08             	mov    0x8(%ebp),%eax
  102281:	8b 50 08             	mov    0x8(%eax),%edx
  102284:	8b 45 f8             	mov    -0x8(%ebp),%eax
  102287:	0f af d0             	imul   %eax,%edx
  10228a:	8b 45 0c             	mov    0xc(%ebp),%eax
  10228d:	01 d0                	add    %edx,%eax
  10228f:	89 c2                	mov    %eax,%edx
  102291:	8b 45 f4             	mov    -0xc(%ebp),%eax
  102294:	89 10                	mov    %edx,(%eax)
  102296:	8b 45 f4             	mov    -0xc(%ebp),%eax
  102299:	8b 00                	mov    (%eax),%eax
  10229b:	89 45 f4             	mov    %eax,-0xc(%ebp)
  10229e:	83 45 f8 01          	addl   $0x1,-0x8(%ebp)
  1022a2:	8b 4d f8             	mov    -0x8(%ebp),%ecx
  1022a5:	8b 45 08             	mov    0x8(%ebp),%eax
  1022a8:	8b 58 08             	mov    0x8(%eax),%ebx
  1022ab:	8b 45 10             	mov    0x10(%ebp),%eax
  1022ae:	ba 00 00 00 00       	mov    $0x0,%edx
  1022b3:	f7 f3                	div    %ebx
  1022b5:	39 c1                	cmp    %eax,%ecx
  1022b7:	72 c5                	jb     10227e <_ZN12Object_cache6engageEPvj+0x16>
  1022b9:	8b 45 08             	mov    0x8(%ebp),%eax
  1022bc:	8b 50 0c             	mov    0xc(%eax),%edx
  1022bf:	8b 45 f4             	mov    -0xc(%ebp),%eax
  1022c2:	89 10                	mov    %edx,(%eax)
  1022c4:	8b 45 08             	mov    0x8(%ebp),%eax
  1022c7:	8b 55 0c             	mov    0xc(%ebp),%edx
  1022ca:	89 50 0c             	mov    %edx,0xc(%eax)
  1022cd:	83 c4 10             	add    $0x10,%esp
  1022d0:	5b                   	pop    %ebx
  1022d1:	5d                   	pop    %ebp
  1022d2:	c3                   	ret    
  1022d3:	90                   	nop

001022d4 <_ZN12Object_cache10freeblocksEv>:
  1022d4:	55                   	push   %ebp
  1022d5:	89 e5                	mov    %esp,%ebp
  1022d7:	83 ec 10             	sub    $0x10,%esp
  1022da:	c7 45 f8 00 00 00 00 	movl   $0x0,-0x8(%ebp)
  1022e1:	8b 45 08             	mov    0x8(%ebp),%eax
  1022e4:	8b 40 0c             	mov    0xc(%eax),%eax
  1022e7:	89 45 fc             	mov    %eax,-0x4(%ebp)
  1022ea:	eb 0c                	jmp    1022f8 <_ZN12Object_cache10freeblocksEv+0x24>
  1022ec:	83 45 f8 01          	addl   $0x1,-0x8(%ebp)
  1022f0:	8b 45 fc             	mov    -0x4(%ebp),%eax
  1022f3:	8b 00                	mov    (%eax),%eax
  1022f5:	89 45 fc             	mov    %eax,-0x4(%ebp)
  1022f8:	8b 45 08             	mov    0x8(%ebp),%eax
  1022fb:	83 c0 0c             	add    $0xc,%eax
  1022fe:	3b 45 fc             	cmp    -0x4(%ebp),%eax
  102301:	75 e9                	jne    1022ec <_ZN12Object_cache10freeblocksEv+0x18>
  102303:	8b 45 f8             	mov    -0x8(%ebp),%eax
  102306:	c9                   	leave  
  102307:	c3                   	ret    

00102308 <_ZnwjPv>:
  102308:	55                   	push   %ebp
  102309:	89 e5                	mov    %esp,%ebp
  10230b:	8b 45 0c             	mov    0xc(%ebp),%eax
  10230e:	5d                   	pop    %ebp
  10230f:	c3                   	ret    

00102310 <_ZdlPvS_>:
  102310:	55                   	push   %ebp
  102311:	89 e5                	mov    %esp,%ebp
  102313:	5d                   	pop    %ebp
  102314:	c3                   	ret    

00102315 <_ZnwjP11Allocator_p>:
  102315:	55                   	push   %ebp
  102316:	89 e5                	mov    %esp,%ebp
  102318:	83 ec 18             	sub    $0x18,%esp
  10231b:	8b 45 0c             	mov    0xc(%ebp),%eax
  10231e:	8b 00                	mov    (%eax),%eax
  102320:	8b 00                	mov    (%eax),%eax
  102322:	8b 55 08             	mov    0x8(%ebp),%edx
  102325:	89 54 24 04          	mov    %edx,0x4(%esp)
  102329:	8b 55 0c             	mov    0xc(%ebp),%edx
  10232c:	89 14 24             	mov    %edx,(%esp)
  10232f:	ff d0                	call   *%eax
  102331:	c9                   	leave  
  102332:	c3                   	ret    

00102333 <_ZdlPvP11Allocator_p>:
  102333:	55                   	push   %ebp
  102334:	89 e5                	mov    %esp,%ebp
  102336:	83 ec 18             	sub    $0x18,%esp
  102339:	8b 45 0c             	mov    0xc(%ebp),%eax
  10233c:	8b 00                	mov    (%eax),%eax
  10233e:	83 c0 04             	add    $0x4,%eax
  102341:	8b 00                	mov    (%eax),%eax
  102343:	8b 55 08             	mov    0x8(%ebp),%edx
  102346:	89 54 24 04          	mov    %edx,0x4(%esp)
  10234a:	8b 55 0c             	mov    0xc(%ebp),%edx
  10234d:	89 14 24             	mov    %edx,(%esp)
  102350:	ff d0                	call   *%eax
  102352:	c9                   	leave  
  102353:	c3                   	ret    

00102354 <_Znwj>:
  102354:	55                   	push   %ebp
  102355:	89 e5                	mov    %esp,%ebp
  102357:	83 ec 18             	sub    $0x18,%esp
  10235a:	a1 64 60 10 00       	mov    0x106064,%eax
  10235f:	8b 00                	mov    (%eax),%eax
  102361:	8b 00                	mov    (%eax),%eax
  102363:	8b 15 64 60 10 00    	mov    0x106064,%edx
  102369:	8b 4d 08             	mov    0x8(%ebp),%ecx
  10236c:	89 4c 24 04          	mov    %ecx,0x4(%esp)
  102370:	89 14 24             	mov    %edx,(%esp)
  102373:	ff d0                	call   *%eax
  102375:	c9                   	leave  
  102376:	c3                   	ret    

00102377 <_ZdlPv>:
  102377:	55                   	push   %ebp
  102378:	89 e5                	mov    %esp,%ebp
  10237a:	83 ec 18             	sub    $0x18,%esp
  10237d:	a1 64 60 10 00       	mov    0x106064,%eax
  102382:	8b 00                	mov    (%eax),%eax
  102384:	83 c0 04             	add    $0x4,%eax
  102387:	8b 00                	mov    (%eax),%eax
  102389:	8b 15 64 60 10 00    	mov    0x106064,%edx
  10238f:	8b 4d 08             	mov    0x8(%ebp),%ecx
  102392:	89 4c 24 04          	mov    %ecx,0x4(%esp)
  102396:	89 14 24             	mov    %edx,(%esp)
  102399:	ff d0                	call   *%eax
  10239b:	c9                   	leave  
  10239c:	c3                   	ret    
  10239d:	90                   	nop

0010239e <_ZN11Allocator_pC1Ev>:
  10239e:	55                   	push   %ebp
  10239f:	89 e5                	mov    %esp,%ebp
  1023a1:	8b 45 08             	mov    0x8(%ebp),%eax
  1023a4:	c7 00 18 3e 10 00    	movl   $0x103e18,(%eax)
  1023aa:	5d                   	pop    %ebp
  1023ab:	c3                   	ret    

001023ac <_ZL4outbth>:
  1023ac:	55                   	push   %ebp
  1023ad:	89 e5                	mov    %esp,%ebp
  1023af:	83 ec 08             	sub    $0x8,%esp
  1023b2:	8b 55 08             	mov    0x8(%ebp),%edx
  1023b5:	8b 45 0c             	mov    0xc(%ebp),%eax
  1023b8:	66 89 55 fc          	mov    %dx,-0x4(%ebp)
  1023bc:	88 45 f8             	mov    %al,-0x8(%ebp)
  1023bf:	0f b7 55 fc          	movzwl -0x4(%ebp),%edx
  1023c3:	0f b6 45 f8          	movzbl -0x8(%ebp),%eax
  1023c7:	ee                   	out    %al,(%dx)
  1023c8:	c9                   	leave  
  1023c9:	c3                   	ret    

001023ca <_ZL3inbt>:
  1023ca:	55                   	push   %ebp
  1023cb:	89 e5                	mov    %esp,%ebp
  1023cd:	83 ec 14             	sub    $0x14,%esp
  1023d0:	8b 45 08             	mov    0x8(%ebp),%eax
  1023d3:	66 89 45 ec          	mov    %ax,-0x14(%ebp)
  1023d7:	0f b7 45 ec          	movzwl -0x14(%ebp),%eax
  1023db:	89 c2                	mov    %eax,%edx
  1023dd:	ec                   	in     (%dx),%al
  1023de:	66 89 45 fe          	mov    %ax,-0x2(%ebp)
  1023e2:	0f b7 45 fe          	movzwl -0x2(%ebp),%eax
  1023e6:	c9                   	leave  
  1023e7:	c3                   	ret    

001023e8 <_ZL29platform_abstract_irq_handlerP14interrupt_info>:
  1023e8:	55                   	push   %ebp
  1023e9:	89 e5                	mov    %esp,%ebp
  1023eb:	83 ec 08             	sub    $0x8,%esp
  1023ee:	8b 45 08             	mov    0x8(%ebp),%eax
  1023f1:	8b 40 24             	mov    0x24(%eax),%eax
  1023f4:	83 f8 27             	cmp    $0x27,%eax
  1023f7:	76 14                	jbe    10240d <_ZL29platform_abstract_irq_handlerP14interrupt_info+0x25>
  1023f9:	c7 44 24 04 20 00 00 	movl   $0x20,0x4(%esp)
  102400:	00 
  102401:	c7 04 24 a0 00 00 00 	movl   $0xa0,(%esp)
  102408:	e8 9f ff ff ff       	call   1023ac <_ZL4outbth>
  10240d:	8b 45 08             	mov    0x8(%ebp),%eax
  102410:	8b 40 24             	mov    0x24(%eax),%eax
  102413:	83 f8 1f             	cmp    $0x1f,%eax
  102416:	76 14                	jbe    10242c <_ZL29platform_abstract_irq_handlerP14interrupt_info+0x44>
  102418:	c7 44 24 04 20 00 00 	movl   $0x20,0x4(%esp)
  10241f:	00 
  102420:	c7 04 24 20 00 00 00 	movl   $0x20,(%esp)
  102427:	e8 80 ff ff ff       	call   1023ac <_ZL4outbth>
  10242c:	c9                   	leave  
  10242d:	c3                   	ret    

0010242e <debug_putchar>:
  10242e:	55                   	push   %ebp
  10242f:	89 e5                	mov    %esp,%ebp
  102431:	53                   	push   %ebx
  102432:	83 ec 14             	sub    $0x14,%esp
  102435:	8b 45 08             	mov    0x8(%ebp),%eax
  102438:	88 45 f4             	mov    %al,-0xc(%ebp)
  10243b:	0f be 45 f4          	movsbl -0xc(%ebp),%eax
  10243f:	83 f8 0a             	cmp    $0xa,%eax
  102442:	74 07                	je     10244b <debug_putchar+0x1d>
  102444:	83 f8 0d             	cmp    $0xd,%eax
  102447:	74 3d                	je     102486 <debug_putchar+0x58>
  102449:	eb 73                	jmp    1024be <debug_putchar+0x90>
  10244b:	8b 1d 8c 5e 10 00    	mov    0x105e8c,%ebx
  102451:	8b 0d 8c 5e 10 00    	mov    0x105e8c,%ecx
  102457:	ba 67 66 66 66       	mov    $0x66666667,%edx
  10245c:	89 c8                	mov    %ecx,%eax
  10245e:	f7 ea                	imul   %edx
  102460:	c1 fa 05             	sar    $0x5,%edx
  102463:	89 c8                	mov    %ecx,%eax
  102465:	c1 f8 1f             	sar    $0x1f,%eax
  102468:	29 c2                	sub    %eax,%edx
  10246a:	89 d0                	mov    %edx,%eax
  10246c:	c1 e0 02             	shl    $0x2,%eax
  10246f:	01 d0                	add    %edx,%eax
  102471:	c1 e0 04             	shl    $0x4,%eax
  102474:	29 c1                	sub    %eax,%ecx
  102476:	89 ca                	mov    %ecx,%edx
  102478:	89 d8                	mov    %ebx,%eax
  10247a:	29 d0                	sub    %edx,%eax
  10247c:	83 c0 50             	add    $0x50,%eax
  10247f:	a3 8c 5e 10 00       	mov    %eax,0x105e8c
  102484:	eb 5b                	jmp    1024e1 <debug_putchar+0xb3>
  102486:	8b 1d 8c 5e 10 00    	mov    0x105e8c,%ebx
  10248c:	8b 0d 8c 5e 10 00    	mov    0x105e8c,%ecx
  102492:	ba 67 66 66 66       	mov    $0x66666667,%edx
  102497:	89 c8                	mov    %ecx,%eax
  102499:	f7 ea                	imul   %edx
  10249b:	c1 fa 05             	sar    $0x5,%edx
  10249e:	89 c8                	mov    %ecx,%eax
  1024a0:	c1 f8 1f             	sar    $0x1f,%eax
  1024a3:	29 c2                	sub    %eax,%edx
  1024a5:	89 d0                	mov    %edx,%eax
  1024a7:	c1 e0 02             	shl    $0x2,%eax
  1024aa:	01 d0                	add    %edx,%eax
  1024ac:	c1 e0 04             	shl    $0x4,%eax
  1024af:	29 c1                	sub    %eax,%ecx
  1024b1:	89 ca                	mov    %ecx,%edx
  1024b3:	89 d8                	mov    %ebx,%eax
  1024b5:	29 d0                	sub    %edx,%eax
  1024b7:	a3 8c 5e 10 00       	mov    %eax,0x105e8c
  1024bc:	eb 23                	jmp    1024e1 <debug_putchar+0xb3>
  1024be:	0f be 55 f4          	movsbl -0xc(%ebp),%edx
  1024c2:	a1 8c 5e 10 00       	mov    0x105e8c,%eax
  1024c7:	89 54 24 04          	mov    %edx,0x4(%esp)
  1024cb:	89 04 24             	mov    %eax,(%esp)
  1024ce:	e8 ab 11 00 00       	call   10367e <_Z18video_page_putcharic>
  1024d3:	a1 8c 5e 10 00       	mov    0x105e8c,%eax
  1024d8:	83 c0 01             	add    $0x1,%eax
  1024db:	a3 8c 5e 10 00       	mov    %eax,0x105e8c
  1024e0:	90                   	nop
  1024e1:	a1 8c 5e 10 00       	mov    0x105e8c,%eax
  1024e6:	3d cf 07 00 00       	cmp    $0x7cf,%eax
  1024eb:	7e 12                	jle    1024ff <debug_putchar+0xd1>
  1024ed:	e8 f9 12 00 00       	call   1037eb <_Z19video_page_drop_strv>
  1024f2:	a1 8c 5e 10 00       	mov    0x105e8c,%eax
  1024f7:	83 e8 50             	sub    $0x50,%eax
  1024fa:	a3 8c 5e 10 00       	mov    %eax,0x105e8c
  1024ff:	a1 8c 5e 10 00       	mov    0x105e8c,%eax
  102504:	89 04 24             	mov    %eax,(%esp)
  102507:	e8 a9 11 00 00       	call   1036b5 <_Z22video_page_move_cursori>
  10250c:	83 c4 14             	add    $0x14,%esp
  10250f:	5b                   	pop    %ebx
  102510:	5d                   	pop    %ebp
  102511:	c3                   	ret    

00102512 <_Z18debug_reset_cursorv>:
  102512:	55                   	push   %ebp
  102513:	89 e5                	mov    %esp,%ebp
  102515:	c7 05 8c 5e 10 00 00 	movl   $0x0,0x105e8c
  10251c:	00 00 00 
  10251f:	5d                   	pop    %ebp
  102520:	c3                   	ret    

00102521 <_ZL4outbth>:
  102521:	55                   	push   %ebp
  102522:	89 e5                	mov    %esp,%ebp
  102524:	83 ec 08             	sub    $0x8,%esp
  102527:	8b 55 08             	mov    0x8(%ebp),%edx
  10252a:	8b 45 0c             	mov    0xc(%ebp),%eax
  10252d:	66 89 55 fc          	mov    %dx,-0x4(%ebp)
  102531:	88 45 f8             	mov    %al,-0x8(%ebp)
  102534:	0f b7 55 fc          	movzwl -0x4(%ebp),%edx
  102538:	0f b6 45 f8          	movzbl -0x8(%ebp),%eax
  10253c:	ee                   	out    %al,(%dx)
  10253d:	c9                   	leave  
  10253e:	c3                   	ret    

0010253f <_ZL3inbt>:
  10253f:	55                   	push   %ebp
  102540:	89 e5                	mov    %esp,%ebp
  102542:	83 ec 14             	sub    $0x14,%esp
  102545:	8b 45 08             	mov    0x8(%ebp),%eax
  102548:	66 89 45 ec          	mov    %ax,-0x14(%ebp)
  10254c:	0f b7 45 ec          	movzwl -0x14(%ebp),%eax
  102550:	89 c2                	mov    %eax,%edx
  102552:	ec                   	in     (%dx),%al
  102553:	66 89 45 fe          	mov    %ax,-0x2(%ebp)
  102557:	0f b7 45 fe          	movzwl -0x2(%ebp),%eax
  10255b:	c9                   	leave  
  10255c:	c3                   	ret    

0010255d <_ZL29platform_abstract_irq_handlerP14interrupt_info>:
  10255d:	55                   	push   %ebp
  10255e:	89 e5                	mov    %esp,%ebp
  102560:	83 ec 08             	sub    $0x8,%esp
  102563:	8b 45 08             	mov    0x8(%ebp),%eax
  102566:	8b 40 24             	mov    0x24(%eax),%eax
  102569:	83 f8 27             	cmp    $0x27,%eax
  10256c:	76 14                	jbe    102582 <_ZL29platform_abstract_irq_handlerP14interrupt_info+0x25>
  10256e:	c7 44 24 04 20 00 00 	movl   $0x20,0x4(%esp)
  102575:	00 
  102576:	c7 04 24 a0 00 00 00 	movl   $0xa0,(%esp)
  10257d:	e8 9f ff ff ff       	call   102521 <_ZL4outbth>
  102582:	8b 45 08             	mov    0x8(%ebp),%eax
  102585:	8b 40 24             	mov    0x24(%eax),%eax
  102588:	83 f8 1f             	cmp    $0x1f,%eax
  10258b:	76 14                	jbe    1025a1 <_ZL29platform_abstract_irq_handlerP14interrupt_info+0x44>
  10258d:	c7 44 24 04 20 00 00 	movl   $0x20,0x4(%esp)
  102594:	00 
  102595:	c7 04 24 20 00 00 00 	movl   $0x20,(%esp)
  10259c:	e8 80 ff ff ff       	call   102521 <_ZL4outbth>
  1025a1:	c9                   	leave  
  1025a2:	c3                   	ret    

001025a3 <_Z5boot3v>:
  1025a3:	55                   	push   %ebp
  1025a4:	89 e5                	mov    %esp,%ebp
  1025a6:	83 ec 18             	sub    $0x18,%esp
  1025a9:	c7 04 24 54 3e 10 00 	movl   $0x103e54,(%esp)
  1025b0:	e8 b2 df ff ff       	call   100567 <debug_print>
  1025b5:	c7 04 24 5f 3e 10 00 	movl   $0x103e5f,(%esp)
  1025bc:	e8 a6 df ff ff       	call   100567 <debug_print>
  1025c1:	c7 04 24 69 3e 10 00 	movl   $0x103e69,(%esp)
  1025c8:	e8 9a df ff ff       	call   100567 <debug_print>
  1025cd:	c7 44 24 04 02 00 00 	movl   $0x2,0x4(%esp)
  1025d4:	00 
  1025d5:	c7 04 24 76 3e 10 00 	movl   $0x103e76,(%esp)
  1025dc:	e8 a8 dd ff ff       	call   100389 <debug_write>
  1025e1:	c7 04 24 79 3e 10 00 	movl   $0x103e79,(%esp)
  1025e8:	e8 7a df ff ff       	call   100567 <debug_print>
  1025ed:	c7 04 24 7e 3e 10 00 	movl   $0x103e7e,(%esp)
  1025f4:	e8 6e df ff ff       	call   100567 <debug_print>
  1025f9:	c7 44 24 04 02 00 00 	movl   $0x2,0x4(%esp)
  102600:	00 
  102601:	c7 04 24 76 3e 10 00 	movl   $0x103e76,(%esp)
  102608:	e8 7c dd ff ff       	call   100389 <debug_write>
  10260d:	e8 22 0b 00 00       	call   103134 <_Z22init_descriptor_tablesv>
  102612:	c7 44 24 04 02 00 00 	movl   $0x2,0x4(%esp)
  102619:	00 
  10261a:	c7 04 24 76 3e 10 00 	movl   $0x103e76,(%esp)
  102621:	e8 63 dd ff ff       	call   100389 <debug_write>
  102626:	c7 04 24 83 3e 10 00 	movl   $0x103e83,(%esp)
  10262d:	e8 35 df ff ff       	call   100567 <debug_print>
  102632:	e8 93 db ff ff       	call   1001ca <main>
  102637:	c7 04 24 9c 3e 10 00 	movl   $0x103e9c,(%esp)
  10263e:	e8 c1 e0 ff ff       	call   100704 <_Z11systemErrorPKc>
  102643:	c9                   	leave  
  102644:	c3                   	ret    

00102645 <_Z20systemError_platformv>:
  102645:	55                   	push   %ebp
  102646:	89 e5                	mov    %esp,%ebp
  102648:	5d                   	pop    %ebp
  102649:	c3                   	ret    

0010264a <_ZL4outbth>:
  10264a:	55                   	push   %ebp
  10264b:	89 e5                	mov    %esp,%ebp
  10264d:	83 ec 08             	sub    $0x8,%esp
  102650:	8b 55 08             	mov    0x8(%ebp),%edx
  102653:	8b 45 0c             	mov    0xc(%ebp),%eax
  102656:	66 89 55 fc          	mov    %dx,-0x4(%ebp)
  10265a:	88 45 f8             	mov    %al,-0x8(%ebp)
  10265d:	0f b7 55 fc          	movzwl -0x4(%ebp),%edx
  102661:	0f b6 45 f8          	movzbl -0x8(%ebp),%eax
  102665:	ee                   	out    %al,(%dx)
  102666:	c9                   	leave  
  102667:	c3                   	ret    

00102668 <_ZL3inbt>:
  102668:	55                   	push   %ebp
  102669:	89 e5                	mov    %esp,%ebp
  10266b:	83 ec 14             	sub    $0x14,%esp
  10266e:	8b 45 08             	mov    0x8(%ebp),%eax
  102671:	66 89 45 ec          	mov    %ax,-0x14(%ebp)
  102675:	0f b7 45 ec          	movzwl -0x14(%ebp),%eax
  102679:	89 c2                	mov    %eax,%edx
  10267b:	ec                   	in     (%dx),%al
  10267c:	66 89 45 fe          	mov    %ax,-0x2(%ebp)
  102680:	0f b7 45 fe          	movzwl -0x2(%ebp),%eax
  102684:	c9                   	leave  
  102685:	c3                   	ret    

00102686 <_ZL29platform_abstract_irq_handlerP14interrupt_info>:
  102686:	55                   	push   %ebp
  102687:	89 e5                	mov    %esp,%ebp
  102689:	83 ec 08             	sub    $0x8,%esp
  10268c:	8b 45 08             	mov    0x8(%ebp),%eax
  10268f:	8b 40 24             	mov    0x24(%eax),%eax
  102692:	83 f8 27             	cmp    $0x27,%eax
  102695:	76 14                	jbe    1026ab <_ZL29platform_abstract_irq_handlerP14interrupt_info+0x25>
  102697:	c7 44 24 04 20 00 00 	movl   $0x20,0x4(%esp)
  10269e:	00 
  10269f:	c7 04 24 a0 00 00 00 	movl   $0xa0,(%esp)
  1026a6:	e8 9f ff ff ff       	call   10264a <_ZL4outbth>
  1026ab:	8b 45 08             	mov    0x8(%ebp),%eax
  1026ae:	8b 40 24             	mov    0x24(%eax),%eax
  1026b1:	83 f8 1f             	cmp    $0x1f,%eax
  1026b4:	76 14                	jbe    1026ca <_ZL29platform_abstract_irq_handlerP14interrupt_info+0x44>
  1026b6:	c7 44 24 04 20 00 00 	movl   $0x20,0x4(%esp)
  1026bd:	00 
  1026be:	c7 04 24 20 00 00 00 	movl   $0x20,(%esp)
  1026c5:	e8 80 ff ff ff       	call   10264a <_ZL4outbth>
  1026ca:	c9                   	leave  
  1026cb:	c3                   	ret    

001026cc <_ZL12gdt_set_gatejjjhh>:
  1026cc:	55                   	push   %ebp
  1026cd:	89 e5                	mov    %esp,%ebp
  1026cf:	83 ec 08             	sub    $0x8,%esp
  1026d2:	8b 55 14             	mov    0x14(%ebp),%edx
  1026d5:	8b 45 18             	mov    0x18(%ebp),%eax
  1026d8:	88 55 fc             	mov    %dl,-0x4(%ebp)
  1026db:	88 45 f8             	mov    %al,-0x8(%ebp)
  1026de:	8b 45 0c             	mov    0xc(%ebp),%eax
  1026e1:	89 c2                	mov    %eax,%edx
  1026e3:	8b 45 08             	mov    0x8(%ebp),%eax
  1026e6:	66 89 14 c5 a2 70 10 	mov    %dx,0x1070a2(,%eax,8)
  1026ed:	00 
  1026ee:	8b 45 0c             	mov    0xc(%ebp),%eax
  1026f1:	c1 e8 10             	shr    $0x10,%eax
  1026f4:	89 c2                	mov    %eax,%edx
  1026f6:	8b 45 08             	mov    0x8(%ebp),%eax
  1026f9:	88 14 c5 a4 70 10 00 	mov    %dl,0x1070a4(,%eax,8)
  102700:	8b 45 0c             	mov    0xc(%ebp),%eax
  102703:	c1 e8 18             	shr    $0x18,%eax
  102706:	89 c2                	mov    %eax,%edx
  102708:	8b 45 08             	mov    0x8(%ebp),%eax
  10270b:	88 14 c5 a7 70 10 00 	mov    %dl,0x1070a7(,%eax,8)
  102712:	8b 45 10             	mov    0x10(%ebp),%eax
  102715:	89 c2                	mov    %eax,%edx
  102717:	8b 45 08             	mov    0x8(%ebp),%eax
  10271a:	66 89 14 c5 a0 70 10 	mov    %dx,0x1070a0(,%eax,8)
  102721:	00 
  102722:	8b 45 10             	mov    0x10(%ebp),%eax
  102725:	c1 e8 10             	shr    $0x10,%eax
  102728:	83 e0 0f             	and    $0xf,%eax
  10272b:	89 c2                	mov    %eax,%edx
  10272d:	8b 45 08             	mov    0x8(%ebp),%eax
  102730:	88 14 c5 a6 70 10 00 	mov    %dl,0x1070a6(,%eax,8)
  102737:	8b 45 08             	mov    0x8(%ebp),%eax
  10273a:	0f b6 04 c5 a6 70 10 	movzbl 0x1070a6(,%eax,8),%eax
  102741:	00 
  102742:	0f b6 55 f8          	movzbl -0x8(%ebp),%edx
  102746:	83 e2 f0             	and    $0xfffffff0,%edx
  102749:	09 d0                	or     %edx,%eax
  10274b:	89 c2                	mov    %eax,%edx
  10274d:	8b 45 08             	mov    0x8(%ebp),%eax
  102750:	88 14 c5 a6 70 10 00 	mov    %dl,0x1070a6(,%eax,8)
  102757:	8b 45 08             	mov    0x8(%ebp),%eax
  10275a:	0f b6 55 fc          	movzbl -0x4(%ebp),%edx
  10275e:	88 14 c5 a5 70 10 00 	mov    %dl,0x1070a5(,%eax,8)
  102765:	c9                   	leave  
  102766:	c3                   	ret    

00102767 <_ZL8init_gdtv>:
  102767:	55                   	push   %ebp
  102768:	89 e5                	mov    %esp,%ebp
  10276a:	83 ec 28             	sub    $0x28,%esp
  10276d:	ba 08 00 00 00       	mov    $0x8,%edx
  102772:	89 d0                	mov    %edx,%eax
  102774:	c1 e0 02             	shl    $0x2,%eax
  102777:	01 d0                	add    %edx,%eax
  102779:	83 e8 01             	sub    $0x1,%eax
  10277c:	66 a3 c8 70 10 00    	mov    %ax,0x1070c8
  102782:	b8 a0 70 10 00       	mov    $0x1070a0,%eax
  102787:	a3 ca 70 10 00       	mov    %eax,0x1070ca
  10278c:	c7 44 24 10 00 00 00 	movl   $0x0,0x10(%esp)
  102793:	00 
  102794:	c7 44 24 0c 00 00 00 	movl   $0x0,0xc(%esp)
  10279b:	00 
  10279c:	c7 44 24 08 00 00 00 	movl   $0x0,0x8(%esp)
  1027a3:	00 
  1027a4:	c7 44 24 04 00 00 00 	movl   $0x0,0x4(%esp)
  1027ab:	00 
  1027ac:	c7 04 24 00 00 00 00 	movl   $0x0,(%esp)
  1027b3:	e8 14 ff ff ff       	call   1026cc <_ZL12gdt_set_gatejjjhh>
  1027b8:	c7 44 24 10 cf 00 00 	movl   $0xcf,0x10(%esp)
  1027bf:	00 
  1027c0:	c7 44 24 0c 9a 00 00 	movl   $0x9a,0xc(%esp)
  1027c7:	00 
  1027c8:	c7 44 24 08 ff ff ff 	movl   $0xffffffff,0x8(%esp)
  1027cf:	ff 
  1027d0:	c7 44 24 04 00 00 00 	movl   $0x0,0x4(%esp)
  1027d7:	00 
  1027d8:	c7 04 24 01 00 00 00 	movl   $0x1,(%esp)
  1027df:	e8 e8 fe ff ff       	call   1026cc <_ZL12gdt_set_gatejjjhh>
  1027e4:	c7 44 24 10 cf 00 00 	movl   $0xcf,0x10(%esp)
  1027eb:	00 
  1027ec:	c7 44 24 0c 92 00 00 	movl   $0x92,0xc(%esp)
  1027f3:	00 
  1027f4:	c7 44 24 08 ff ff ff 	movl   $0xffffffff,0x8(%esp)
  1027fb:	ff 
  1027fc:	c7 44 24 04 00 00 00 	movl   $0x0,0x4(%esp)
  102803:	00 
  102804:	c7 04 24 02 00 00 00 	movl   $0x2,(%esp)
  10280b:	e8 bc fe ff ff       	call   1026cc <_ZL12gdt_set_gatejjjhh>
  102810:	c7 44 24 10 cf 00 00 	movl   $0xcf,0x10(%esp)
  102817:	00 
  102818:	c7 44 24 0c fa 00 00 	movl   $0xfa,0xc(%esp)
  10281f:	00 
  102820:	c7 44 24 08 ff ff ff 	movl   $0xffffffff,0x8(%esp)
  102827:	ff 
  102828:	c7 44 24 04 00 00 00 	movl   $0x0,0x4(%esp)
  10282f:	00 
  102830:	c7 04 24 03 00 00 00 	movl   $0x3,(%esp)
  102837:	e8 90 fe ff ff       	call   1026cc <_ZL12gdt_set_gatejjjhh>
  10283c:	c7 44 24 10 cf 00 00 	movl   $0xcf,0x10(%esp)
  102843:	00 
  102844:	c7 44 24 0c f2 00 00 	movl   $0xf2,0xc(%esp)
  10284b:	00 
  10284c:	c7 44 24 08 ff ff ff 	movl   $0xffffffff,0x8(%esp)
  102853:	ff 
  102854:	c7 44 24 04 00 00 00 	movl   $0x0,0x4(%esp)
  10285b:	00 
  10285c:	c7 04 24 04 00 00 00 	movl   $0x4,(%esp)
  102863:	e8 64 fe ff ff       	call   1026cc <_ZL12gdt_set_gatejjjhh>
  102868:	b8 c8 70 10 00       	mov    $0x1070c8,%eax
  10286d:	89 04 24             	mov    %eax,(%esp)
  102870:	e8 a8 0d 00 00       	call   10361d <gdt_flush>
  102875:	c9                   	leave  
  102876:	c3                   	ret    

00102877 <_ZL12idt_set_gatehjth>:
  102877:	55                   	push   %ebp
  102878:	89 e5                	mov    %esp,%ebp
  10287a:	83 ec 0c             	sub    $0xc,%esp
  10287d:	8b 4d 08             	mov    0x8(%ebp),%ecx
  102880:	8b 55 10             	mov    0x10(%ebp),%edx
  102883:	8b 45 14             	mov    0x14(%ebp),%eax
  102886:	88 4d fc             	mov    %cl,-0x4(%ebp)
  102889:	66 89 55 f8          	mov    %dx,-0x8(%ebp)
  10288d:	88 45 f4             	mov    %al,-0xc(%ebp)
  102890:	0f b6 45 fc          	movzbl -0x4(%ebp),%eax
  102894:	8b 55 0c             	mov    0xc(%ebp),%edx
  102897:	66 89 14 c5 e0 70 10 	mov    %dx,0x1070e0(,%eax,8)
  10289e:	00 
  10289f:	0f b6 45 fc          	movzbl -0x4(%ebp),%eax
  1028a3:	8b 55 0c             	mov    0xc(%ebp),%edx
  1028a6:	c1 ea 10             	shr    $0x10,%edx
  1028a9:	66 89 14 c5 e6 70 10 	mov    %dx,0x1070e6(,%eax,8)
  1028b0:	00 
  1028b1:	0f b6 45 fc          	movzbl -0x4(%ebp),%eax
  1028b5:	0f b7 55 f8          	movzwl -0x8(%ebp),%edx
  1028b9:	66 89 14 c5 e2 70 10 	mov    %dx,0x1070e2(,%eax,8)
  1028c0:	00 
  1028c1:	0f b6 45 fc          	movzbl -0x4(%ebp),%eax
  1028c5:	c6 04 c5 e4 70 10 00 	movb   $0x0,0x1070e4(,%eax,8)
  1028cc:	00 
  1028cd:	0f b6 45 fc          	movzbl -0x4(%ebp),%eax
  1028d1:	0f b6 55 f4          	movzbl -0xc(%ebp),%edx
  1028d5:	88 14 c5 e5 70 10 00 	mov    %dl,0x1070e5(,%eax,8)
  1028dc:	c9                   	leave  
  1028dd:	c3                   	ret    

001028de <_Z7StubISRv>:
  1028de:	55                   	push   %ebp
  1028df:	89 e5                	mov    %esp,%ebp
  1028e1:	83 ec 18             	sub    $0x18,%esp
  1028e4:	c7 04 24 c8 3e 10 00 	movl   $0x103ec8,(%esp)
  1028eb:	e8 14 de ff ff       	call   100704 <_Z11systemErrorPKc>
  1028f0:	c9                   	leave  
  1028f1:	c3                   	ret    

001028f2 <_ZL8init_idtv>:
  1028f2:	55                   	push   %ebp
  1028f3:	89 e5                	mov    %esp,%ebp
  1028f5:	83 ec 28             	sub    $0x28,%esp
  1028f8:	b8 08 00 00 00       	mov    $0x8,%eax
  1028fd:	c1 e0 08             	shl    $0x8,%eax
  102900:	83 e8 01             	sub    $0x1,%eax
  102903:	66 a3 e0 78 10 00    	mov    %ax,0x1078e0
  102909:	b8 e0 70 10 00       	mov    $0x1070e0,%eax
  10290e:	a3 e2 78 10 00       	mov    %eax,0x1078e2
  102913:	b8 00 08 00 00       	mov    $0x800,%eax
  102918:	89 44 24 08          	mov    %eax,0x8(%esp)
  10291c:	c7 44 24 04 00 00 00 	movl   $0x0,0x4(%esp)
  102923:	00 
  102924:	c7 04 24 e0 70 10 00 	movl   $0x1070e0,(%esp)
  10292b:	e8 07 eb ff ff       	call   101437 <_Z6memsetPvij>
  102930:	c7 44 24 04 11 00 00 	movl   $0x11,0x4(%esp)
  102937:	00 
  102938:	c7 04 24 20 00 00 00 	movl   $0x20,(%esp)
  10293f:	e8 06 fd ff ff       	call   10264a <_ZL4outbth>
  102944:	c7 44 24 04 11 00 00 	movl   $0x11,0x4(%esp)
  10294b:	00 
  10294c:	c7 04 24 a0 00 00 00 	movl   $0xa0,(%esp)
  102953:	e8 f2 fc ff ff       	call   10264a <_ZL4outbth>
  102958:	c7 44 24 04 20 00 00 	movl   $0x20,0x4(%esp)
  10295f:	00 
  102960:	c7 04 24 21 00 00 00 	movl   $0x21,(%esp)
  102967:	e8 de fc ff ff       	call   10264a <_ZL4outbth>
  10296c:	c7 44 24 04 28 00 00 	movl   $0x28,0x4(%esp)
  102973:	00 
  102974:	c7 04 24 a1 00 00 00 	movl   $0xa1,(%esp)
  10297b:	e8 ca fc ff ff       	call   10264a <_ZL4outbth>
  102980:	c7 44 24 04 04 00 00 	movl   $0x4,0x4(%esp)
  102987:	00 
  102988:	c7 04 24 21 00 00 00 	movl   $0x21,(%esp)
  10298f:	e8 b6 fc ff ff       	call   10264a <_ZL4outbth>
  102994:	c7 44 24 04 02 00 00 	movl   $0x2,0x4(%esp)
  10299b:	00 
  10299c:	c7 04 24 a1 00 00 00 	movl   $0xa1,(%esp)
  1029a3:	e8 a2 fc ff ff       	call   10264a <_ZL4outbth>
  1029a8:	c7 44 24 04 01 00 00 	movl   $0x1,0x4(%esp)
  1029af:	00 
  1029b0:	c7 04 24 21 00 00 00 	movl   $0x21,(%esp)
  1029b7:	e8 8e fc ff ff       	call   10264a <_ZL4outbth>
  1029bc:	c7 44 24 04 01 00 00 	movl   $0x1,0x4(%esp)
  1029c3:	00 
  1029c4:	c7 04 24 a1 00 00 00 	movl   $0xa1,(%esp)
  1029cb:	e8 7a fc ff ff       	call   10264a <_ZL4outbth>
  1029d0:	c7 44 24 04 00 00 00 	movl   $0x0,0x4(%esp)
  1029d7:	00 
  1029d8:	c7 04 24 21 00 00 00 	movl   $0x21,(%esp)
  1029df:	e8 66 fc ff ff       	call   10264a <_ZL4outbth>
  1029e4:	c7 44 24 04 00 00 00 	movl   $0x0,0x4(%esp)
  1029eb:	00 
  1029ec:	c7 04 24 a1 00 00 00 	movl   $0xa1,(%esp)
  1029f3:	e8 52 fc ff ff       	call   10264a <_ZL4outbth>
  1029f8:	c7 45 f4 00 00 00 00 	movl   $0x0,-0xc(%ebp)
  1029ff:	eb 2b                	jmp    102a2c <_ZL8init_idtv+0x13a>
  102a01:	ba de 28 10 00       	mov    $0x1028de,%edx
  102a06:	8b 45 f4             	mov    -0xc(%ebp),%eax
  102a09:	0f b6 c0             	movzbl %al,%eax
  102a0c:	c7 44 24 0c 8e 00 00 	movl   $0x8e,0xc(%esp)
  102a13:	00 
  102a14:	c7 44 24 08 08 00 00 	movl   $0x8,0x8(%esp)
  102a1b:	00 
  102a1c:	89 54 24 04          	mov    %edx,0x4(%esp)
  102a20:	89 04 24             	mov    %eax,(%esp)
  102a23:	e8 4f fe ff ff       	call   102877 <_ZL12idt_set_gatehjth>
  102a28:	83 45 f4 01          	addl   $0x1,-0xc(%ebp)
  102a2c:	81 7d f4 ff 00 00 00 	cmpl   $0xff,-0xc(%ebp)
  102a33:	7e cc                	jle    102a01 <_ZL8init_idtv+0x10f>
  102a35:	b8 34 39 10 00       	mov    $0x103934,%eax
  102a3a:	c7 44 24 0c 8e 00 00 	movl   $0x8e,0xc(%esp)
  102a41:	00 
  102a42:	c7 44 24 08 08 00 00 	movl   $0x8,0x8(%esp)
  102a49:	00 
  102a4a:	89 44 24 04          	mov    %eax,0x4(%esp)
  102a4e:	c7 04 24 00 00 00 00 	movl   $0x0,(%esp)
  102a55:	e8 1d fe ff ff       	call   102877 <_ZL12idt_set_gatehjth>
  102a5a:	b8 3e 39 10 00       	mov    $0x10393e,%eax
  102a5f:	c7 44 24 0c 8e 00 00 	movl   $0x8e,0xc(%esp)
  102a66:	00 
  102a67:	c7 44 24 08 08 00 00 	movl   $0x8,0x8(%esp)
  102a6e:	00 
  102a6f:	89 44 24 04          	mov    %eax,0x4(%esp)
  102a73:	c7 04 24 01 00 00 00 	movl   $0x1,(%esp)
  102a7a:	e8 f8 fd ff ff       	call   102877 <_ZL12idt_set_gatehjth>
  102a7f:	b8 48 39 10 00       	mov    $0x103948,%eax
  102a84:	c7 44 24 0c 8e 00 00 	movl   $0x8e,0xc(%esp)
  102a8b:	00 
  102a8c:	c7 44 24 08 08 00 00 	movl   $0x8,0x8(%esp)
  102a93:	00 
  102a94:	89 44 24 04          	mov    %eax,0x4(%esp)
  102a98:	c7 04 24 02 00 00 00 	movl   $0x2,(%esp)
  102a9f:	e8 d3 fd ff ff       	call   102877 <_ZL12idt_set_gatehjth>
  102aa4:	b8 52 39 10 00       	mov    $0x103952,%eax
  102aa9:	c7 44 24 0c 8e 00 00 	movl   $0x8e,0xc(%esp)
  102ab0:	00 
  102ab1:	c7 44 24 08 08 00 00 	movl   $0x8,0x8(%esp)
  102ab8:	00 
  102ab9:	89 44 24 04          	mov    %eax,0x4(%esp)
  102abd:	c7 04 24 03 00 00 00 	movl   $0x3,(%esp)
  102ac4:	e8 ae fd ff ff       	call   102877 <_ZL12idt_set_gatehjth>
  102ac9:	b8 5c 39 10 00       	mov    $0x10395c,%eax
  102ace:	c7 44 24 0c 8e 00 00 	movl   $0x8e,0xc(%esp)
  102ad5:	00 
  102ad6:	c7 44 24 08 08 00 00 	movl   $0x8,0x8(%esp)
  102add:	00 
  102ade:	89 44 24 04          	mov    %eax,0x4(%esp)
  102ae2:	c7 04 24 04 00 00 00 	movl   $0x4,(%esp)
  102ae9:	e8 89 fd ff ff       	call   102877 <_ZL12idt_set_gatehjth>
  102aee:	b8 66 39 10 00       	mov    $0x103966,%eax
  102af3:	c7 44 24 0c 8e 00 00 	movl   $0x8e,0xc(%esp)
  102afa:	00 
  102afb:	c7 44 24 08 08 00 00 	movl   $0x8,0x8(%esp)
  102b02:	00 
  102b03:	89 44 24 04          	mov    %eax,0x4(%esp)
  102b07:	c7 04 24 05 00 00 00 	movl   $0x5,(%esp)
  102b0e:	e8 64 fd ff ff       	call   102877 <_ZL12idt_set_gatehjth>
  102b13:	b8 70 39 10 00       	mov    $0x103970,%eax
  102b18:	c7 44 24 0c 8e 00 00 	movl   $0x8e,0xc(%esp)
  102b1f:	00 
  102b20:	c7 44 24 08 08 00 00 	movl   $0x8,0x8(%esp)
  102b27:	00 
  102b28:	89 44 24 04          	mov    %eax,0x4(%esp)
  102b2c:	c7 04 24 06 00 00 00 	movl   $0x6,(%esp)
  102b33:	e8 3f fd ff ff       	call   102877 <_ZL12idt_set_gatehjth>
  102b38:	b8 7a 39 10 00       	mov    $0x10397a,%eax
  102b3d:	c7 44 24 0c 8e 00 00 	movl   $0x8e,0xc(%esp)
  102b44:	00 
  102b45:	c7 44 24 08 08 00 00 	movl   $0x8,0x8(%esp)
  102b4c:	00 
  102b4d:	89 44 24 04          	mov    %eax,0x4(%esp)
  102b51:	c7 04 24 07 00 00 00 	movl   $0x7,(%esp)
  102b58:	e8 1a fd ff ff       	call   102877 <_ZL12idt_set_gatehjth>
  102b5d:	b8 84 39 10 00       	mov    $0x103984,%eax
  102b62:	c7 44 24 0c 8e 00 00 	movl   $0x8e,0xc(%esp)
  102b69:	00 
  102b6a:	c7 44 24 08 08 00 00 	movl   $0x8,0x8(%esp)
  102b71:	00 
  102b72:	89 44 24 04          	mov    %eax,0x4(%esp)
  102b76:	c7 04 24 08 00 00 00 	movl   $0x8,(%esp)
  102b7d:	e8 f5 fc ff ff       	call   102877 <_ZL12idt_set_gatehjth>
  102b82:	b8 8c 39 10 00       	mov    $0x10398c,%eax
  102b87:	c7 44 24 0c 8e 00 00 	movl   $0x8e,0xc(%esp)
  102b8e:	00 
  102b8f:	c7 44 24 08 08 00 00 	movl   $0x8,0x8(%esp)
  102b96:	00 
  102b97:	89 44 24 04          	mov    %eax,0x4(%esp)
  102b9b:	c7 04 24 09 00 00 00 	movl   $0x9,(%esp)
  102ba2:	e8 d0 fc ff ff       	call   102877 <_ZL12idt_set_gatehjth>
  102ba7:	b8 34 39 10 00       	mov    $0x103934,%eax
  102bac:	c7 44 24 0c 8e 00 00 	movl   $0x8e,0xc(%esp)
  102bb3:	00 
  102bb4:	c7 44 24 08 08 00 00 	movl   $0x8,0x8(%esp)
  102bbb:	00 
  102bbc:	89 44 24 04          	mov    %eax,0x4(%esp)
  102bc0:	c7 04 24 0a 00 00 00 	movl   $0xa,(%esp)
  102bc7:	e8 ab fc ff ff       	call   102877 <_ZL12idt_set_gatehjth>
  102bcc:	b8 9e 39 10 00       	mov    $0x10399e,%eax
  102bd1:	c7 44 24 0c 8e 00 00 	movl   $0x8e,0xc(%esp)
  102bd8:	00 
  102bd9:	c7 44 24 08 08 00 00 	movl   $0x8,0x8(%esp)
  102be0:	00 
  102be1:	89 44 24 04          	mov    %eax,0x4(%esp)
  102be5:	c7 04 24 0b 00 00 00 	movl   $0xb,(%esp)
  102bec:	e8 86 fc ff ff       	call   102877 <_ZL12idt_set_gatehjth>
  102bf1:	b8 a6 39 10 00       	mov    $0x1039a6,%eax
  102bf6:	c7 44 24 0c 8e 00 00 	movl   $0x8e,0xc(%esp)
  102bfd:	00 
  102bfe:	c7 44 24 08 08 00 00 	movl   $0x8,0x8(%esp)
  102c05:	00 
  102c06:	89 44 24 04          	mov    %eax,0x4(%esp)
  102c0a:	c7 04 24 0c 00 00 00 	movl   $0xc,(%esp)
  102c11:	e8 61 fc ff ff       	call   102877 <_ZL12idt_set_gatehjth>
  102c16:	b8 ae 39 10 00       	mov    $0x1039ae,%eax
  102c1b:	c7 44 24 0c 8e 00 00 	movl   $0x8e,0xc(%esp)
  102c22:	00 
  102c23:	c7 44 24 08 08 00 00 	movl   $0x8,0x8(%esp)
  102c2a:	00 
  102c2b:	89 44 24 04          	mov    %eax,0x4(%esp)
  102c2f:	c7 04 24 0d 00 00 00 	movl   $0xd,(%esp)
  102c36:	e8 3c fc ff ff       	call   102877 <_ZL12idt_set_gatehjth>
  102c3b:	b8 b6 39 10 00       	mov    $0x1039b6,%eax
  102c40:	c7 44 24 0c 8e 00 00 	movl   $0x8e,0xc(%esp)
  102c47:	00 
  102c48:	c7 44 24 08 08 00 00 	movl   $0x8,0x8(%esp)
  102c4f:	00 
  102c50:	89 44 24 04          	mov    %eax,0x4(%esp)
  102c54:	c7 04 24 0e 00 00 00 	movl   $0xe,(%esp)
  102c5b:	e8 17 fc ff ff       	call   102877 <_ZL12idt_set_gatehjth>
  102c60:	b8 be 39 10 00       	mov    $0x1039be,%eax
  102c65:	c7 44 24 0c 8e 00 00 	movl   $0x8e,0xc(%esp)
  102c6c:	00 
  102c6d:	c7 44 24 08 08 00 00 	movl   $0x8,0x8(%esp)
  102c74:	00 
  102c75:	89 44 24 04          	mov    %eax,0x4(%esp)
  102c79:	c7 04 24 0f 00 00 00 	movl   $0xf,(%esp)
  102c80:	e8 f2 fb ff ff       	call   102877 <_ZL12idt_set_gatehjth>
  102c85:	b8 c8 39 10 00       	mov    $0x1039c8,%eax
  102c8a:	c7 44 24 0c 8e 00 00 	movl   $0x8e,0xc(%esp)
  102c91:	00 
  102c92:	c7 44 24 08 08 00 00 	movl   $0x8,0x8(%esp)
  102c99:	00 
  102c9a:	89 44 24 04          	mov    %eax,0x4(%esp)
  102c9e:	c7 04 24 10 00 00 00 	movl   $0x10,(%esp)
  102ca5:	e8 cd fb ff ff       	call   102877 <_ZL12idt_set_gatehjth>
  102caa:	b8 d2 39 10 00       	mov    $0x1039d2,%eax
  102caf:	c7 44 24 0c 8e 00 00 	movl   $0x8e,0xc(%esp)
  102cb6:	00 
  102cb7:	c7 44 24 08 08 00 00 	movl   $0x8,0x8(%esp)
  102cbe:	00 
  102cbf:	89 44 24 04          	mov    %eax,0x4(%esp)
  102cc3:	c7 04 24 11 00 00 00 	movl   $0x11,(%esp)
  102cca:	e8 a8 fb ff ff       	call   102877 <_ZL12idt_set_gatehjth>
  102ccf:	b8 dc 39 10 00       	mov    $0x1039dc,%eax
  102cd4:	c7 44 24 0c 8e 00 00 	movl   $0x8e,0xc(%esp)
  102cdb:	00 
  102cdc:	c7 44 24 08 08 00 00 	movl   $0x8,0x8(%esp)
  102ce3:	00 
  102ce4:	89 44 24 04          	mov    %eax,0x4(%esp)
  102ce8:	c7 04 24 12 00 00 00 	movl   $0x12,(%esp)
  102cef:	e8 83 fb ff ff       	call   102877 <_ZL12idt_set_gatehjth>
  102cf4:	b8 e6 39 10 00       	mov    $0x1039e6,%eax
  102cf9:	c7 44 24 0c 8e 00 00 	movl   $0x8e,0xc(%esp)
  102d00:	00 
  102d01:	c7 44 24 08 08 00 00 	movl   $0x8,0x8(%esp)
  102d08:	00 
  102d09:	89 44 24 04          	mov    %eax,0x4(%esp)
  102d0d:	c7 04 24 13 00 00 00 	movl   $0x13,(%esp)
  102d14:	e8 5e fb ff ff       	call   102877 <_ZL12idt_set_gatehjth>
  102d19:	b8 f0 39 10 00       	mov    $0x1039f0,%eax
  102d1e:	c7 44 24 0c 8e 00 00 	movl   $0x8e,0xc(%esp)
  102d25:	00 
  102d26:	c7 44 24 08 08 00 00 	movl   $0x8,0x8(%esp)
  102d2d:	00 
  102d2e:	89 44 24 04          	mov    %eax,0x4(%esp)
  102d32:	c7 04 24 14 00 00 00 	movl   $0x14,(%esp)
  102d39:	e8 39 fb ff ff       	call   102877 <_ZL12idt_set_gatehjth>
  102d3e:	b8 fa 39 10 00       	mov    $0x1039fa,%eax
  102d43:	c7 44 24 0c 8e 00 00 	movl   $0x8e,0xc(%esp)
  102d4a:	00 
  102d4b:	c7 44 24 08 08 00 00 	movl   $0x8,0x8(%esp)
  102d52:	00 
  102d53:	89 44 24 04          	mov    %eax,0x4(%esp)
  102d57:	c7 04 24 15 00 00 00 	movl   $0x15,(%esp)
  102d5e:	e8 14 fb ff ff       	call   102877 <_ZL12idt_set_gatehjth>
  102d63:	b8 04 3a 10 00       	mov    $0x103a04,%eax
  102d68:	c7 44 24 0c 8e 00 00 	movl   $0x8e,0xc(%esp)
  102d6f:	00 
  102d70:	c7 44 24 08 08 00 00 	movl   $0x8,0x8(%esp)
  102d77:	00 
  102d78:	89 44 24 04          	mov    %eax,0x4(%esp)
  102d7c:	c7 04 24 16 00 00 00 	movl   $0x16,(%esp)
  102d83:	e8 ef fa ff ff       	call   102877 <_ZL12idt_set_gatehjth>
  102d88:	b8 0e 3a 10 00       	mov    $0x103a0e,%eax
  102d8d:	c7 44 24 0c 8e 00 00 	movl   $0x8e,0xc(%esp)
  102d94:	00 
  102d95:	c7 44 24 08 08 00 00 	movl   $0x8,0x8(%esp)
  102d9c:	00 
  102d9d:	89 44 24 04          	mov    %eax,0x4(%esp)
  102da1:	c7 04 24 17 00 00 00 	movl   $0x17,(%esp)
  102da8:	e8 ca fa ff ff       	call   102877 <_ZL12idt_set_gatehjth>
  102dad:	b8 18 3a 10 00       	mov    $0x103a18,%eax
  102db2:	c7 44 24 0c 8e 00 00 	movl   $0x8e,0xc(%esp)
  102db9:	00 
  102dba:	c7 44 24 08 08 00 00 	movl   $0x8,0x8(%esp)
  102dc1:	00 
  102dc2:	89 44 24 04          	mov    %eax,0x4(%esp)
  102dc6:	c7 04 24 18 00 00 00 	movl   $0x18,(%esp)
  102dcd:	e8 a5 fa ff ff       	call   102877 <_ZL12idt_set_gatehjth>
  102dd2:	b8 22 3a 10 00       	mov    $0x103a22,%eax
  102dd7:	c7 44 24 0c 8e 00 00 	movl   $0x8e,0xc(%esp)
  102dde:	00 
  102ddf:	c7 44 24 08 08 00 00 	movl   $0x8,0x8(%esp)
  102de6:	00 
  102de7:	89 44 24 04          	mov    %eax,0x4(%esp)
  102deb:	c7 04 24 19 00 00 00 	movl   $0x19,(%esp)
  102df2:	e8 80 fa ff ff       	call   102877 <_ZL12idt_set_gatehjth>
  102df7:	b8 2c 3a 10 00       	mov    $0x103a2c,%eax
  102dfc:	c7 44 24 0c 8e 00 00 	movl   $0x8e,0xc(%esp)
  102e03:	00 
  102e04:	c7 44 24 08 08 00 00 	movl   $0x8,0x8(%esp)
  102e0b:	00 
  102e0c:	89 44 24 04          	mov    %eax,0x4(%esp)
  102e10:	c7 04 24 1a 00 00 00 	movl   $0x1a,(%esp)
  102e17:	e8 5b fa ff ff       	call   102877 <_ZL12idt_set_gatehjth>
  102e1c:	b8 36 3a 10 00       	mov    $0x103a36,%eax
  102e21:	c7 44 24 0c 8e 00 00 	movl   $0x8e,0xc(%esp)
  102e28:	00 
  102e29:	c7 44 24 08 08 00 00 	movl   $0x8,0x8(%esp)
  102e30:	00 
  102e31:	89 44 24 04          	mov    %eax,0x4(%esp)
  102e35:	c7 04 24 1b 00 00 00 	movl   $0x1b,(%esp)
  102e3c:	e8 36 fa ff ff       	call   102877 <_ZL12idt_set_gatehjth>
  102e41:	b8 40 3a 10 00       	mov    $0x103a40,%eax
  102e46:	c7 44 24 0c 8e 00 00 	movl   $0x8e,0xc(%esp)
  102e4d:	00 
  102e4e:	c7 44 24 08 08 00 00 	movl   $0x8,0x8(%esp)
  102e55:	00 
  102e56:	89 44 24 04          	mov    %eax,0x4(%esp)
  102e5a:	c7 04 24 1c 00 00 00 	movl   $0x1c,(%esp)
  102e61:	e8 11 fa ff ff       	call   102877 <_ZL12idt_set_gatehjth>
  102e66:	b8 4a 3a 10 00       	mov    $0x103a4a,%eax
  102e6b:	c7 44 24 0c 8e 00 00 	movl   $0x8e,0xc(%esp)
  102e72:	00 
  102e73:	c7 44 24 08 08 00 00 	movl   $0x8,0x8(%esp)
  102e7a:	00 
  102e7b:	89 44 24 04          	mov    %eax,0x4(%esp)
  102e7f:	c7 04 24 1d 00 00 00 	movl   $0x1d,(%esp)
  102e86:	e8 ec f9 ff ff       	call   102877 <_ZL12idt_set_gatehjth>
  102e8b:	b8 51 3a 10 00       	mov    $0x103a51,%eax
  102e90:	c7 44 24 0c 8e 00 00 	movl   $0x8e,0xc(%esp)
  102e97:	00 
  102e98:	c7 44 24 08 08 00 00 	movl   $0x8,0x8(%esp)
  102e9f:	00 
  102ea0:	89 44 24 04          	mov    %eax,0x4(%esp)
  102ea4:	c7 04 24 1e 00 00 00 	movl   $0x1e,(%esp)
  102eab:	e8 c7 f9 ff ff       	call   102877 <_ZL12idt_set_gatehjth>
  102eb0:	b8 58 3a 10 00       	mov    $0x103a58,%eax
  102eb5:	c7 44 24 0c 8e 00 00 	movl   $0x8e,0xc(%esp)
  102ebc:	00 
  102ebd:	c7 44 24 08 08 00 00 	movl   $0x8,0x8(%esp)
  102ec4:	00 
  102ec5:	89 44 24 04          	mov    %eax,0x4(%esp)
  102ec9:	c7 04 24 1f 00 00 00 	movl   $0x1f,(%esp)
  102ed0:	e8 a2 f9 ff ff       	call   102877 <_ZL12idt_set_gatehjth>
  102ed5:	b8 5f 3a 10 00       	mov    $0x103a5f,%eax
  102eda:	c7 44 24 0c 8e 00 00 	movl   $0x8e,0xc(%esp)
  102ee1:	00 
  102ee2:	c7 44 24 08 08 00 00 	movl   $0x8,0x8(%esp)
  102ee9:	00 
  102eea:	89 44 24 04          	mov    %eax,0x4(%esp)
  102eee:	c7 04 24 20 00 00 00 	movl   $0x20,(%esp)
  102ef5:	e8 7d f9 ff ff       	call   102877 <_ZL12idt_set_gatehjth>
  102efa:	b8 66 3a 10 00       	mov    $0x103a66,%eax
  102eff:	c7 44 24 0c 8e 00 00 	movl   $0x8e,0xc(%esp)
  102f06:	00 
  102f07:	c7 44 24 08 08 00 00 	movl   $0x8,0x8(%esp)
  102f0e:	00 
  102f0f:	89 44 24 04          	mov    %eax,0x4(%esp)
  102f13:	c7 04 24 21 00 00 00 	movl   $0x21,(%esp)
  102f1a:	e8 58 f9 ff ff       	call   102877 <_ZL12idt_set_gatehjth>
  102f1f:	b8 6d 3a 10 00       	mov    $0x103a6d,%eax
  102f24:	c7 44 24 0c 8e 00 00 	movl   $0x8e,0xc(%esp)
  102f2b:	00 
  102f2c:	c7 44 24 08 08 00 00 	movl   $0x8,0x8(%esp)
  102f33:	00 
  102f34:	89 44 24 04          	mov    %eax,0x4(%esp)
  102f38:	c7 04 24 22 00 00 00 	movl   $0x22,(%esp)
  102f3f:	e8 33 f9 ff ff       	call   102877 <_ZL12idt_set_gatehjth>
  102f44:	b8 74 3a 10 00       	mov    $0x103a74,%eax
  102f49:	c7 44 24 0c 8e 00 00 	movl   $0x8e,0xc(%esp)
  102f50:	00 
  102f51:	c7 44 24 08 08 00 00 	movl   $0x8,0x8(%esp)
  102f58:	00 
  102f59:	89 44 24 04          	mov    %eax,0x4(%esp)
  102f5d:	c7 04 24 23 00 00 00 	movl   $0x23,(%esp)
  102f64:	e8 0e f9 ff ff       	call   102877 <_ZL12idt_set_gatehjth>
  102f69:	b8 7b 3a 10 00       	mov    $0x103a7b,%eax
  102f6e:	c7 44 24 0c 8e 00 00 	movl   $0x8e,0xc(%esp)
  102f75:	00 
  102f76:	c7 44 24 08 08 00 00 	movl   $0x8,0x8(%esp)
  102f7d:	00 
  102f7e:	89 44 24 04          	mov    %eax,0x4(%esp)
  102f82:	c7 04 24 24 00 00 00 	movl   $0x24,(%esp)
  102f89:	e8 e9 f8 ff ff       	call   102877 <_ZL12idt_set_gatehjth>
  102f8e:	b8 82 3a 10 00       	mov    $0x103a82,%eax
  102f93:	c7 44 24 0c 8e 00 00 	movl   $0x8e,0xc(%esp)
  102f9a:	00 
  102f9b:	c7 44 24 08 08 00 00 	movl   $0x8,0x8(%esp)
  102fa2:	00 
  102fa3:	89 44 24 04          	mov    %eax,0x4(%esp)
  102fa7:	c7 04 24 25 00 00 00 	movl   $0x25,(%esp)
  102fae:	e8 c4 f8 ff ff       	call   102877 <_ZL12idt_set_gatehjth>
  102fb3:	b8 89 3a 10 00       	mov    $0x103a89,%eax
  102fb8:	c7 44 24 0c 8e 00 00 	movl   $0x8e,0xc(%esp)
  102fbf:	00 
  102fc0:	c7 44 24 08 08 00 00 	movl   $0x8,0x8(%esp)
  102fc7:	00 
  102fc8:	89 44 24 04          	mov    %eax,0x4(%esp)
  102fcc:	c7 04 24 26 00 00 00 	movl   $0x26,(%esp)
  102fd3:	e8 9f f8 ff ff       	call   102877 <_ZL12idt_set_gatehjth>
  102fd8:	b8 90 3a 10 00       	mov    $0x103a90,%eax
  102fdd:	c7 44 24 0c 8e 00 00 	movl   $0x8e,0xc(%esp)
  102fe4:	00 
  102fe5:	c7 44 24 08 08 00 00 	movl   $0x8,0x8(%esp)
  102fec:	00 
  102fed:	89 44 24 04          	mov    %eax,0x4(%esp)
  102ff1:	c7 04 24 27 00 00 00 	movl   $0x27,(%esp)
  102ff8:	e8 7a f8 ff ff       	call   102877 <_ZL12idt_set_gatehjth>
  102ffd:	b8 97 3a 10 00       	mov    $0x103a97,%eax
  103002:	c7 44 24 0c 8e 00 00 	movl   $0x8e,0xc(%esp)
  103009:	00 
  10300a:	c7 44 24 08 08 00 00 	movl   $0x8,0x8(%esp)
  103011:	00 
  103012:	89 44 24 04          	mov    %eax,0x4(%esp)
  103016:	c7 04 24 28 00 00 00 	movl   $0x28,(%esp)
  10301d:	e8 55 f8 ff ff       	call   102877 <_ZL12idt_set_gatehjth>
  103022:	b8 9e 3a 10 00       	mov    $0x103a9e,%eax
  103027:	c7 44 24 0c 8e 00 00 	movl   $0x8e,0xc(%esp)
  10302e:	00 
  10302f:	c7 44 24 08 08 00 00 	movl   $0x8,0x8(%esp)
  103036:	00 
  103037:	89 44 24 04          	mov    %eax,0x4(%esp)
  10303b:	c7 04 24 29 00 00 00 	movl   $0x29,(%esp)
  103042:	e8 30 f8 ff ff       	call   102877 <_ZL12idt_set_gatehjth>
  103047:	b8 a5 3a 10 00       	mov    $0x103aa5,%eax
  10304c:	c7 44 24 0c 8e 00 00 	movl   $0x8e,0xc(%esp)
  103053:	00 
  103054:	c7 44 24 08 08 00 00 	movl   $0x8,0x8(%esp)
  10305b:	00 
  10305c:	89 44 24 04          	mov    %eax,0x4(%esp)
  103060:	c7 04 24 2a 00 00 00 	movl   $0x2a,(%esp)
  103067:	e8 0b f8 ff ff       	call   102877 <_ZL12idt_set_gatehjth>
  10306c:	b8 ac 3a 10 00       	mov    $0x103aac,%eax
  103071:	c7 44 24 0c 8e 00 00 	movl   $0x8e,0xc(%esp)
  103078:	00 
  103079:	c7 44 24 08 08 00 00 	movl   $0x8,0x8(%esp)
  103080:	00 
  103081:	89 44 24 04          	mov    %eax,0x4(%esp)
  103085:	c7 04 24 2b 00 00 00 	movl   $0x2b,(%esp)
  10308c:	e8 e6 f7 ff ff       	call   102877 <_ZL12idt_set_gatehjth>
  103091:	b8 b3 3a 10 00       	mov    $0x103ab3,%eax
  103096:	c7 44 24 0c 8e 00 00 	movl   $0x8e,0xc(%esp)
  10309d:	00 
  10309e:	c7 44 24 08 08 00 00 	movl   $0x8,0x8(%esp)
  1030a5:	00 
  1030a6:	89 44 24 04          	mov    %eax,0x4(%esp)
  1030aa:	c7 04 24 2c 00 00 00 	movl   $0x2c,(%esp)
  1030b1:	e8 c1 f7 ff ff       	call   102877 <_ZL12idt_set_gatehjth>
  1030b6:	b8 ba 3a 10 00       	mov    $0x103aba,%eax
  1030bb:	c7 44 24 0c 8e 00 00 	movl   $0x8e,0xc(%esp)
  1030c2:	00 
  1030c3:	c7 44 24 08 08 00 00 	movl   $0x8,0x8(%esp)
  1030ca:	00 
  1030cb:	89 44 24 04          	mov    %eax,0x4(%esp)
  1030cf:	c7 04 24 2d 00 00 00 	movl   $0x2d,(%esp)
  1030d6:	e8 9c f7 ff ff       	call   102877 <_ZL12idt_set_gatehjth>
  1030db:	b8 c1 3a 10 00       	mov    $0x103ac1,%eax
  1030e0:	c7 44 24 0c 8e 00 00 	movl   $0x8e,0xc(%esp)
  1030e7:	00 
  1030e8:	c7 44 24 08 08 00 00 	movl   $0x8,0x8(%esp)
  1030ef:	00 
  1030f0:	89 44 24 04          	mov    %eax,0x4(%esp)
  1030f4:	c7 04 24 2e 00 00 00 	movl   $0x2e,(%esp)
  1030fb:	e8 77 f7 ff ff       	call   102877 <_ZL12idt_set_gatehjth>
  103100:	b8 c8 3a 10 00       	mov    $0x103ac8,%eax
  103105:	c7 44 24 0c 8e 00 00 	movl   $0x8e,0xc(%esp)
  10310c:	00 
  10310d:	c7 44 24 08 08 00 00 	movl   $0x8,0x8(%esp)
  103114:	00 
  103115:	89 44 24 04          	mov    %eax,0x4(%esp)
  103119:	c7 04 24 2f 00 00 00 	movl   $0x2f,(%esp)
  103120:	e8 52 f7 ff ff       	call   102877 <_ZL12idt_set_gatehjth>
  103125:	b8 e0 78 10 00       	mov    $0x1078e0,%eax
  10312a:	89 04 24             	mov    %eax,(%esp)
  10312d:	e8 08 05 00 00       	call   10363a <idt_flush>
  103132:	c9                   	leave  
  103133:	c3                   	ret    

00103134 <_Z22init_descriptor_tablesv>:
  103134:	55                   	push   %ebp
  103135:	89 e5                	mov    %esp,%ebp
  103137:	83 ec 18             	sub    $0x18,%esp
  10313a:	e8 28 f6 ff ff       	call   102767 <_ZL8init_gdtv>
  10313f:	e8 ae f7 ff ff       	call   1028f2 <_ZL8init_idtv>
  103144:	c7 04 24 d0 3e 10 00 	movl   $0x103ed0,(%esp)
  10314b:	e8 17 d4 ff ff       	call   100567 <debug_print>
  103150:	c7 44 24 04 28 00 00 	movl   $0x28,0x4(%esp)
  103157:	00 
  103158:	c7 04 24 a0 70 10 00 	movl   $0x1070a0,(%esp)
  10315f:	e8 25 d4 ff ff       	call   100589 <debug_print_dump>
  103164:	c7 44 24 04 02 00 00 	movl   $0x2,0x4(%esp)
  10316b:	00 
  10316c:	c7 04 24 ef 3e 10 00 	movl   $0x103eef,(%esp)
  103173:	e8 11 d2 ff ff       	call   100389 <debug_write>
  103178:	c7 04 24 f4 3e 10 00 	movl   $0x103ef4,(%esp)
  10317f:	e8 e3 d3 ff ff       	call   100567 <debug_print>
  103184:	c7 44 24 04 20 00 00 	movl   $0x20,0x4(%esp)
  10318b:	00 
  10318c:	c7 04 24 e0 70 10 00 	movl   $0x1070e0,(%esp)
  103193:	e8 f1 d3 ff ff       	call   100589 <debug_print_dump>
  103198:	c7 44 24 04 02 00 00 	movl   $0x2,0x4(%esp)
  10319f:	00 
  1031a0:	c7 04 24 ef 3e 10 00 	movl   $0x103eef,(%esp)
  1031a7:	e8 dd d1 ff ff       	call   100389 <debug_write>
  1031ac:	c9                   	leave  
  1031ad:	c3                   	ret    

001031ae <_ZL4outbth>:
  1031ae:	55                   	push   %ebp
  1031af:	89 e5                	mov    %esp,%ebp
  1031b1:	83 ec 08             	sub    $0x8,%esp
  1031b4:	8b 55 08             	mov    0x8(%ebp),%edx
  1031b7:	8b 45 0c             	mov    0xc(%ebp),%eax
  1031ba:	66 89 55 fc          	mov    %dx,-0x4(%ebp)
  1031be:	88 45 f8             	mov    %al,-0x8(%ebp)
  1031c1:	0f b7 55 fc          	movzwl -0x4(%ebp),%edx
  1031c5:	0f b6 45 f8          	movzbl -0x8(%ebp),%eax
  1031c9:	ee                   	out    %al,(%dx)
  1031ca:	c9                   	leave  
  1031cb:	c3                   	ret    

001031cc <_ZL3inbt>:
  1031cc:	55                   	push   %ebp
  1031cd:	89 e5                	mov    %esp,%ebp
  1031cf:	83 ec 14             	sub    $0x14,%esp
  1031d2:	8b 45 08             	mov    0x8(%ebp),%eax
  1031d5:	66 89 45 ec          	mov    %ax,-0x14(%ebp)
  1031d9:	0f b7 45 ec          	movzwl -0x14(%ebp),%eax
  1031dd:	89 c2                	mov    %eax,%edx
  1031df:	ec                   	in     (%dx),%al
  1031e0:	66 89 45 fe          	mov    %ax,-0x2(%ebp)
  1031e4:	0f b7 45 fe          	movzwl -0x2(%ebp),%eax
  1031e8:	c9                   	leave  
  1031e9:	c3                   	ret    

001031ea <_ZL29platform_abstract_irq_handlerP14interrupt_info>:
  1031ea:	55                   	push   %ebp
  1031eb:	89 e5                	mov    %esp,%ebp
  1031ed:	83 ec 08             	sub    $0x8,%esp
  1031f0:	8b 45 08             	mov    0x8(%ebp),%eax
  1031f3:	8b 40 24             	mov    0x24(%eax),%eax
  1031f6:	83 f8 27             	cmp    $0x27,%eax
  1031f9:	76 14                	jbe    10320f <_ZL29platform_abstract_irq_handlerP14interrupt_info+0x25>
  1031fb:	c7 44 24 04 20 00 00 	movl   $0x20,0x4(%esp)
  103202:	00 
  103203:	c7 04 24 a0 00 00 00 	movl   $0xa0,(%esp)
  10320a:	e8 9f ff ff ff       	call   1031ae <_ZL4outbth>
  10320f:	8b 45 08             	mov    0x8(%ebp),%eax
  103212:	8b 40 24             	mov    0x24(%eax),%eax
  103215:	83 f8 1f             	cmp    $0x1f,%eax
  103218:	76 14                	jbe    10322e <_ZL29platform_abstract_irq_handlerP14interrupt_info+0x44>
  10321a:	c7 44 24 04 20 00 00 	movl   $0x20,0x4(%esp)
  103221:	00 
  103222:	c7 04 24 20 00 00 00 	movl   $0x20,(%esp)
  103229:	e8 80 ff ff ff       	call   1031ae <_ZL4outbth>
  10322e:	c9                   	leave  
  10322f:	c3                   	ret    

00103230 <_ZL17call_constructorsPmS_>:
  103230:	55                   	push   %ebp
  103231:	89 e5                	mov    %esp,%ebp
  103233:	83 ec 28             	sub    $0x28,%esp
  103236:	8b 45 08             	mov    0x8(%ebp),%eax
  103239:	89 45 f0             	mov    %eax,-0x10(%ebp)
  10323c:	eb 3c                	jmp    10327a <_ZL17call_constructorsPmS_+0x4a>
  10323e:	c7 04 24 1c 3f 10 00 	movl   $0x103f1c,(%esp)
  103245:	e8 1d d3 ff ff       	call   100567 <debug_print>
  10324a:	8b 45 f0             	mov    -0x10(%ebp),%eax
  10324d:	89 04 24             	mov    %eax,(%esp)
  103250:	e8 26 d2 ff ff       	call   10047b <debug_printhex_int32>
  103255:	c7 44 24 04 02 00 00 	movl   $0x2,0x4(%esp)
  10325c:	00 
  10325d:	c7 04 24 29 3f 10 00 	movl   $0x103f29,(%esp)
  103264:	e8 20 d1 ff ff       	call   100389 <debug_write>
  103269:	8b 45 f0             	mov    -0x10(%ebp),%eax
  10326c:	8b 00                	mov    (%eax),%eax
  10326e:	89 45 f4             	mov    %eax,-0xc(%ebp)
  103271:	8b 45 f4             	mov    -0xc(%ebp),%eax
  103274:	ff d0                	call   *%eax
  103276:	83 45 f0 04          	addl   $0x4,-0x10(%ebp)
  10327a:	8b 45 f0             	mov    -0x10(%ebp),%eax
  10327d:	3b 45 0c             	cmp    0xc(%ebp),%eax
  103280:	72 bc                	jb     10323e <_ZL17call_constructorsPmS_+0xe>
  103282:	c9                   	leave  
  103283:	c3                   	ret    

00103284 <boot2>:
  103284:	55                   	push   %ebp
  103285:	89 e5                	mov    %esp,%ebp
  103287:	83 ec 28             	sub    $0x28,%esp
  10328a:	c7 04 24 2c 3f 10 00 	movl   $0x103f2c,(%esp)
  103291:	e8 d1 d2 ff ff       	call   100567 <debug_print>
  103296:	c7 04 24 53 3f 10 00 	movl   $0x103f53,(%esp)
  10329d:	e8 c5 d2 ff ff       	call   100567 <debug_print>
  1032a2:	c7 04 24 63 3f 10 00 	movl   $0x103f63,(%esp)
  1032a9:	e8 b9 d2 ff ff       	call   100567 <debug_print>
  1032ae:	b8 00 00 10 00       	mov    $0x100000,%eax
  1032b3:	89 04 24             	mov    %eax,(%esp)
  1032b6:	e8 c0 d1 ff ff       	call   10047b <debug_printhex_int32>
  1032bb:	c7 44 24 04 02 00 00 	movl   $0x2,0x4(%esp)
  1032c2:	00 
  1032c3:	c7 04 24 29 3f 10 00 	movl   $0x103f29,(%esp)
  1032ca:	e8 ba d0 ff ff       	call   100389 <debug_write>
  1032cf:	c7 04 24 71 3f 10 00 	movl   $0x103f71,(%esp)
  1032d6:	e8 8c d2 ff ff       	call   100567 <debug_print>
  1032db:	b8 18 41 10 00       	mov    $0x104118,%eax
  1032e0:	89 04 24             	mov    %eax,(%esp)
  1032e3:	e8 93 d1 ff ff       	call   10047b <debug_printhex_int32>
  1032e8:	c7 44 24 04 02 00 00 	movl   $0x2,0x4(%esp)
  1032ef:	00 
  1032f0:	c7 04 24 29 3f 10 00 	movl   $0x103f29,(%esp)
  1032f7:	e8 8d d0 ff ff       	call   100389 <debug_write>
  1032fc:	c7 04 24 7f 3f 10 00 	movl   $0x103f7f,(%esp)
  103303:	e8 5f d2 ff ff       	call   100567 <debug_print>
  103308:	b8 80 5e 10 00       	mov    $0x105e80,%eax
  10330d:	89 04 24             	mov    %eax,(%esp)
  103310:	e8 66 d1 ff ff       	call   10047b <debug_printhex_int32>
  103315:	c7 44 24 04 02 00 00 	movl   $0x2,0x4(%esp)
  10331c:	00 
  10331d:	c7 04 24 29 3f 10 00 	movl   $0x103f29,(%esp)
  103324:	e8 60 d0 ff ff       	call   100389 <debug_write>
  103329:	c7 04 24 8d 3f 10 00 	movl   $0x103f8d,(%esp)
  103330:	e8 32 d2 ff ff       	call   100567 <debug_print>
  103335:	b8 94 5e 10 00       	mov    $0x105e94,%eax
  10333a:	89 04 24             	mov    %eax,(%esp)
  10333d:	e8 39 d1 ff ff       	call   10047b <debug_printhex_int32>
  103342:	c7 44 24 04 02 00 00 	movl   $0x2,0x4(%esp)
  103349:	00 
  10334a:	c7 04 24 29 3f 10 00 	movl   $0x103f29,(%esp)
  103351:	e8 33 d0 ff ff       	call   100389 <debug_write>
  103356:	c7 04 24 9b 3f 10 00 	movl   $0x103f9b,(%esp)
  10335d:	e8 05 d2 ff ff       	call   100567 <debug_print>
  103362:	b8 a0 5f 10 00       	mov    $0x105fa0,%eax
  103367:	89 04 24             	mov    %eax,(%esp)
  10336a:	e8 0c d1 ff ff       	call   10047b <debug_printhex_int32>
  10336f:	c7 44 24 04 02 00 00 	movl   $0x2,0x4(%esp)
  103376:	00 
  103377:	c7 04 24 29 3f 10 00 	movl   $0x103f29,(%esp)
  10337e:	e8 06 d0 ff ff       	call   100389 <debug_write>
  103383:	c7 04 24 a9 3f 10 00 	movl   $0x103fa9,(%esp)
  10338a:	e8 d8 d1 ff ff       	call   100567 <debug_print>
  10338f:	b8 f8 78 10 00       	mov    $0x1078f8,%eax
  103394:	89 04 24             	mov    %eax,(%esp)
  103397:	e8 df d0 ff ff       	call   10047b <debug_printhex_int32>
  10339c:	c7 44 24 04 02 00 00 	movl   $0x2,0x4(%esp)
  1033a3:	00 
  1033a4:	c7 04 24 29 3f 10 00 	movl   $0x103f29,(%esp)
  1033ab:	e8 d9 cf ff ff       	call   100389 <debug_write>
  1033b0:	c7 04 24 b7 3f 10 00 	movl   $0x103fb7,(%esp)
  1033b7:	e8 ab d1 ff ff       	call   100567 <debug_print>
  1033bc:	c7 45 f4 a0 5f 10 00 	movl   $0x105fa0,-0xc(%ebp)
  1033c3:	eb 0a                	jmp    1033cf <boot2+0x14b>
  1033c5:	8b 45 f4             	mov    -0xc(%ebp),%eax
  1033c8:	c6 00 00             	movb   $0x0,(%eax)
  1033cb:	83 45 f4 01          	addl   $0x1,-0xc(%ebp)
  1033cf:	b8 f8 78 10 00       	mov    $0x1078f8,%eax
  1033d4:	39 45 f4             	cmp    %eax,-0xc(%ebp)
  1033d7:	72 ec                	jb     1033c5 <boot2+0x141>
  1033d9:	c7 04 24 c7 3f 10 00 	movl   $0x103fc7,(%esp)
  1033e0:	e8 82 d1 ff ff       	call   100567 <debug_print>
  1033e5:	c7 04 24 cc 3f 10 00 	movl   $0x103fcc,(%esp)
  1033ec:	e8 76 d1 ff ff       	call   100567 <debug_print>
  1033f1:	c7 04 24 e0 3f 10 00 	movl   $0x103fe0,(%esp)
  1033f8:	e8 6a d1 ff ff       	call   100567 <debug_print>
  1033fd:	b8 f4 40 10 00       	mov    $0x1040f4,%eax
  103402:	89 04 24             	mov    %eax,(%esp)
  103405:	e8 71 d0 ff ff       	call   10047b <debug_printhex_int32>
  10340a:	c7 44 24 04 02 00 00 	movl   $0x2,0x4(%esp)
  103411:	00 
  103412:	c7 04 24 29 3f 10 00 	movl   $0x103f29,(%esp)
  103419:	e8 6b cf ff ff       	call   100389 <debug_write>
  10341e:	c7 04 24 f7 3f 10 00 	movl   $0x103ff7,(%esp)
  103425:	e8 3d d1 ff ff       	call   100567 <debug_print>
  10342a:	b8 f4 40 10 00       	mov    $0x1040f4,%eax
  10342f:	89 04 24             	mov    %eax,(%esp)
  103432:	e8 44 d0 ff ff       	call   10047b <debug_printhex_int32>
  103437:	c7 44 24 04 02 00 00 	movl   $0x2,0x4(%esp)
  10343e:	00 
  10343f:	c7 04 24 29 3f 10 00 	movl   $0x103f29,(%esp)
  103446:	e8 3e cf ff ff       	call   100389 <debug_write>
  10344b:	c7 04 24 0e 40 10 00 	movl   $0x10400e,(%esp)
  103452:	e8 10 d1 ff ff       	call   100567 <debug_print>
  103457:	b8 f4 40 10 00       	mov    $0x1040f4,%eax
  10345c:	89 04 24             	mov    %eax,(%esp)
  10345f:	e8 17 d0 ff ff       	call   10047b <debug_printhex_int32>
  103464:	c7 44 24 04 02 00 00 	movl   $0x2,0x4(%esp)
  10346b:	00 
  10346c:	c7 04 24 29 3f 10 00 	movl   $0x103f29,(%esp)
  103473:	e8 11 cf ff ff       	call   100389 <debug_write>
  103478:	c7 04 24 25 40 10 00 	movl   $0x104025,(%esp)
  10347f:	e8 e3 d0 ff ff       	call   100567 <debug_print>
  103484:	b8 00 41 10 00       	mov    $0x104100,%eax
  103489:	89 04 24             	mov    %eax,(%esp)
  10348c:	e8 ea cf ff ff       	call   10047b <debug_printhex_int32>
  103491:	c7 44 24 04 02 00 00 	movl   $0x2,0x4(%esp)
  103498:	00 
  103499:	c7 04 24 29 3f 10 00 	movl   $0x103f29,(%esp)
  1034a0:	e8 e4 ce ff ff       	call   100389 <debug_write>
  1034a5:	c7 04 24 3c 40 10 00 	movl   $0x10403c,(%esp)
  1034ac:	e8 b6 d0 ff ff       	call   100567 <debug_print>
  1034b1:	b8 18 41 10 00       	mov    $0x104118,%eax
  1034b6:	89 04 24             	mov    %eax,(%esp)
  1034b9:	e8 bd cf ff ff       	call   10047b <debug_printhex_int32>
  1034be:	c7 44 24 04 02 00 00 	movl   $0x2,0x4(%esp)
  1034c5:	00 
  1034c6:	c7 04 24 29 3f 10 00 	movl   $0x103f29,(%esp)
  1034cd:	e8 b7 ce ff ff       	call   100389 <debug_write>
  1034d2:	c7 04 24 53 40 10 00 	movl   $0x104053,(%esp)
  1034d9:	e8 89 d0 ff ff       	call   100567 <debug_print>
  1034de:	b8 18 41 10 00       	mov    $0x104118,%eax
  1034e3:	89 04 24             	mov    %eax,(%esp)
  1034e6:	e8 90 cf ff ff       	call   10047b <debug_printhex_int32>
  1034eb:	c7 44 24 04 02 00 00 	movl   $0x2,0x4(%esp)
  1034f2:	00 
  1034f3:	c7 04 24 29 3f 10 00 	movl   $0x103f29,(%esp)
  1034fa:	e8 8a ce ff ff       	call   100389 <debug_write>
  1034ff:	c7 04 24 6a 40 10 00 	movl   $0x10406a,(%esp)
  103506:	e8 5c d0 ff ff       	call   100567 <debug_print>
  10350b:	c7 44 24 04 f4 40 10 	movl   $0x1040f4,0x4(%esp)
  103512:	00 
  103513:	c7 04 24 f4 40 10 00 	movl   $0x1040f4,(%esp)
  10351a:	e8 11 fd ff ff       	call   103230 <_ZL17call_constructorsPmS_>
  10351f:	c7 44 24 04 00 41 10 	movl   $0x104100,0x4(%esp)
  103526:	00 
  103527:	c7 04 24 f4 40 10 00 	movl   $0x1040f4,(%esp)
  10352e:	e8 fd fc ff ff       	call   103230 <_ZL17call_constructorsPmS_>
  103533:	c7 44 24 04 18 41 10 	movl   $0x104118,0x4(%esp)
  10353a:	00 
  10353b:	c7 04 24 18 41 10 00 	movl   $0x104118,(%esp)
  103542:	e8 e9 fc ff ff       	call   103230 <_ZL17call_constructorsPmS_>
  103547:	c7 04 24 79 40 10 00 	movl   $0x104079,(%esp)
  10354e:	e8 14 d0 ff ff       	call   100567 <debug_print>
  103553:	c7 04 24 0a 00 00 00 	movl   $0xa,(%esp)
  10355a:	e8 df d0 ff ff       	call   10063e <delay_cpu>
  10355f:	c7 04 24 8a 40 10 00 	movl   $0x10408a,(%esp)
  103566:	e8 fc cf ff ff       	call   100567 <debug_print>
  10356b:	e8 33 f0 ff ff       	call   1025a3 <_Z5boot3v>
  103570:	c7 04 24 a4 40 10 00 	movl   $0x1040a4,(%esp)
  103577:	e8 88 d1 ff ff       	call   100704 <_Z11systemErrorPKc>
  10357c:	c9                   	leave  
  10357d:	c3                   	ret    

0010357e <_ZL4outbth>:
  10357e:	55                   	push   %ebp
  10357f:	89 e5                	mov    %esp,%ebp
  103581:	83 ec 08             	sub    $0x8,%esp
  103584:	8b 55 08             	mov    0x8(%ebp),%edx
  103587:	8b 45 0c             	mov    0xc(%ebp),%eax
  10358a:	66 89 55 fc          	mov    %dx,-0x4(%ebp)
  10358e:	88 45 f8             	mov    %al,-0x8(%ebp)
  103591:	0f b7 55 fc          	movzwl -0x4(%ebp),%edx
  103595:	0f b6 45 f8          	movzbl -0x8(%ebp),%eax
  103599:	ee                   	out    %al,(%dx)
  10359a:	c9                   	leave  
  10359b:	c3                   	ret    

0010359c <_ZL3inbt>:
  10359c:	55                   	push   %ebp
  10359d:	89 e5                	mov    %esp,%ebp
  10359f:	83 ec 14             	sub    $0x14,%esp
  1035a2:	8b 45 08             	mov    0x8(%ebp),%eax
  1035a5:	66 89 45 ec          	mov    %ax,-0x14(%ebp)
  1035a9:	0f b7 45 ec          	movzwl -0x14(%ebp),%eax
  1035ad:	89 c2                	mov    %eax,%edx
  1035af:	ec                   	in     (%dx),%al
  1035b0:	66 89 45 fe          	mov    %ax,-0x2(%ebp)
  1035b4:	0f b7 45 fe          	movzwl -0x2(%ebp),%eax
  1035b8:	c9                   	leave  
  1035b9:	c3                   	ret    

001035ba <_Z10init_timerj>:
  1035ba:	55                   	push   %ebp
  1035bb:	89 e5                	mov    %esp,%ebp
  1035bd:	83 ec 18             	sub    $0x18,%esp
  1035c0:	b8 dc 34 12 00       	mov    $0x1234dc,%eax
  1035c5:	ba 00 00 00 00       	mov    $0x0,%edx
  1035ca:	f7 75 08             	divl   0x8(%ebp)
  1035cd:	89 45 fc             	mov    %eax,-0x4(%ebp)
  1035d0:	c7 44 24 04 36 00 00 	movl   $0x36,0x4(%esp)
  1035d7:	00 
  1035d8:	c7 04 24 43 00 00 00 	movl   $0x43,(%esp)
  1035df:	e8 9a ff ff ff       	call   10357e <_ZL4outbth>
  1035e4:	8b 45 fc             	mov    -0x4(%ebp),%eax
  1035e7:	88 45 fa             	mov    %al,-0x6(%ebp)
  1035ea:	8b 45 fc             	mov    -0x4(%ebp),%eax
  1035ed:	c1 e8 08             	shr    $0x8,%eax
  1035f0:	88 45 fb             	mov    %al,-0x5(%ebp)
  1035f3:	0f b6 45 fa          	movzbl -0x6(%ebp),%eax
  1035f7:	89 44 24 04          	mov    %eax,0x4(%esp)
  1035fb:	c7 04 24 40 00 00 00 	movl   $0x40,(%esp)
  103602:	e8 77 ff ff ff       	call   10357e <_ZL4outbth>
  103607:	0f b6 45 fb          	movzbl -0x5(%ebp),%eax
  10360b:	89 44 24 04          	mov    %eax,0x4(%esp)
  10360f:	c7 04 24 40 00 00 00 	movl   $0x40,(%esp)
  103616:	e8 63 ff ff ff       	call   10357e <_ZL4outbth>
  10361b:	c9                   	leave  
  10361c:	c3                   	ret    

0010361d <gdt_flush>:
  10361d:	8b 44 24 04          	mov    0x4(%esp),%eax
  103621:	0f 01 10             	lgdtl  (%eax)
  103624:	66 b8 10 00          	mov    $0x10,%ax
  103628:	8e d8                	mov    %eax,%ds
  10362a:	8e c0                	mov    %eax,%es
  10362c:	8e e0                	mov    %eax,%fs
  10362e:	8e e8                	mov    %eax,%gs
  103630:	8e d0                	mov    %eax,%ss
  103632:	ea 39 36 10 00 08 00 	ljmp   $0x8,$0x103639

00103639 <flush>:
  103639:	c3                   	ret    

0010363a <idt_flush>:
  10363a:	8b 44 24 04          	mov    0x4(%esp),%eax
  10363e:	0f 01 18             	lidtl  (%eax)
  103641:	c3                   	ret    

00103642 <_ZL4outbth>:
  103642:	55                   	push   %ebp
  103643:	89 e5                	mov    %esp,%ebp
  103645:	83 ec 08             	sub    $0x8,%esp
  103648:	8b 55 08             	mov    0x8(%ebp),%edx
  10364b:	8b 45 0c             	mov    0xc(%ebp),%eax
  10364e:	66 89 55 fc          	mov    %dx,-0x4(%ebp)
  103652:	88 45 f8             	mov    %al,-0x8(%ebp)
  103655:	0f b7 55 fc          	movzwl -0x4(%ebp),%edx
  103659:	0f b6 45 f8          	movzbl -0x8(%ebp),%eax
  10365d:	ee                   	out    %al,(%dx)
  10365e:	c9                   	leave  
  10365f:	c3                   	ret    

00103660 <_ZL3inbt>:
  103660:	55                   	push   %ebp
  103661:	89 e5                	mov    %esp,%ebp
  103663:	83 ec 14             	sub    $0x14,%esp
  103666:	8b 45 08             	mov    0x8(%ebp),%eax
  103669:	66 89 45 ec          	mov    %ax,-0x14(%ebp)
  10366d:	0f b7 45 ec          	movzwl -0x14(%ebp),%eax
  103671:	89 c2                	mov    %eax,%edx
  103673:	ec                   	in     (%dx),%al
  103674:	66 89 45 fe          	mov    %ax,-0x2(%ebp)
  103678:	0f b7 45 fe          	movzwl -0x2(%ebp),%eax
  10367c:	c9                   	leave  
  10367d:	c3                   	ret    

0010367e <_Z18video_page_putcharic>:
  10367e:	55                   	push   %ebp
  10367f:	89 e5                	mov    %esp,%ebp
  103681:	83 ec 04             	sub    $0x4,%esp
  103684:	8b 45 0c             	mov    0xc(%ebp),%eax
  103687:	88 45 fc             	mov    %al,-0x4(%ebp)
  10368a:	a1 90 5e 10 00       	mov    0x105e90,%eax
  10368f:	8b 55 08             	mov    0x8(%ebp),%edx
  103692:	01 d2                	add    %edx,%edx
  103694:	83 c2 01             	add    $0x1,%edx
  103697:	01 d0                	add    %edx,%eax
  103699:	c6 00 0a             	movb   $0xa,(%eax)
  10369c:	8b 15 90 5e 10 00    	mov    0x105e90,%edx
  1036a2:	8b 45 08             	mov    0x8(%ebp),%eax
  1036a5:	01 c0                	add    %eax,%eax
  1036a7:	01 c2                	add    %eax,%edx
  1036a9:	0f b6 45 fc          	movzbl -0x4(%ebp),%eax
  1036ad:	88 02                	mov    %al,(%edx)
  1036af:	83 45 08 01          	addl   $0x1,0x8(%ebp)
  1036b3:	c9                   	leave  
  1036b4:	c3                   	ret    

001036b5 <_Z22video_page_move_cursori>:
  1036b5:	55                   	push   %ebp
  1036b6:	89 e5                	mov    %esp,%ebp
  1036b8:	83 ec 08             	sub    $0x8,%esp
  1036bb:	c7 44 24 04 0e 00 00 	movl   $0xe,0x4(%esp)
  1036c2:	00 
  1036c3:	c7 04 24 d4 03 00 00 	movl   $0x3d4,(%esp)
  1036ca:	e8 73 ff ff ff       	call   103642 <_ZL4outbth>
  1036cf:	8b 45 08             	mov    0x8(%ebp),%eax
  1036d2:	c1 f8 08             	sar    $0x8,%eax
  1036d5:	0f b6 c0             	movzbl %al,%eax
  1036d8:	89 44 24 04          	mov    %eax,0x4(%esp)
  1036dc:	c7 04 24 d5 03 00 00 	movl   $0x3d5,(%esp)
  1036e3:	e8 5a ff ff ff       	call   103642 <_ZL4outbth>
  1036e8:	c7 44 24 04 0f 00 00 	movl   $0xf,0x4(%esp)
  1036ef:	00 
  1036f0:	c7 04 24 d4 03 00 00 	movl   $0x3d4,(%esp)
  1036f7:	e8 46 ff ff ff       	call   103642 <_ZL4outbth>
  1036fc:	8b 45 08             	mov    0x8(%ebp),%eax
  1036ff:	0f b6 c0             	movzbl %al,%eax
  103702:	89 44 24 04          	mov    %eax,0x4(%esp)
  103706:	c7 04 24 d5 03 00 00 	movl   $0x3d5,(%esp)
  10370d:	e8 30 ff ff ff       	call   103642 <_ZL4outbth>
  103712:	c9                   	leave  
  103713:	c3                   	ret    

00103714 <_Z16video_page_resetv>:
  103714:	55                   	push   %ebp
  103715:	89 e5                	mov    %esp,%ebp
  103717:	83 ec 18             	sub    $0x18,%esp
  10371a:	c7 45 fc 00 00 00 00 	movl   $0x0,-0x4(%ebp)
  103721:	eb 17                	jmp    10373a <_Z16video_page_resetv+0x26>
  103723:	c7 44 24 04 20 00 00 	movl   $0x20,0x4(%esp)
  10372a:	00 
  10372b:	8b 45 fc             	mov    -0x4(%ebp),%eax
  10372e:	89 04 24             	mov    %eax,(%esp)
  103731:	e8 48 ff ff ff       	call   10367e <_Z18video_page_putcharic>
  103736:	83 45 fc 01          	addl   $0x1,-0x4(%ebp)
  10373a:	81 7d fc cf 07 00 00 	cmpl   $0x7cf,-0x4(%ebp)
  103741:	7e e0                	jle    103723 <_Z16video_page_resetv+0xf>
  103743:	c9                   	leave  
  103744:	c3                   	ret    

00103745 <_Z18video_page_clr_stri>:
  103745:	55                   	push   %ebp
  103746:	89 e5                	mov    %esp,%ebp
  103748:	83 ec 18             	sub    $0x18,%esp
  10374b:	8b 55 08             	mov    0x8(%ebp),%edx
  10374e:	89 d0                	mov    %edx,%eax
  103750:	c1 e0 02             	shl    $0x2,%eax
  103753:	01 d0                	add    %edx,%eax
  103755:	c1 e0 04             	shl    $0x4,%eax
  103758:	89 45 fc             	mov    %eax,-0x4(%ebp)
  10375b:	eb 17                	jmp    103774 <_Z18video_page_clr_stri+0x2f>
  10375d:	c7 44 24 04 20 00 00 	movl   $0x20,0x4(%esp)
  103764:	00 
  103765:	8b 45 fc             	mov    -0x4(%ebp),%eax
  103768:	89 04 24             	mov    %eax,(%esp)
  10376b:	e8 0e ff ff ff       	call   10367e <_Z18video_page_putcharic>
  103770:	83 45 fc 01          	addl   $0x1,-0x4(%ebp)
  103774:	8b 45 08             	mov    0x8(%ebp),%eax
  103777:	8d 50 01             	lea    0x1(%eax),%edx
  10377a:	89 d0                	mov    %edx,%eax
  10377c:	c1 e0 02             	shl    $0x2,%eax
  10377f:	01 d0                	add    %edx,%eax
  103781:	c1 e0 04             	shl    $0x4,%eax
  103784:	3b 45 fc             	cmp    -0x4(%ebp),%eax
  103787:	7f d4                	jg     10375d <_Z18video_page_clr_stri+0x18>
  103789:	c9                   	leave  
  10378a:	c3                   	ret    

0010378b <_Z19video_page_copy_strii>:
  10378b:	55                   	push   %ebp
  10378c:	89 e5                	mov    %esp,%ebp
  10378e:	53                   	push   %ebx
  10378f:	83 ec 10             	sub    $0x10,%esp
  103792:	c7 45 f8 00 00 00 00 	movl   $0x0,-0x8(%ebp)
  103799:	eb 41                	jmp    1037dc <_Z19video_page_copy_strii+0x51>
  10379b:	8b 0d 90 5e 10 00    	mov    0x105e90,%ecx
  1037a1:	8b 55 0c             	mov    0xc(%ebp),%edx
  1037a4:	89 d0                	mov    %edx,%eax
  1037a6:	c1 e0 02             	shl    $0x2,%eax
  1037a9:	01 d0                	add    %edx,%eax
  1037ab:	c1 e0 05             	shl    $0x5,%eax
  1037ae:	89 c2                	mov    %eax,%edx
  1037b0:	8b 45 f8             	mov    -0x8(%ebp),%eax
  1037b3:	01 d0                	add    %edx,%eax
  1037b5:	01 c1                	add    %eax,%ecx
  1037b7:	8b 1d 90 5e 10 00    	mov    0x105e90,%ebx
  1037bd:	8b 55 08             	mov    0x8(%ebp),%edx
  1037c0:	89 d0                	mov    %edx,%eax
  1037c2:	c1 e0 02             	shl    $0x2,%eax
  1037c5:	01 d0                	add    %edx,%eax
  1037c7:	c1 e0 05             	shl    $0x5,%eax
  1037ca:	89 c2                	mov    %eax,%edx
  1037cc:	8b 45 f8             	mov    -0x8(%ebp),%eax
  1037cf:	01 d0                	add    %edx,%eax
  1037d1:	01 d8                	add    %ebx,%eax
  1037d3:	0f b6 00             	movzbl (%eax),%eax
  1037d6:	88 01                	mov    %al,(%ecx)
  1037d8:	83 45 f8 01          	addl   $0x1,-0x8(%ebp)
  1037dc:	81 7d f8 9f 00 00 00 	cmpl   $0x9f,-0x8(%ebp)
  1037e3:	7e b6                	jle    10379b <_Z19video_page_copy_strii+0x10>
  1037e5:	83 c4 10             	add    $0x10,%esp
  1037e8:	5b                   	pop    %ebx
  1037e9:	5d                   	pop    %ebp
  1037ea:	c3                   	ret    

001037eb <_Z19video_page_drop_strv>:
  1037eb:	55                   	push   %ebp
  1037ec:	89 e5                	mov    %esp,%ebp
  1037ee:	83 ec 18             	sub    $0x18,%esp
  1037f1:	c7 45 fc 01 00 00 00 	movl   $0x1,-0x4(%ebp)
  1037f8:	eb 19                	jmp    103813 <_Z19video_page_drop_strv+0x28>
  1037fa:	8b 45 fc             	mov    -0x4(%ebp),%eax
  1037fd:	83 e8 01             	sub    $0x1,%eax
  103800:	89 44 24 04          	mov    %eax,0x4(%esp)
  103804:	8b 45 fc             	mov    -0x4(%ebp),%eax
  103807:	89 04 24             	mov    %eax,(%esp)
  10380a:	e8 7c ff ff ff       	call   10378b <_Z19video_page_copy_strii>
  10380f:	83 45 fc 01          	addl   $0x1,-0x4(%ebp)
  103813:	83 7d fc 18          	cmpl   $0x18,-0x4(%ebp)
  103817:	7e e1                	jle    1037fa <_Z19video_page_drop_strv+0xf>
  103819:	c7 04 24 18 00 00 00 	movl   $0x18,(%esp)
  103820:	e8 20 ff ff ff       	call   103745 <_Z18video_page_clr_stri>
  103825:	c9                   	leave  
  103826:	c3                   	ret    

00103827 <_Z16proc_length_initv>:
  103827:	55                   	push   %ebp
  103828:	89 e5                	mov    %esp,%ebp
  10382a:	5d                   	pop    %ebp
  10382b:	c3                   	ret    

0010382c <_ZL4outbth>:
  10382c:	55                   	push   %ebp
  10382d:	89 e5                	mov    %esp,%ebp
  10382f:	83 ec 08             	sub    $0x8,%esp
  103832:	8b 55 08             	mov    0x8(%ebp),%edx
  103835:	8b 45 0c             	mov    0xc(%ebp),%eax
  103838:	66 89 55 fc          	mov    %dx,-0x4(%ebp)
  10383c:	88 45 f8             	mov    %al,-0x8(%ebp)
  10383f:	0f b7 55 fc          	movzwl -0x4(%ebp),%edx
  103843:	0f b6 45 f8          	movzbl -0x8(%ebp),%eax
  103847:	ee                   	out    %al,(%dx)
  103848:	c9                   	leave  
  103849:	c3                   	ret    

0010384a <_ZL3inbt>:
  10384a:	55                   	push   %ebp
  10384b:	89 e5                	mov    %esp,%ebp
  10384d:	83 ec 14             	sub    $0x14,%esp
  103850:	8b 45 08             	mov    0x8(%ebp),%eax
  103853:	66 89 45 ec          	mov    %ax,-0x14(%ebp)
  103857:	0f b7 45 ec          	movzwl -0x14(%ebp),%eax
  10385b:	89 c2                	mov    %eax,%edx
  10385d:	ec                   	in     (%dx),%al
  10385e:	66 89 45 fe          	mov    %ax,-0x2(%ebp)
  103862:	0f b7 45 fe          	movzwl -0x2(%ebp),%eax
  103866:	c9                   	leave  
  103867:	c3                   	ret    

00103868 <_ZL29platform_abstract_irq_handlerP14interrupt_info>:
  103868:	55                   	push   %ebp
  103869:	89 e5                	mov    %esp,%ebp
  10386b:	83 ec 08             	sub    $0x8,%esp
  10386e:	8b 45 08             	mov    0x8(%ebp),%eax
  103871:	8b 40 24             	mov    0x24(%eax),%eax
  103874:	83 f8 27             	cmp    $0x27,%eax
  103877:	76 14                	jbe    10388d <_ZL29platform_abstract_irq_handlerP14interrupt_info+0x25>
  103879:	c7 44 24 04 20 00 00 	movl   $0x20,0x4(%esp)
  103880:	00 
  103881:	c7 04 24 a0 00 00 00 	movl   $0xa0,(%esp)
  103888:	e8 9f ff ff ff       	call   10382c <_ZL4outbth>
  10388d:	8b 45 08             	mov    0x8(%ebp),%eax
  103890:	8b 40 24             	mov    0x24(%eax),%eax
  103893:	83 f8 1f             	cmp    $0x1f,%eax
  103896:	76 14                	jbe    1038ac <_ZL29platform_abstract_irq_handlerP14interrupt_info+0x44>
  103898:	c7 44 24 04 20 00 00 	movl   $0x20,0x4(%esp)
  10389f:	00 
  1038a0:	c7 04 24 20 00 00 00 	movl   $0x20,(%esp)
  1038a7:	e8 80 ff ff ff       	call   10382c <_ZL4outbth>
  1038ac:	c9                   	leave  
  1038ad:	c3                   	ret    

001038ae <isr_handler>:
  1038ae:	55                   	push   %ebp
  1038af:	89 e5                	mov    %esp,%ebp
  1038b1:	83 ec 48             	sub    $0x48,%esp
  1038b4:	8b 45 08             	mov    0x8(%ebp),%eax
  1038b7:	89 04 24             	mov    %eax,(%esp)
  1038ba:	8b 45 0c             	mov    0xc(%ebp),%eax
  1038bd:	89 44 24 04          	mov    %eax,0x4(%esp)
  1038c1:	8b 45 10             	mov    0x10(%ebp),%eax
  1038c4:	89 44 24 08          	mov    %eax,0x8(%esp)
  1038c8:	8b 45 14             	mov    0x14(%ebp),%eax
  1038cb:	89 44 24 0c          	mov    %eax,0xc(%esp)
  1038cf:	8b 45 18             	mov    0x18(%ebp),%eax
  1038d2:	89 44 24 10          	mov    %eax,0x10(%esp)
  1038d6:	8b 45 1c             	mov    0x1c(%ebp),%eax
  1038d9:	89 44 24 14          	mov    %eax,0x14(%esp)
  1038dd:	8b 45 20             	mov    0x20(%ebp),%eax
  1038e0:	89 44 24 18          	mov    %eax,0x18(%esp)
  1038e4:	8b 45 24             	mov    0x24(%ebp),%eax
  1038e7:	89 44 24 1c          	mov    %eax,0x1c(%esp)
  1038eb:	8b 45 28             	mov    0x28(%ebp),%eax
  1038ee:	89 44 24 20          	mov    %eax,0x20(%esp)
  1038f2:	8b 45 2c             	mov    0x2c(%ebp),%eax
  1038f5:	89 44 24 24          	mov    %eax,0x24(%esp)
  1038f9:	8b 45 30             	mov    0x30(%ebp),%eax
  1038fc:	89 44 24 28          	mov    %eax,0x28(%esp)
  103900:	8b 45 34             	mov    0x34(%ebp),%eax
  103903:	89 44 24 2c          	mov    %eax,0x2c(%esp)
  103907:	8b 45 38             	mov    0x38(%ebp),%eax
  10390a:	89 44 24 30          	mov    %eax,0x30(%esp)
  10390e:	8b 45 3c             	mov    0x3c(%ebp),%eax
  103911:	89 44 24 34          	mov    %eax,0x34(%esp)
  103915:	8b 45 40             	mov    0x40(%ebp),%eax
  103918:	89 44 24 38          	mov    %eax,0x38(%esp)
  10391c:	8b 45 44             	mov    0x44(%ebp),%eax
  10391f:	89 44 24 3c          	mov    %eax,0x3c(%esp)
  103923:	e8 94 dc ff ff       	call   1015bc <abstract_irq_controller>
  103928:	c9                   	leave  
  103929:	c3                   	ret    

0010392a <init>:
  10392a:	fa                   	cli    
  10392b:	53                   	push   %ebx
  10392c:	e8 53 f9 ff ff       	call   103284 <boot2>
  103931:	f4                   	hlt    

00103932 <loop>:
  103932:	eb fe                	jmp    103932 <loop>

00103934 <isr0>:
  103934:	fa                   	cli    
  103935:	6a 00                	push   $0x0
  103937:	6a 00                	push   $0x0
  103939:	e9 91 01 00 00       	jmp    103acf <isr_common_stub>

0010393e <isr1>:
  10393e:	fa                   	cli    
  10393f:	6a 00                	push   $0x0
  103941:	6a 01                	push   $0x1
  103943:	e9 87 01 00 00       	jmp    103acf <isr_common_stub>

00103948 <isr2>:
  103948:	fa                   	cli    
  103949:	6a 00                	push   $0x0
  10394b:	6a 02                	push   $0x2
  10394d:	e9 7d 01 00 00       	jmp    103acf <isr_common_stub>

00103952 <isr3>:
  103952:	fa                   	cli    
  103953:	6a 00                	push   $0x0
  103955:	6a 03                	push   $0x3
  103957:	e9 73 01 00 00       	jmp    103acf <isr_common_stub>

0010395c <isr4>:
  10395c:	fa                   	cli    
  10395d:	6a 00                	push   $0x0
  10395f:	6a 04                	push   $0x4
  103961:	e9 69 01 00 00       	jmp    103acf <isr_common_stub>

00103966 <isr5>:
  103966:	fa                   	cli    
  103967:	6a 00                	push   $0x0
  103969:	6a 05                	push   $0x5
  10396b:	e9 5f 01 00 00       	jmp    103acf <isr_common_stub>

00103970 <isr6>:
  103970:	fa                   	cli    
  103971:	6a 00                	push   $0x0
  103973:	6a 06                	push   $0x6
  103975:	e9 55 01 00 00       	jmp    103acf <isr_common_stub>

0010397a <isr7>:
  10397a:	fa                   	cli    
  10397b:	6a 00                	push   $0x0
  10397d:	6a 07                	push   $0x7
  10397f:	e9 4b 01 00 00       	jmp    103acf <isr_common_stub>

00103984 <isr8>:
  103984:	fa                   	cli    
  103985:	6a 08                	push   $0x8
  103987:	e9 43 01 00 00       	jmp    103acf <isr_common_stub>

0010398c <isr9>:
  10398c:	fa                   	cli    
  10398d:	6a 00                	push   $0x0
  10398f:	6a 09                	push   $0x9
  103991:	e9 39 01 00 00       	jmp    103acf <isr_common_stub>

00103996 <isr10>:
  103996:	fa                   	cli    
  103997:	6a 0a                	push   $0xa
  103999:	e9 31 01 00 00       	jmp    103acf <isr_common_stub>

0010399e <isr11>:
  10399e:	fa                   	cli    
  10399f:	6a 0b                	push   $0xb
  1039a1:	e9 29 01 00 00       	jmp    103acf <isr_common_stub>

001039a6 <isr12>:
  1039a6:	fa                   	cli    
  1039a7:	6a 0c                	push   $0xc
  1039a9:	e9 21 01 00 00       	jmp    103acf <isr_common_stub>

001039ae <isr13>:
  1039ae:	fa                   	cli    
  1039af:	6a 0d                	push   $0xd
  1039b1:	e9 19 01 00 00       	jmp    103acf <isr_common_stub>

001039b6 <isr14>:
  1039b6:	fa                   	cli    
  1039b7:	6a 0e                	push   $0xe
  1039b9:	e9 11 01 00 00       	jmp    103acf <isr_common_stub>

001039be <isr15>:
  1039be:	fa                   	cli    
  1039bf:	6a 00                	push   $0x0
  1039c1:	6a 0f                	push   $0xf
  1039c3:	e9 07 01 00 00       	jmp    103acf <isr_common_stub>

001039c8 <isr16>:
  1039c8:	fa                   	cli    
  1039c9:	6a 00                	push   $0x0
  1039cb:	6a 10                	push   $0x10
  1039cd:	e9 fd 00 00 00       	jmp    103acf <isr_common_stub>

001039d2 <isr17>:
  1039d2:	fa                   	cli    
  1039d3:	6a 00                	push   $0x0
  1039d5:	6a 11                	push   $0x11
  1039d7:	e9 f3 00 00 00       	jmp    103acf <isr_common_stub>

001039dc <isr18>:
  1039dc:	fa                   	cli    
  1039dd:	6a 00                	push   $0x0
  1039df:	6a 12                	push   $0x12
  1039e1:	e9 e9 00 00 00       	jmp    103acf <isr_common_stub>

001039e6 <isr19>:
  1039e6:	fa                   	cli    
  1039e7:	6a 00                	push   $0x0
  1039e9:	6a 13                	push   $0x13
  1039eb:	e9 df 00 00 00       	jmp    103acf <isr_common_stub>

001039f0 <isr20>:
  1039f0:	fa                   	cli    
  1039f1:	6a 00                	push   $0x0
  1039f3:	6a 14                	push   $0x14
  1039f5:	e9 d5 00 00 00       	jmp    103acf <isr_common_stub>

001039fa <isr21>:
  1039fa:	fa                   	cli    
  1039fb:	6a 00                	push   $0x0
  1039fd:	6a 15                	push   $0x15
  1039ff:	e9 cb 00 00 00       	jmp    103acf <isr_common_stub>

00103a04 <isr22>:
  103a04:	fa                   	cli    
  103a05:	6a 00                	push   $0x0
  103a07:	6a 16                	push   $0x16
  103a09:	e9 c1 00 00 00       	jmp    103acf <isr_common_stub>

00103a0e <isr23>:
  103a0e:	fa                   	cli    
  103a0f:	6a 00                	push   $0x0
  103a11:	6a 17                	push   $0x17
  103a13:	e9 b7 00 00 00       	jmp    103acf <isr_common_stub>

00103a18 <isr24>:
  103a18:	fa                   	cli    
  103a19:	6a 00                	push   $0x0
  103a1b:	6a 18                	push   $0x18
  103a1d:	e9 ad 00 00 00       	jmp    103acf <isr_common_stub>

00103a22 <isr25>:
  103a22:	fa                   	cli    
  103a23:	6a 00                	push   $0x0
  103a25:	6a 19                	push   $0x19
  103a27:	e9 a3 00 00 00       	jmp    103acf <isr_common_stub>

00103a2c <isr26>:
  103a2c:	fa                   	cli    
  103a2d:	6a 00                	push   $0x0
  103a2f:	6a 1a                	push   $0x1a
  103a31:	e9 99 00 00 00       	jmp    103acf <isr_common_stub>

00103a36 <isr27>:
  103a36:	fa                   	cli    
  103a37:	6a 00                	push   $0x0
  103a39:	6a 1b                	push   $0x1b
  103a3b:	e9 8f 00 00 00       	jmp    103acf <isr_common_stub>

00103a40 <isr28>:
  103a40:	fa                   	cli    
  103a41:	6a 00                	push   $0x0
  103a43:	6a 1c                	push   $0x1c
  103a45:	e9 85 00 00 00       	jmp    103acf <isr_common_stub>

00103a4a <isr29>:
  103a4a:	fa                   	cli    
  103a4b:	6a 00                	push   $0x0
  103a4d:	6a 1d                	push   $0x1d
  103a4f:	eb 7e                	jmp    103acf <isr_common_stub>

00103a51 <isr30>:
  103a51:	fa                   	cli    
  103a52:	6a 00                	push   $0x0
  103a54:	6a 1e                	push   $0x1e
  103a56:	eb 77                	jmp    103acf <isr_common_stub>

00103a58 <isr31>:
  103a58:	fa                   	cli    
  103a59:	6a 00                	push   $0x0
  103a5b:	6a 1f                	push   $0x1f
  103a5d:	eb 70                	jmp    103acf <isr_common_stub>

00103a5f <isr32>:
  103a5f:	fa                   	cli    
  103a60:	6a 00                	push   $0x0
  103a62:	6a 20                	push   $0x20
  103a64:	eb 69                	jmp    103acf <isr_common_stub>

00103a66 <isr33>:
  103a66:	fa                   	cli    
  103a67:	6a 00                	push   $0x0
  103a69:	6a 21                	push   $0x21
  103a6b:	eb 62                	jmp    103acf <isr_common_stub>

00103a6d <isr34>:
  103a6d:	fa                   	cli    
  103a6e:	6a 00                	push   $0x0
  103a70:	6a 22                	push   $0x22
  103a72:	eb 5b                	jmp    103acf <isr_common_stub>

00103a74 <isr35>:
  103a74:	fa                   	cli    
  103a75:	6a 00                	push   $0x0
  103a77:	6a 23                	push   $0x23
  103a79:	eb 54                	jmp    103acf <isr_common_stub>

00103a7b <isr36>:
  103a7b:	fa                   	cli    
  103a7c:	6a 00                	push   $0x0
  103a7e:	6a 24                	push   $0x24
  103a80:	eb 4d                	jmp    103acf <isr_common_stub>

00103a82 <isr37>:
  103a82:	fa                   	cli    
  103a83:	6a 00                	push   $0x0
  103a85:	6a 25                	push   $0x25
  103a87:	eb 46                	jmp    103acf <isr_common_stub>

00103a89 <isr38>:
  103a89:	fa                   	cli    
  103a8a:	6a 00                	push   $0x0
  103a8c:	6a 26                	push   $0x26
  103a8e:	eb 3f                	jmp    103acf <isr_common_stub>

00103a90 <isr39>:
  103a90:	fa                   	cli    
  103a91:	6a 00                	push   $0x0
  103a93:	6a 27                	push   $0x27
  103a95:	eb 38                	jmp    103acf <isr_common_stub>

00103a97 <isr40>:
  103a97:	fa                   	cli    
  103a98:	6a 00                	push   $0x0
  103a9a:	6a 28                	push   $0x28
  103a9c:	eb 31                	jmp    103acf <isr_common_stub>

00103a9e <isr41>:
  103a9e:	fa                   	cli    
  103a9f:	6a 00                	push   $0x0
  103aa1:	6a 29                	push   $0x29
  103aa3:	eb 2a                	jmp    103acf <isr_common_stub>

00103aa5 <isr42>:
  103aa5:	fa                   	cli    
  103aa6:	6a 00                	push   $0x0
  103aa8:	6a 2a                	push   $0x2a
  103aaa:	eb 23                	jmp    103acf <isr_common_stub>

00103aac <isr43>:
  103aac:	fa                   	cli    
  103aad:	6a 00                	push   $0x0
  103aaf:	6a 2b                	push   $0x2b
  103ab1:	eb 1c                	jmp    103acf <isr_common_stub>

00103ab3 <isr44>:
  103ab3:	fa                   	cli    
  103ab4:	6a 00                	push   $0x0
  103ab6:	6a 2c                	push   $0x2c
  103ab8:	eb 15                	jmp    103acf <isr_common_stub>

00103aba <isr45>:
  103aba:	fa                   	cli    
  103abb:	6a 00                	push   $0x0
  103abd:	6a 2d                	push   $0x2d
  103abf:	eb 0e                	jmp    103acf <isr_common_stub>

00103ac1 <isr46>:
  103ac1:	fa                   	cli    
  103ac2:	6a 00                	push   $0x0
  103ac4:	6a 2e                	push   $0x2e
  103ac6:	eb 07                	jmp    103acf <isr_common_stub>

00103ac8 <isr47>:
  103ac8:	fa                   	cli    
  103ac9:	6a 00                	push   $0x0
  103acb:	6a 2f                	push   $0x2f
  103acd:	eb 00                	jmp    103acf <isr_common_stub>

00103acf <isr_common_stub>:
  103acf:	60                   	pusha  
  103ad0:	66 8c d8             	mov    %ds,%ax
  103ad3:	50                   	push   %eax
  103ad4:	66 b8 10 00          	mov    $0x10,%ax
  103ad8:	8e d8                	mov    %eax,%ds
  103ada:	8e c0                	mov    %eax,%es
  103adc:	8e e0                	mov    %eax,%fs
  103ade:	8e e8                	mov    %eax,%gs
  103ae0:	e8 d7 da ff ff       	call   1015bc <abstract_irq_controller>
  103ae5:	58                   	pop    %eax
  103ae6:	8e d8                	mov    %eax,%ds
  103ae8:	8e c0                	mov    %eax,%es
  103aea:	8e e0                	mov    %eax,%fs
  103aec:	8e e8                	mov    %eax,%gs
  103aee:	61                   	popa   
  103aef:	83 c4 08             	add    $0x8,%esp
  103af2:	fb                   	sti    
  103af3:	cf                   	iret   
  103af4:	66 90                	xchg   %ax,%ax
  103af6:	66 90                	xchg   %ax,%ax
  103af8:	66 90                	xchg   %ax,%ax
  103afa:	66 90                	xchg   %ax,%ax
  103afc:	66 90                	xchg   %ax,%ax
  103afe:	66 90                	xchg   %ax,%ax

00103b00 <__libc_csu_init>:
  103b00:	55                   	push   %ebp
  103b01:	57                   	push   %edi
  103b02:	31 ff                	xor    %edi,%edi
  103b04:	56                   	push   %esi
  103b05:	53                   	push   %ebx
  103b06:	e8 25 c5 ff ff       	call   100030 <__x86.get_pc_thunk.bx>
  103b0b:	81 c3 8d 23 00 00    	add    $0x238d,%ebx
  103b11:	83 ec 1c             	sub    $0x1c,%esp
  103b14:	8b 6c 24 30          	mov    0x30(%esp),%ebp
  103b18:	8d b3 68 e2 ff ff    	lea    -0x1d98(%ebx),%esi
  103b1e:	e8 ad 05 00 00       	call   1040d0 <_init>
  103b23:	8d 83 5c e2 ff ff    	lea    -0x1da4(%ebx),%eax
  103b29:	29 c6                	sub    %eax,%esi
  103b2b:	c1 fe 02             	sar    $0x2,%esi
  103b2e:	85 f6                	test   %esi,%esi
  103b30:	74 27                	je     103b59 <__libc_csu_init+0x59>
  103b32:	8d b6 00 00 00 00    	lea    0x0(%esi),%esi
  103b38:	8b 44 24 38          	mov    0x38(%esp),%eax
  103b3c:	89 2c 24             	mov    %ebp,(%esp)
  103b3f:	89 44 24 08          	mov    %eax,0x8(%esp)
  103b43:	8b 44 24 34          	mov    0x34(%esp),%eax
  103b47:	89 44 24 04          	mov    %eax,0x4(%esp)
  103b4b:	ff 94 bb 5c e2 ff ff 	call   *-0x1da4(%ebx,%edi,4)
  103b52:	83 c7 01             	add    $0x1,%edi
  103b55:	39 f7                	cmp    %esi,%edi
  103b57:	75 df                	jne    103b38 <__libc_csu_init+0x38>
  103b59:	83 c4 1c             	add    $0x1c,%esp
  103b5c:	5b                   	pop    %ebx
  103b5d:	5e                   	pop    %esi
  103b5e:	5f                   	pop    %edi
  103b5f:	5d                   	pop    %ebp
  103b60:	c3                   	ret    
  103b61:	eb 0d                	jmp    103b70 <__libc_csu_fini>
  103b63:	90                   	nop
  103b64:	90                   	nop
  103b65:	90                   	nop
  103b66:	90                   	nop
  103b67:	90                   	nop
  103b68:	90                   	nop
  103b69:	90                   	nop
  103b6a:	90                   	nop
  103b6b:	90                   	nop
  103b6c:	90                   	nop
  103b6d:	90                   	nop
  103b6e:	90                   	nop
  103b6f:	90                   	nop

00103b70 <__libc_csu_fini>:
  103b70:	f3 c3                	repz ret 

00103b72 <_fp_hw>:
  103b72:	03 00 00 00 66 90                                   ....f.

00103b78 <_IO_stdin_used>:
  103b78:	01 00 02 00 4d 69 72 6d 69 6b 00 0d 0a 00 66 90     ....Mirmik....f.
  103b88:	da 03 10 00 e0 03 10 00 e6 03 10 00 ec 03 10 00     ................
  103b98:	f2 03 10 00 f8 03 10 00 fe 03 10 00 04 04 10 00     ................
  103ba8:	0a 04 10 00 10 04 10 00 16 04 10 00 1c 04 10 00     ................
  103bb8:	22 04 10 00 28 04 10 00 2e 04 10 00 34 04 10 00     "...(.......4...
  103bc8:	3a 20 00 7c 00 0a 00 20 00 53 59 53 54 45 4d 20     : .|... .SYSTEM 
  103bd8:	45 52 52 4f 52 3a 0a 0d 00 0d 0a 00 66 90 66 90     ERROR:......f.f.
  103be8:	6e 61 6e 00 69 6e 66 00 6f 76 66 00 2e 00 00 00     nan.inf.ovf.....
  103bf8:	00 00 00 e0 ff ff ef 41 00 00 00 e0 ff ff ef c1     .......A........
  103c08:	00 00 00 00 00 00 e0 3f 00 00 00 00 00 00 24 40     .......?......$@

00103c18 <_ZTV5Print>:
  103c18:	00 00 00 00 28 3c 10 00 60 41 10 00 be 07 10 00     ....(<..`A......

00103c28 <_ZTI5Print>:
  103c28:	08 79 10 00 30 3c 10 00                             .y..0<..

00103c30 <_ZTS5Print>:
  103c30:	35 50 72 69 6e 74 00 66 90 66 90 66 90 66 90 90     5Print.f.f.f.f..

00103c40 <_ZTV9StrmDebug>:
  103c40:	00 00 00 00 80 3c 10 00 70 0f 10 00 be 07 10 00     .....<..p.......
  103c50:	8e 0f 10 00 94 0f 10 00 9a 0f 10 00 a0 0f 10 00     ................

00103c60 <_ZTV6Stream>:
  103c60:	00 00 00 00 a0 3c 10 00 60 41 10 00 be 07 10 00     .....<..`A......
  103c70:	60 41 10 00 60 41 10 00 60 41 10 00 60 41 10 00     `A..`A..`A..`A..

00103c80 <_ZTI9StrmDebug>:
  103c80:	48 79 10 00 8c 3c 10 00 a0 3c 10 00                 Hy...<...<..

00103c8c <_ZTS9StrmDebug>:
  103c8c:	39 53 74 72 6d 44 65 62 75 67 00                    9StrmDebug.

00103c97 <_ZTS6Stream>:
  103c97:	36 53 74 72 65 61 6d 00 90                          6Stream..

00103ca0 <_ZTI6Stream>:
  103ca0:	48 79 10 00 97 3c 10 00 28 3c 10 00 61 62 73 74     Hy...<..(<..abst
  103cb0:	72 61 63 74 5f 69 72 71 5f 6e 75 6d 3a 00 0d 0a     ract_irq_num:...
  103cc0:	00 00 00 00 61 62 73 74 72 61 63 74 5f 69 72 71     ....abstract_irq
  103cd0:	5f 63 6f 6e 74 72 6f 6c 6c 65 72 5f 53 74 75 62     _controller_Stub
  103ce0:	49 52 51 00 66 90 66 90 66 90 66 90 66 90 66 90     IRQ.f.f.f.f.f.f.
  103cf0:	66 90 66 90 66 90 66 90 66 90 66 90 66 90 66 90     f.f.f.f.f.f.f.f.

00103d00 <_ZTV8DBStream>:
  103d00:	00 00 00 00 20 3d 10 00 9e 18 10 00 be 07 10 00     .... =..........
  103d10:	42 19 10 00 48 19 10 00 68 19 10 00 6e 19 10 00     B...H...h...n...

00103d20 <_ZTI8DBStream>:
  103d20:	48 79 10 00 2c 3d 10 00 a0 3c 10 00                 Hy..,=...<..

00103d2c <_ZTS8DBStream>:
  103d2c:	38 44 42 53 74 72 65 61 6d 00 66 90                 8DBStream.f.

00103d38 <_ZTV12staticring_t>:
  103d38:	00 00 00 00 50 3d 10 00 a6 1a 10 00 38 1a 10 00     ....P=......8...
  103d48:	1a 1b 10 00 46 1b 10 00                             ....F...

00103d50 <_ZTI12staticring_t>:
  103d50:	48 79 10 00 5c 3d 10 00 74 3d 10 00                 Hy..\=..t=..

00103d5c <_ZTS12staticring_t>:
  103d5c:	31 32 73 74 61 74 69 63 72 69 6e 67 5f 74 00        12staticring_t.

00103d6b <_ZTS7Queue_p>:
  103d6b:	37 51 75 65 75 65 5f 70 00                          7Queue_p.

00103d74 <_ZTI7Queue_p>:
  103d74:	08 79 10 00 6b 3d 10 00 66 90 66 90                 .y..k=..f.f.

00103d80 <_ZTV7Queue_p>:
  103d80:	00 00 00 00 74 3d 10 00 60 41 10 00 60 41 10 00     ....t=..`A..`A..
  103d90:	60 41 10 00 60 41 10 00                             `A..`A..

00103d98 <_ZTV11dynamicring>:
  103d98:	00 00 00 00 b0 3d 10 00 f2 1d 10 00 5c 1e 10 00     .....=......\...
  103da8:	ec 1d 10 00 e6 1d 10 00                             ........

00103db0 <_ZTI11dynamicring>:
  103db0:	48 79 10 00 bc 3d 10 00 74 3d 10 00                 Hy...=..t=..

00103dbc <_ZTS11dynamicring>:
  103dbc:	31 31 64 79 6e 61 6d 69 63 72 69 6e 67 00 66 90     11dynamicring.f.
  103dcc:	66 90 66 90                                         f.f.

00103dd0 <_ZTV6ring_t>:
  103dd0:	00 00 00 00 e8 3d 10 00 9a 20 10 00 2a 20 10 00     .....=... ..* ..
  103de0:	12 21 10 00 3e 21 10 00                             .!..>!..

00103de8 <_ZTI6ring_t>:
  103de8:	48 79 10 00 f4 3d 10 00 74 3d 10 00                 Hy...=..t=..

00103df4 <_ZTS6ring_t>:
  103df4:	36 72 69 6e 67 5f 74 00 66 90 66 90                 6ring_t.f.f.

00103e00 <_ZTV12Object_cache>:
  103e00:	00 00 00 00 20 3e 10 00 24 22 10 00 46 22 10 00     .... >..$"..F"..

00103e10 <_ZTV11Allocator_p>:
  103e10:	00 00 00 00 4c 3e 10 00 60 41 10 00 60 41 10 00     ....L>..`A..`A..

00103e20 <_ZTI12Object_cache>:
  103e20:	48 79 10 00 2c 3e 10 00 4c 3e 10 00                 Hy..,>..L>..

00103e2c <_ZTS12Object_cache>:
  103e2c:	31 32 4f 62 6a 65 63 74 5f 63 61 63 68 65 00        12Object_cache.

00103e3b <_ZTS11Allocator_p>:
  103e3b:	31 31 41 6c 6c 6f 63 61 74 6f 72 5f 70 00 66 90     11Allocator_p.f.
  103e4b:	90                                                  .

00103e4c <_ZTI11Allocator_p>:
  103e4c:	08 79 10 00 3b 3e 10 00 62 6f 6f 74 33 20 4f 4b     .y..;>..boot3 OK
  103e5c:	0d 0a 00 50 4c 41 54 46 4f 52 4d 3a 00 50 43 5f     ...PLATFORM:.PC_
  103e6c:	6d 75 6c 74 69 62 6f 6f 74 00 0d 0a 00 43 50 55     multiboot....CPU
  103e7c:	3a 00 69 33 38 36 00 43 61 6c 6c 20 6d 61 69 6e     :.i386.Call main
  103e8c:	20 66 75 6e 63 74 69 6f 6e 2e 2e 2e 0d 0a 00 00      function.......
  103e9c:	42 4f 4f 54 33 20 46 55 4e 43 54 49 4f 4e 20 45     BOOT3 FUNCTION E
  103eac:	4e 44 2e 20 4b 65 72 6e 65 6c 20 62 65 77 69 6c     ND. Kernel bewil
  103ebc:	64 65 72 6d 65 6e 74 20 3a 29 00 90 53 74 75 62     derment :)..Stub
  103ecc:	49 52 51 00 47 6c 6f 62 61 6c 20 44 65 73 63 72     IRQ.Global Descr
  103edc:	69 70 74 6f 72 73 20 54 61 62 6c 65 20 47 44 54     iptors Table GDT
  103eec:	3a 0a 00 0d 0a 00 00 00 47 6c 6f 62 61 6c 20 44     :.......Global D
  103efc:	65 73 63 72 69 70 74 6f 72 73 20 54 61 62 6c 65     escriptors Table
  103f0c:	20 49 44 54 20 28 62 65 67 69 6e 29 3a 0a 00 90      IDT (begin):...
  103f1c:	63 61 6c 6c 20 63 6f 6e 73 74 72 3a 00 0d 0a 00     call constr:....
  103f2c:	47 65 6e 4f 53 20 62 6f 6f 74 32 20 66 75 6e 63     GenOS boot2 func
  103f3c:	74 69 6f 6e 20 73 75 63 63 65 73 73 66 75 6c 20     tion successful 
  103f4c:	6c 6f 61 64 0d 0a 00 53 65 63 74 69 6f 6e 20 69     load...Section i
  103f5c:	6e 66 6f 3a 0d 0a 00 5f 74 65 78 74 5f 62 65 67     nfo:..._text_beg
  103f6c:	69 6e 20 3a 00 5f 74 65 78 74 5f 65 6e 64 20 20     in :._text_end  
  103f7c:	20 3a 00 5f 64 61 74 61 5f 62 65 67 69 6e 20 3a      :._data_begin :
  103f8c:	00 5f 64 61 74 61 5f 65 6e 64 20 20 20 3a 00 5f     ._data_end   :._
  103f9c:	62 73 73 5f 62 65 67 69 6e 20 20 3a 00 5f 62 73     bss_begin  :._bs
  103fac:	73 5f 65 6e 64 20 20 20 20 3a 00 62 73 73 20 63     s_end    :.bss c
  103fbc:	6c 65 61 6e 2e 2e 2e 20 20 20 00 4f 4b 0d 0a 00     lean...   .OK...
  103fcc:	43 6f 6e 73 74 72 75 63 74 6f 72 20 69 6e 66 6f     Constructor info
  103fdc:	3a 0d 0a 00 5f 5f 70 72 65 69 6e 69 74 5f 61 72     :...__preinit_ar
  103fec:	72 61 79 5f 73 74 61 72 74 3a 00 5f 5f 70 72 65     ray_start:.__pre
  103ffc:	69 6e 69 74 5f 61 72 72 61 79 5f 65 6e 64 20 20     init_array_end  
  10400c:	3a 00 5f 5f 69 6e 69 74 5f 61 72 72 61 79 5f 73     :.__init_array_s
  10401c:	74 61 72 74 20 20 20 3a 00 5f 5f 69 6e 69 74 5f     tart   :.__init_
  10402c:	61 72 72 61 79 5f 65 6e 64 20 20 20 20 20 3a 00     array_end     :.
  10403c:	5f 63 74 6f 72 5f 73 74 61 72 74 20 20 20 20 20     _ctor_start     
  10404c:	20 20 20 20 20 3a 00 5f 63 74 6f 72 5f 65 6e 64          :._ctor_end
  10405c:	20 20 20 20 20 20 20 20 20 20 20 20 3a 00 63 6f                 :.co
  10406c:	6e 73 74 72 20 63 61 6c 6c 3a 0d 0a 00 63 6f 6e     nstr call:...con
  10407c:	73 74 72 20 63 61 6c 6c 20 4f 4b 0d 0a 00 43 61     str call OK...Ca
  10408c:	6c 6c 20 62 6f 6f 74 33 20 66 75 6e 63 74 69 6f     ll boot3 functio
  10409c:	6e 2e 2e 2e 00 00 00 00 42 4f 4f 54 32 20 46 55     n.......BOOT2 FU
  1040ac:	4e 43 54 49 4f 4e 20 45 4e 44 2e 20 4b 65 72 6e     NCTION END. Kern
  1040bc:	65 6c 20 62 65 77 69 6c 64 65 72 6d 65 6e 74 20     el bewilderment 
  1040cc:	3a 29 00 90                                         :)..

001040d0 <_init>:
  1040d0:	53                   	push   %ebx
  1040d1:	83 ec 08             	sub    $0x8,%esp
  1040d4:	e8 57 bf ff ff       	call   100030 <__x86.get_pc_thunk.bx>
  1040d9:	81 c3 bf 1d 00 00    	add    $0x1dbf,%ebx
  1040df:	8b 83 fc ff ff ff    	mov    -0x4(%ebx),%eax
  1040e5:	85 c0                	test   %eax,%eax
  1040e7:	74 05                	je     1040ee <_init+0x1e>
  1040e9:	e8 42 00 00 00       	call   104130 <__fini_array_end+0x18>
  1040ee:	83 c4 08             	add    $0x8,%esp
  1040f1:	5b                   	pop    %ebx
  1040f2:	c3                   	ret    
  1040f3:	90                   	nop

001040f4 <__init_array_start>:
  1040f4:	d0 00                	rolb   (%eax)
  1040f6:	10 00                	adc    %al,(%eax)
  1040f8:	eb 02                	jmp    1040fc <__init_array_start+0x8>
  1040fa:	10 00                	adc    %al,(%eax)
  1040fc:	d4 0f                	aam    $0xf
  1040fe:	10 00                	adc    %al,(%eax)

00104100 <_fini>:
  104100:	53                   	push   %ebx
  104101:	83 ec 08             	sub    $0x8,%esp
  104104:	e8 27 bf ff ff       	call   100030 <__x86.get_pc_thunk.bx>
  104109:	81 c3 8f 1d 00 00    	add    $0x1d8f,%ebx
  10410f:	83 c4 08             	add    $0x8,%esp
  104112:	5b                   	pop    %ebx
  104113:	c3                   	ret    

00104114 <__fini_array_start>:
  104114:	b0 00                	mov    $0x0,%al
  104116:	10 00                	adc    %al,(%eax)

Дизассемблирование раздела .plt:

00104120 <.plt>:
  104120:	ff 35 9c 5e 10 00    	pushl  0x105e9c
  104126:	ff 25 a0 5e 10 00    	jmp    *0x105ea0
  10412c:	00 00                	add    %al,(%eax)
  10412e:	00 00                	add    %al,(%eax)
  104130:	ff 25 a4 5e 10 00    	jmp    *0x105ea4
  104136:	68 00 00 00 00       	push   $0x0
  10413b:	e9 e0 ff ff ff       	jmp    104120 <_text_end+0x8>
  104140:	ff 25 a8 5e 10 00    	jmp    *0x105ea8
  104146:	68 08 00 00 00       	push   $0x8
  10414b:	e9 d0 ff ff ff       	jmp    104120 <_text_end+0x8>
  104150:	ff 25 ac 5e 10 00    	jmp    *0x105eac
  104156:	68 10 00 00 00       	push   $0x10
  10415b:	e9 c0 ff ff ff       	jmp    104120 <_text_end+0x8>
  104160:	ff 25 b0 5e 10 00    	jmp    *0x105eb0
  104166:	68 18 00 00 00       	push   $0x18
  10416b:	e9 b0 ff ff ff       	jmp    104120 <_text_end+0x8>
  104170:	ff 25 b4 5e 10 00    	jmp    *0x105eb4
  104176:	68 20 00 00 00       	push   $0x20
  10417b:	e9 a0 ff ff ff       	jmp    104120 <_text_end+0x8>
  104180:	ff 25 b8 5e 10 00    	jmp    *0x105eb8
  104186:	68 28 00 00 00       	push   $0x28
  10418b:	e9 90 ff ff ff       	jmp    104120 <_text_end+0x8>
  104190:	ff 25 bc 5e 10 00    	jmp    *0x105ebc
  104196:	68 30 00 00 00       	push   $0x30
  10419b:	e9 80 ff ff ff       	jmp    104120 <_text_end+0x8>
  1041a0:	ff 25 c0 5e 10 00    	jmp    *0x105ec0
  1041a6:	68 38 00 00 00       	push   $0x38
  1041ab:	e9 70 ff ff ff       	jmp    104120 <_text_end+0x8>
